GAS LISTING /tmp/ccy4oBQd.s 			page 1


   1              		.file	"main.cpp"
   2              		.option pic
   3              		.option norelax
   4              		.text
   5              	.Ltext0:
   6              		.section	.text._ZN7WorkerAD2Ev,"axG",@progbits,_ZN7WorkerAD5Ev,comdat
   7              		.align	2
   8              		.weak	_ZN7WorkerAD2Ev
  10              	_ZN7WorkerAD2Ev:
  11              	.LFB145:
  12              		.file 1 "src/../h/Z_Njihovo_Threads_CPP_API_Test.hpp"
   1:src/../h/Z_Njihovo_Threads_CPP_API_Test.hpp **** #ifndef Z_NJIHOVO_THREADS_CPP_API_TEST_HPP
   2:src/../h/Z_Njihovo_Threads_CPP_API_Test.hpp **** #define Z_NJIHOVO_THREADS_CPP_API_TEST_HPP
   3:src/../h/Z_Njihovo_Threads_CPP_API_Test.hpp **** 
   4:src/../h/Z_Njihovo_Threads_CPP_API_Test.hpp **** #include "../h/syscall_cpp.hpp"
   5:src/../h/Z_Njihovo_Threads_CPP_API_Test.hpp **** 
   6:src/../h/Z_Njihovo_Threads_CPP_API_Test.hpp **** #include "Z_Njihovo_Printing.hpp"
   7:src/../h/Z_Njihovo_Threads_CPP_API_Test.hpp **** 
   8:src/../h/Z_Njihovo_Threads_CPP_API_Test.hpp **** bool finishedA = false;
   9:src/../h/Z_Njihovo_Threads_CPP_API_Test.hpp **** bool finishedB = false;
  10:src/../h/Z_Njihovo_Threads_CPP_API_Test.hpp **** bool finishedC = false;
  11:src/../h/Z_Njihovo_Threads_CPP_API_Test.hpp **** bool finishedD = false;
  12:src/../h/Z_Njihovo_Threads_CPP_API_Test.hpp **** 
  13:src/../h/Z_Njihovo_Threads_CPP_API_Test.hpp **** uint64 fibonacci(uint64 n) {
  14:src/../h/Z_Njihovo_Threads_CPP_API_Test.hpp ****     if (n == 0 || n == 1) { return n; }
  15:src/../h/Z_Njihovo_Threads_CPP_API_Test.hpp ****     if (n % 10 == 0) { thread_dispatch(); }
  16:src/../h/Z_Njihovo_Threads_CPP_API_Test.hpp ****     return fibonacci(n - 1) + fibonacci(n - 2);
  17:src/../h/Z_Njihovo_Threads_CPP_API_Test.hpp **** }
  18:src/../h/Z_Njihovo_Threads_CPP_API_Test.hpp **** 
  19:src/../h/Z_Njihovo_Threads_CPP_API_Test.hpp **** class WorkerA: public Thread {
  13              		.loc 1 19 7
  14              		.cfi_startproc
  15              	.LVL0:
  16 0000 130101FF 		addi	sp,sp,-16
  17              		.cfi_def_cfa_offset 16
  18 0004 23341100 		sd	ra,8(sp)
  19 0008 23308100 		sd	s0,0(sp)
  20              		.cfi_offset 1, -8
  21              		.cfi_offset 8, -16
  22 000c 13040101 		addi	s0,sp,16
  23              		.cfi_def_cfa 8, 0
  24              	.LBB97:
  25              		.loc 1 19 7 is_stmt 0
  26 0010 97070000 		lla	a5,_ZTV7WorkerA+16
  26      93870700 
  27 0018 2330F500 		sd	a5,0(a0)
  28 001c 97000000 		call	_ZN6ThreadD2Ev@plt
  28      E7800000 
  29              	.LVL1:
  30              	.LBE97:
  31 0024 83308100 		ld	ra,8(sp)
  32              		.cfi_restore 1
  33 0028 03340100 		ld	s0,0(sp)
  34              		.cfi_restore 8
  35              		.cfi_def_cfa 2, 16
  36 002c 13010101 		addi	sp,sp,16
  37              		.cfi_def_cfa_offset 0
GAS LISTING /tmp/ccy4oBQd.s 			page 2


  38 0030 67800000 		jr	ra
  39              		.cfi_endproc
  40              	.LFE145:
  42              		.weak	_ZN7WorkerAD1Ev
  43              		.set	_ZN7WorkerAD1Ev,_ZN7WorkerAD2Ev
  44              		.section	.text._ZN7WorkerAD0Ev,"axG",@progbits,_ZN7WorkerAD5Ev,comdat
  45              		.align	2
  46              		.weak	_ZN7WorkerAD0Ev
  48              	_ZN7WorkerAD0Ev:
  49              	.LFB147:
  50              		.loc 1 19 7 is_stmt 1
  51              		.cfi_startproc
  52              	.LVL2:
  53 0000 130101FE 		addi	sp,sp,-32
  54              		.cfi_def_cfa_offset 32
  55 0004 233C1100 		sd	ra,24(sp)
  56 0008 23388100 		sd	s0,16(sp)
  57 000c 23349100 		sd	s1,8(sp)
  58              		.cfi_offset 1, -8
  59              		.cfi_offset 8, -16
  60              		.cfi_offset 9, -24
  61 0010 13040102 		addi	s0,sp,32
  62              		.cfi_def_cfa 8, 0
  63 0014 93040500 		mv	s1,a0
  64              	.LVL3:
  65              	.LBB98:
  66              	.LBB99:
  67              		.loc 1 19 7 is_stmt 0
  68 0018 97070000 		lla	a5,_ZTV7WorkerA+16
  68      93870700 
  69 0020 2330F500 		sd	a5,0(a0)
  70 0024 97000000 		call	_ZN6ThreadD2Ev@plt
  70      E7800000 
  71              	.LVL4:
  72              	.LBE99:
  73              	.LBE98:
  74 002c 13850400 		mv	a0,s1
  75 0030 97000000 		call	_ZdlPv@plt
  75      E7800000 
  76              	.LVL5:
  77 0038 83308101 		ld	ra,24(sp)
  78              		.cfi_restore 1
  79 003c 03340101 		ld	s0,16(sp)
  80              		.cfi_restore 8
  81              		.cfi_def_cfa 2, 32
  82 0040 83348100 		ld	s1,8(sp)
  83              		.cfi_restore 9
  84              	.LVL6:
  85 0044 13010102 		addi	sp,sp,32
  86              		.cfi_def_cfa_offset 0
  87 0048 67800000 		jr	ra
  88              		.cfi_endproc
  89              	.LFE147:
  91              		.section	.text._ZN7WorkerBD2Ev,"axG",@progbits,_ZN7WorkerBD5Ev,comdat
  92              		.align	2
  93              		.weak	_ZN7WorkerBD2Ev
  95              	_ZN7WorkerBD2Ev:
GAS LISTING /tmp/ccy4oBQd.s 			page 3


  96              	.LFB141:
  20:src/../h/Z_Njihovo_Threads_CPP_API_Test.hpp ****     void workerBodyA(void* arg);
  21:src/../h/Z_Njihovo_Threads_CPP_API_Test.hpp **** public:
  22:src/../h/Z_Njihovo_Threads_CPP_API_Test.hpp ****     WorkerA():Thread() {}
  23:src/../h/Z_Njihovo_Threads_CPP_API_Test.hpp **** 
  24:src/../h/Z_Njihovo_Threads_CPP_API_Test.hpp ****     void run() override {
  25:src/../h/Z_Njihovo_Threads_CPP_API_Test.hpp ****         workerBodyA(nullptr);
  26:src/../h/Z_Njihovo_Threads_CPP_API_Test.hpp ****     }
  27:src/../h/Z_Njihovo_Threads_CPP_API_Test.hpp **** };
  28:src/../h/Z_Njihovo_Threads_CPP_API_Test.hpp **** 
  29:src/../h/Z_Njihovo_Threads_CPP_API_Test.hpp **** class WorkerB: public Thread {
  97              		.loc 1 29 7 is_stmt 1
  98              		.cfi_startproc
  99              	.LVL7:
 100 0000 130101FF 		addi	sp,sp,-16
 101              		.cfi_def_cfa_offset 16
 102 0004 23341100 		sd	ra,8(sp)
 103 0008 23308100 		sd	s0,0(sp)
 104              		.cfi_offset 1, -8
 105              		.cfi_offset 8, -16
 106 000c 13040101 		addi	s0,sp,16
 107              		.cfi_def_cfa 8, 0
 108              	.LBB100:
 109              		.loc 1 29 7 is_stmt 0
 110 0010 97070000 		lla	a5,_ZTV7WorkerB+16
 110      93870700 
 111 0018 2330F500 		sd	a5,0(a0)
 112 001c 97000000 		call	_ZN6ThreadD2Ev@plt
 112      E7800000 
 113              	.LVL8:
 114              	.LBE100:
 115 0024 83308100 		ld	ra,8(sp)
 116              		.cfi_restore 1
 117 0028 03340100 		ld	s0,0(sp)
 118              		.cfi_restore 8
 119              		.cfi_def_cfa 2, 16
 120 002c 13010101 		addi	sp,sp,16
 121              		.cfi_def_cfa_offset 0
 122 0030 67800000 		jr	ra
 123              		.cfi_endproc
 124              	.LFE141:
 126              		.weak	_ZN7WorkerBD1Ev
 127              		.set	_ZN7WorkerBD1Ev,_ZN7WorkerBD2Ev
 128              		.section	.text._ZN7WorkerBD0Ev,"axG",@progbits,_ZN7WorkerBD5Ev,comdat
 129              		.align	2
 130              		.weak	_ZN7WorkerBD0Ev
 132              	_ZN7WorkerBD0Ev:
 133              	.LFB143:
 134              		.loc 1 29 7 is_stmt 1
 135              		.cfi_startproc
 136              	.LVL9:
 137 0000 130101FE 		addi	sp,sp,-32
 138              		.cfi_def_cfa_offset 32
 139 0004 233C1100 		sd	ra,24(sp)
 140 0008 23388100 		sd	s0,16(sp)
 141 000c 23349100 		sd	s1,8(sp)
 142              		.cfi_offset 1, -8
GAS LISTING /tmp/ccy4oBQd.s 			page 4


 143              		.cfi_offset 8, -16
 144              		.cfi_offset 9, -24
 145 0010 13040102 		addi	s0,sp,32
 146              		.cfi_def_cfa 8, 0
 147 0014 93040500 		mv	s1,a0
 148              	.LVL10:
 149              	.LBB101:
 150              	.LBB102:
 151              		.loc 1 29 7 is_stmt 0
 152 0018 97070000 		lla	a5,_ZTV7WorkerB+16
 152      93870700 
 153 0020 2330F500 		sd	a5,0(a0)
 154 0024 97000000 		call	_ZN6ThreadD2Ev@plt
 154      E7800000 
 155              	.LVL11:
 156              	.LBE102:
 157              	.LBE101:
 158 002c 13850400 		mv	a0,s1
 159 0030 97000000 		call	_ZdlPv@plt
 159      E7800000 
 160              	.LVL12:
 161 0038 83308101 		ld	ra,24(sp)
 162              		.cfi_restore 1
 163 003c 03340101 		ld	s0,16(sp)
 164              		.cfi_restore 8
 165              		.cfi_def_cfa 2, 32
 166 0040 83348100 		ld	s1,8(sp)
 167              		.cfi_restore 9
 168              	.LVL13:
 169 0044 13010102 		addi	sp,sp,32
 170              		.cfi_def_cfa_offset 0
 171 0048 67800000 		jr	ra
 172              		.cfi_endproc
 173              	.LFE143:
 175              		.section	.text._ZN7WorkerCD2Ev,"axG",@progbits,_ZN7WorkerCD5Ev,comdat
 176              		.align	2
 177              		.weak	_ZN7WorkerCD2Ev
 179              	_ZN7WorkerCD2Ev:
 180              	.LFB137:
  30:src/../h/Z_Njihovo_Threads_CPP_API_Test.hpp ****     void workerBodyB(void* arg);
  31:src/../h/Z_Njihovo_Threads_CPP_API_Test.hpp **** public:
  32:src/../h/Z_Njihovo_Threads_CPP_API_Test.hpp ****     WorkerB():Thread() {}
  33:src/../h/Z_Njihovo_Threads_CPP_API_Test.hpp **** 
  34:src/../h/Z_Njihovo_Threads_CPP_API_Test.hpp ****     void run() override {
  35:src/../h/Z_Njihovo_Threads_CPP_API_Test.hpp ****         workerBodyB(nullptr);
  36:src/../h/Z_Njihovo_Threads_CPP_API_Test.hpp ****     }
  37:src/../h/Z_Njihovo_Threads_CPP_API_Test.hpp **** };
  38:src/../h/Z_Njihovo_Threads_CPP_API_Test.hpp **** 
  39:src/../h/Z_Njihovo_Threads_CPP_API_Test.hpp **** class WorkerC: public Thread {
 181              		.loc 1 39 7 is_stmt 1
 182              		.cfi_startproc
 183              	.LVL14:
 184 0000 130101FF 		addi	sp,sp,-16
 185              		.cfi_def_cfa_offset 16
 186 0004 23341100 		sd	ra,8(sp)
 187 0008 23308100 		sd	s0,0(sp)
 188              		.cfi_offset 1, -8
GAS LISTING /tmp/ccy4oBQd.s 			page 5


 189              		.cfi_offset 8, -16
 190 000c 13040101 		addi	s0,sp,16
 191              		.cfi_def_cfa 8, 0
 192              	.LBB103:
 193              		.loc 1 39 7 is_stmt 0
 194 0010 97070000 		lla	a5,_ZTV7WorkerC+16
 194      93870700 
 195 0018 2330F500 		sd	a5,0(a0)
 196 001c 97000000 		call	_ZN6ThreadD2Ev@plt
 196      E7800000 
 197              	.LVL15:
 198              	.LBE103:
 199 0024 83308100 		ld	ra,8(sp)
 200              		.cfi_restore 1
 201 0028 03340100 		ld	s0,0(sp)
 202              		.cfi_restore 8
 203              		.cfi_def_cfa 2, 16
 204 002c 13010101 		addi	sp,sp,16
 205              		.cfi_def_cfa_offset 0
 206 0030 67800000 		jr	ra
 207              		.cfi_endproc
 208              	.LFE137:
 210              		.weak	_ZN7WorkerCD1Ev
 211              		.set	_ZN7WorkerCD1Ev,_ZN7WorkerCD2Ev
 212              		.section	.text._ZN7WorkerCD0Ev,"axG",@progbits,_ZN7WorkerCD5Ev,comdat
 213              		.align	2
 214              		.weak	_ZN7WorkerCD0Ev
 216              	_ZN7WorkerCD0Ev:
 217              	.LFB139:
 218              		.loc 1 39 7 is_stmt 1
 219              		.cfi_startproc
 220              	.LVL16:
 221 0000 130101FE 		addi	sp,sp,-32
 222              		.cfi_def_cfa_offset 32
 223 0004 233C1100 		sd	ra,24(sp)
 224 0008 23388100 		sd	s0,16(sp)
 225 000c 23349100 		sd	s1,8(sp)
 226              		.cfi_offset 1, -8
 227              		.cfi_offset 8, -16
 228              		.cfi_offset 9, -24
 229 0010 13040102 		addi	s0,sp,32
 230              		.cfi_def_cfa 8, 0
 231 0014 93040500 		mv	s1,a0
 232              	.LVL17:
 233              	.LBB104:
 234              	.LBB105:
 235              		.loc 1 39 7 is_stmt 0
 236 0018 97070000 		lla	a5,_ZTV7WorkerC+16
 236      93870700 
 237 0020 2330F500 		sd	a5,0(a0)
 238 0024 97000000 		call	_ZN6ThreadD2Ev@plt
 238      E7800000 
 239              	.LVL18:
 240              	.LBE105:
 241              	.LBE104:
 242 002c 13850400 		mv	a0,s1
 243 0030 97000000 		call	_ZdlPv@plt
GAS LISTING /tmp/ccy4oBQd.s 			page 6


 243      E7800000 
 244              	.LVL19:
 245 0038 83308101 		ld	ra,24(sp)
 246              		.cfi_restore 1
 247 003c 03340101 		ld	s0,16(sp)
 248              		.cfi_restore 8
 249              		.cfi_def_cfa 2, 32
 250 0040 83348100 		ld	s1,8(sp)
 251              		.cfi_restore 9
 252              	.LVL20:
 253 0044 13010102 		addi	sp,sp,32
 254              		.cfi_def_cfa_offset 0
 255 0048 67800000 		jr	ra
 256              		.cfi_endproc
 257              	.LFE139:
 259              		.section	.text._ZN7WorkerDD2Ev,"axG",@progbits,_ZN7WorkerDD5Ev,comdat
 260              		.align	2
 261              		.weak	_ZN7WorkerDD2Ev
 263              	_ZN7WorkerDD2Ev:
 264              	.LFB133:
  40:src/../h/Z_Njihovo_Threads_CPP_API_Test.hpp ****     void workerBodyC(void* arg);
  41:src/../h/Z_Njihovo_Threads_CPP_API_Test.hpp **** public:
  42:src/../h/Z_Njihovo_Threads_CPP_API_Test.hpp ****     WorkerC():Thread() {}
  43:src/../h/Z_Njihovo_Threads_CPP_API_Test.hpp **** 
  44:src/../h/Z_Njihovo_Threads_CPP_API_Test.hpp ****     void run() override {
  45:src/../h/Z_Njihovo_Threads_CPP_API_Test.hpp ****         workerBodyC(nullptr);
  46:src/../h/Z_Njihovo_Threads_CPP_API_Test.hpp ****     }
  47:src/../h/Z_Njihovo_Threads_CPP_API_Test.hpp **** };
  48:src/../h/Z_Njihovo_Threads_CPP_API_Test.hpp **** 
  49:src/../h/Z_Njihovo_Threads_CPP_API_Test.hpp **** class WorkerD: public Thread {
 265              		.loc 1 49 7 is_stmt 1
 266              		.cfi_startproc
 267              	.LVL21:
 268 0000 130101FF 		addi	sp,sp,-16
 269              		.cfi_def_cfa_offset 16
 270 0004 23341100 		sd	ra,8(sp)
 271 0008 23308100 		sd	s0,0(sp)
 272              		.cfi_offset 1, -8
 273              		.cfi_offset 8, -16
 274 000c 13040101 		addi	s0,sp,16
 275              		.cfi_def_cfa 8, 0
 276              	.LBB106:
 277              		.loc 1 49 7 is_stmt 0
 278 0010 97070000 		lla	a5,_ZTV7WorkerD+16
 278      93870700 
 279 0018 2330F500 		sd	a5,0(a0)
 280 001c 97000000 		call	_ZN6ThreadD2Ev@plt
 280      E7800000 
 281              	.LVL22:
 282              	.LBE106:
 283 0024 83308100 		ld	ra,8(sp)
 284              		.cfi_restore 1
 285 0028 03340100 		ld	s0,0(sp)
 286              		.cfi_restore 8
 287              		.cfi_def_cfa 2, 16
 288 002c 13010101 		addi	sp,sp,16
 289              		.cfi_def_cfa_offset 0
GAS LISTING /tmp/ccy4oBQd.s 			page 7


 290 0030 67800000 		jr	ra
 291              		.cfi_endproc
 292              	.LFE133:
 294              		.weak	_ZN7WorkerDD1Ev
 295              		.set	_ZN7WorkerDD1Ev,_ZN7WorkerDD2Ev
 296              		.section	.text._ZN7WorkerDD0Ev,"axG",@progbits,_ZN7WorkerDD5Ev,comdat
 297              		.align	2
 298              		.weak	_ZN7WorkerDD0Ev
 300              	_ZN7WorkerDD0Ev:
 301              	.LFB135:
 302              		.loc 1 49 7 is_stmt 1
 303              		.cfi_startproc
 304              	.LVL23:
 305 0000 130101FE 		addi	sp,sp,-32
 306              		.cfi_def_cfa_offset 32
 307 0004 233C1100 		sd	ra,24(sp)
 308 0008 23388100 		sd	s0,16(sp)
 309 000c 23349100 		sd	s1,8(sp)
 310              		.cfi_offset 1, -8
 311              		.cfi_offset 8, -16
 312              		.cfi_offset 9, -24
 313 0010 13040102 		addi	s0,sp,32
 314              		.cfi_def_cfa 8, 0
 315 0014 93040500 		mv	s1,a0
 316              	.LVL24:
 317              	.LBB107:
 318              	.LBB108:
 319              		.loc 1 49 7 is_stmt 0
 320 0018 97070000 		lla	a5,_ZTV7WorkerD+16
 320      93870700 
 321 0020 2330F500 		sd	a5,0(a0)
 322 0024 97000000 		call	_ZN6ThreadD2Ev@plt
 322      E7800000 
 323              	.LVL25:
 324              	.LBE108:
 325              	.LBE107:
 326 002c 13850400 		mv	a0,s1
 327 0030 97000000 		call	_ZdlPv@plt
 327      E7800000 
 328              	.LVL26:
 329 0038 83308101 		ld	ra,24(sp)
 330              		.cfi_restore 1
 331 003c 03340101 		ld	s0,16(sp)
 332              		.cfi_restore 8
 333              		.cfi_def_cfa 2, 32
 334 0040 83348100 		ld	s1,8(sp)
 335              		.cfi_restore 9
 336              	.LVL27:
 337 0044 13010102 		addi	sp,sp,32
 338              		.cfi_def_cfa_offset 0
 339 0048 67800000 		jr	ra
 340              		.cfi_endproc
 341              	.LFE135:
 343              		.section	.text._ZN19ConsumerProducerCPP8ConsumerD2Ev,"axG",@progbits,_ZN19ConsumerProducerCPP8Cons
 344              		.align	2
 345              		.weak	_ZN19ConsumerProducerCPP8ConsumerD2Ev
 347              	_ZN19ConsumerProducerCPP8ConsumerD2Ev:
GAS LISTING /tmp/ccy4oBQd.s 			page 8


 348              	.LFB121:
 349              		.file 2 "src/../h/Z_Njihovo_Consumer_Producer_CPP_API_Test.hpp"
   1:src/../h/Z_Njihovo_Consumer_Producer_CPP_API_Test.hpp **** #ifndef Z_NJIHOVO_CONSUMER_PRODUCER_CPP_API_TEST_HPP
   2:src/../h/Z_Njihovo_Consumer_Producer_CPP_API_Test.hpp **** #define Z_NJIHOVO_CONSUMER_PRODUCER_CPP_API_TEST_HPP
   3:src/../h/Z_Njihovo_Consumer_Producer_CPP_API_Test.hpp **** 
   4:src/../h/Z_Njihovo_Consumer_Producer_CPP_API_Test.hpp **** #include "../h/syscall_cpp.hpp"
   5:src/../h/Z_Njihovo_Consumer_Producer_CPP_API_Test.hpp **** 
   6:src/../h/Z_Njihovo_Consumer_Producer_CPP_API_Test.hpp **** #include "Z_Njihovo_Buffer_CPP_API.hpp"
   7:src/../h/Z_Njihovo_Consumer_Producer_CPP_API_Test.hpp **** #include "Z_Njihovo_Printing.hpp"
   8:src/../h/Z_Njihovo_Consumer_Producer_CPP_API_Test.hpp **** 
   9:src/../h/Z_Njihovo_Consumer_Producer_CPP_API_Test.hpp **** namespace ConsumerProducerCPP {
  10:src/../h/Z_Njihovo_Consumer_Producer_CPP_API_Test.hpp **** 
  11:src/../h/Z_Njihovo_Consumer_Producer_CPP_API_Test.hpp ****     Semaphore *waitForAll;
  12:src/../h/Z_Njihovo_Consumer_Producer_CPP_API_Test.hpp **** 
  13:src/../h/Z_Njihovo_Consumer_Producer_CPP_API_Test.hpp ****     struct thread_data {
  14:src/../h/Z_Njihovo_Consumer_Producer_CPP_API_Test.hpp ****         int id;
  15:src/../h/Z_Njihovo_Consumer_Producer_CPP_API_Test.hpp ****         BufferCPP *buffer;
  16:src/../h/Z_Njihovo_Consumer_Producer_CPP_API_Test.hpp ****         Semaphore *sem;
  17:src/../h/Z_Njihovo_Consumer_Producer_CPP_API_Test.hpp ****     };
  18:src/../h/Z_Njihovo_Consumer_Producer_CPP_API_Test.hpp **** 
  19:src/../h/Z_Njihovo_Consumer_Producer_CPP_API_Test.hpp ****     volatile int threadEnd = 0;
  20:src/../h/Z_Njihovo_Consumer_Producer_CPP_API_Test.hpp **** 
  21:src/../h/Z_Njihovo_Consumer_Producer_CPP_API_Test.hpp ****     class ProducerKeyborad : public Thread {
  22:src/../h/Z_Njihovo_Consumer_Producer_CPP_API_Test.hpp ****         thread_data *td;
  23:src/../h/Z_Njihovo_Consumer_Producer_CPP_API_Test.hpp ****     public:
  24:src/../h/Z_Njihovo_Consumer_Producer_CPP_API_Test.hpp ****         ProducerKeyborad(thread_data *_td) : Thread(), td(_td) {}
  25:src/../h/Z_Njihovo_Consumer_Producer_CPP_API_Test.hpp **** 
  26:src/../h/Z_Njihovo_Consumer_Producer_CPP_API_Test.hpp ****         void run() override {
  27:src/../h/Z_Njihovo_Consumer_Producer_CPP_API_Test.hpp ****             int key;
  28:src/../h/Z_Njihovo_Consumer_Producer_CPP_API_Test.hpp ****             int i = 0;
  29:src/../h/Z_Njihovo_Consumer_Producer_CPP_API_Test.hpp ****             while ((key = getc()) != 0x1b) {
  30:src/../h/Z_Njihovo_Consumer_Producer_CPP_API_Test.hpp ****                 td->buffer->put(key);
  31:src/../h/Z_Njihovo_Consumer_Producer_CPP_API_Test.hpp ****                 i++;
  32:src/../h/Z_Njihovo_Consumer_Producer_CPP_API_Test.hpp ****             }
  33:src/../h/Z_Njihovo_Consumer_Producer_CPP_API_Test.hpp **** 
  34:src/../h/Z_Njihovo_Consumer_Producer_CPP_API_Test.hpp ****             threadEnd = 1;
  35:src/../h/Z_Njihovo_Consumer_Producer_CPP_API_Test.hpp ****             td->buffer->put('!');
  36:src/../h/Z_Njihovo_Consumer_Producer_CPP_API_Test.hpp **** 
  37:src/../h/Z_Njihovo_Consumer_Producer_CPP_API_Test.hpp ****             td->sem->signal();
  38:src/../h/Z_Njihovo_Consumer_Producer_CPP_API_Test.hpp ****         }
  39:src/../h/Z_Njihovo_Consumer_Producer_CPP_API_Test.hpp ****     };
  40:src/../h/Z_Njihovo_Consumer_Producer_CPP_API_Test.hpp **** 
  41:src/../h/Z_Njihovo_Consumer_Producer_CPP_API_Test.hpp ****     class Producer : public Thread {
  42:src/../h/Z_Njihovo_Consumer_Producer_CPP_API_Test.hpp ****         thread_data *td;
  43:src/../h/Z_Njihovo_Consumer_Producer_CPP_API_Test.hpp ****     public:
  44:src/../h/Z_Njihovo_Consumer_Producer_CPP_API_Test.hpp ****         Producer(thread_data *_td) : Thread(), td(_td) {}
  45:src/../h/Z_Njihovo_Consumer_Producer_CPP_API_Test.hpp **** 
  46:src/../h/Z_Njihovo_Consumer_Producer_CPP_API_Test.hpp ****         void run() override {
  47:src/../h/Z_Njihovo_Consumer_Producer_CPP_API_Test.hpp ****             int i = 0;
  48:src/../h/Z_Njihovo_Consumer_Producer_CPP_API_Test.hpp ****             while (!threadEnd) {
  49:src/../h/Z_Njihovo_Consumer_Producer_CPP_API_Test.hpp ****                 td->buffer->put(td->id + '0');
  50:src/../h/Z_Njihovo_Consumer_Producer_CPP_API_Test.hpp ****                 i++;
  51:src/../h/Z_Njihovo_Consumer_Producer_CPP_API_Test.hpp ****                 Thread::sleep((i+td->id)%5);
  52:src/../h/Z_Njihovo_Consumer_Producer_CPP_API_Test.hpp ****             }
  53:src/../h/Z_Njihovo_Consumer_Producer_CPP_API_Test.hpp **** 
  54:src/../h/Z_Njihovo_Consumer_Producer_CPP_API_Test.hpp ****             td->sem->signal();
  55:src/../h/Z_Njihovo_Consumer_Producer_CPP_API_Test.hpp ****         }
GAS LISTING /tmp/ccy4oBQd.s 			page 9


  56:src/../h/Z_Njihovo_Consumer_Producer_CPP_API_Test.hpp ****     };
  57:src/../h/Z_Njihovo_Consumer_Producer_CPP_API_Test.hpp **** 
  58:src/../h/Z_Njihovo_Consumer_Producer_CPP_API_Test.hpp ****     class Consumer : public Thread {
 350              		.loc 2 58 11 is_stmt 1
 351              		.cfi_startproc
 352              	.LVL28:
 353 0000 130101FF 		addi	sp,sp,-16
 354              		.cfi_def_cfa_offset 16
 355 0004 23341100 		sd	ra,8(sp)
 356 0008 23308100 		sd	s0,0(sp)
 357              		.cfi_offset 1, -8
 358              		.cfi_offset 8, -16
 359 000c 13040101 		addi	s0,sp,16
 360              		.cfi_def_cfa 8, 0
 361              	.LBB109:
 362              		.loc 2 58 11 is_stmt 0
 363 0010 97070000 		lla	a5,_ZTVN19ConsumerProducerCPP8ConsumerE+16
 363      93870700 
 364 0018 2330F500 		sd	a5,0(a0)
 365 001c 97000000 		call	_ZN6ThreadD2Ev@plt
 365      E7800000 
 366              	.LVL29:
 367              	.LBE109:
 368 0024 83308100 		ld	ra,8(sp)
 369              		.cfi_restore 1
 370 0028 03340100 		ld	s0,0(sp)
 371              		.cfi_restore 8
 372              		.cfi_def_cfa 2, 16
 373 002c 13010101 		addi	sp,sp,16
 374              		.cfi_def_cfa_offset 0
 375 0030 67800000 		jr	ra
 376              		.cfi_endproc
 377              	.LFE121:
 379              		.weak	_ZN19ConsumerProducerCPP8ConsumerD1Ev
 380              		.set	_ZN19ConsumerProducerCPP8ConsumerD1Ev,_ZN19ConsumerProducerCPP8ConsumerD2Ev
 381              		.section	.text._ZN19ConsumerProducerCPP8ConsumerD0Ev,"axG",@progbits,_ZN19ConsumerProducerCPP8Cons
 382              		.align	2
 383              		.weak	_ZN19ConsumerProducerCPP8ConsumerD0Ev
 385              	_ZN19ConsumerProducerCPP8ConsumerD0Ev:
 386              	.LFB123:
 387              		.loc 2 58 11 is_stmt 1
 388              		.cfi_startproc
 389              	.LVL30:
 390 0000 130101FE 		addi	sp,sp,-32
 391              		.cfi_def_cfa_offset 32
 392 0004 233C1100 		sd	ra,24(sp)
 393 0008 23388100 		sd	s0,16(sp)
 394 000c 23349100 		sd	s1,8(sp)
 395              		.cfi_offset 1, -8
 396              		.cfi_offset 8, -16
 397              		.cfi_offset 9, -24
 398 0010 13040102 		addi	s0,sp,32
 399              		.cfi_def_cfa 8, 0
 400 0014 93040500 		mv	s1,a0
 401              	.LVL31:
 402              	.LBB110:
 403              	.LBB111:
GAS LISTING /tmp/ccy4oBQd.s 			page 10


 404              		.loc 2 58 11 is_stmt 0
 405 0018 97070000 		lla	a5,_ZTVN19ConsumerProducerCPP8ConsumerE+16
 405      93870700 
 406 0020 2330F500 		sd	a5,0(a0)
 407 0024 97000000 		call	_ZN6ThreadD2Ev@plt
 407      E7800000 
 408              	.LVL32:
 409              	.LBE111:
 410              	.LBE110:
 411 002c 13850400 		mv	a0,s1
 412 0030 97000000 		call	_ZdlPv@plt
 412      E7800000 
 413              	.LVL33:
 414 0038 83308101 		ld	ra,24(sp)
 415              		.cfi_restore 1
 416 003c 03340101 		ld	s0,16(sp)
 417              		.cfi_restore 8
 418              		.cfi_def_cfa 2, 32
 419 0040 83348100 		ld	s1,8(sp)
 420              		.cfi_restore 9
 421              	.LVL34:
 422 0044 13010102 		addi	sp,sp,32
 423              		.cfi_def_cfa_offset 0
 424 0048 67800000 		jr	ra
 425              		.cfi_endproc
 426              	.LFE123:
 428              		.section	.text._ZN19ConsumerProducerCPP16ProducerKeyboradD2Ev,"axG",@progbits,_ZN19ConsumerProduce
 429              		.align	2
 430              		.weak	_ZN19ConsumerProducerCPP16ProducerKeyboradD2Ev
 432              	_ZN19ConsumerProducerCPP16ProducerKeyboradD2Ev:
 433              	.LFB129:
  21:src/../h/Z_Njihovo_Consumer_Producer_CPP_API_Test.hpp ****         thread_data *td;
 434              		.loc 2 21 11 is_stmt 1
 435              		.cfi_startproc
 436              	.LVL35:
 437 0000 130101FF 		addi	sp,sp,-16
 438              		.cfi_def_cfa_offset 16
 439 0004 23341100 		sd	ra,8(sp)
 440 0008 23308100 		sd	s0,0(sp)
 441              		.cfi_offset 1, -8
 442              		.cfi_offset 8, -16
 443 000c 13040101 		addi	s0,sp,16
 444              		.cfi_def_cfa 8, 0
 445              	.LBB112:
  21:src/../h/Z_Njihovo_Consumer_Producer_CPP_API_Test.hpp ****         thread_data *td;
 446              		.loc 2 21 11 is_stmt 0
 447 0010 97070000 		lla	a5,_ZTVN19ConsumerProducerCPP16ProducerKeyboradE+16
 447      93870700 
 448 0018 2330F500 		sd	a5,0(a0)
 449 001c 97000000 		call	_ZN6ThreadD2Ev@plt
 449      E7800000 
 450              	.LVL36:
 451              	.LBE112:
 452 0024 83308100 		ld	ra,8(sp)
 453              		.cfi_restore 1
 454 0028 03340100 		ld	s0,0(sp)
 455              		.cfi_restore 8
GAS LISTING /tmp/ccy4oBQd.s 			page 11


 456              		.cfi_def_cfa 2, 16
 457 002c 13010101 		addi	sp,sp,16
 458              		.cfi_def_cfa_offset 0
 459 0030 67800000 		jr	ra
 460              		.cfi_endproc
 461              	.LFE129:
 463              		.weak	_ZN19ConsumerProducerCPP16ProducerKeyboradD1Ev
 464              		.set	_ZN19ConsumerProducerCPP16ProducerKeyboradD1Ev,_ZN19ConsumerProducerCPP16ProducerKeyboradD2Ev
 465              		.section	.text._ZN19ConsumerProducerCPP16ProducerKeyboradD0Ev,"axG",@progbits,_ZN19ConsumerProduce
 466              		.align	2
 467              		.weak	_ZN19ConsumerProducerCPP16ProducerKeyboradD0Ev
 469              	_ZN19ConsumerProducerCPP16ProducerKeyboradD0Ev:
 470              	.LFB131:
  21:src/../h/Z_Njihovo_Consumer_Producer_CPP_API_Test.hpp ****         thread_data *td;
 471              		.loc 2 21 11 is_stmt 1
 472              		.cfi_startproc
 473              	.LVL37:
 474 0000 130101FE 		addi	sp,sp,-32
 475              		.cfi_def_cfa_offset 32
 476 0004 233C1100 		sd	ra,24(sp)
 477 0008 23388100 		sd	s0,16(sp)
 478 000c 23349100 		sd	s1,8(sp)
 479              		.cfi_offset 1, -8
 480              		.cfi_offset 8, -16
 481              		.cfi_offset 9, -24
 482 0010 13040102 		addi	s0,sp,32
 483              		.cfi_def_cfa 8, 0
 484 0014 93040500 		mv	s1,a0
 485              	.LVL38:
 486              	.LBB113:
 487              	.LBB114:
  21:src/../h/Z_Njihovo_Consumer_Producer_CPP_API_Test.hpp ****         thread_data *td;
 488              		.loc 2 21 11 is_stmt 0
 489 0018 97070000 		lla	a5,_ZTVN19ConsumerProducerCPP16ProducerKeyboradE+16
 489      93870700 
 490 0020 2330F500 		sd	a5,0(a0)
 491 0024 97000000 		call	_ZN6ThreadD2Ev@plt
 491      E7800000 
 492              	.LVL39:
 493              	.LBE114:
 494              	.LBE113:
 495 002c 13850400 		mv	a0,s1
 496 0030 97000000 		call	_ZdlPv@plt
 496      E7800000 
 497              	.LVL40:
 498 0038 83308101 		ld	ra,24(sp)
 499              		.cfi_restore 1
 500 003c 03340101 		ld	s0,16(sp)
 501              		.cfi_restore 8
 502              		.cfi_def_cfa 2, 32
 503 0040 83348100 		ld	s1,8(sp)
 504              		.cfi_restore 9
 505              	.LVL41:
 506 0044 13010102 		addi	sp,sp,32
 507              		.cfi_def_cfa_offset 0
 508 0048 67800000 		jr	ra
 509              		.cfi_endproc
GAS LISTING /tmp/ccy4oBQd.s 			page 12


 510              	.LFE131:
 512              		.section	.text._ZN19ConsumerProducerCPP8ProducerD2Ev,"axG",@progbits,_ZN19ConsumerProducerCPP8Prod
 513              		.align	2
 514              		.weak	_ZN19ConsumerProducerCPP8ProducerD2Ev
 516              	_ZN19ConsumerProducerCPP8ProducerD2Ev:
 517              	.LFB125:
  41:src/../h/Z_Njihovo_Consumer_Producer_CPP_API_Test.hpp ****         thread_data *td;
 518              		.loc 2 41 11 is_stmt 1
 519              		.cfi_startproc
 520              	.LVL42:
 521 0000 130101FF 		addi	sp,sp,-16
 522              		.cfi_def_cfa_offset 16
 523 0004 23341100 		sd	ra,8(sp)
 524 0008 23308100 		sd	s0,0(sp)
 525              		.cfi_offset 1, -8
 526              		.cfi_offset 8, -16
 527 000c 13040101 		addi	s0,sp,16
 528              		.cfi_def_cfa 8, 0
 529              	.LBB115:
  41:src/../h/Z_Njihovo_Consumer_Producer_CPP_API_Test.hpp ****         thread_data *td;
 530              		.loc 2 41 11 is_stmt 0
 531 0010 97070000 		lla	a5,_ZTVN19ConsumerProducerCPP8ProducerE+16
 531      93870700 
 532 0018 2330F500 		sd	a5,0(a0)
 533 001c 97000000 		call	_ZN6ThreadD2Ev@plt
 533      E7800000 
 534              	.LVL43:
 535              	.LBE115:
 536 0024 83308100 		ld	ra,8(sp)
 537              		.cfi_restore 1
 538 0028 03340100 		ld	s0,0(sp)
 539              		.cfi_restore 8
 540              		.cfi_def_cfa 2, 16
 541 002c 13010101 		addi	sp,sp,16
 542              		.cfi_def_cfa_offset 0
 543 0030 67800000 		jr	ra
 544              		.cfi_endproc
 545              	.LFE125:
 547              		.weak	_ZN19ConsumerProducerCPP8ProducerD1Ev
 548              		.set	_ZN19ConsumerProducerCPP8ProducerD1Ev,_ZN19ConsumerProducerCPP8ProducerD2Ev
 549              		.section	.text._ZN19ConsumerProducerCPP8ProducerD0Ev,"axG",@progbits,_ZN19ConsumerProducerCPP8Prod
 550              		.align	2
 551              		.weak	_ZN19ConsumerProducerCPP8ProducerD0Ev
 553              	_ZN19ConsumerProducerCPP8ProducerD0Ev:
 554              	.LFB127:
  41:src/../h/Z_Njihovo_Consumer_Producer_CPP_API_Test.hpp ****         thread_data *td;
 555              		.loc 2 41 11 is_stmt 1
 556              		.cfi_startproc
 557              	.LVL44:
 558 0000 130101FE 		addi	sp,sp,-32
 559              		.cfi_def_cfa_offset 32
 560 0004 233C1100 		sd	ra,24(sp)
 561 0008 23388100 		sd	s0,16(sp)
 562 000c 23349100 		sd	s1,8(sp)
 563              		.cfi_offset 1, -8
 564              		.cfi_offset 8, -16
 565              		.cfi_offset 9, -24
GAS LISTING /tmp/ccy4oBQd.s 			page 13


 566 0010 13040102 		addi	s0,sp,32
 567              		.cfi_def_cfa 8, 0
 568 0014 93040500 		mv	s1,a0
 569              	.LVL45:
 570              	.LBB116:
 571              	.LBB117:
  41:src/../h/Z_Njihovo_Consumer_Producer_CPP_API_Test.hpp ****         thread_data *td;
 572              		.loc 2 41 11 is_stmt 0
 573 0018 97070000 		lla	a5,_ZTVN19ConsumerProducerCPP8ProducerE+16
 573      93870700 
 574 0020 2330F500 		sd	a5,0(a0)
 575 0024 97000000 		call	_ZN6ThreadD2Ev@plt
 575      E7800000 
 576              	.LVL46:
 577              	.LBE117:
 578              	.LBE116:
 579 002c 13850400 		mv	a0,s1
 580 0030 97000000 		call	_ZdlPv@plt
 580      E7800000 
 581              	.LVL47:
 582 0038 83308101 		ld	ra,24(sp)
 583              		.cfi_restore 1
 584 003c 03340101 		ld	s0,16(sp)
 585              		.cfi_restore 8
 586              		.cfi_def_cfa 2, 32
 587 0040 83348100 		ld	s1,8(sp)
 588              		.cfi_restore 9
 589              	.LVL48:
 590 0044 13010102 		addi	sp,sp,32
 591              		.cfi_def_cfa_offset 0
 592 0048 67800000 		jr	ra
 593              		.cfi_endproc
 594              	.LFE127:
 596              		.section	.text._ZN1AD2Ev,"axG",@progbits,_ZN1AD5Ev,comdat
 597              		.align	2
 598              		.weak	_ZN1AD2Ev
 600              	_ZN1AD2Ev:
 601              	.LFB117:
 602              		.file 3 "src/main.cpp"
   1:src/main.cpp  **** #include "../h/Riscv.hpp"
   2:src/main.cpp  **** #include "../h/TCB.hpp"
   3:src/main.cpp  **** #include "../h/KernelThreadFunctions.hpp"
   4:src/main.cpp  **** #include "../h/KernelBuffer.hpp"
   5:src/main.cpp  **** #include "../h/Z_Njihovo_Threads_C_API_Test.hpp"
   6:src/main.cpp  **** #include "../h/Z_Njihovo_Threads_CPP_API_Test.hpp"
   7:src/main.cpp  **** #include "../h/Z_Njihovo_Consumer_Producer_C_API_Test.hpp"
   8:src/main.cpp  **** #include "../h/Z_Njihovo_Consumer_Producer_CPP_Sync_API_Test.hpp"
   9:src/main.cpp  **** #include "../h/Z_Njihovo_ThreadSleep_C_API_Test.hpp"
  10:src/main.cpp  **** #include "../h/Z_Njihovo_Consumer_Producer_CPP_API_Test.hpp"
  11:src/main.cpp  **** 
  12:src/main.cpp  **** Semaphore* myOwnMutex;
  13:src/main.cpp  **** Semaphore* myOwnWaitForAll;
  14:src/main.cpp  **** 
  15:src/main.cpp  **** class A : public PeriodicThread {
 603              		.loc 3 15 7 is_stmt 1
 604              		.cfi_startproc
 605              	.LVL49:
GAS LISTING /tmp/ccy4oBQd.s 			page 14


 606 0000 130101FF 		addi	sp,sp,-16
 607              		.cfi_def_cfa_offset 16
 608 0004 23341100 		sd	ra,8(sp)
 609 0008 23308100 		sd	s0,0(sp)
 610              		.cfi_offset 1, -8
 611              		.cfi_offset 8, -16
 612 000c 13040101 		addi	s0,sp,16
 613              		.cfi_def_cfa 8, 0
 614              	.LVL50:
 615              	.LBB118:
 616              	.LBB119:
 617              		.file 4 "src/../h/../h/syscall_cpp.hpp"
   1:src/../h/../h/syscall_cpp.hpp **** #ifndef SYSCALL_CPP_H
   2:src/../h/../h/syscall_cpp.hpp **** #define SYSCALL_CPP_H
   3:src/../h/../h/syscall_cpp.hpp **** 
   4:src/../h/../h/syscall_cpp.hpp **** #include "syscall_c.h"
   5:src/../h/../h/syscall_cpp.hpp **** 
   6:src/../h/../h/syscall_cpp.hpp **** void* operator new(size_t n);
   7:src/../h/../h/syscall_cpp.hpp **** void* operator new[](size_t n);
   8:src/../h/../h/syscall_cpp.hpp **** void operator delete(void* ptr);
   9:src/../h/../h/syscall_cpp.hpp **** void operator delete[](void* ptr);
  10:src/../h/../h/syscall_cpp.hpp **** 
  11:src/../h/../h/syscall_cpp.hpp **** class Thread {
  12:src/../h/../h/syscall_cpp.hpp **** public:
  13:src/../h/../h/syscall_cpp.hpp ****     Thread(void (*body)(void*), void* arg);
  14:src/../h/../h/syscall_cpp.hpp ****     virtual ~Thread();
  15:src/../h/../h/syscall_cpp.hpp **** 
  16:src/../h/../h/syscall_cpp.hpp ****     int start();
  17:src/../h/../h/syscall_cpp.hpp **** 
  18:src/../h/../h/syscall_cpp.hpp ****     static void dispatch();
  19:src/../h/../h/syscall_cpp.hpp ****     static int sleep(time_t time);
  20:src/../h/../h/syscall_cpp.hpp **** 
  21:src/../h/../h/syscall_cpp.hpp ****     int getThreadId();
  22:src/../h/../h/syscall_cpp.hpp **** 
  23:src/../h/../h/syscall_cpp.hpp **** protected:
  24:src/../h/../h/syscall_cpp.hpp ****     Thread();
  25:src/../h/../h/syscall_cpp.hpp ****     virtual void run() {}
  26:src/../h/../h/syscall_cpp.hpp **** 
  27:src/../h/../h/syscall_cpp.hpp **** private:
  28:src/../h/../h/syscall_cpp.hpp ****     static void callRunForThisThread(void* thisPointer);
  29:src/../h/../h/syscall_cpp.hpp **** 
  30:src/../h/../h/syscall_cpp.hpp ****     thread_t myHandle;
  31:src/../h/../h/syscall_cpp.hpp **** };
  32:src/../h/../h/syscall_cpp.hpp **** 
  33:src/../h/../h/syscall_cpp.hpp **** class Semaphore {
  34:src/../h/../h/syscall_cpp.hpp **** public:
  35:src/../h/../h/syscall_cpp.hpp ****     explicit Semaphore(unsigned init = 1);
  36:src/../h/../h/syscall_cpp.hpp ****     virtual ~Semaphore();
  37:src/../h/../h/syscall_cpp.hpp **** 
  38:src/../h/../h/syscall_cpp.hpp ****     int wait();
  39:src/../h/../h/syscall_cpp.hpp ****     int signal();
  40:src/../h/../h/syscall_cpp.hpp **** 
  41:src/../h/../h/syscall_cpp.hpp **** private:
  42:src/../h/../h/syscall_cpp.hpp ****     sem_t myHandle;
  43:src/../h/../h/syscall_cpp.hpp **** };
  44:src/../h/../h/syscall_cpp.hpp **** 
  45:src/../h/../h/syscall_cpp.hpp **** class PeriodicThread : public Thread {
GAS LISTING /tmp/ccy4oBQd.s 			page 15


 618              		.loc 4 45 7 is_stmt 0
 619 0010 97070000 		la	a5,_ZTV14PeriodicThread
 619      83B70700 
 620 0018 93870701 		addi	a5,a5,16
 621 001c 2330F500 		sd	a5,0(a0)
 622 0020 97000000 		call	_ZN6ThreadD2Ev@plt
 622      E7800000 
 623              	.LVL51:
 624              	.LBE119:
 625              	.LBE118:
 626              		.loc 3 15 7
 627 0028 83308100 		ld	ra,8(sp)
 628              		.cfi_restore 1
 629 002c 03340100 		ld	s0,0(sp)
 630              		.cfi_restore 8
 631              		.cfi_def_cfa 2, 16
 632 0030 13010101 		addi	sp,sp,16
 633              		.cfi_def_cfa_offset 0
 634 0034 67800000 		jr	ra
 635              		.cfi_endproc
 636              	.LFE117:
 638              		.weak	_ZN1AD1Ev
 639              		.set	_ZN1AD1Ev,_ZN1AD2Ev
 640              		.section	.text._ZN1AD0Ev,"axG",@progbits,_ZN1AD5Ev,comdat
 641              		.align	2
 642              		.weak	_ZN1AD0Ev
 644              	_ZN1AD0Ev:
 645              	.LFB119:
 646              		.loc 3 15 7 is_stmt 1
 647              		.cfi_startproc
 648              	.LVL52:
 649 0000 130101FE 		addi	sp,sp,-32
 650              		.cfi_def_cfa_offset 32
 651 0004 233C1100 		sd	ra,24(sp)
 652 0008 23388100 		sd	s0,16(sp)
 653 000c 23349100 		sd	s1,8(sp)
 654              		.cfi_offset 1, -8
 655              		.cfi_offset 8, -16
 656              		.cfi_offset 9, -24
 657 0010 13040102 		addi	s0,sp,32
 658              		.cfi_def_cfa 8, 0
 659 0014 93040500 		mv	s1,a0
 660              	.LVL53:
 661              	.LBB120:
 662              	.LBB121:
 663              	.LBB122:
 664              		.loc 4 45 7 is_stmt 0
 665 0018 97070000 		la	a5,_ZTV14PeriodicThread
 665      83B70700 
 666 0020 93870701 		addi	a5,a5,16
 667 0024 2330F500 		sd	a5,0(a0)
 668 0028 97000000 		call	_ZN6ThreadD2Ev@plt
 668      E7800000 
 669              	.LVL54:
 670              	.LBE122:
 671              	.LBE121:
 672              	.LBE120:
GAS LISTING /tmp/ccy4oBQd.s 			page 16


 673              		.loc 3 15 7
 674 0030 13850400 		mv	a0,s1
 675 0034 97000000 		call	_ZdlPv@plt
 675      E7800000 
 676              	.LVL55:
 677 003c 83308101 		ld	ra,24(sp)
 678              		.cfi_restore 1
 679 0040 03340101 		ld	s0,16(sp)
 680              		.cfi_restore 8
 681              		.cfi_def_cfa 2, 32
 682 0044 83348100 		ld	s1,8(sp)
 683              		.cfi_restore 9
 684              	.LVL56:
 685 0048 13010102 		addi	sp,sp,32
 686              		.cfi_def_cfa_offset 0
 687 004c 67800000 		jr	ra
 688              		.cfi_endproc
 689              	.LFE119:
 691              		.section	.text._ZN1BD2Ev,"axG",@progbits,_ZN1BD5Ev,comdat
 692              		.align	2
 693              		.weak	_ZN1BD2Ev
 695              	_ZN1BD2Ev:
 696              	.LFB113:
  16:src/main.cpp  **** public:
  17:src/main.cpp  ****     explicit A(time_t period) : PeriodicThread(period) {}
  18:src/main.cpp  **** 
  19:src/main.cpp  **** protected:
  20:src/main.cpp  ****     void run() override {
  21:src/main.cpp  ****         while (true && !shouldThisThreadEnd) {
  22:src/main.cpp  ****             periodicActivation();
  23:src/main.cpp  ****             time_sleep(sleepTime);
  24:src/main.cpp  ****         }
  25:src/main.cpp  ****         myOwnWaitForAll->signal();
  26:src/main.cpp  ****     }
  27:src/main.cpp  **** 
  28:src/main.cpp  **** private:
  29:src/main.cpp  ****     void periodicActivation() override {
  30:src/main.cpp  ****         myOwnMutex->wait();
  31:src/main.cpp  ****         putc('A');
  32:src/main.cpp  ****         putc('\n');
  33:src/main.cpp  ****         myOwnMutex->signal();
  34:src/main.cpp  ****     }
  35:src/main.cpp  **** };
  36:src/main.cpp  **** 
  37:src/main.cpp  **** class B : public PeriodicThread {
 697              		.loc 3 37 7 is_stmt 1
 698              		.cfi_startproc
 699              	.LVL57:
 700 0000 130101FF 		addi	sp,sp,-16
 701              		.cfi_def_cfa_offset 16
 702 0004 23341100 		sd	ra,8(sp)
 703 0008 23308100 		sd	s0,0(sp)
 704              		.cfi_offset 1, -8
 705              		.cfi_offset 8, -16
 706 000c 13040101 		addi	s0,sp,16
 707              		.cfi_def_cfa 8, 0
 708              	.LVL58:
GAS LISTING /tmp/ccy4oBQd.s 			page 17


 709              	.LBB123:
 710              	.LBB124:
 711              		.loc 4 45 7 is_stmt 0
 712 0010 97070000 		la	a5,_ZTV14PeriodicThread
 712      83B70700 
 713 0018 93870701 		addi	a5,a5,16
 714 001c 2330F500 		sd	a5,0(a0)
 715 0020 97000000 		call	_ZN6ThreadD2Ev@plt
 715      E7800000 
 716              	.LVL59:
 717              	.LBE124:
 718              	.LBE123:
 719              		.loc 3 37 7
 720 0028 83308100 		ld	ra,8(sp)
 721              		.cfi_restore 1
 722 002c 03340100 		ld	s0,0(sp)
 723              		.cfi_restore 8
 724              		.cfi_def_cfa 2, 16
 725 0030 13010101 		addi	sp,sp,16
 726              		.cfi_def_cfa_offset 0
 727 0034 67800000 		jr	ra
 728              		.cfi_endproc
 729              	.LFE113:
 731              		.weak	_ZN1BD1Ev
 732              		.set	_ZN1BD1Ev,_ZN1BD2Ev
 733              		.section	.text._ZN1BD0Ev,"axG",@progbits,_ZN1BD5Ev,comdat
 734              		.align	2
 735              		.weak	_ZN1BD0Ev
 737              	_ZN1BD0Ev:
 738              	.LFB115:
 739              		.loc 3 37 7 is_stmt 1
 740              		.cfi_startproc
 741              	.LVL60:
 742 0000 130101FE 		addi	sp,sp,-32
 743              		.cfi_def_cfa_offset 32
 744 0004 233C1100 		sd	ra,24(sp)
 745 0008 23388100 		sd	s0,16(sp)
 746 000c 23349100 		sd	s1,8(sp)
 747              		.cfi_offset 1, -8
 748              		.cfi_offset 8, -16
 749              		.cfi_offset 9, -24
 750 0010 13040102 		addi	s0,sp,32
 751              		.cfi_def_cfa 8, 0
 752 0014 93040500 		mv	s1,a0
 753              	.LVL61:
 754              	.LBB125:
 755              	.LBB126:
 756              	.LBB127:
 757              		.loc 4 45 7 is_stmt 0
 758 0018 97070000 		la	a5,_ZTV14PeriodicThread
 758      83B70700 
 759 0020 93870701 		addi	a5,a5,16
 760 0024 2330F500 		sd	a5,0(a0)
 761 0028 97000000 		call	_ZN6ThreadD2Ev@plt
 761      E7800000 
 762              	.LVL62:
 763              	.LBE127:
GAS LISTING /tmp/ccy4oBQd.s 			page 18


 764              	.LBE126:
 765              	.LBE125:
 766              		.loc 3 37 7
 767 0030 13850400 		mv	a0,s1
 768 0034 97000000 		call	_ZdlPv@plt
 768      E7800000 
 769              	.LVL63:
 770 003c 83308101 		ld	ra,24(sp)
 771              		.cfi_restore 1
 772 0040 03340101 		ld	s0,16(sp)
 773              		.cfi_restore 8
 774              		.cfi_def_cfa 2, 32
 775 0044 83348100 		ld	s1,8(sp)
 776              		.cfi_restore 9
 777              	.LVL64:
 778 0048 13010102 		addi	sp,sp,32
 779              		.cfi_def_cfa_offset 0
 780 004c 67800000 		jr	ra
 781              		.cfi_endproc
 782              	.LFE115:
 784              		.section	.text._ZN1CD2Ev,"axG",@progbits,_ZN1CD5Ev,comdat
 785              		.align	2
 786              		.weak	_ZN1CD2Ev
 788              	_ZN1CD2Ev:
 789              	.LFB109:
  38:src/main.cpp  **** public:
  39:src/main.cpp  ****     explicit B(time_t period) : PeriodicThread(period) {}
  40:src/main.cpp  **** 
  41:src/main.cpp  **** protected:
  42:src/main.cpp  ****     void run() override {
  43:src/main.cpp  ****         while (true && !shouldThisThreadEnd) {
  44:src/main.cpp  ****             periodicActivation();
  45:src/main.cpp  ****             time_sleep(sleepTime);
  46:src/main.cpp  ****         }
  47:src/main.cpp  ****         myOwnWaitForAll->signal();
  48:src/main.cpp  ****     }
  49:src/main.cpp  **** 
  50:src/main.cpp  **** private:
  51:src/main.cpp  ****     void periodicActivation() override {
  52:src/main.cpp  ****         myOwnMutex->wait();
  53:src/main.cpp  ****         putc('B');
  54:src/main.cpp  ****         putc('\n');
  55:src/main.cpp  ****         myOwnMutex->signal();
  56:src/main.cpp  ****     }
  57:src/main.cpp  **** };
  58:src/main.cpp  **** 
  59:src/main.cpp  **** class C : public PeriodicThread {
 790              		.loc 3 59 7 is_stmt 1
 791              		.cfi_startproc
 792              	.LVL65:
 793 0000 130101FF 		addi	sp,sp,-16
 794              		.cfi_def_cfa_offset 16
 795 0004 23341100 		sd	ra,8(sp)
 796 0008 23308100 		sd	s0,0(sp)
 797              		.cfi_offset 1, -8
 798              		.cfi_offset 8, -16
 799 000c 13040101 		addi	s0,sp,16
GAS LISTING /tmp/ccy4oBQd.s 			page 19


 800              		.cfi_def_cfa 8, 0
 801              	.LVL66:
 802              	.LBB128:
 803              	.LBB129:
 804              		.loc 4 45 7 is_stmt 0
 805 0010 97070000 		la	a5,_ZTV14PeriodicThread
 805      83B70700 
 806 0018 93870701 		addi	a5,a5,16
 807 001c 2330F500 		sd	a5,0(a0)
 808 0020 97000000 		call	_ZN6ThreadD2Ev@plt
 808      E7800000 
 809              	.LVL67:
 810              	.LBE129:
 811              	.LBE128:
 812              		.loc 3 59 7
 813 0028 83308100 		ld	ra,8(sp)
 814              		.cfi_restore 1
 815 002c 03340100 		ld	s0,0(sp)
 816              		.cfi_restore 8
 817              		.cfi_def_cfa 2, 16
 818 0030 13010101 		addi	sp,sp,16
 819              		.cfi_def_cfa_offset 0
 820 0034 67800000 		jr	ra
 821              		.cfi_endproc
 822              	.LFE109:
 824              		.weak	_ZN1CD1Ev
 825              		.set	_ZN1CD1Ev,_ZN1CD2Ev
 826              		.section	.text._ZN1CD0Ev,"axG",@progbits,_ZN1CD5Ev,comdat
 827              		.align	2
 828              		.weak	_ZN1CD0Ev
 830              	_ZN1CD0Ev:
 831              	.LFB111:
 832              		.loc 3 59 7 is_stmt 1
 833              		.cfi_startproc
 834              	.LVL68:
 835 0000 130101FE 		addi	sp,sp,-32
 836              		.cfi_def_cfa_offset 32
 837 0004 233C1100 		sd	ra,24(sp)
 838 0008 23388100 		sd	s0,16(sp)
 839 000c 23349100 		sd	s1,8(sp)
 840              		.cfi_offset 1, -8
 841              		.cfi_offset 8, -16
 842              		.cfi_offset 9, -24
 843 0010 13040102 		addi	s0,sp,32
 844              		.cfi_def_cfa 8, 0
 845 0014 93040500 		mv	s1,a0
 846              	.LVL69:
 847              	.LBB130:
 848              	.LBB131:
 849              	.LBB132:
 850              		.loc 4 45 7 is_stmt 0
 851 0018 97070000 		la	a5,_ZTV14PeriodicThread
 851      83B70700 
 852 0020 93870701 		addi	a5,a5,16
 853 0024 2330F500 		sd	a5,0(a0)
 854 0028 97000000 		call	_ZN6ThreadD2Ev@plt
 854      E7800000 
GAS LISTING /tmp/ccy4oBQd.s 			page 20


 855              	.LVL70:
 856              	.LBE132:
 857              	.LBE131:
 858              	.LBE130:
 859              		.loc 3 59 7
 860 0030 13850400 		mv	a0,s1
 861 0034 97000000 		call	_ZdlPv@plt
 861      E7800000 
 862              	.LVL71:
 863 003c 83308101 		ld	ra,24(sp)
 864              		.cfi_restore 1
 865 0040 03340101 		ld	s0,16(sp)
 866              		.cfi_restore 8
 867              		.cfi_def_cfa 2, 32
 868 0044 83348100 		ld	s1,8(sp)
 869              		.cfi_restore 9
 870              	.LVL72:
 871 0048 13010102 		addi	sp,sp,32
 872              		.cfi_def_cfa_offset 0
 873 004c 67800000 		jr	ra
 874              		.cfi_endproc
 875              	.LFE111:
 877              		.section	.rodata.str1.8,"aMS",@progbits,1
 878              		.align	3
 879              	.LC0:
 880 0000 48656C6C 		.string	"Hello "
 880      6F2000
 881 0007 00       		.align	3
 882              	.LC1:
 883 0008 20210A00 		.string	" !\n"
 884              		.text
 885              		.align	2
 886              		.globl	_Z9sleepyRunPv
 888              	_Z9sleepyRunPv:
 889              	.LFB72:
 890              		.file 5 "src/../h/Z_Njihovo_ThreadSleep_C_API_Test.hpp"
   1:src/../h/Z_Njihovo_ThreadSleep_C_API_Test.hpp **** #ifndef Z_NJIHOVO_THREADSLEEP_C_API_TEST_HPP
   2:src/../h/Z_Njihovo_ThreadSleep_C_API_Test.hpp **** #define Z_NJIHOVO_THREADSLEEP_C_API_TEST_HPP
   3:src/../h/Z_Njihovo_ThreadSleep_C_API_Test.hpp **** 
   4:src/../h/Z_Njihovo_ThreadSleep_C_API_Test.hpp **** #include "../h/syscall_c.h"
   5:src/../h/Z_Njihovo_ThreadSleep_C_API_Test.hpp **** #include "Z_Njihovo_Printing.hpp"
   6:src/../h/Z_Njihovo_ThreadSleep_C_API_Test.hpp **** 
   7:src/../h/Z_Njihovo_ThreadSleep_C_API_Test.hpp **** bool finished[2];
   8:src/../h/Z_Njihovo_ThreadSleep_C_API_Test.hpp **** 
   9:src/../h/Z_Njihovo_ThreadSleep_C_API_Test.hpp **** void sleepyRun(void *arg) {
 891              		.loc 5 9 27 is_stmt 1
 892              		.cfi_startproc
 893              	.LVL73:
 894 0000 130101FE 		addi	sp,sp,-32
 895              		.cfi_def_cfa_offset 32
 896 0004 233C1100 		sd	ra,24(sp)
 897 0008 23388100 		sd	s0,16(sp)
 898 000c 23349100 		sd	s1,8(sp)
 899 0010 23302101 		sd	s2,0(sp)
 900              		.cfi_offset 1, -8
 901              		.cfi_offset 8, -16
 902              		.cfi_offset 9, -24
GAS LISTING /tmp/ccy4oBQd.s 			page 21


 903              		.cfi_offset 18, -32
 904 0014 13040102 		addi	s0,sp,32
 905              		.cfi_def_cfa 8, 0
  10:src/../h/Z_Njihovo_ThreadSleep_C_API_Test.hpp ****     time_t sleep_time = *((time_t *) arg);
 906              		.loc 5 10 5
 907              		.loc 5 10 12 is_stmt 0
 908 0018 03390500 		ld	s2,0(a0)
 909              	.LVL74:
  11:src/../h/Z_Njihovo_ThreadSleep_C_API_Test.hpp ****     int i = 6;
 910              		.loc 5 11 5 is_stmt 1
 911              		.loc 5 11 9 is_stmt 0
 912 001c 93046000 		li	s1,6
 913              	.LVL75:
 914              	.L43:
  12:src/../h/Z_Njihovo_ThreadSleep_C_API_Test.hpp ****     while (--i > 0) {
 915              		.loc 5 12 5 is_stmt 1
 916              		.loc 5 12 16
 917 0020 9B84F4FF 		addiw	s1,s1,-1
 918              	.LVL76:
 919 0024 63549004 		blez	s1,.L42
  13:src/../h/Z_Njihovo_ThreadSleep_C_API_Test.hpp **** 
  14:src/../h/Z_Njihovo_ThreadSleep_C_API_Test.hpp ****         printString("Hello ");
 920              		.loc 5 14 9
 921              		.loc 5 14 20 is_stmt 0
 922 0028 17050000 		lla	a0,.LC0
 922      13050500 
 923 0030 97000000 		call	_Z11printStringPKc@plt
 923      E7800000 
 924              	.LVL77:
  15:src/../h/Z_Njihovo_ThreadSleep_C_API_Test.hpp ****         printInt(sleep_time);
 925              		.loc 5 15 9 is_stmt 1
 926              		.loc 5 15 17 is_stmt 0
 927 0038 13060000 		li	a2,0
 928 003c 9305A000 		li	a1,10
 929 0040 1B050900 		sext.w	a0,s2
 930 0044 97000000 		call	_Z8printIntiii@plt
 930      E7800000 
 931              	.LVL78:
  16:src/../h/Z_Njihovo_ThreadSleep_C_API_Test.hpp ****         printString(" !\n");
 932              		.loc 5 16 9 is_stmt 1
 933              		.loc 5 16 20 is_stmt 0
 934 004c 17050000 		lla	a0,.LC1
 934      13050500 
 935 0054 97000000 		call	_Z11printStringPKc@plt
 935      E7800000 
 936              	.LVL79:
  17:src/../h/Z_Njihovo_ThreadSleep_C_API_Test.hpp ****         time_sleep(sleep_time);
 937              		.loc 5 17 9 is_stmt 1
 938              		.loc 5 17 19 is_stmt 0
 939 005c 13050900 		mv	a0,s2
 940 0060 97000000 		call	_Z10time_sleepm@plt
 940      E7800000 
 941              	.LVL80:
  12:src/../h/Z_Njihovo_ThreadSleep_C_API_Test.hpp **** 
 942              		.loc 5 12 5
 943 0068 6FF09FFB 		j	.L43
 944              	.L42:
GAS LISTING /tmp/ccy4oBQd.s 			page 22


  18:src/../h/Z_Njihovo_ThreadSleep_C_API_Test.hpp ****     }
  19:src/../h/Z_Njihovo_ThreadSleep_C_API_Test.hpp ****     finished[sleep_time/10-1] = true;
 945              		.loc 5 19 5 is_stmt 1
 946              		.loc 5 19 24 is_stmt 0
 947 006c 9307A000 		li	a5,10
 948 0070 3359F902 		divu	s2,s2,a5
 949              	.LVL81:
 950              		.loc 5 19 27
 951 0074 1309F9FF 		addi	s2,s2,-1
 952              		.loc 5 19 31
 953 0078 97070000 		lla	a5,.LANCHOR0
 953      93870700 
 954 0080 33892701 		add	s2,a5,s2
 955 0084 93071000 		li	a5,1
 956 0088 2300F900 		sb	a5,0(s2)
  20:src/../h/Z_Njihovo_ThreadSleep_C_API_Test.hpp **** }
 957              		.loc 5 20 1
 958 008c 83308101 		ld	ra,24(sp)
 959              		.cfi_restore 1
 960 0090 03340101 		ld	s0,16(sp)
 961              		.cfi_restore 8
 962              		.cfi_def_cfa 2, 32
 963 0094 83348100 		ld	s1,8(sp)
 964              		.cfi_restore 9
 965 0098 03390100 		ld	s2,0(sp)
 966              		.cfi_restore 18
 967 009c 13010102 		addi	sp,sp,32
 968              		.cfi_def_cfa_offset 0
 969 00a0 67800000 		jr	ra
 970              		.cfi_endproc
 971              	.LFE72:
 973              		.section	.text._ZN19ConsumerProducerCPP8Consumer3runEv,"axG",@progbits,_ZN19ConsumerProducerCPP8Co
 974              		.align	2
 975              		.weak	_ZN19ConsumerProducerCPP8Consumer3runEv
 977              	_ZN19ConsumerProducerCPP8Consumer3runEv:
 978              	.LFB85:
  59:src/../h/Z_Njihovo_Consumer_Producer_CPP_API_Test.hpp ****         thread_data *td;
  60:src/../h/Z_Njihovo_Consumer_Producer_CPP_API_Test.hpp ****     public:
  61:src/../h/Z_Njihovo_Consumer_Producer_CPP_API_Test.hpp ****         Consumer(thread_data *_td) : Thread(), td(_td) {}
  62:src/../h/Z_Njihovo_Consumer_Producer_CPP_API_Test.hpp **** 
  63:src/../h/Z_Njihovo_Consumer_Producer_CPP_API_Test.hpp ****         void run() override {
 979              		.loc 2 63 14 is_stmt 1
 980              		.cfi_startproc
 981              	.LVL82:
 982 0000 130101FD 		addi	sp,sp,-48
 983              		.cfi_def_cfa_offset 48
 984 0004 23341102 		sd	ra,40(sp)
 985 0008 23308102 		sd	s0,32(sp)
 986 000c 233C9100 		sd	s1,24(sp)
 987 0010 23382101 		sd	s2,16(sp)
 988 0014 23343101 		sd	s3,8(sp)
 989              		.cfi_offset 1, -8
 990              		.cfi_offset 8, -16
 991              		.cfi_offset 9, -24
 992              		.cfi_offset 18, -32
 993              		.cfi_offset 19, -40
 994 0018 13040103 		addi	s0,sp,48
GAS LISTING /tmp/ccy4oBQd.s 			page 23


 995              		.cfi_def_cfa 8, 0
 996 001c 13090500 		mv	s2,a0
  64:src/../h/Z_Njihovo_Consumer_Producer_CPP_API_Test.hpp ****             int i = 0;
 997              		.loc 2 64 13
 998              	.LVL83:
 999              		.loc 2 64 17 is_stmt 0
 1000 0020 93090000 		li	s3,0
 1001 0024 6F000001 		j	.L46
 1002              	.LVL84:
 1003              	.L51:
 1004              	.LBB133:
  65:src/../h/Z_Njihovo_Consumer_Producer_CPP_API_Test.hpp ****             while (!threadEnd) {
  66:src/../h/Z_Njihovo_Consumer_Producer_CPP_API_Test.hpp ****                 int key = td->buffer->get();
  67:src/../h/Z_Njihovo_Consumer_Producer_CPP_API_Test.hpp ****                 i++;
  68:src/../h/Z_Njihovo_Consumer_Producer_CPP_API_Test.hpp **** 
  69:src/../h/Z_Njihovo_Consumer_Producer_CPP_API_Test.hpp ****                 Console::putc(key);
  70:src/../h/Z_Njihovo_Consumer_Producer_CPP_API_Test.hpp **** 
  71:src/../h/Z_Njihovo_Consumer_Producer_CPP_API_Test.hpp ****                 if (i % 80 == 0) {
  72:src/../h/Z_Njihovo_Consumer_Producer_CPP_API_Test.hpp ****                     Console::putc('\n');
 1005              		.loc 2 72 21 is_stmt 1
 1006              		.loc 2 72 34 is_stmt 0
 1007 0028 1305A000 		li	a0,10
 1008 002c 97000000 		call	_ZN7Console4putcEc@plt
 1008      E7800000 
 1009              	.LVL85:
 1010              	.L46:
 1011              	.LBE133:
  65:src/../h/Z_Njihovo_Consumer_Producer_CPP_API_Test.hpp ****             while (!threadEnd) {
 1012              		.loc 2 65 13 is_stmt 1
  65:src/../h/Z_Njihovo_Consumer_Producer_CPP_API_Test.hpp ****             while (!threadEnd) {
 1013              		.loc 2 65 20
 1014 0034 97070000 		lw	a5,.LANCHOR0+4
 1014      83A70700 
 1015 003c 639A0704 		bnez	a5,.L47
 1016              	.LBB134:
  66:src/../h/Z_Njihovo_Consumer_Producer_CPP_API_Test.hpp ****                 i++;
 1017              		.loc 2 66 17
  66:src/../h/Z_Njihovo_Consumer_Producer_CPP_API_Test.hpp ****                 i++;
 1018              		.loc 2 66 27 is_stmt 0
 1019 0040 83370901 		ld	a5,16(s2)
  66:src/../h/Z_Njihovo_Consumer_Producer_CPP_API_Test.hpp ****                 i++;
 1020              		.loc 2 66 42
 1021 0044 03B58700 		ld	a0,8(a5)
 1022 0048 97000000 		call	_ZN9BufferCPP3getEv@plt
 1022      E7800000 
 1023              	.LVL86:
  67:src/../h/Z_Njihovo_Consumer_Producer_CPP_API_Test.hpp **** 
 1024              		.loc 2 67 17 is_stmt 1
  67:src/../h/Z_Njihovo_Consumer_Producer_CPP_API_Test.hpp **** 
 1025              		.loc 2 67 18 is_stmt 0
 1026 0050 9B841900 		addiw	s1,s3,1
 1027 0054 9B890400 		sext.w	s3,s1
 1028              	.LVL87:
  69:src/../h/Z_Njihovo_Consumer_Producer_CPP_API_Test.hpp **** 
 1029              		.loc 2 69 17 is_stmt 1
  69:src/../h/Z_Njihovo_Consumer_Producer_CPP_API_Test.hpp **** 
 1030              		.loc 2 69 30 is_stmt 0
GAS LISTING /tmp/ccy4oBQd.s 			page 24


 1031 0058 1375F50F 		andi	a0,a0,0xff
 1032              	.LVL88:
 1033 005c 97000000 		call	_ZN7Console4putcEc@plt
 1033      E7800000 
 1034              	.LVL89:
  71:src/../h/Z_Njihovo_Consumer_Producer_CPP_API_Test.hpp ****                     Console::putc('\n');
 1035              		.loc 2 71 17 is_stmt 1
  71:src/../h/Z_Njihovo_Consumer_Producer_CPP_API_Test.hpp ****                     Console::putc('\n');
 1036              		.loc 2 71 23 is_stmt 0
 1037 0064 93070005 		li	a5,80
 1038 0068 BBE4F402 		remw	s1,s1,a5
 1039              	.LVL90:
  71:src/../h/Z_Njihovo_Consumer_Producer_CPP_API_Test.hpp ****                     Console::putc('\n');
 1040              		.loc 2 71 17
 1041 006c E39404FC 		bnez	s1,.L46
 1042 0070 6FF09FFB 		j	.L51
 1043              	.L52:
 1044              	.LBE134:
 1045              	.LBB135:
  73:src/../h/Z_Njihovo_Consumer_Producer_CPP_API_Test.hpp ****                 }
  74:src/../h/Z_Njihovo_Consumer_Producer_CPP_API_Test.hpp ****             }
  75:src/../h/Z_Njihovo_Consumer_Producer_CPP_API_Test.hpp **** 
  76:src/../h/Z_Njihovo_Consumer_Producer_CPP_API_Test.hpp ****             while (td->buffer->getCnt() > 0) {
  77:src/../h/Z_Njihovo_Consumer_Producer_CPP_API_Test.hpp ****                 int key = td->buffer->get();
 1046              		.loc 2 77 17 is_stmt 1
 1047              		.loc 2 77 27 is_stmt 0
 1048 0074 83370901 		ld	a5,16(s2)
 1049              		.loc 2 77 42
 1050 0078 03B58700 		ld	a0,8(a5)
 1051 007c 97000000 		call	_ZN9BufferCPP3getEv@plt
 1051      E7800000 
 1052              	.LVL91:
  78:src/../h/Z_Njihovo_Consumer_Producer_CPP_API_Test.hpp ****                 Console::putc(key);
 1053              		.loc 2 78 17 is_stmt 1
 1054              		.loc 2 78 30 is_stmt 0
 1055 0084 1375F50F 		andi	a0,a0,0xff
 1056              	.LVL92:
 1057 0088 97000000 		call	_ZN7Console4putcEc@plt
 1057      E7800000 
 1058              	.LVL93:
 1059              	.L47:
 1060              	.LBE135:
  76:src/../h/Z_Njihovo_Consumer_Producer_CPP_API_Test.hpp ****                 int key = td->buffer->get();
 1061              		.loc 2 76 13 is_stmt 1
  76:src/../h/Z_Njihovo_Consumer_Producer_CPP_API_Test.hpp ****                 int key = td->buffer->get();
 1062              		.loc 2 76 41
  76:src/../h/Z_Njihovo_Consumer_Producer_CPP_API_Test.hpp ****                 int key = td->buffer->get();
 1063              		.loc 2 76 20 is_stmt 0
 1064 0090 83370901 		ld	a5,16(s2)
  76:src/../h/Z_Njihovo_Consumer_Producer_CPP_API_Test.hpp ****                 int key = td->buffer->get();
 1065              		.loc 2 76 38
 1066 0094 03B58700 		ld	a0,8(a5)
 1067 0098 97000000 		call	_ZN9BufferCPP6getCntEv@plt
 1067      E7800000 
 1068              	.LVL94:
  76:src/../h/Z_Njihovo_Consumer_Producer_CPP_API_Test.hpp ****                 int key = td->buffer->get();
 1069              		.loc 2 76 41
GAS LISTING /tmp/ccy4oBQd.s 			page 25


 1070 00a0 E34AA0FC 		bgtz	a0,.L52
  79:src/../h/Z_Njihovo_Consumer_Producer_CPP_API_Test.hpp ****             }
  80:src/../h/Z_Njihovo_Consumer_Producer_CPP_API_Test.hpp **** 
  81:src/../h/Z_Njihovo_Consumer_Producer_CPP_API_Test.hpp ****             td->sem->signal();
 1071              		.loc 2 81 13 is_stmt 1
 1072 00a4 83370901 		ld	a5,16(s2)
 1073              		.loc 2 81 28 is_stmt 0
 1074 00a8 03B50701 		ld	a0,16(a5)
 1075 00ac 97000000 		call	_ZN9Semaphore6signalEv@plt
 1075      E7800000 
 1076              	.LVL95:
  82:src/../h/Z_Njihovo_Consumer_Producer_CPP_API_Test.hpp ****         }
 1077              		.loc 2 82 9
 1078 00b4 83308102 		ld	ra,40(sp)
 1079              		.cfi_restore 1
 1080 00b8 03340102 		ld	s0,32(sp)
 1081              		.cfi_restore 8
 1082              		.cfi_def_cfa 2, 48
 1083 00bc 83348101 		ld	s1,24(sp)
 1084              		.cfi_restore 9
 1085 00c0 03390101 		ld	s2,16(sp)
 1086              		.cfi_restore 18
 1087              	.LVL96:
 1088 00c4 83398100 		ld	s3,8(sp)
 1089              		.cfi_restore 19
 1090              	.LVL97:
 1091 00c8 13010103 		addi	sp,sp,48
 1092              		.cfi_def_cfa_offset 0
 1093 00cc 67800000 		jr	ra
 1094              		.cfi_endproc
 1095              	.LFE85:
 1097              		.section	.text._ZN1A3runEv,"axG",@progbits,_ZN1A3runEv,comdat
 1098              		.align	2
 1099              		.weak	_ZN1A3runEv
 1101              	_ZN1A3runEv:
 1102              	.LFB94:
  20:src/main.cpp  ****         while (true && !shouldThisThreadEnd) {
 1103              		.loc 3 20 10 is_stmt 1
 1104              		.cfi_startproc
 1105              	.LVL98:
 1106 0000 130101FE 		addi	sp,sp,-32
 1107              		.cfi_def_cfa_offset 32
 1108 0004 233C1100 		sd	ra,24(sp)
 1109 0008 23388100 		sd	s0,16(sp)
 1110 000c 23349100 		sd	s1,8(sp)
 1111              		.cfi_offset 1, -8
 1112              		.cfi_offset 8, -16
 1113              		.cfi_offset 9, -24
 1114 0010 13040102 		addi	s0,sp,32
 1115              		.cfi_def_cfa 8, 0
 1116 0014 93040500 		mv	s1,a0
 1117              	.LVL99:
 1118              	.L55:
  21:src/main.cpp  ****             periodicActivation();
 1119              		.loc 3 21 9
  21:src/main.cpp  ****             periodicActivation();
 1120              		.loc 3 21 24
GAS LISTING /tmp/ccy4oBQd.s 			page 26


  21:src/main.cpp  ****             periodicActivation();
 1121              		.loc 3 21 25 is_stmt 0
 1122 0018 83C78401 		lbu	a5,24(s1)
  21:src/main.cpp  ****             periodicActivation();
 1123              		.loc 3 21 24
 1124 001c 63920702 		bnez	a5,.L54
  22:src/main.cpp  ****             time_sleep(sleepTime);
 1125              		.loc 3 22 13 is_stmt 1
  22:src/main.cpp  ****             time_sleep(sleepTime);
 1126              		.loc 3 22 32 is_stmt 0
 1127 0020 83B70400 		ld	a5,0(s1)
 1128 0024 83B78701 		ld	a5,24(a5)
  22:src/main.cpp  ****             time_sleep(sleepTime);
 1129              		.loc 3 22 31
 1130 0028 13850400 		mv	a0,s1
 1131 002c E7800700 		jalr	a5
 1132              	.LVL100:
  23:src/main.cpp  ****         }
 1133              		.loc 3 23 13 is_stmt 1
  23:src/main.cpp  ****         }
 1134              		.loc 3 23 23 is_stmt 0
 1135 0030 03B50401 		ld	a0,16(s1)
 1136 0034 97000000 		call	_Z10time_sleepm@plt
 1136      E7800000 
 1137              	.LVL101:
  21:src/main.cpp  ****             periodicActivation();
 1138              		.loc 3 21 9
 1139 003c 6FF0DFFD 		j	.L55
 1140              	.L54:
  25:src/main.cpp  ****     }
 1141              		.loc 3 25 9 is_stmt 1
  25:src/main.cpp  ****     }
 1142              		.loc 3 25 32 is_stmt 0
 1143 0040 17050000 		ld	a0,.LANCHOR0+8
 1143      03350500 
 1144 0048 97000000 		call	_ZN9Semaphore6signalEv@plt
 1144      E7800000 
 1145              	.LVL102:
  26:src/main.cpp  **** 
 1146              		.loc 3 26 5
 1147 0050 83308101 		ld	ra,24(sp)
 1148              		.cfi_restore 1
 1149 0054 03340101 		ld	s0,16(sp)
 1150              		.cfi_restore 8
 1151              		.cfi_def_cfa 2, 32
 1152 0058 83348100 		ld	s1,8(sp)
 1153              		.cfi_restore 9
 1154              	.LVL103:
 1155 005c 13010102 		addi	sp,sp,32
 1156              		.cfi_def_cfa_offset 0
 1157 0060 67800000 		jr	ra
 1158              		.cfi_endproc
 1159              	.LFE94:
 1161              		.section	.text._ZN1B3runEv,"axG",@progbits,_ZN1B3runEv,comdat
 1162              		.align	2
 1163              		.weak	_ZN1B3runEv
 1165              	_ZN1B3runEv:
GAS LISTING /tmp/ccy4oBQd.s 			page 27


 1166              	.LFB99:
  42:src/main.cpp  ****         while (true && !shouldThisThreadEnd) {
 1167              		.loc 3 42 10 is_stmt 1
 1168              		.cfi_startproc
 1169              	.LVL104:
 1170 0000 130101FE 		addi	sp,sp,-32
 1171              		.cfi_def_cfa_offset 32
 1172 0004 233C1100 		sd	ra,24(sp)
 1173 0008 23388100 		sd	s0,16(sp)
 1174 000c 23349100 		sd	s1,8(sp)
 1175              		.cfi_offset 1, -8
 1176              		.cfi_offset 8, -16
 1177              		.cfi_offset 9, -24
 1178 0010 13040102 		addi	s0,sp,32
 1179              		.cfi_def_cfa 8, 0
 1180 0014 93040500 		mv	s1,a0
 1181              	.LVL105:
 1182              	.L59:
  43:src/main.cpp  ****             periodicActivation();
 1183              		.loc 3 43 9
  43:src/main.cpp  ****             periodicActivation();
 1184              		.loc 3 43 24
  43:src/main.cpp  ****             periodicActivation();
 1185              		.loc 3 43 25 is_stmt 0
 1186 0018 83C78401 		lbu	a5,24(s1)
  43:src/main.cpp  ****             periodicActivation();
 1187              		.loc 3 43 24
 1188 001c 63920702 		bnez	a5,.L58
  44:src/main.cpp  ****             time_sleep(sleepTime);
 1189              		.loc 3 44 13 is_stmt 1
  44:src/main.cpp  ****             time_sleep(sleepTime);
 1190              		.loc 3 44 32 is_stmt 0
 1191 0020 83B70400 		ld	a5,0(s1)
 1192 0024 83B78701 		ld	a5,24(a5)
  44:src/main.cpp  ****             time_sleep(sleepTime);
 1193              		.loc 3 44 31
 1194 0028 13850400 		mv	a0,s1
 1195 002c E7800700 		jalr	a5
 1196              	.LVL106:
  45:src/main.cpp  ****         }
 1197              		.loc 3 45 13 is_stmt 1
  45:src/main.cpp  ****         }
 1198              		.loc 3 45 23 is_stmt 0
 1199 0030 03B50401 		ld	a0,16(s1)
 1200 0034 97000000 		call	_Z10time_sleepm@plt
 1200      E7800000 
 1201              	.LVL107:
  43:src/main.cpp  ****             periodicActivation();
 1202              		.loc 3 43 9
 1203 003c 6FF0DFFD 		j	.L59
 1204              	.L58:
  47:src/main.cpp  ****     }
 1205              		.loc 3 47 9 is_stmt 1
  47:src/main.cpp  ****     }
 1206              		.loc 3 47 32 is_stmt 0
 1207 0040 17050000 		ld	a0,.LANCHOR0+8
 1207      03350500 
GAS LISTING /tmp/ccy4oBQd.s 			page 28


 1208 0048 97000000 		call	_ZN9Semaphore6signalEv@plt
 1208      E7800000 
 1209              	.LVL108:
  48:src/main.cpp  **** 
 1210              		.loc 3 48 5
 1211 0050 83308101 		ld	ra,24(sp)
 1212              		.cfi_restore 1
 1213 0054 03340101 		ld	s0,16(sp)
 1214              		.cfi_restore 8
 1215              		.cfi_def_cfa 2, 32
 1216 0058 83348100 		ld	s1,8(sp)
 1217              		.cfi_restore 9
 1218              	.LVL109:
 1219 005c 13010102 		addi	sp,sp,32
 1220              		.cfi_def_cfa_offset 0
 1221 0060 67800000 		jr	ra
 1222              		.cfi_endproc
 1223              	.LFE99:
 1225              		.section	.text._ZN1C3runEv,"axG",@progbits,_ZN1C3runEv,comdat
 1226              		.align	2
 1227              		.weak	_ZN1C3runEv
 1229              	_ZN1C3runEv:
 1230              	.LFB104:
  60:src/main.cpp  **** public:
  61:src/main.cpp  ****     explicit C(time_t period) : PeriodicThread(period) {}
  62:src/main.cpp  **** 
  63:src/main.cpp  **** protected:
  64:src/main.cpp  ****     void run() override {
 1231              		.loc 3 64 10 is_stmt 1
 1232              		.cfi_startproc
 1233              	.LVL110:
 1234 0000 130101FE 		addi	sp,sp,-32
 1235              		.cfi_def_cfa_offset 32
 1236 0004 233C1100 		sd	ra,24(sp)
 1237 0008 23388100 		sd	s0,16(sp)
 1238 000c 23349100 		sd	s1,8(sp)
 1239              		.cfi_offset 1, -8
 1240              		.cfi_offset 8, -16
 1241              		.cfi_offset 9, -24
 1242 0010 13040102 		addi	s0,sp,32
 1243              		.cfi_def_cfa 8, 0
 1244 0014 93040500 		mv	s1,a0
 1245              	.LVL111:
 1246              	.L63:
  65:src/main.cpp  ****         while (true && !shouldThisThreadEnd) {
 1247              		.loc 3 65 9
 1248              		.loc 3 65 24
 1249              		.loc 3 65 25 is_stmt 0
 1250 0018 83C78401 		lbu	a5,24(s1)
 1251              		.loc 3 65 24
 1252 001c 63920702 		bnez	a5,.L62
  66:src/main.cpp  ****             periodicActivation();
 1253              		.loc 3 66 13 is_stmt 1
 1254              		.loc 3 66 32 is_stmt 0
 1255 0020 83B70400 		ld	a5,0(s1)
 1256 0024 83B78701 		ld	a5,24(a5)
 1257              		.loc 3 66 31
GAS LISTING /tmp/ccy4oBQd.s 			page 29


 1258 0028 13850400 		mv	a0,s1
 1259 002c E7800700 		jalr	a5
 1260              	.LVL112:
  67:src/main.cpp  ****             time_sleep(sleepTime);
 1261              		.loc 3 67 13 is_stmt 1
 1262              		.loc 3 67 23 is_stmt 0
 1263 0030 03B50401 		ld	a0,16(s1)
 1264 0034 97000000 		call	_Z10time_sleepm@plt
 1264      E7800000 
 1265              	.LVL113:
  65:src/main.cpp  ****         while (true && !shouldThisThreadEnd) {
 1266              		.loc 3 65 9
 1267 003c 6FF0DFFD 		j	.L63
 1268              	.L62:
  68:src/main.cpp  ****         }
  69:src/main.cpp  ****         myOwnWaitForAll->signal();
 1269              		.loc 3 69 9 is_stmt 1
 1270              		.loc 3 69 32 is_stmt 0
 1271 0040 17050000 		ld	a0,.LANCHOR0+8
 1271      03350500 
 1272 0048 97000000 		call	_ZN9Semaphore6signalEv@plt
 1272      E7800000 
 1273              	.LVL114:
  70:src/main.cpp  ****     }
 1274              		.loc 3 70 5
 1275 0050 83308101 		ld	ra,24(sp)
 1276              		.cfi_restore 1
 1277 0054 03340101 		ld	s0,16(sp)
 1278              		.cfi_restore 8
 1279              		.cfi_def_cfa 2, 32
 1280 0058 83348100 		ld	s1,8(sp)
 1281              		.cfi_restore 9
 1282              	.LVL115:
 1283 005c 13010102 		addi	sp,sp,32
 1284              		.cfi_def_cfa_offset 0
 1285 0060 67800000 		jr	ra
 1286              		.cfi_endproc
 1287              	.LFE104:
 1289              		.section	.text._ZN19ConsumerProducerCPP16ProducerKeyborad3runEv,"axG",@progbits,_ZN19ConsumerProdu
 1290              		.align	2
 1291              		.weak	_ZN19ConsumerProducerCPP16ProducerKeyborad3runEv
 1293              	_ZN19ConsumerProducerCPP16ProducerKeyborad3runEv:
 1294              	.LFB77:
  26:src/../h/Z_Njihovo_Consumer_Producer_CPP_API_Test.hpp ****             int key;
 1295              		.loc 2 26 14 is_stmt 1
 1296              		.cfi_startproc
 1297              	.LVL116:
 1298 0000 130101FE 		addi	sp,sp,-32
 1299              		.cfi_def_cfa_offset 32
 1300 0004 233C1100 		sd	ra,24(sp)
 1301 0008 23388100 		sd	s0,16(sp)
 1302 000c 23349100 		sd	s1,8(sp)
 1303              		.cfi_offset 1, -8
 1304              		.cfi_offset 8, -16
 1305              		.cfi_offset 9, -24
 1306 0010 13040102 		addi	s0,sp,32
 1307              		.cfi_def_cfa 8, 0
GAS LISTING /tmp/ccy4oBQd.s 			page 30


 1308 0014 93040500 		mv	s1,a0
  27:src/../h/Z_Njihovo_Consumer_Producer_CPP_API_Test.hpp ****             int i = 0;
 1309              		.loc 2 27 13
  28:src/../h/Z_Njihovo_Consumer_Producer_CPP_API_Test.hpp ****             while ((key = getc()) != 0x1b) {
 1310              		.loc 2 28 13
 1311              	.LVL117:
 1312              	.L67:
  29:src/../h/Z_Njihovo_Consumer_Producer_CPP_API_Test.hpp ****                 td->buffer->put(key);
 1313              		.loc 2 29 13
  29:src/../h/Z_Njihovo_Consumer_Producer_CPP_API_Test.hpp ****                 td->buffer->put(key);
 1314              		.loc 2 29 35
  29:src/../h/Z_Njihovo_Consumer_Producer_CPP_API_Test.hpp ****                 td->buffer->put(key);
 1315              		.loc 2 29 31 is_stmt 0
 1316 0018 97000000 		call	_Z4getcv@plt
 1316      E7800000 
 1317              	.LVL118:
  29:src/../h/Z_Njihovo_Consumer_Producer_CPP_API_Test.hpp ****                 td->buffer->put(key);
 1318              		.loc 2 29 25
 1319 0020 9B050500 		sext.w	a1,a0
 1320              	.LVL119:
  29:src/../h/Z_Njihovo_Consumer_Producer_CPP_API_Test.hpp ****                 td->buffer->put(key);
 1321              		.loc 2 29 35
 1322 0024 9307B001 		li	a5,27
 1323 0028 638CF500 		beq	a1,a5,.L66
  30:src/../h/Z_Njihovo_Consumer_Producer_CPP_API_Test.hpp ****                 i++;
 1324              		.loc 2 30 17 is_stmt 1
 1325 002c 83B70401 		ld	a5,16(s1)
  30:src/../h/Z_Njihovo_Consumer_Producer_CPP_API_Test.hpp ****                 i++;
 1326              		.loc 2 30 32 is_stmt 0
 1327 0030 03B58700 		ld	a0,8(a5)
 1328 0034 97000000 		call	_ZN9BufferCPP3putEi@plt
 1328      E7800000 
 1329              	.LVL120:
  31:src/../h/Z_Njihovo_Consumer_Producer_CPP_API_Test.hpp ****             }
 1330              		.loc 2 31 17 is_stmt 1
  29:src/../h/Z_Njihovo_Consumer_Producer_CPP_API_Test.hpp ****                 td->buffer->put(key);
 1331              		.loc 2 29 13 is_stmt 0
 1332 003c 6FF0DFFD 		j	.L67
 1333              	.LVL121:
 1334              	.L66:
  34:src/../h/Z_Njihovo_Consumer_Producer_CPP_API_Test.hpp ****             td->buffer->put('!');
 1335              		.loc 2 34 13 is_stmt 1
  34:src/../h/Z_Njihovo_Consumer_Producer_CPP_API_Test.hpp ****             td->buffer->put('!');
 1336              		.loc 2 34 23 is_stmt 0
 1337 0040 93071000 		li	a5,1
 1338 0044 17070000 		sw	a5,.LANCHOR0+4,a4
 1338      2320F700 
  35:src/../h/Z_Njihovo_Consumer_Producer_CPP_API_Test.hpp **** 
 1339              		.loc 2 35 13 is_stmt 1
 1340 004c 83B70401 		ld	a5,16(s1)
  35:src/../h/Z_Njihovo_Consumer_Producer_CPP_API_Test.hpp **** 
 1341              		.loc 2 35 28 is_stmt 0
 1342 0050 93051002 		li	a1,33
 1343              	.LVL122:
 1344 0054 03B58700 		ld	a0,8(a5)
 1345              	.LVL123:
 1346 0058 97000000 		call	_ZN9BufferCPP3putEi@plt
GAS LISTING /tmp/ccy4oBQd.s 			page 31


 1346      E7800000 
 1347              	.LVL124:
  37:src/../h/Z_Njihovo_Consumer_Producer_CPP_API_Test.hpp ****         }
 1348              		.loc 2 37 13 is_stmt 1
 1349 0060 83B70401 		ld	a5,16(s1)
  37:src/../h/Z_Njihovo_Consumer_Producer_CPP_API_Test.hpp ****         }
 1350              		.loc 2 37 28 is_stmt 0
 1351 0064 03B50701 		ld	a0,16(a5)
 1352 0068 97000000 		call	_ZN9Semaphore6signalEv@plt
 1352      E7800000 
 1353              	.LVL125:
  38:src/../h/Z_Njihovo_Consumer_Producer_CPP_API_Test.hpp ****     };
 1354              		.loc 2 38 9
 1355 0070 83308101 		ld	ra,24(sp)
 1356              		.cfi_restore 1
 1357 0074 03340101 		ld	s0,16(sp)
 1358              		.cfi_restore 8
 1359              		.cfi_def_cfa 2, 32
 1360 0078 83348100 		ld	s1,8(sp)
 1361              		.cfi_restore 9
 1362              	.LVL126:
 1363 007c 13010102 		addi	sp,sp,32
 1364              		.cfi_def_cfa_offset 0
 1365 0080 67800000 		jr	ra
 1366              		.cfi_endproc
 1367              	.LFE77:
 1369              		.section	.text._ZN19ConsumerProducerCPP8Producer3runEv,"axG",@progbits,_ZN19ConsumerProducerCPP8Pr
 1370              		.align	2
 1371              		.weak	_ZN19ConsumerProducerCPP8Producer3runEv
 1373              	_ZN19ConsumerProducerCPP8Producer3runEv:
 1374              	.LFB81:
  46:src/../h/Z_Njihovo_Consumer_Producer_CPP_API_Test.hpp ****             int i = 0;
 1375              		.loc 2 46 14 is_stmt 1
 1376              		.cfi_startproc
 1377              	.LVL127:
 1378 0000 130101FE 		addi	sp,sp,-32
 1379              		.cfi_def_cfa_offset 32
 1380 0004 233C1100 		sd	ra,24(sp)
 1381 0008 23388100 		sd	s0,16(sp)
 1382 000c 23349100 		sd	s1,8(sp)
 1383 0010 23302101 		sd	s2,0(sp)
 1384              		.cfi_offset 1, -8
 1385              		.cfi_offset 8, -16
 1386              		.cfi_offset 9, -24
 1387              		.cfi_offset 18, -32
 1388 0014 13040102 		addi	s0,sp,32
 1389              		.cfi_def_cfa 8, 0
 1390 0018 93040500 		mv	s1,a0
  47:src/../h/Z_Njihovo_Consumer_Producer_CPP_API_Test.hpp ****             while (!threadEnd) {
 1391              		.loc 2 47 13
 1392              	.LVL128:
  47:src/../h/Z_Njihovo_Consumer_Producer_CPP_API_Test.hpp ****             while (!threadEnd) {
 1393              		.loc 2 47 17 is_stmt 0
 1394 001c 13090000 		li	s2,0
 1395              	.LVL129:
 1396              	.L71:
  48:src/../h/Z_Njihovo_Consumer_Producer_CPP_API_Test.hpp ****                 td->buffer->put(td->id + '0');
GAS LISTING /tmp/ccy4oBQd.s 			page 32


 1397              		.loc 2 48 13 is_stmt 1
  48:src/../h/Z_Njihovo_Consumer_Producer_CPP_API_Test.hpp ****                 td->buffer->put(td->id + '0');
 1398              		.loc 2 48 20
 1399 0020 97070000 		lw	a5,.LANCHOR0+4
 1399      83A70700 
 1400 0028 63920704 		bnez	a5,.L70
  49:src/../h/Z_Njihovo_Consumer_Producer_CPP_API_Test.hpp ****                 i++;
 1401              		.loc 2 49 17
 1402 002c 83B70401 		ld	a5,16(s1)
  49:src/../h/Z_Njihovo_Consumer_Producer_CPP_API_Test.hpp ****                 i++;
 1403              		.loc 2 49 37 is_stmt 0
 1404 0030 83A50700 		lw	a1,0(a5)
  49:src/../h/Z_Njihovo_Consumer_Producer_CPP_API_Test.hpp ****                 i++;
 1405              		.loc 2 49 32
 1406 0034 9B850503 		addiw	a1,a1,48
 1407 0038 03B58700 		ld	a0,8(a5)
 1408 003c 97000000 		call	_ZN9BufferCPP3putEi@plt
 1408      E7800000 
 1409              	.LVL130:
  50:src/../h/Z_Njihovo_Consumer_Producer_CPP_API_Test.hpp ****                 Thread::sleep((i+td->id)%5);
 1410              		.loc 2 50 17 is_stmt 1
  50:src/../h/Z_Njihovo_Consumer_Producer_CPP_API_Test.hpp ****                 Thread::sleep((i+td->id)%5);
 1411              		.loc 2 50 18 is_stmt 0
 1412 0044 1B071900 		addiw	a4,s2,1
 1413 0048 1B090700 		sext.w	s2,a4
 1414              	.LVL131:
  51:src/../h/Z_Njihovo_Consumer_Producer_CPP_API_Test.hpp ****             }
 1415              		.loc 2 51 17 is_stmt 1
  51:src/../h/Z_Njihovo_Consumer_Producer_CPP_API_Test.hpp ****             }
 1416              		.loc 2 51 34 is_stmt 0
 1417 004c 83B70401 		ld	a5,16(s1)
  51:src/../h/Z_Njihovo_Consumer_Producer_CPP_API_Test.hpp ****             }
 1418              		.loc 2 51 38
 1419 0050 83A70700 		lw	a5,0(a5)
  51:src/../h/Z_Njihovo_Consumer_Producer_CPP_API_Test.hpp ****             }
 1420              		.loc 2 51 33
 1421 0054 BB87E700 		addw	a5,a5,a4
  51:src/../h/Z_Njihovo_Consumer_Producer_CPP_API_Test.hpp ****             }
 1422              		.loc 2 51 30
 1423 0058 13055000 		li	a0,5
 1424 005c 3BE5A702 		remw	a0,a5,a0
 1425 0060 97000000 		call	_ZN6Thread5sleepEm@plt
 1425      E7800000 
 1426              	.LVL132:
  48:src/../h/Z_Njihovo_Consumer_Producer_CPP_API_Test.hpp ****                 td->buffer->put(td->id + '0');
 1427              		.loc 2 48 13
 1428 0068 6FF09FFB 		j	.L71
 1429              	.L70:
  54:src/../h/Z_Njihovo_Consumer_Producer_CPP_API_Test.hpp ****         }
 1430              		.loc 2 54 13 is_stmt 1
 1431 006c 83B70401 		ld	a5,16(s1)
  54:src/../h/Z_Njihovo_Consumer_Producer_CPP_API_Test.hpp ****         }
 1432              		.loc 2 54 28 is_stmt 0
 1433 0070 03B50701 		ld	a0,16(a5)
 1434 0074 97000000 		call	_ZN9Semaphore6signalEv@plt
 1434      E7800000 
 1435              	.LVL133:
GAS LISTING /tmp/ccy4oBQd.s 			page 33


  55:src/../h/Z_Njihovo_Consumer_Producer_CPP_API_Test.hpp ****     };
 1436              		.loc 2 55 9
 1437 007c 83308101 		ld	ra,24(sp)
 1438              		.cfi_restore 1
 1439 0080 03340101 		ld	s0,16(sp)
 1440              		.cfi_restore 8
 1441              		.cfi_def_cfa 2, 32
 1442 0084 83348100 		ld	s1,8(sp)
 1443              		.cfi_restore 9
 1444              	.LVL134:
 1445 0088 03390100 		ld	s2,0(sp)
 1446              		.cfi_restore 18
 1447              	.LVL135:
 1448 008c 13010102 		addi	sp,sp,32
 1449              		.cfi_def_cfa_offset 0
 1450 0090 67800000 		jr	ra
 1451              		.cfi_endproc
 1452              	.LFE81:
 1454              		.text
 1455              		.align	2
 1456              		.globl	_Z8userMainPv
 1458              	_Z8userMainPv:
 1459              	.LFB106:
  71:src/main.cpp  **** 
  72:src/main.cpp  **** private:
  73:src/main.cpp  ****     void periodicActivation() override {
  74:src/main.cpp  ****         myOwnMutex->wait();
  75:src/main.cpp  ****         putc('C');
  76:src/main.cpp  ****         putc('\n');
  77:src/main.cpp  ****         myOwnMutex->signal();
  78:src/main.cpp  ****     }
  79:src/main.cpp  **** };
  80:src/main.cpp  **** 
  81:src/main.cpp  **** void userMain(void* arg) {
 1460              		.loc 3 81 26 is_stmt 1
 1461              		.cfi_startproc
 1462              		.cfi_personality 0x9b,DW.ref.__gxx_personality_v0
 1463              		.cfi_lsda 0x1b,.LLSDA106
 1464              	.LVL136:
 1465 00a4 130101FB 		addi	sp,sp,-80
 1466              		.cfi_def_cfa_offset 80
 1467 00a8 23341104 		sd	ra,72(sp)
 1468 00ac 23308104 		sd	s0,64(sp)
 1469 00b0 233C9102 		sd	s1,56(sp)
 1470 00b4 23382103 		sd	s2,48(sp)
 1471 00b8 23343103 		sd	s3,40(sp)
 1472              		.cfi_offset 1, -8
 1473              		.cfi_offset 8, -16
 1474              		.cfi_offset 9, -24
 1475              		.cfi_offset 18, -32
 1476              		.cfi_offset 19, -40
 1477 00bc 13040105 		addi	s0,sp,80
 1478              		.cfi_def_cfa 8, 0
  82:src/main.cpp  ****     //Threads_C_API_test(); // niti C API, sinhrona promena konteksta (prosao)
  83:src/main.cpp  ****     //Threads_CPP_API_test(); // niti CPP API, sinhrona promena konteksta (prosao)
  84:src/main.cpp  **** 
  85:src/main.cpp  ****     //producerConsumer_C_API(); // kompletan C API sa semaforima, sinhrona promena konteksta (prosa
GAS LISTING /tmp/ccy4oBQd.s 			page 34


  86:src/main.cpp  ****     //producerConsumer_CPP_Sync_API(); // kompletan CPP API sa semaforima, sinhrona promena konteks
  87:src/main.cpp  **** 
  88:src/main.cpp  ****     //testSleeping(); // uspavljivanje i budjenje niti, C API test (prosao)
  89:src/main.cpp  ****     //ConsumerProducerCPP::testConsumerProducer(); // CPP API i asinhrona promena konteksta, komple
  90:src/main.cpp  **** 
  91:src/main.cpp  ****     myOwnMutex = new Semaphore();
 1479              		.loc 3 91 5
 1480              		.loc 3 91 32 is_stmt 0
 1481 00c0 13050001 		li	a0,16
 1482              	.LVL137:
 1483              	.LEHB0:
 1484 00c4 97000000 		call	_Znwm@plt
 1484      E7800000 
 1485              	.LVL138:
 1486              	.LEHE0:
 1487 00cc 93040500 		mv	s1,a0
 1488 00d0 93051000 		li	a1,1
 1489              	.LEHB1:
 1490 00d4 97000000 		call	_ZN9SemaphoreC1Ej@plt
 1490      E7800000 
 1491              	.LVL139:
 1492              	.LEHE1:
 1493              		.loc 3 91 16
 1494 00dc 97070000 		sd	s1,.LANCHOR0+16,a5
 1494      23B09700 
  92:src/main.cpp  ****     myOwnWaitForAll = new Semaphore(0);
 1495              		.loc 3 92 5 is_stmt 1
 1496              		.loc 3 92 38 is_stmt 0
 1497 00e4 13050001 		li	a0,16
 1498              	.LEHB2:
 1499 00e8 97000000 		call	_Znwm@plt
 1499      E7800000 
 1500              	.LVL140:
 1501              	.LEHE2:
 1502 00f0 93040500 		mv	s1,a0
 1503 00f4 93050000 		li	a1,0
 1504              	.LEHB3:
 1505 00f8 97000000 		call	_ZN9SemaphoreC1Ej@plt
 1505      E7800000 
 1506              	.LVL141:
 1507              	.LEHE3:
 1508              		.loc 3 92 21 discriminator 3
 1509 0100 97070000 		sd	s1,.LANCHOR0+8,a5
 1509      23B09700 
  93:src/main.cpp  **** 
  94:src/main.cpp  ****     A* a = new A(5);
 1510              		.loc 3 94 5 is_stmt 1 discriminator 3
 1511              		.loc 3 94 19 is_stmt 0 discriminator 3
 1512 0108 13050002 		li	a0,32
 1513              	.LEHB4:
 1514 010c 97000000 		call	_Znwm@plt
 1514      E7800000 
 1515              	.LVL142:
 1516              	.LEHE4:
 1517 0114 93090500 		mv	s3,a0
 1518              	.LVL143:
 1519              	.LBB136:
GAS LISTING /tmp/ccy4oBQd.s 			page 35


 1520              	.LBB137:
  17:src/main.cpp  **** 
 1521              		.loc 3 17 54 discriminator 3
 1522 0118 93055000 		li	a1,5
 1523              	.LEHB5:
 1524 011c 97000000 		call	_ZN14PeriodicThreadC2Em@plt
 1524      E7800000 
 1525              	.LVL144:
 1526              	.LEHE5:
  17:src/main.cpp  **** 
 1527              		.loc 3 17 54
 1528 0124 97070000 		lla	a5,_ZTV1A+16
 1528      93870700 
 1529 012c 23B0F900 		sd	a5,0(s3)
 1530              	.LVL145:
 1531              	.LBE137:
 1532              	.LBE136:
  95:src/main.cpp  ****     B* b = new B(5);
 1533              		.loc 3 95 5 is_stmt 1
 1534              		.loc 3 95 19 is_stmt 0
 1535 0130 13050002 		li	a0,32
 1536              	.LEHB6:
 1537 0134 97000000 		call	_Znwm@plt
 1537      E7800000 
 1538              	.LVL146:
 1539              	.LEHE6:
 1540 013c 13090500 		mv	s2,a0
 1541              	.LVL147:
 1542              	.LBB138:
 1543              	.LBB139:
  39:src/main.cpp  **** 
 1544              		.loc 3 39 54
 1545 0140 93055000 		li	a1,5
 1546              	.LEHB7:
 1547 0144 97000000 		call	_ZN14PeriodicThreadC2Em@plt
 1547      E7800000 
 1548              	.LVL148:
 1549              	.LEHE7:
 1550 014c 97070000 		lla	a5,_ZTV1B+16
 1550      93870700 
 1551 0154 2330F900 		sd	a5,0(s2)
 1552              	.LVL149:
 1553              	.LBE139:
 1554              	.LBE138:
  96:src/main.cpp  ****     C* c = new C(5);
 1555              		.loc 3 96 5 is_stmt 1
 1556              		.loc 3 96 19 is_stmt 0
 1557 0158 13050002 		li	a0,32
 1558              	.LEHB8:
 1559 015c 97000000 		call	_Znwm@plt
 1559      E7800000 
 1560              	.LVL150:
 1561              	.LEHE8:
 1562 0164 93040500 		mv	s1,a0
 1563              	.LVL151:
 1564              	.LBB140:
 1565              	.LBB141:
GAS LISTING /tmp/ccy4oBQd.s 			page 36


  61:src/main.cpp  **** 
 1566              		.loc 3 61 54
 1567 0168 93055000 		li	a1,5
 1568              	.LEHB9:
 1569 016c 97000000 		call	_ZN14PeriodicThreadC2Em@plt
 1569      E7800000 
 1570              	.LVL152:
 1571              	.LEHE9:
 1572 0174 97070000 		lla	a5,_ZTV1C+16
 1572      93870700 
 1573 017c 23B0F400 		sd	a5,0(s1)
 1574              	.LVL153:
 1575              	.LBE141:
 1576              	.LBE140:
  97:src/main.cpp  **** 
  98:src/main.cpp  ****     PeriodicThread* threads[3];
 1577              		.loc 3 98 5 is_stmt 1
  99:src/main.cpp  ****     threads[0] = a;
 1578              		.loc 3 99 5
 1579              		.loc 3 99 16 is_stmt 0
 1580 0180 233C34FB 		sd	s3,-72(s0)
 100:src/main.cpp  ****     threads[1] = b;
 1581              		.loc 3 100 5 is_stmt 1
 1582              		.loc 3 100 16 is_stmt 0
 1583 0184 233024FD 		sd	s2,-64(s0)
 101:src/main.cpp  ****     threads[2] = c;
 1584              		.loc 3 101 5 is_stmt 1
 1585              		.loc 3 101 16 is_stmt 0
 1586 0188 233494FC 		sd	s1,-56(s0)
 102:src/main.cpp  **** 
 103:src/main.cpp  ****     threads[0]->start();
 1587              		.loc 3 103 5 is_stmt 1
 1588              		.loc 3 103 22 is_stmt 0
 1589 018c 13850900 		mv	a0,s3
 1590              	.LEHB10:
 1591 0190 97000000 		call	_ZN6Thread5startEv@plt
 1591      E7800000 
 1592              	.LVL154:
 104:src/main.cpp  ****     threads[1]->start();
 1593              		.loc 3 104 5 is_stmt 1
 1594              		.loc 3 104 22 is_stmt 0
 1595 0198 13050900 		mv	a0,s2
 1596 019c 97000000 		call	_ZN6Thread5startEv@plt
 1596      E7800000 
 1597              	.LVL155:
 105:src/main.cpp  ****     threads[2]->start();
 1598              		.loc 3 105 5 is_stmt 1
 1599              		.loc 3 105 22 is_stmt 0
 1600 01a4 13850400 		mv	a0,s1
 1601 01a8 97000000 		call	_ZN6Thread5startEv@plt
 1601      E7800000 
 1602              	.LVL156:
 1603              	.LBB142:
 106:src/main.cpp  **** 
 107:src/main.cpp  ****     int endThis = 0;
 108:src/main.cpp  ****     for (int i = 0; i < 3; i++) {
 1604              		.loc 3 108 14
GAS LISTING /tmp/ccy4oBQd.s 			page 37


 1605 01b0 93040000 		li	s1,0
 1606              	.LVL157:
 1607              	.LBE142:
 107:src/main.cpp  ****     for (int i = 0; i < 3; i++) {
 1608              		.loc 3 107 9
 1609 01b4 13090000 		li	s2,0
 1610              	.LVL158:
 1611 01b8 6F008002 		j	.L77
 1612              	.LVL159:
 1613              	.L93:
 1614              	.LBB145:
 1615              	.LBB143:
 109:src/main.cpp  ****         char chr = getc();
 110:src/main.cpp  ****         if (chr == 'k') {
 111:src/main.cpp  ****             threads[endThis++]->endPeriodicThread();
 1616              		.loc 3 111 13 is_stmt 1
 1617              		.loc 3 111 28 is_stmt 0
 1618 01bc 9B091900 		addiw	s3,s2,1
 1619              	.LVL160:
 1620              		.loc 3 111 30
 1621 01c0 13193900 		slli	s2,s2,3
 1622              	.LVL161:
 1623 01c4 930704FD 		addi	a5,s0,-48
 1624 01c8 33892701 		add	s2,a5,s2
 1625              		.loc 3 111 50
 1626 01cc 033589FE 		ld	a0,-24(s2)
 1627              	.LVL162:
 1628 01d0 97000000 		call	_ZN14PeriodicThread17endPeriodicThreadEv@plt
 1628      E7800000 
 1629              	.LVL163:
 1630              		.loc 3 111 28
 1631 01d8 13890900 		mv	s2,s3
 1632              	.LVL164:
 1633              	.L76:
 1634              	.LBE143:
 108:src/main.cpp  ****         char chr = getc();
 1635              		.loc 3 108 5 is_stmt 1 discriminator 2
 1636 01dc 9B841400 		addiw	s1,s1,1
 1637              	.LVL165:
 1638              	.L77:
 108:src/main.cpp  ****         char chr = getc();
 1639              		.loc 3 108 23 discriminator 1
 1640 01e0 93072000 		li	a5,2
 1641 01e4 63CE9700 		bgt	s1,a5,.L86
 1642              	.LBB144:
 109:src/main.cpp  ****         char chr = getc();
 1643              		.loc 3 109 9
 109:src/main.cpp  ****         char chr = getc();
 1644              		.loc 3 109 24 is_stmt 0
 1645 01e8 97000000 		call	_Z4getcv@plt
 1645      E7800000 
 1646              	.LVL166:
 110:src/main.cpp  ****             threads[endThis++]->endPeriodicThread();
 1647              		.loc 3 110 9 is_stmt 1
 1648 01f0 9307B006 		li	a5,107
 1649 01f4 E304F5FC 		beq	a0,a5,.L93
 112:src/main.cpp  ****         } else {
GAS LISTING /tmp/ccy4oBQd.s 			page 38


 113:src/main.cpp  ****             i--;
 1650              		.loc 3 113 13
 1651              		.loc 3 113 14 is_stmt 0
 1652 01f8 9B84F4FF 		addiw	s1,s1,-1
 1653              	.LVL167:
 1654 01fc 6FF01FFE 		j	.L76
 1655              	.LVL168:
 1656              	.L86:
 1657              	.LBE144:
 1658              	.LBE145:
 1659              	.LBB146:
 114:src/main.cpp  ****         }
 115:src/main.cpp  ****     }
 116:src/main.cpp  **** 
 117:src/main.cpp  ****     for (int i = 0; i < 3; i++) {
 1660              		.loc 3 117 14
 1661 0200 93040000 		li	s1,0
 1662              	.LVL169:
 1663              	.L74:
 1664              		.loc 3 117 23 is_stmt 1 discriminator 1
 1665 0204 93072000 		li	a5,2
 1666 0208 63CE9700 		bgt	s1,a5,.L78
 118:src/main.cpp  ****         myOwnWaitForAll->wait();
 1667              		.loc 3 118 9
 1668              		.loc 3 118 30 is_stmt 0
 1669 020c 17050000 		ld	a0,.LANCHOR0+8
 1669      03350500 
 1670 0214 97000000 		call	_ZN9Semaphore4waitEv@plt
 1670      E7800000 
 1671              	.LVL170:
 1672              	.LEHE10:
 117:src/main.cpp  ****         myOwnWaitForAll->wait();
 1673              		.loc 3 117 5 is_stmt 1
 1674 021c 9B841400 		addiw	s1,s1,1
 1675              	.LVL171:
 1676 0220 6FF05FFE 		j	.L74
 1677              	.LVL172:
 1678              	.L78:
 1679              	.LBE146:
 119:src/main.cpp  ****     }
 120:src/main.cpp  **** 
 121:src/main.cpp  ****     delete myOwnMutex;
 1680              		.loc 3 121 5
 1681              		.loc 3 121 12 is_stmt 0
 1682 0224 17050000 		ld	a0,.LANCHOR0+16
 1682      03350500 
 1683              		.loc 3 121 22
 1684 022c 63080500 		beqz	a0,.L79
 1685              		.loc 3 121 12 discriminator 1
 1686 0230 83370500 		ld	a5,0(a0)
 1687 0234 83B78700 		ld	a5,8(a5)
 1688 0238 E7800700 		jalr	a5
 1689              	.LVL173:
 1690              	.L79:
 122:src/main.cpp  ****     delete myOwnWaitForAll;
 1691              		.loc 3 122 5 is_stmt 1
 1692              		.loc 3 122 12 is_stmt 0
GAS LISTING /tmp/ccy4oBQd.s 			page 39


 1693 023c 17050000 		ld	a0,.LANCHOR0+8
 1693      03350500 
 1694              		.loc 3 122 27
 1695 0244 63080500 		beqz	a0,.L73
 1696              		.loc 3 122 12 discriminator 1
 1697 0248 83370500 		ld	a5,0(a0)
 1698 024c 83B78700 		ld	a5,8(a5)
 1699 0250 E7800700 		jalr	a5
 1700              	.LVL174:
 1701              	.L73:
 123:src/main.cpp  **** }
 1702              		.loc 3 123 1
 1703 0254 83308104 		ld	ra,72(sp)
 1704              		.cfi_remember_state
 1705              		.cfi_restore 1
 1706 0258 03340104 		ld	s0,64(sp)
 1707              		.cfi_restore 8
 1708              		.cfi_def_cfa 2, 80
 1709              	.LVL175:
 1710 025c 83348103 		ld	s1,56(sp)
 1711              		.cfi_restore 9
 1712              	.LVL176:
 1713 0260 03390103 		ld	s2,48(sp)
 1714              		.cfi_restore 18
 1715              	.LVL177:
 1716 0264 83398102 		ld	s3,40(sp)
 1717              		.cfi_restore 19
 1718 0268 13010105 		addi	sp,sp,80
 1719              		.cfi_def_cfa_offset 0
 1720              	.LVL178:
 1721 026c 67800000 		jr	ra
 1722              	.LVL179:
 1723              	.L87:
 1724              		.cfi_restore_state
 1725 0270 13090500 		mv	s2,a0
  91:src/main.cpp  ****     myOwnWaitForAll = new Semaphore(0);
 1726              		.loc 3 91 32
 1727 0274 13850400 		mv	a0,s1
 1728 0278 97000000 		call	_ZdlPv@plt
 1728      E7800000 
 1729              	.LVL180:
 1730 0280 13050900 		mv	a0,s2
 1731              	.LEHB11:
 1732 0284 97000000 		call	_Unwind_Resume@plt
 1732      E7800000 
 1733              	.LVL181:
 1734              	.LEHE11:
 1735              	.L88:
 1736 028c 13090500 		mv	s2,a0
  92:src/main.cpp  **** 
 1737              		.loc 3 92 38
 1738 0290 13850400 		mv	a0,s1
 1739 0294 97000000 		call	_ZdlPv@plt
 1739      E7800000 
 1740              	.LVL182:
 1741 029c 13050900 		mv	a0,s2
 1742              	.LEHB12:
GAS LISTING /tmp/ccy4oBQd.s 			page 40


 1743 02a0 97000000 		call	_Unwind_Resume@plt
 1743      E7800000 
 1744              	.LVL183:
 1745              	.LEHE12:
 1746              	.L89:
 1747 02a8 93040500 		mv	s1,a0
  94:src/main.cpp  ****     B* b = new B(5);
 1748              		.loc 3 94 19
 1749 02ac 13850900 		mv	a0,s3
 1750 02b0 97000000 		call	_ZdlPv@plt
 1750      E7800000 
 1751              	.LVL184:
 1752 02b8 13850400 		mv	a0,s1
 1753              	.LEHB13:
 1754 02bc 97000000 		call	_Unwind_Resume@plt
 1754      E7800000 
 1755              	.LVL185:
 1756              	.LEHE13:
 1757              	.L90:
 1758 02c4 93040500 		mv	s1,a0
  95:src/main.cpp  ****     C* c = new C(5);
 1759              		.loc 3 95 19
 1760 02c8 13050900 		mv	a0,s2
 1761 02cc 97000000 		call	_ZdlPv@plt
 1761      E7800000 
 1762              	.LVL186:
 1763 02d4 13850400 		mv	a0,s1
 1764              	.LEHB14:
 1765 02d8 97000000 		call	_Unwind_Resume@plt
 1765      E7800000 
 1766              	.LVL187:
 1767              	.LEHE14:
 1768              	.L91:
 1769 02e0 13090500 		mv	s2,a0
 1770              	.LVL188:
  96:src/main.cpp  **** 
 1771              		.loc 3 96 19
 1772 02e4 13850400 		mv	a0,s1
 1773 02e8 97000000 		call	_ZdlPv@plt
 1773      E7800000 
 1774              	.LVL189:
 1775 02f0 13050900 		mv	a0,s2
 1776              	.LEHB15:
 1777 02f4 97000000 		call	_Unwind_Resume@plt
 1777      E7800000 
 1778              	.LVL190:
 1779              	.LEHE15:
 1780              		.cfi_endproc
 1781              	.LFE106:
 1782              		.globl	__gxx_personality_v0
 1783              		.section	.gcc_except_table,"a",@progbits
 1784              	.LLSDA106:
 1785 0000 FF       		.byte	0xff
 1786 0001 FF       		.byte	0xff
 1787 0002 03       		.byte	0x3
 1788 0003 D001     		.byte	0xd0,0x1
 1789 0005 00000000 		.4byte	.LEHB0-.LFB106
GAS LISTING /tmp/ccy4oBQd.s 			page 41


 1790 0009 00000000 		.4byte	.LEHE0-.LEHB0
 1791 000d 00000000 		.4byte	0
 1792 0011 00       		.byte	0
 1793 0012 00000000 		.4byte	.LEHB1-.LFB106
 1794 0016 00000000 		.4byte	.LEHE1-.LEHB1
 1795 001a 00000000 		.4byte	.L87-.LFB106
 1796 001e 00       		.byte	0
 1797 001f 00000000 		.4byte	.LEHB2-.LFB106
 1798 0023 00000000 		.4byte	.LEHE2-.LEHB2
 1799 0027 00000000 		.4byte	0
 1800 002b 00       		.byte	0
 1801 002c 00000000 		.4byte	.LEHB3-.LFB106
 1802 0030 00000000 		.4byte	.LEHE3-.LEHB3
 1803 0034 00000000 		.4byte	.L88-.LFB106
 1804 0038 00       		.byte	0
 1805 0039 00000000 		.4byte	.LEHB4-.LFB106
 1806 003d 00000000 		.4byte	.LEHE4-.LEHB4
 1807 0041 00000000 		.4byte	0
 1808 0045 00       		.byte	0
 1809 0046 00000000 		.4byte	.LEHB5-.LFB106
 1810 004a 00000000 		.4byte	.LEHE5-.LEHB5
 1811 004e 00000000 		.4byte	.L89-.LFB106
 1812 0052 00       		.byte	0
 1813 0053 00000000 		.4byte	.LEHB6-.LFB106
 1814 0057 00000000 		.4byte	.LEHE6-.LEHB6
 1815 005b 00000000 		.4byte	0
 1816 005f 00       		.byte	0
 1817 0060 00000000 		.4byte	.LEHB7-.LFB106
 1818 0064 00000000 		.4byte	.LEHE7-.LEHB7
 1819 0068 00000000 		.4byte	.L90-.LFB106
 1820 006c 00       		.byte	0
 1821 006d 00000000 		.4byte	.LEHB8-.LFB106
 1822 0071 00000000 		.4byte	.LEHE8-.LEHB8
 1823 0075 00000000 		.4byte	0
 1824 0079 00       		.byte	0
 1825 007a 00000000 		.4byte	.LEHB9-.LFB106
 1826 007e 00000000 		.4byte	.LEHE9-.LEHB9
 1827 0082 00000000 		.4byte	.L91-.LFB106
 1828 0086 00       		.byte	0
 1829 0087 00000000 		.4byte	.LEHB10-.LFB106
 1830 008b 00000000 		.4byte	.LEHE10-.LEHB10
 1831 008f 00000000 		.4byte	0
 1832 0093 00       		.byte	0
 1833 0094 00000000 		.4byte	.LEHB11-.LFB106
 1834 0098 00000000 		.4byte	.LEHE11-.LEHB11
 1835 009c 00000000 		.4byte	0
 1836 00a0 00       		.byte	0
 1837 00a1 00000000 		.4byte	.LEHB12-.LFB106
 1838 00a5 00000000 		.4byte	.LEHE12-.LEHB12
 1839 00a9 00000000 		.4byte	0
 1840 00ad 00       		.byte	0
 1841 00ae 00000000 		.4byte	.LEHB13-.LFB106
 1842 00b2 00000000 		.4byte	.LEHE13-.LEHB13
 1843 00b6 00000000 		.4byte	0
 1844 00ba 00       		.byte	0
 1845 00bb 00000000 		.4byte	.LEHB14-.LFB106
 1846 00bf 00000000 		.4byte	.LEHE14-.LEHB14
GAS LISTING /tmp/ccy4oBQd.s 			page 42


 1847 00c3 00000000 		.4byte	0
 1848 00c7 00       		.byte	0
 1849 00c8 00000000 		.4byte	.LEHB15-.LFB106
 1850 00cc 00000000 		.4byte	.LEHE15-.LEHB15
 1851 00d0 00000000 		.4byte	0
 1852 00d4 00       		.byte	0
 1853              		.text
 1855              		.section	.text._ZN1A18periodicActivationEv,"axG",@progbits,_ZN1A18periodicActivationEv,comdat
 1856              		.align	2
 1857              		.weak	_ZN1A18periodicActivationEv
 1859              	_ZN1A18periodicActivationEv:
 1860              	.LFB95:
  29:src/main.cpp  ****         myOwnMutex->wait();
 1861              		.loc 3 29 10 is_stmt 1
 1862              		.cfi_startproc
 1863              	.LVL191:
 1864 0000 130101FE 		addi	sp,sp,-32
 1865              		.cfi_def_cfa_offset 32
 1866 0004 233C1100 		sd	ra,24(sp)
 1867 0008 23388100 		sd	s0,16(sp)
 1868 000c 23349100 		sd	s1,8(sp)
 1869              		.cfi_offset 1, -8
 1870              		.cfi_offset 8, -16
 1871              		.cfi_offset 9, -24
 1872 0010 13040102 		addi	s0,sp,32
 1873              		.cfi_def_cfa 8, 0
  30:src/main.cpp  ****         putc('A');
 1874              		.loc 3 30 9
  30:src/main.cpp  ****         putc('A');
 1875              		.loc 3 30 25 is_stmt 0
 1876 0014 97040000 		lla	s1,.LANCHOR0
 1876      93840400 
 1877 001c 03B50401 		ld	a0,16(s1)
 1878              	.LVL192:
 1879 0020 97000000 		call	_ZN9Semaphore4waitEv@plt
 1879      E7800000 
 1880              	.LVL193:
  31:src/main.cpp  ****         putc('\n');
 1881              		.loc 3 31 9 is_stmt 1
  31:src/main.cpp  ****         putc('\n');
 1882              		.loc 3 31 13 is_stmt 0
 1883 0028 13051004 		li	a0,65
 1884 002c 97000000 		call	_Z4putcc@plt
 1884      E7800000 
 1885              	.LVL194:
  32:src/main.cpp  ****         myOwnMutex->signal();
 1886              		.loc 3 32 9 is_stmt 1
  32:src/main.cpp  ****         myOwnMutex->signal();
 1887              		.loc 3 32 13 is_stmt 0
 1888 0034 1305A000 		li	a0,10
 1889 0038 97000000 		call	_Z4putcc@plt
 1889      E7800000 
 1890              	.LVL195:
  33:src/main.cpp  ****     }
 1891              		.loc 3 33 9 is_stmt 1
  33:src/main.cpp  ****     }
 1892              		.loc 3 33 27 is_stmt 0
GAS LISTING /tmp/ccy4oBQd.s 			page 43


 1893 0040 03B50401 		ld	a0,16(s1)
 1894 0044 97000000 		call	_ZN9Semaphore6signalEv@plt
 1894      E7800000 
 1895              	.LVL196:
  34:src/main.cpp  **** };
 1896              		.loc 3 34 5
 1897 004c 83308101 		ld	ra,24(sp)
 1898              		.cfi_restore 1
 1899 0050 03340101 		ld	s0,16(sp)
 1900              		.cfi_restore 8
 1901              		.cfi_def_cfa 2, 32
 1902 0054 83348100 		ld	s1,8(sp)
 1903              		.cfi_restore 9
 1904 0058 13010102 		addi	sp,sp,32
 1905              		.cfi_def_cfa_offset 0
 1906 005c 67800000 		jr	ra
 1907              		.cfi_endproc
 1908              	.LFE95:
 1910              		.section	.text._ZN1B18periodicActivationEv,"axG",@progbits,_ZN1B18periodicActivationEv,comdat
 1911              		.align	2
 1912              		.weak	_ZN1B18periodicActivationEv
 1914              	_ZN1B18periodicActivationEv:
 1915              	.LFB100:
  51:src/main.cpp  ****         myOwnMutex->wait();
 1916              		.loc 3 51 10 is_stmt 1
 1917              		.cfi_startproc
 1918              	.LVL197:
 1919 0000 130101FE 		addi	sp,sp,-32
 1920              		.cfi_def_cfa_offset 32
 1921 0004 233C1100 		sd	ra,24(sp)
 1922 0008 23388100 		sd	s0,16(sp)
 1923 000c 23349100 		sd	s1,8(sp)
 1924              		.cfi_offset 1, -8
 1925              		.cfi_offset 8, -16
 1926              		.cfi_offset 9, -24
 1927 0010 13040102 		addi	s0,sp,32
 1928              		.cfi_def_cfa 8, 0
  52:src/main.cpp  ****         putc('B');
 1929              		.loc 3 52 9
  52:src/main.cpp  ****         putc('B');
 1930              		.loc 3 52 25 is_stmt 0
 1931 0014 97040000 		lla	s1,.LANCHOR0
 1931      93840400 
 1932 001c 03B50401 		ld	a0,16(s1)
 1933              	.LVL198:
 1934 0020 97000000 		call	_ZN9Semaphore4waitEv@plt
 1934      E7800000 
 1935              	.LVL199:
  53:src/main.cpp  ****         putc('\n');
 1936              		.loc 3 53 9 is_stmt 1
  53:src/main.cpp  ****         putc('\n');
 1937              		.loc 3 53 13 is_stmt 0
 1938 0028 13052004 		li	a0,66
 1939 002c 97000000 		call	_Z4putcc@plt
 1939      E7800000 
 1940              	.LVL200:
  54:src/main.cpp  ****         myOwnMutex->signal();
GAS LISTING /tmp/ccy4oBQd.s 			page 44


 1941              		.loc 3 54 9 is_stmt 1
  54:src/main.cpp  ****         myOwnMutex->signal();
 1942              		.loc 3 54 13 is_stmt 0
 1943 0034 1305A000 		li	a0,10
 1944 0038 97000000 		call	_Z4putcc@plt
 1944      E7800000 
 1945              	.LVL201:
  55:src/main.cpp  ****     }
 1946              		.loc 3 55 9 is_stmt 1
  55:src/main.cpp  ****     }
 1947              		.loc 3 55 27 is_stmt 0
 1948 0040 03B50401 		ld	a0,16(s1)
 1949 0044 97000000 		call	_ZN9Semaphore6signalEv@plt
 1949      E7800000 
 1950              	.LVL202:
  56:src/main.cpp  **** };
 1951              		.loc 3 56 5
 1952 004c 83308101 		ld	ra,24(sp)
 1953              		.cfi_restore 1
 1954 0050 03340101 		ld	s0,16(sp)
 1955              		.cfi_restore 8
 1956              		.cfi_def_cfa 2, 32
 1957 0054 83348100 		ld	s1,8(sp)
 1958              		.cfi_restore 9
 1959 0058 13010102 		addi	sp,sp,32
 1960              		.cfi_def_cfa_offset 0
 1961 005c 67800000 		jr	ra
 1962              		.cfi_endproc
 1963              	.LFE100:
 1965              		.section	.text._ZN1C18periodicActivationEv,"axG",@progbits,_ZN1C18periodicActivationEv,comdat
 1966              		.align	2
 1967              		.weak	_ZN1C18periodicActivationEv
 1969              	_ZN1C18periodicActivationEv:
 1970              	.LFB105:
  73:src/main.cpp  ****         myOwnMutex->wait();
 1971              		.loc 3 73 10 is_stmt 1
 1972              		.cfi_startproc
 1973              	.LVL203:
 1974 0000 130101FE 		addi	sp,sp,-32
 1975              		.cfi_def_cfa_offset 32
 1976 0004 233C1100 		sd	ra,24(sp)
 1977 0008 23388100 		sd	s0,16(sp)
 1978 000c 23349100 		sd	s1,8(sp)
 1979              		.cfi_offset 1, -8
 1980              		.cfi_offset 8, -16
 1981              		.cfi_offset 9, -24
 1982 0010 13040102 		addi	s0,sp,32
 1983              		.cfi_def_cfa 8, 0
  74:src/main.cpp  ****         putc('C');
 1984              		.loc 3 74 9
  74:src/main.cpp  ****         putc('C');
 1985              		.loc 3 74 25 is_stmt 0
 1986 0014 97040000 		lla	s1,.LANCHOR0
 1986      93840400 
 1987 001c 03B50401 		ld	a0,16(s1)
 1988              	.LVL204:
 1989 0020 97000000 		call	_ZN9Semaphore4waitEv@plt
GAS LISTING /tmp/ccy4oBQd.s 			page 45


 1989      E7800000 
 1990              	.LVL205:
  75:src/main.cpp  ****         putc('\n');
 1991              		.loc 3 75 9 is_stmt 1
  75:src/main.cpp  ****         putc('\n');
 1992              		.loc 3 75 13 is_stmt 0
 1993 0028 13053004 		li	a0,67
 1994 002c 97000000 		call	_Z4putcc@plt
 1994      E7800000 
 1995              	.LVL206:
  76:src/main.cpp  ****         myOwnMutex->signal();
 1996              		.loc 3 76 9 is_stmt 1
  76:src/main.cpp  ****         myOwnMutex->signal();
 1997              		.loc 3 76 13 is_stmt 0
 1998 0034 1305A000 		li	a0,10
 1999 0038 97000000 		call	_Z4putcc@plt
 1999      E7800000 
 2000              	.LVL207:
  77:src/main.cpp  ****     }
 2001              		.loc 3 77 9 is_stmt 1
  77:src/main.cpp  ****     }
 2002              		.loc 3 77 27 is_stmt 0
 2003 0040 03B50401 		ld	a0,16(s1)
 2004 0044 97000000 		call	_ZN9Semaphore6signalEv@plt
 2004      E7800000 
 2005              	.LVL208:
  78:src/main.cpp  **** };
 2006              		.loc 3 78 5
 2007 004c 83308101 		ld	ra,24(sp)
 2008              		.cfi_restore 1
 2009 0050 03340101 		ld	s0,16(sp)
 2010              		.cfi_restore 8
 2011              		.cfi_def_cfa 2, 32
 2012 0054 83348100 		ld	s1,8(sp)
 2013              		.cfi_restore 9
 2014 0058 13010102 		addi	sp,sp,32
 2015              		.cfi_def_cfa_offset 0
 2016 005c 67800000 		jr	ra
 2017              		.cfi_endproc
 2018              	.LFE105:
 2020              		.text
 2021              		.align	2
 2022              		.globl	_Z9fibonaccim
 2024              	_Z9fibonaccim:
 2025              	.LFB50:
  13:src/../h/Z_Njihovo_Threads_CPP_API_Test.hpp ****     if (n == 0 || n == 1) { return n; }
 2026              		.loc 1 13 28 is_stmt 1
 2027              		.cfi_startproc
 2028              	.LVL209:
 2029 02fc 130101FE 		addi	sp,sp,-32
 2030              		.cfi_def_cfa_offset 32
 2031 0300 233C1100 		sd	ra,24(sp)
 2032 0304 23388100 		sd	s0,16(sp)
 2033 0308 23349100 		sd	s1,8(sp)
 2034 030c 23302101 		sd	s2,0(sp)
 2035              		.cfi_offset 1, -8
 2036              		.cfi_offset 8, -16
GAS LISTING /tmp/ccy4oBQd.s 			page 46


 2037              		.cfi_offset 9, -24
 2038              		.cfi_offset 18, -32
 2039 0310 13040102 		addi	s0,sp,32
 2040              		.cfi_def_cfa 8, 0
 2041 0314 93040500 		mv	s1,a0
  14:src/../h/Z_Njihovo_Threads_CPP_API_Test.hpp ****     if (n % 10 == 0) { thread_dispatch(); }
 2042              		.loc 1 14 5
 2043 0318 93071000 		li	a5,1
 2044 031c 63F8A702 		bleu	a0,a5,.L100
  15:src/../h/Z_Njihovo_Threads_CPP_API_Test.hpp ****     return fibonacci(n - 1) + fibonacci(n - 2);
 2045              		.loc 1 15 5
  15:src/../h/Z_Njihovo_Threads_CPP_API_Test.hpp ****     return fibonacci(n - 1) + fibonacci(n - 2);
 2046              		.loc 1 15 11 is_stmt 0
 2047 0320 9307A000 		li	a5,10
 2048 0324 B377F502 		remu	a5,a0,a5
  15:src/../h/Z_Njihovo_Threads_CPP_API_Test.hpp ****     return fibonacci(n - 1) + fibonacci(n - 2);
 2049              		.loc 1 15 5
 2050 0328 638E0702 		beqz	a5,.L105
 2051              	.LVL210:
 2052              	.L102:
  16:src/../h/Z_Njihovo_Threads_CPP_API_Test.hpp **** }
 2053              		.loc 1 16 5 is_stmt 1
  16:src/../h/Z_Njihovo_Threads_CPP_API_Test.hpp **** }
 2054              		.loc 1 16 21 is_stmt 0
 2055 032c 1385F4FF 		addi	a0,s1,-1
 2056 0330 97000000 		call	_Z9fibonaccim
 2056      E7800000 
 2057              	.LVL211:
 2058 0338 13090500 		mv	s2,a0
  16:src/../h/Z_Njihovo_Threads_CPP_API_Test.hpp **** }
 2059              		.loc 1 16 40
 2060 033c 1385E4FF 		addi	a0,s1,-2
 2061 0340 97000000 		call	_Z9fibonaccim
 2061      E7800000 
 2062              	.LVL212:
  16:src/../h/Z_Njihovo_Threads_CPP_API_Test.hpp **** }
 2063              		.loc 1 16 46
 2064 0348 3305A900 		add	a0,s2,a0
 2065              	.L100:
  17:src/../h/Z_Njihovo_Threads_CPP_API_Test.hpp **** 
 2066              		.loc 1 17 1
 2067 034c 83308101 		ld	ra,24(sp)
 2068              		.cfi_remember_state
 2069              		.cfi_restore 1
 2070 0350 03340101 		ld	s0,16(sp)
 2071              		.cfi_restore 8
 2072              		.cfi_def_cfa 2, 32
 2073 0354 83348100 		ld	s1,8(sp)
 2074              		.cfi_restore 9
 2075              	.LVL213:
 2076 0358 03390100 		ld	s2,0(sp)
 2077              		.cfi_restore 18
 2078 035c 13010102 		addi	sp,sp,32
 2079              		.cfi_def_cfa_offset 0
 2080 0360 67800000 		jr	ra
 2081              	.LVL214:
 2082              	.L105:
GAS LISTING /tmp/ccy4oBQd.s 			page 47


 2083              		.cfi_restore_state
  15:src/../h/Z_Njihovo_Threads_CPP_API_Test.hpp ****     return fibonacci(n - 1) + fibonacci(n - 2);
 2084              		.loc 1 15 24 is_stmt 1 discriminator 1
  15:src/../h/Z_Njihovo_Threads_CPP_API_Test.hpp ****     return fibonacci(n - 1) + fibonacci(n - 2);
 2085              		.loc 1 15 39 is_stmt 0 discriminator 1
 2086 0364 97000000 		call	_Z15thread_dispatchv@plt
 2086      E7800000 
 2087              	.LVL215:
 2088 036c 6FF01FFC 		j	.L102
 2089              		.cfi_endproc
 2090              	.LFE50:
 2092              		.section	.rodata.str1.8
 2093 000c 00000000 		.align	3
 2094              	.LC2:
 2095 0010 413A2069 		.string	"A: i="
 2095      3D00
 2096 0016 0000     		.align	3
 2097              	.LC3:
 2098 0018 0A00     		.string	"\n"
 2099 001a 00000000 		.align	3
 2099      0000
 2100              	.LC4:
 2101 0020 41206669 		.string	"A finished!\n"
 2101      6E697368 
 2101      6564210A 
 2101      00
 2102              		.text
 2103              		.align	2
 2104              		.globl	_ZN7WorkerA11workerBodyAEPv
 2106              	_ZN7WorkerA11workerBodyAEPv:
 2107              	.LFB67:
  50:src/../h/Z_Njihovo_Threads_CPP_API_Test.hpp ****     void workerBodyD(void* arg);
  51:src/../h/Z_Njihovo_Threads_CPP_API_Test.hpp **** public:
  52:src/../h/Z_Njihovo_Threads_CPP_API_Test.hpp ****     WorkerD():Thread() {}
  53:src/../h/Z_Njihovo_Threads_CPP_API_Test.hpp **** 
  54:src/../h/Z_Njihovo_Threads_CPP_API_Test.hpp ****     void run() override {
  55:src/../h/Z_Njihovo_Threads_CPP_API_Test.hpp ****         workerBodyD(nullptr);
  56:src/../h/Z_Njihovo_Threads_CPP_API_Test.hpp ****     }
  57:src/../h/Z_Njihovo_Threads_CPP_API_Test.hpp **** };
  58:src/../h/Z_Njihovo_Threads_CPP_API_Test.hpp **** void WorkerA::workerBodyA(void *arg) {
 2108              		.loc 1 58 38 is_stmt 1
 2109              		.cfi_startproc
 2110              	.LVL216:
 2111 0370 130101FE 		addi	sp,sp,-32
 2112              		.cfi_def_cfa_offset 32
 2113 0374 233C1100 		sd	ra,24(sp)
 2114 0378 23388100 		sd	s0,16(sp)
 2115 037c 23349100 		sd	s1,8(sp)
 2116 0380 23302101 		sd	s2,0(sp)
 2117              		.cfi_offset 1, -8
 2118              		.cfi_offset 8, -16
 2119              		.cfi_offset 9, -24
 2120              		.cfi_offset 18, -32
 2121 0384 13040102 		addi	s0,sp,32
 2122              		.cfi_def_cfa 8, 0
  59:src/../h/Z_Njihovo_Threads_CPP_API_Test.hpp ****     for (uint64 i = 0; i < 10; i++) {
 2123              		.loc 1 59 5
GAS LISTING /tmp/ccy4oBQd.s 			page 48


 2124              	.LVL217:
 2125              	.LBB147:
 2126              		.loc 1 59 17 is_stmt 0
 2127 0388 13090000 		li	s2,0
 2128 038c 6F008003 		j	.L112
 2129              	.LVL218:
 2130              	.L109:
 2131              	.LBB148:
 2132              	.LBB149:
 2133              	.LBB150:
  60:src/../h/Z_Njihovo_Threads_CPP_API_Test.hpp ****         printString("A: i="); printInt(i); printString("\n");
  61:src/../h/Z_Njihovo_Threads_CPP_API_Test.hpp ****         for (uint64 j = 0; j < 10000; j++) {
  62:src/../h/Z_Njihovo_Threads_CPP_API_Test.hpp ****             for (uint64 k = 0; k < 30000; k++) { }
  63:src/../h/Z_Njihovo_Threads_CPP_API_Test.hpp ****             thread_dispatch();
 2134              		.loc 1 63 13 is_stmt 1 discriminator 2
 2135              		.loc 1 63 28 is_stmt 0 discriminator 2
 2136 0390 97000000 		call	_Z15thread_dispatchv@plt
 2136      E7800000 
 2137              	.LVL219:
 2138              	.LBE150:
  61:src/../h/Z_Njihovo_Threads_CPP_API_Test.hpp ****             for (uint64 k = 0; k < 30000; k++) { }
 2139              		.loc 1 61 9 is_stmt 1 discriminator 2
 2140 0398 93841400 		addi	s1,s1,1
 2141              	.LVL220:
 2142              	.L111:
  61:src/../h/Z_Njihovo_Threads_CPP_API_Test.hpp ****             for (uint64 k = 0; k < 30000; k++) { }
 2143              		.loc 1 61 30 discriminator 1
 2144 039c B7270000 		li	a5,8192
 2145 03a0 9387F770 		addi	a5,a5,1807
 2146 03a4 63EE9700 		bgtu	s1,a5,.L108
 2147              	.LBB152:
 2148              	.LBB151:
  62:src/../h/Z_Njihovo_Threads_CPP_API_Test.hpp ****             thread_dispatch();
 2149              		.loc 1 62 25 is_stmt 0
 2150 03a8 13070000 		li	a4,0
 2151              	.L110:
 2152              	.LVL221:
  62:src/../h/Z_Njihovo_Threads_CPP_API_Test.hpp ****             thread_dispatch();
 2153              		.loc 1 62 34 is_stmt 1 discriminator 3
 2154 03ac B7770000 		li	a5,28672
 2155 03b0 9387F752 		addi	a5,a5,1327
 2156 03b4 E3EEE7FC 		bgtu	a4,a5,.L109
  62:src/../h/Z_Njihovo_Threads_CPP_API_Test.hpp ****             thread_dispatch();
 2157              		.loc 1 62 13 discriminator 2
 2158 03b8 13071700 		addi	a4,a4,1
 2159              	.LVL222:
 2160 03bc 6FF01FFF 		j	.L110
 2161              	.LVL223:
 2162              	.L108:
 2163              	.LBE151:
 2164              	.LBE152:
 2165              	.LBE149:
 2166              	.LBE148:
  59:src/../h/Z_Njihovo_Threads_CPP_API_Test.hpp ****         printString("A: i="); printInt(i); printString("\n");
 2167              		.loc 1 59 5 discriminator 2
 2168 03c0 13091900 		addi	s2,s2,1
 2169              	.LVL224:
GAS LISTING /tmp/ccy4oBQd.s 			page 49


 2170              	.L112:
  59:src/../h/Z_Njihovo_Threads_CPP_API_Test.hpp ****         printString("A: i="); printInt(i); printString("\n");
 2171              		.loc 1 59 26 discriminator 1
 2172 03c4 93079000 		li	a5,9
 2173 03c8 63E02705 		bgtu	s2,a5,.L107
 2174              	.LBB154:
  60:src/../h/Z_Njihovo_Threads_CPP_API_Test.hpp ****         for (uint64 j = 0; j < 10000; j++) {
 2175              		.loc 1 60 9
  60:src/../h/Z_Njihovo_Threads_CPP_API_Test.hpp ****         for (uint64 j = 0; j < 10000; j++) {
 2176              		.loc 1 60 20 is_stmt 0
 2177 03cc 17050000 		lla	a0,.LC2
 2177      13050500 
 2178 03d4 97000000 		call	_Z11printStringPKc@plt
 2178      E7800000 
 2179              	.LVL225:
  60:src/../h/Z_Njihovo_Threads_CPP_API_Test.hpp ****         for (uint64 j = 0; j < 10000; j++) {
 2180              		.loc 1 60 31 is_stmt 1
  60:src/../h/Z_Njihovo_Threads_CPP_API_Test.hpp ****         for (uint64 j = 0; j < 10000; j++) {
 2181              		.loc 1 60 39 is_stmt 0
 2182 03dc 13060000 		li	a2,0
 2183 03e0 9305A000 		li	a1,10
 2184 03e4 1B050900 		sext.w	a0,s2
 2185 03e8 97000000 		call	_Z8printIntiii@plt
 2185      E7800000 
 2186              	.LVL226:
  60:src/../h/Z_Njihovo_Threads_CPP_API_Test.hpp ****         for (uint64 j = 0; j < 10000; j++) {
 2187              		.loc 1 60 44 is_stmt 1
  60:src/../h/Z_Njihovo_Threads_CPP_API_Test.hpp ****         for (uint64 j = 0; j < 10000; j++) {
 2188              		.loc 1 60 55 is_stmt 0
 2189 03f0 17050000 		lla	a0,.LC3
 2189      13050500 
 2190 03f8 97000000 		call	_Z11printStringPKc@plt
 2190      E7800000 
 2191              	.LVL227:
  61:src/../h/Z_Njihovo_Threads_CPP_API_Test.hpp ****             for (uint64 k = 0; k < 30000; k++) { }
 2192              		.loc 1 61 9 is_stmt 1
 2193              	.LBB153:
  61:src/../h/Z_Njihovo_Threads_CPP_API_Test.hpp ****             for (uint64 k = 0; k < 30000; k++) { }
 2194              		.loc 1 61 21 is_stmt 0
 2195 0400 93040000 		li	s1,0
 2196 0404 6FF09FF9 		j	.L111
 2197              	.LVL228:
 2198              	.L107:
 2199              	.LBE153:
 2200              	.LBE154:
 2201              	.LBE147:
  64:src/../h/Z_Njihovo_Threads_CPP_API_Test.hpp ****         }
  65:src/../h/Z_Njihovo_Threads_CPP_API_Test.hpp ****     }
  66:src/../h/Z_Njihovo_Threads_CPP_API_Test.hpp ****     printString("A finished!\n");
 2202              		.loc 1 66 5 is_stmt 1
 2203              		.loc 1 66 16 is_stmt 0
 2204 0408 17050000 		lla	a0,.LC4
 2204      13050500 
 2205 0410 97000000 		call	_Z11printStringPKc@plt
 2205      E7800000 
 2206              	.LVL229:
  67:src/../h/Z_Njihovo_Threads_CPP_API_Test.hpp ****     finishedA = true;
GAS LISTING /tmp/ccy4oBQd.s 			page 50


 2207              		.loc 1 67 5 is_stmt 1
 2208              		.loc 1 67 15 is_stmt 0
 2209 0418 93071000 		li	a5,1
 2210 041c 17070000 		sb	a5,.LANCHOR0+24,a4
 2210      2300F700 
  68:src/../h/Z_Njihovo_Threads_CPP_API_Test.hpp **** }
 2211              		.loc 1 68 1
 2212 0424 83308101 		ld	ra,24(sp)
 2213              		.cfi_restore 1
 2214 0428 03340101 		ld	s0,16(sp)
 2215              		.cfi_restore 8
 2216              		.cfi_def_cfa 2, 32
 2217 042c 83348100 		ld	s1,8(sp)
 2218              		.cfi_restore 9
 2219 0430 03390100 		ld	s2,0(sp)
 2220              		.cfi_restore 18
 2221              	.LVL230:
 2222 0434 13010102 		addi	sp,sp,32
 2223              		.cfi_def_cfa_offset 0
 2224 0438 67800000 		jr	ra
 2225              		.cfi_endproc
 2226              	.LFE67:
 2228              		.section	.text._ZN7WorkerA3runEv,"axG",@progbits,_ZN7WorkerA3runEv,comdat
 2229              		.align	2
 2230              		.weak	_ZN7WorkerA3runEv
 2232              	_ZN7WorkerA3runEv:
 2233              	.LFB54:
  24:src/../h/Z_Njihovo_Threads_CPP_API_Test.hpp ****         workerBodyA(nullptr);
 2234              		.loc 1 24 10 is_stmt 1
 2235              		.cfi_startproc
 2236              	.LVL231:
 2237 0000 130101FF 		addi	sp,sp,-16
 2238              		.cfi_def_cfa_offset 16
 2239 0004 23341100 		sd	ra,8(sp)
 2240 0008 23308100 		sd	s0,0(sp)
 2241              		.cfi_offset 1, -8
 2242              		.cfi_offset 8, -16
 2243 000c 13040101 		addi	s0,sp,16
 2244              		.cfi_def_cfa 8, 0
  25:src/../h/Z_Njihovo_Threads_CPP_API_Test.hpp ****     }
 2245              		.loc 1 25 9
  25:src/../h/Z_Njihovo_Threads_CPP_API_Test.hpp ****     }
 2246              		.loc 1 25 20 is_stmt 0
 2247 0010 93050000 		li	a1,0
 2248 0014 97000000 		call	_ZN7WorkerA11workerBodyAEPv
 2248      E7800000 
 2249              	.LVL232:
  26:src/../h/Z_Njihovo_Threads_CPP_API_Test.hpp **** };
 2250              		.loc 1 26 5
 2251 001c 83308100 		ld	ra,8(sp)
 2252              		.cfi_restore 1
 2253 0020 03340100 		ld	s0,0(sp)
 2254              		.cfi_restore 8
 2255              		.cfi_def_cfa 2, 16
 2256 0024 13010101 		addi	sp,sp,16
 2257              		.cfi_def_cfa_offset 0
 2258 0028 67800000 		jr	ra
GAS LISTING /tmp/ccy4oBQd.s 			page 51


 2259              		.cfi_endproc
 2260              	.LFE54:
 2262              		.section	.rodata.str1.8
 2263 002d 000000   		.align	3
 2264              	.LC5:
 2265 0030 423A2069 		.string	"B: i="
 2265      3D00
 2266 0036 0000     		.align	3
 2267              	.LC6:
 2268 0038 42206669 		.string	"B finished!\n"
 2268      6E697368 
 2268      6564210A 
 2268      00
 2269              		.text
 2270              		.align	2
 2271              		.globl	_ZN7WorkerB11workerBodyBEPv
 2273              	_ZN7WorkerB11workerBodyBEPv:
 2274              	.LFB68:
  69:src/../h/Z_Njihovo_Threads_CPP_API_Test.hpp **** 
  70:src/../h/Z_Njihovo_Threads_CPP_API_Test.hpp **** void WorkerB::workerBodyB(void *arg) {
 2275              		.loc 1 70 38 is_stmt 1
 2276              		.cfi_startproc
 2277              	.LVL233:
 2278 043c 130101FE 		addi	sp,sp,-32
 2279              		.cfi_def_cfa_offset 32
 2280 0440 233C1100 		sd	ra,24(sp)
 2281 0444 23388100 		sd	s0,16(sp)
 2282 0448 23349100 		sd	s1,8(sp)
 2283 044c 23302101 		sd	s2,0(sp)
 2284              		.cfi_offset 1, -8
 2285              		.cfi_offset 8, -16
 2286              		.cfi_offset 9, -24
 2287              		.cfi_offset 18, -32
 2288 0450 13040102 		addi	s0,sp,32
 2289              		.cfi_def_cfa 8, 0
  71:src/../h/Z_Njihovo_Threads_CPP_API_Test.hpp ****     for (uint64 i = 0; i < 16; i++) {
 2290              		.loc 1 71 5
 2291              	.LVL234:
 2292              	.LBB155:
 2293              		.loc 1 71 17 is_stmt 0
 2294 0454 13090000 		li	s2,0
 2295 0458 6F008003 		j	.L122
 2296              	.LVL235:
 2297              	.L119:
 2298              	.LBB156:
 2299              	.LBB157:
 2300              	.LBB158:
  72:src/../h/Z_Njihovo_Threads_CPP_API_Test.hpp ****         printString("B: i="); printInt(i); printString("\n");
  73:src/../h/Z_Njihovo_Threads_CPP_API_Test.hpp ****         for (uint64 j = 0; j < 10000; j++) {
  74:src/../h/Z_Njihovo_Threads_CPP_API_Test.hpp ****             for (uint64 k = 0; k < 30000; k++) {  }
  75:src/../h/Z_Njihovo_Threads_CPP_API_Test.hpp ****             thread_dispatch();
 2301              		.loc 1 75 13 is_stmt 1 discriminator 2
 2302              		.loc 1 75 28 is_stmt 0 discriminator 2
 2303 045c 97000000 		call	_Z15thread_dispatchv@plt
 2303      E7800000 
 2304              	.LVL236:
 2305              	.LBE158:
GAS LISTING /tmp/ccy4oBQd.s 			page 52


  73:src/../h/Z_Njihovo_Threads_CPP_API_Test.hpp ****             for (uint64 k = 0; k < 30000; k++) {  }
 2306              		.loc 1 73 9 is_stmt 1 discriminator 2
 2307 0464 93841400 		addi	s1,s1,1
 2308              	.LVL237:
 2309              	.L121:
  73:src/../h/Z_Njihovo_Threads_CPP_API_Test.hpp ****             for (uint64 k = 0; k < 30000; k++) {  }
 2310              		.loc 1 73 30 discriminator 1
 2311 0468 B7270000 		li	a5,8192
 2312 046c 9387F770 		addi	a5,a5,1807
 2313 0470 63EE9700 		bgtu	s1,a5,.L118
 2314              	.LBB160:
 2315              	.LBB159:
  74:src/../h/Z_Njihovo_Threads_CPP_API_Test.hpp ****             thread_dispatch();
 2316              		.loc 1 74 25 is_stmt 0
 2317 0474 13070000 		li	a4,0
 2318              	.L120:
 2319              	.LVL238:
  74:src/../h/Z_Njihovo_Threads_CPP_API_Test.hpp ****             thread_dispatch();
 2320              		.loc 1 74 34 is_stmt 1 discriminator 3
 2321 0478 B7770000 		li	a5,28672
 2322 047c 9387F752 		addi	a5,a5,1327
 2323 0480 E3EEE7FC 		bgtu	a4,a5,.L119
  74:src/../h/Z_Njihovo_Threads_CPP_API_Test.hpp ****             thread_dispatch();
 2324              		.loc 1 74 13 discriminator 2
 2325 0484 13071700 		addi	a4,a4,1
 2326              	.LVL239:
 2327 0488 6FF01FFF 		j	.L120
 2328              	.LVL240:
 2329              	.L118:
 2330              	.LBE159:
 2331              	.LBE160:
 2332              	.LBE157:
 2333              	.LBE156:
  71:src/../h/Z_Njihovo_Threads_CPP_API_Test.hpp ****         printString("B: i="); printInt(i); printString("\n");
 2334              		.loc 1 71 5 discriminator 2
 2335 048c 13091900 		addi	s2,s2,1
 2336              	.LVL241:
 2337              	.L122:
  71:src/../h/Z_Njihovo_Threads_CPP_API_Test.hpp ****         printString("B: i="); printInt(i); printString("\n");
 2338              		.loc 1 71 26 discriminator 1
 2339 0490 9307F000 		li	a5,15
 2340 0494 63E02705 		bgtu	s2,a5,.L117
 2341              	.LBB162:
  72:src/../h/Z_Njihovo_Threads_CPP_API_Test.hpp ****         for (uint64 j = 0; j < 10000; j++) {
 2342              		.loc 1 72 9
  72:src/../h/Z_Njihovo_Threads_CPP_API_Test.hpp ****         for (uint64 j = 0; j < 10000; j++) {
 2343              		.loc 1 72 20 is_stmt 0
 2344 0498 17050000 		lla	a0,.LC5
 2344      13050500 
 2345 04a0 97000000 		call	_Z11printStringPKc@plt
 2345      E7800000 
 2346              	.LVL242:
  72:src/../h/Z_Njihovo_Threads_CPP_API_Test.hpp ****         for (uint64 j = 0; j < 10000; j++) {
 2347              		.loc 1 72 31 is_stmt 1
  72:src/../h/Z_Njihovo_Threads_CPP_API_Test.hpp ****         for (uint64 j = 0; j < 10000; j++) {
 2348              		.loc 1 72 39 is_stmt 0
 2349 04a8 13060000 		li	a2,0
GAS LISTING /tmp/ccy4oBQd.s 			page 53


 2350 04ac 9305A000 		li	a1,10
 2351 04b0 1B050900 		sext.w	a0,s2
 2352 04b4 97000000 		call	_Z8printIntiii@plt
 2352      E7800000 
 2353              	.LVL243:
  72:src/../h/Z_Njihovo_Threads_CPP_API_Test.hpp ****         for (uint64 j = 0; j < 10000; j++) {
 2354              		.loc 1 72 44 is_stmt 1
  72:src/../h/Z_Njihovo_Threads_CPP_API_Test.hpp ****         for (uint64 j = 0; j < 10000; j++) {
 2355              		.loc 1 72 55 is_stmt 0
 2356 04bc 17050000 		lla	a0,.LC3
 2356      13050500 
 2357 04c4 97000000 		call	_Z11printStringPKc@plt
 2357      E7800000 
 2358              	.LVL244:
  73:src/../h/Z_Njihovo_Threads_CPP_API_Test.hpp ****             for (uint64 k = 0; k < 30000; k++) {  }
 2359              		.loc 1 73 9 is_stmt 1
 2360              	.LBB161:
  73:src/../h/Z_Njihovo_Threads_CPP_API_Test.hpp ****             for (uint64 k = 0; k < 30000; k++) {  }
 2361              		.loc 1 73 21 is_stmt 0
 2362 04cc 93040000 		li	s1,0
 2363 04d0 6FF09FF9 		j	.L121
 2364              	.LVL245:
 2365              	.L117:
 2366              	.LBE161:
 2367              	.LBE162:
 2368              	.LBE155:
  76:src/../h/Z_Njihovo_Threads_CPP_API_Test.hpp ****         }
  77:src/../h/Z_Njihovo_Threads_CPP_API_Test.hpp ****     }
  78:src/../h/Z_Njihovo_Threads_CPP_API_Test.hpp ****     printString("B finished!\n");
 2369              		.loc 1 78 5 is_stmt 1
 2370              		.loc 1 78 16 is_stmt 0
 2371 04d4 17050000 		lla	a0,.LC6
 2371      13050500 
 2372 04dc 97000000 		call	_Z11printStringPKc@plt
 2372      E7800000 
 2373              	.LVL246:
  79:src/../h/Z_Njihovo_Threads_CPP_API_Test.hpp ****     finishedB = true;
 2374              		.loc 1 79 5 is_stmt 1
 2375              		.loc 1 79 15 is_stmt 0
 2376 04e4 93071000 		li	a5,1
 2377 04e8 17070000 		sb	a5,.LANCHOR0+25,a4
 2377      2300F700 
  80:src/../h/Z_Njihovo_Threads_CPP_API_Test.hpp ****     thread_dispatch();
 2378              		.loc 1 80 5 is_stmt 1
 2379              		.loc 1 80 20 is_stmt 0
 2380 04f0 97000000 		call	_Z15thread_dispatchv@plt
 2380      E7800000 
 2381              	.LVL247:
  81:src/../h/Z_Njihovo_Threads_CPP_API_Test.hpp **** }
 2382              		.loc 1 81 1
 2383 04f8 83308101 		ld	ra,24(sp)
 2384              		.cfi_restore 1
 2385 04fc 03340101 		ld	s0,16(sp)
 2386              		.cfi_restore 8
 2387              		.cfi_def_cfa 2, 32
 2388 0500 83348100 		ld	s1,8(sp)
 2389              		.cfi_restore 9
GAS LISTING /tmp/ccy4oBQd.s 			page 54


 2390 0504 03390100 		ld	s2,0(sp)
 2391              		.cfi_restore 18
 2392              	.LVL248:
 2393 0508 13010102 		addi	sp,sp,32
 2394              		.cfi_def_cfa_offset 0
 2395 050c 67800000 		jr	ra
 2396              		.cfi_endproc
 2397              	.LFE68:
 2399              		.section	.text._ZN7WorkerB3runEv,"axG",@progbits,_ZN7WorkerB3runEv,comdat
 2400              		.align	2
 2401              		.weak	_ZN7WorkerB3runEv
 2403              	_ZN7WorkerB3runEv:
 2404              	.LFB58:
  34:src/../h/Z_Njihovo_Threads_CPP_API_Test.hpp ****         workerBodyB(nullptr);
 2405              		.loc 1 34 10 is_stmt 1
 2406              		.cfi_startproc
 2407              	.LVL249:
 2408 0000 130101FF 		addi	sp,sp,-16
 2409              		.cfi_def_cfa_offset 16
 2410 0004 23341100 		sd	ra,8(sp)
 2411 0008 23308100 		sd	s0,0(sp)
 2412              		.cfi_offset 1, -8
 2413              		.cfi_offset 8, -16
 2414 000c 13040101 		addi	s0,sp,16
 2415              		.cfi_def_cfa 8, 0
  35:src/../h/Z_Njihovo_Threads_CPP_API_Test.hpp ****     }
 2416              		.loc 1 35 9
  35:src/../h/Z_Njihovo_Threads_CPP_API_Test.hpp ****     }
 2417              		.loc 1 35 20 is_stmt 0
 2418 0010 93050000 		li	a1,0
 2419 0014 97000000 		call	_ZN7WorkerB11workerBodyBEPv
 2419      E7800000 
 2420              	.LVL250:
  36:src/../h/Z_Njihovo_Threads_CPP_API_Test.hpp **** };
 2421              		.loc 1 36 5
 2422 001c 83308100 		ld	ra,8(sp)
 2423              		.cfi_restore 1
 2424 0020 03340100 		ld	s0,0(sp)
 2425              		.cfi_restore 8
 2426              		.cfi_def_cfa 2, 16
 2427 0024 13010101 		addi	sp,sp,16
 2428              		.cfi_def_cfa_offset 0
 2429 0028 67800000 		jr	ra
 2430              		.cfi_endproc
 2431              	.LFE58:
 2433              		.section	.rodata.str1.8
 2434 0045 000000   		.align	3
 2435              	.LC7:
 2436 0048 433A2069 		.string	"C: i="
 2436      3D00
 2437 004e 0000     		.align	3
 2438              	.LC8:
 2439 0050 433A2064 		.string	"C: dispatch\n"
 2439      69737061 
 2439      7463680A 
 2439      00
 2440 005d 000000   		.align	3
GAS LISTING /tmp/ccy4oBQd.s 			page 55


 2441              	.LC9:
 2442 0060 433A2074 		.string	"C: t1="
 2442      313D00
 2443 0067 00       		.align	3
 2444              	.LC10:
 2445 0068 433A2066 		.string	"C: fibonaci="
 2445      69626F6E 
 2445      6163693D 
 2445      00
 2446 0075 000000   		.align	3
 2447              	.LC11:
 2448 0078 43206669 		.string	"C finished!\n"
 2448      6E697368 
 2448      6564210A 
 2448      00
 2449              		.text
 2450              		.align	2
 2451              		.globl	_ZN7WorkerC11workerBodyCEPv
 2453              	_ZN7WorkerC11workerBodyCEPv:
 2454              	.LFB69:
  82:src/../h/Z_Njihovo_Threads_CPP_API_Test.hpp **** 
  83:src/../h/Z_Njihovo_Threads_CPP_API_Test.hpp **** void WorkerC::workerBodyC(void *arg) {
 2455              		.loc 1 83 38 is_stmt 1
 2456              		.cfi_startproc
 2457              	.LVL251:
 2458 0510 130101FE 		addi	sp,sp,-32
 2459              		.cfi_def_cfa_offset 32
 2460 0514 233C1100 		sd	ra,24(sp)
 2461 0518 23388100 		sd	s0,16(sp)
 2462 051c 23349100 		sd	s1,8(sp)
 2463 0520 23302101 		sd	s2,0(sp)
 2464              		.cfi_offset 1, -8
 2465              		.cfi_offset 8, -16
 2466              		.cfi_offset 9, -24
 2467              		.cfi_offset 18, -32
 2468 0524 13040102 		addi	s0,sp,32
 2469              		.cfi_def_cfa 8, 0
  84:src/../h/Z_Njihovo_Threads_CPP_API_Test.hpp ****     uint8 i = 0;
 2470              		.loc 1 84 5
 2471              	.LVL252:
 2472              		.loc 1 84 11 is_stmt 0
 2473 0528 93040000 		li	s1,0
 2474 052c 6F000004 		j	.L128
 2475              	.LVL253:
 2476              	.L132:
  85:src/../h/Z_Njihovo_Threads_CPP_API_Test.hpp ****     for (; i < 3; i++) {
  86:src/../h/Z_Njihovo_Threads_CPP_API_Test.hpp ****         printString("C: i="); printInt(i); printString("\n");
 2477              		.loc 1 86 9 is_stmt 1 discriminator 1
 2478              		.loc 1 86 20 is_stmt 0 discriminator 1
 2479 0530 17050000 		lla	a0,.LC7
 2479      13050500 
 2480 0538 97000000 		call	_Z11printStringPKc@plt
 2480      E7800000 
 2481              	.LVL254:
 2482              		.loc 1 86 31 is_stmt 1 discriminator 1
 2483              		.loc 1 86 39 is_stmt 0 discriminator 1
 2484 0540 13060000 		li	a2,0
GAS LISTING /tmp/ccy4oBQd.s 			page 56


 2485 0544 9305A000 		li	a1,10
 2486 0548 13850400 		mv	a0,s1
 2487 054c 97000000 		call	_Z8printIntiii@plt
 2487      E7800000 
 2488              	.LVL255:
 2489              		.loc 1 86 44 is_stmt 1 discriminator 1
 2490              		.loc 1 86 55 is_stmt 0 discriminator 1
 2491 0554 17050000 		lla	a0,.LC3
 2491      13050500 
 2492 055c 97000000 		call	_Z11printStringPKc@plt
 2492      E7800000 
 2493              	.LVL256:
  85:src/../h/Z_Njihovo_Threads_CPP_API_Test.hpp ****     for (; i < 3; i++) {
 2494              		.loc 1 85 5 is_stmt 1 discriminator 1
 2495 0564 9B841400 		addiw	s1,s1,1
 2496              	.LVL257:
 2497 0568 93F4F40F 		andi	s1,s1,0xff
 2498              	.LVL258:
 2499              	.L128:
  85:src/../h/Z_Njihovo_Threads_CPP_API_Test.hpp ****     for (; i < 3; i++) {
 2500              		.loc 1 85 5 discriminator 2
  85:src/../h/Z_Njihovo_Threads_CPP_API_Test.hpp ****     for (; i < 3; i++) {
 2501              		.loc 1 85 14 discriminator 2
 2502 056c 93072000 		li	a5,2
 2503 0570 E3F097FC 		bleu	s1,a5,.L132
  87:src/../h/Z_Njihovo_Threads_CPP_API_Test.hpp ****     }
  88:src/../h/Z_Njihovo_Threads_CPP_API_Test.hpp **** 
  89:src/../h/Z_Njihovo_Threads_CPP_API_Test.hpp ****     printString("C: dispatch\n");
 2504              		.loc 1 89 5
 2505              		.loc 1 89 16 is_stmt 0
 2506 0574 17050000 		lla	a0,.LC8
 2506      13050500 
 2507 057c 97000000 		call	_Z11printStringPKc@plt
 2507      E7800000 
 2508              	.LVL259:
  90:src/../h/Z_Njihovo_Threads_CPP_API_Test.hpp ****     __asm__ ("li t1, 7");
 2509              		.loc 1 90 5 is_stmt 1
 2510              		.loc 1 90 25 is_stmt 0
 2511              	#APP
 2512              	# 90 "src/../h/Z_Njihovo_Threads_CPP_API_Test.hpp" 1
  91              	    thread_dispatch();
 2513              		li t1, 7
 2514              	# 0 "" 2
 2515              		.loc 1 91 5 is_stmt 1
 2516              		.loc 1 91 20 is_stmt 0
 2517              	#NO_APP
 2518 0588 97000000 		call	_Z15thread_dispatchv@plt
 2518      E7800000 
 2519              	.LVL260:
  92:src/../h/Z_Njihovo_Threads_CPP_API_Test.hpp **** 
  93:src/../h/Z_Njihovo_Threads_CPP_API_Test.hpp ****     uint64 t1 = 0;
 2520              		.loc 1 93 5 is_stmt 1
  94:src/../h/Z_Njihovo_Threads_CPP_API_Test.hpp ****     __asm__ ("mv %[t1], t1" : [t1] "=r"(t1));
 2521              		.loc 1 94 5
 2522              		.loc 1 94 45 is_stmt 0
 2523              	#APP
 2524              	# 94 "src/../h/Z_Njihovo_Threads_CPP_API_Test.hpp" 1
GAS LISTING /tmp/ccy4oBQd.s 			page 57


  95              	
 2525              		mv s2, t1
 2526              	# 0 "" 2
 2527              	.LVL261:
  96:src/../h/Z_Njihovo_Threads_CPP_API_Test.hpp ****     printString("C: t1="); printInt(t1); printString("\n");
 2528              		.loc 1 96 5 is_stmt 1
 2529              		.loc 1 96 16 is_stmt 0
 2530              	#NO_APP
 2531 0594 17050000 		lla	a0,.LC9
 2531      13050500 
 2532 059c 97000000 		call	_Z11printStringPKc@plt
 2532      E7800000 
 2533              	.LVL262:
 2534              		.loc 1 96 28 is_stmt 1
 2535              		.loc 1 96 36 is_stmt 0
 2536 05a4 13060000 		li	a2,0
 2537 05a8 9305A000 		li	a1,10
 2538 05ac 1B050900 		sext.w	a0,s2
 2539 05b0 97000000 		call	_Z8printIntiii@plt
 2539      E7800000 
 2540              	.LVL263:
 2541              		.loc 1 96 42 is_stmt 1
 2542              		.loc 1 96 53 is_stmt 0
 2543 05b8 17050000 		lla	a0,.LC3
 2543      13050500 
 2544 05c0 97000000 		call	_Z11printStringPKc@plt
 2544      E7800000 
 2545              	.LVL264:
  97:src/../h/Z_Njihovo_Threads_CPP_API_Test.hpp **** 
  98:src/../h/Z_Njihovo_Threads_CPP_API_Test.hpp ****     uint64 result = fibonacci(12);
 2546              		.loc 1 98 5 is_stmt 1
 2547              		.loc 1 98 30 is_stmt 0
 2548 05c8 1305C000 		li	a0,12
 2549 05cc 97000000 		call	_Z9fibonaccim
 2549      E7800000 
 2550              	.LVL265:
 2551 05d4 13090500 		mv	s2,a0
 2552              	.LVL266:
  99:src/../h/Z_Njihovo_Threads_CPP_API_Test.hpp ****     printString("C: fibonaci="); printInt(result); printString("\n");
 2553              		.loc 1 99 5 is_stmt 1
 2554              		.loc 1 99 16 is_stmt 0
 2555 05d8 17050000 		lla	a0,.LC10
 2555      13050500 
 2556              	.LVL267:
 2557 05e0 97000000 		call	_Z11printStringPKc@plt
 2557      E7800000 
 2558              	.LVL268:
 2559              		.loc 1 99 34 is_stmt 1
 2560              		.loc 1 99 42 is_stmt 0
 2561 05e8 13060000 		li	a2,0
 2562 05ec 9305A000 		li	a1,10
 2563 05f0 1B050900 		sext.w	a0,s2
 2564 05f4 97000000 		call	_Z8printIntiii@plt
 2564      E7800000 
 2565              	.LVL269:
 2566              		.loc 1 99 52 is_stmt 1
 2567              		.loc 1 99 63 is_stmt 0
GAS LISTING /tmp/ccy4oBQd.s 			page 58


 2568 05fc 17050000 		lla	a0,.LC3
 2568      13050500 
 2569 0604 97000000 		call	_Z11printStringPKc@plt
 2569      E7800000 
 2570              	.LVL270:
 2571 060c 6F000004 		j	.L130
 2572              	.L133:
 100:src/../h/Z_Njihovo_Threads_CPP_API_Test.hpp **** 
 101:src/../h/Z_Njihovo_Threads_CPP_API_Test.hpp ****     for (; i < 6; i++) {
 102:src/../h/Z_Njihovo_Threads_CPP_API_Test.hpp ****         printString("C: i="); printInt(i); printString("\n");
 2573              		.loc 1 102 9 is_stmt 1 discriminator 1
 2574              		.loc 1 102 20 is_stmt 0 discriminator 1
 2575 0610 17050000 		lla	a0,.LC7
 2575      13050500 
 2576 0618 97000000 		call	_Z11printStringPKc@plt
 2576      E7800000 
 2577              	.LVL271:
 2578              		.loc 1 102 31 is_stmt 1 discriminator 1
 2579              		.loc 1 102 39 is_stmt 0 discriminator 1
 2580 0620 13060000 		li	a2,0
 2581 0624 9305A000 		li	a1,10
 2582 0628 13850400 		mv	a0,s1
 2583 062c 97000000 		call	_Z8printIntiii@plt
 2583      E7800000 
 2584              	.LVL272:
 2585              		.loc 1 102 44 is_stmt 1 discriminator 1
 2586              		.loc 1 102 55 is_stmt 0 discriminator 1
 2587 0634 17050000 		lla	a0,.LC3
 2587      13050500 
 2588 063c 97000000 		call	_Z11printStringPKc@plt
 2588      E7800000 
 2589              	.LVL273:
 101:src/../h/Z_Njihovo_Threads_CPP_API_Test.hpp ****         printString("C: i="); printInt(i); printString("\n");
 2590              		.loc 1 101 5 is_stmt 1 discriminator 1
 2591 0644 9B841400 		addiw	s1,s1,1
 2592              	.LVL274:
 2593 0648 93F4F40F 		andi	s1,s1,0xff
 2594              	.LVL275:
 2595              	.L130:
 101:src/../h/Z_Njihovo_Threads_CPP_API_Test.hpp ****         printString("C: i="); printInt(i); printString("\n");
 2596              		.loc 1 101 5 discriminator 2
 101:src/../h/Z_Njihovo_Threads_CPP_API_Test.hpp ****         printString("C: i="); printInt(i); printString("\n");
 2597              		.loc 1 101 14 discriminator 2
 2598 064c 93075000 		li	a5,5
 2599 0650 E3F097FC 		bleu	s1,a5,.L133
 103:src/../h/Z_Njihovo_Threads_CPP_API_Test.hpp ****     }
 104:src/../h/Z_Njihovo_Threads_CPP_API_Test.hpp **** 
 105:src/../h/Z_Njihovo_Threads_CPP_API_Test.hpp ****     printString("C finished!\n");
 2600              		.loc 1 105 5
 2601              		.loc 1 105 16 is_stmt 0
 2602 0654 17050000 		lla	a0,.LC11
 2602      13050500 
 2603 065c 97000000 		call	_Z11printStringPKc@plt
 2603      E7800000 
 2604              	.LVL276:
 106:src/../h/Z_Njihovo_Threads_CPP_API_Test.hpp ****     finishedC = true;
 2605              		.loc 1 106 5 is_stmt 1
GAS LISTING /tmp/ccy4oBQd.s 			page 59


 2606              		.loc 1 106 15 is_stmt 0
 2607 0664 93071000 		li	a5,1
 2608 0668 17070000 		sb	a5,.LANCHOR0+26,a4
 2608      2300F700 
 107:src/../h/Z_Njihovo_Threads_CPP_API_Test.hpp ****     thread_dispatch();
 2609              		.loc 1 107 5 is_stmt 1
 2610              		.loc 1 107 20 is_stmt 0
 2611 0670 97000000 		call	_Z15thread_dispatchv@plt
 2611      E7800000 
 2612              	.LVL277:
 108:src/../h/Z_Njihovo_Threads_CPP_API_Test.hpp **** }
 2613              		.loc 1 108 1
 2614 0678 83308101 		ld	ra,24(sp)
 2615              		.cfi_restore 1
 2616 067c 03340101 		ld	s0,16(sp)
 2617              		.cfi_restore 8
 2618              		.cfi_def_cfa 2, 32
 2619 0680 83348100 		ld	s1,8(sp)
 2620              		.cfi_restore 9
 2621              	.LVL278:
 2622 0684 03390100 		ld	s2,0(sp)
 2623              		.cfi_restore 18
 2624              	.LVL279:
 2625 0688 13010102 		addi	sp,sp,32
 2626              		.cfi_def_cfa_offset 0
 2627 068c 67800000 		jr	ra
 2628              		.cfi_endproc
 2629              	.LFE69:
 2631              		.section	.text._ZN7WorkerC3runEv,"axG",@progbits,_ZN7WorkerC3runEv,comdat
 2632              		.align	2
 2633              		.weak	_ZN7WorkerC3runEv
 2635              	_ZN7WorkerC3runEv:
 2636              	.LFB62:
  44:src/../h/Z_Njihovo_Threads_CPP_API_Test.hpp ****         workerBodyC(nullptr);
 2637              		.loc 1 44 10 is_stmt 1
 2638              		.cfi_startproc
 2639              	.LVL280:
 2640 0000 130101FF 		addi	sp,sp,-16
 2641              		.cfi_def_cfa_offset 16
 2642 0004 23341100 		sd	ra,8(sp)
 2643 0008 23308100 		sd	s0,0(sp)
 2644              		.cfi_offset 1, -8
 2645              		.cfi_offset 8, -16
 2646 000c 13040101 		addi	s0,sp,16
 2647              		.cfi_def_cfa 8, 0
  45:src/../h/Z_Njihovo_Threads_CPP_API_Test.hpp ****     }
 2648              		.loc 1 45 9
  45:src/../h/Z_Njihovo_Threads_CPP_API_Test.hpp ****     }
 2649              		.loc 1 45 20 is_stmt 0
 2650 0010 93050000 		li	a1,0
 2651 0014 97000000 		call	_ZN7WorkerC11workerBodyCEPv
 2651      E7800000 
 2652              	.LVL281:
  46:src/../h/Z_Njihovo_Threads_CPP_API_Test.hpp **** };
 2653              		.loc 1 46 5
 2654 001c 83308100 		ld	ra,8(sp)
 2655              		.cfi_restore 1
GAS LISTING /tmp/ccy4oBQd.s 			page 60


 2656 0020 03340100 		ld	s0,0(sp)
 2657              		.cfi_restore 8
 2658              		.cfi_def_cfa 2, 16
 2659 0024 13010101 		addi	sp,sp,16
 2660              		.cfi_def_cfa_offset 0
 2661 0028 67800000 		jr	ra
 2662              		.cfi_endproc
 2663              	.LFE62:
 2665              		.section	.rodata.str1.8
 2666 0085 000000   		.align	3
 2667              	.LC12:
 2668 0088 443A2069 		.string	"D: i="
 2668      3D00
 2669 008e 0000     		.align	3
 2670              	.LC13:
 2671 0090 443A2064 		.string	"D: dispatch\n"
 2671      69737061 
 2671      7463680A 
 2671      00
 2672 009d 000000   		.align	3
 2673              	.LC14:
 2674 00a0 443A2066 		.string	"D: fibonaci="
 2674      69626F6E 
 2674      6163693D 
 2674      00
 2675 00ad 000000   		.align	3
 2676              	.LC15:
 2677 00b0 44206669 		.string	"D finished!\n"
 2677      6E697368 
 2677      6564210A 
 2677      00
 2678              		.text
 2679              		.align	2
 2680              		.globl	_ZN7WorkerD11workerBodyDEPv
 2682              	_ZN7WorkerD11workerBodyDEPv:
 2683              	.LFB70:
 109:src/../h/Z_Njihovo_Threads_CPP_API_Test.hpp **** 
 110:src/../h/Z_Njihovo_Threads_CPP_API_Test.hpp **** void WorkerD::workerBodyD(void* arg) {
 2684              		.loc 1 110 38 is_stmt 1
 2685              		.cfi_startproc
 2686              	.LVL282:
 2687 0690 130101FE 		addi	sp,sp,-32
 2688              		.cfi_def_cfa_offset 32
 2689 0694 233C1100 		sd	ra,24(sp)
 2690 0698 23388100 		sd	s0,16(sp)
 2691 069c 23349100 		sd	s1,8(sp)
 2692 06a0 23302101 		sd	s2,0(sp)
 2693              		.cfi_offset 1, -8
 2694              		.cfi_offset 8, -16
 2695              		.cfi_offset 9, -24
 2696              		.cfi_offset 18, -32
 2697 06a4 13040102 		addi	s0,sp,32
 2698              		.cfi_def_cfa 8, 0
 111:src/../h/Z_Njihovo_Threads_CPP_API_Test.hpp ****     uint8 i = 10;
 2699              		.loc 1 111 5
 2700              	.LVL283:
 2701              		.loc 1 111 11 is_stmt 0
GAS LISTING /tmp/ccy4oBQd.s 			page 61


 2702 06a8 9304A000 		li	s1,10
 2703 06ac 6F000004 		j	.L138
 2704              	.LVL284:
 2705              	.L142:
 112:src/../h/Z_Njihovo_Threads_CPP_API_Test.hpp ****     for (; i < 13; i++) {
 113:src/../h/Z_Njihovo_Threads_CPP_API_Test.hpp ****         printString("D: i="); printInt(i); printString("\n");
 2706              		.loc 1 113 9 is_stmt 1 discriminator 1
 2707              		.loc 1 113 20 is_stmt 0 discriminator 1
 2708 06b0 17050000 		lla	a0,.LC12
 2708      13050500 
 2709 06b8 97000000 		call	_Z11printStringPKc@plt
 2709      E7800000 
 2710              	.LVL285:
 2711              		.loc 1 113 31 is_stmt 1 discriminator 1
 2712              		.loc 1 113 39 is_stmt 0 discriminator 1
 2713 06c0 13060000 		li	a2,0
 2714 06c4 9305A000 		li	a1,10
 2715 06c8 13850400 		mv	a0,s1
 2716 06cc 97000000 		call	_Z8printIntiii@plt
 2716      E7800000 
 2717              	.LVL286:
 2718              		.loc 1 113 44 is_stmt 1 discriminator 1
 2719              		.loc 1 113 55 is_stmt 0 discriminator 1
 2720 06d4 17050000 		lla	a0,.LC3
 2720      13050500 
 2721 06dc 97000000 		call	_Z11printStringPKc@plt
 2721      E7800000 
 2722              	.LVL287:
 112:src/../h/Z_Njihovo_Threads_CPP_API_Test.hpp ****     for (; i < 13; i++) {
 2723              		.loc 1 112 5 is_stmt 1 discriminator 1
 2724 06e4 9B841400 		addiw	s1,s1,1
 2725              	.LVL288:
 2726 06e8 93F4F40F 		andi	s1,s1,0xff
 2727              	.LVL289:
 2728              	.L138:
 112:src/../h/Z_Njihovo_Threads_CPP_API_Test.hpp ****     for (; i < 13; i++) {
 2729              		.loc 1 112 5 discriminator 2
 112:src/../h/Z_Njihovo_Threads_CPP_API_Test.hpp ****     for (; i < 13; i++) {
 2730              		.loc 1 112 14 discriminator 2
 2731 06ec 9307C000 		li	a5,12
 2732 06f0 E3F097FC 		bleu	s1,a5,.L142
 114:src/../h/Z_Njihovo_Threads_CPP_API_Test.hpp ****     }
 115:src/../h/Z_Njihovo_Threads_CPP_API_Test.hpp **** 
 116:src/../h/Z_Njihovo_Threads_CPP_API_Test.hpp ****     printString("D: dispatch\n");
 2733              		.loc 1 116 5
 2734              		.loc 1 116 16 is_stmt 0
 2735 06f4 17050000 		lla	a0,.LC13
 2735      13050500 
 2736 06fc 97000000 		call	_Z11printStringPKc@plt
 2736      E7800000 
 2737              	.LVL290:
 117:src/../h/Z_Njihovo_Threads_CPP_API_Test.hpp ****     __asm__ ("li t1, 5");
 2738              		.loc 1 117 5 is_stmt 1
 2739              		.loc 1 117 25 is_stmt 0
 2740              	#APP
 2741              	# 117 "src/../h/Z_Njihovo_Threads_CPP_API_Test.hpp" 1
 118              	    thread_dispatch();
GAS LISTING /tmp/ccy4oBQd.s 			page 62


 2742              		li t1, 5
 2743              	# 0 "" 2
 2744              		.loc 1 118 5 is_stmt 1
 2745              		.loc 1 118 20 is_stmt 0
 2746              	#NO_APP
 2747 0708 97000000 		call	_Z15thread_dispatchv@plt
 2747      E7800000 
 2748              	.LVL291:
 119:src/../h/Z_Njihovo_Threads_CPP_API_Test.hpp **** 
 120:src/../h/Z_Njihovo_Threads_CPP_API_Test.hpp ****     uint64 result = fibonacci(16);
 2749              		.loc 1 120 5 is_stmt 1
 2750              		.loc 1 120 30 is_stmt 0
 2751 0710 13050001 		li	a0,16
 2752 0714 97000000 		call	_Z9fibonaccim
 2752      E7800000 
 2753              	.LVL292:
 2754 071c 13090500 		mv	s2,a0
 2755              	.LVL293:
 121:src/../h/Z_Njihovo_Threads_CPP_API_Test.hpp ****     printString("D: fibonaci="); printInt(result); printString("\n");
 2756              		.loc 1 121 5 is_stmt 1
 2757              		.loc 1 121 16 is_stmt 0
 2758 0720 17050000 		lla	a0,.LC14
 2758      13050500 
 2759              	.LVL294:
 2760 0728 97000000 		call	_Z11printStringPKc@plt
 2760      E7800000 
 2761              	.LVL295:
 2762              		.loc 1 121 34 is_stmt 1
 2763              		.loc 1 121 42 is_stmt 0
 2764 0730 13060000 		li	a2,0
 2765 0734 9305A000 		li	a1,10
 2766 0738 1B050900 		sext.w	a0,s2
 2767 073c 97000000 		call	_Z8printIntiii@plt
 2767      E7800000 
 2768              	.LVL296:
 2769              		.loc 1 121 52 is_stmt 1
 2770              		.loc 1 121 63 is_stmt 0
 2771 0744 17050000 		lla	a0,.LC3
 2771      13050500 
 2772 074c 97000000 		call	_Z11printStringPKc@plt
 2772      E7800000 
 2773              	.LVL297:
 2774 0754 6F000004 		j	.L140
 2775              	.L143:
 122:src/../h/Z_Njihovo_Threads_CPP_API_Test.hpp **** 
 123:src/../h/Z_Njihovo_Threads_CPP_API_Test.hpp ****     for (; i < 16; i++) {
 124:src/../h/Z_Njihovo_Threads_CPP_API_Test.hpp ****         printString("D: i="); printInt(i); printString("\n");
 2776              		.loc 1 124 9 is_stmt 1 discriminator 1
 2777              		.loc 1 124 20 is_stmt 0 discriminator 1
 2778 0758 17050000 		lla	a0,.LC12
 2778      13050500 
 2779 0760 97000000 		call	_Z11printStringPKc@plt
 2779      E7800000 
 2780              	.LVL298:
 2781              		.loc 1 124 31 is_stmt 1 discriminator 1
 2782              		.loc 1 124 39 is_stmt 0 discriminator 1
 2783 0768 13060000 		li	a2,0
GAS LISTING /tmp/ccy4oBQd.s 			page 63


 2784 076c 9305A000 		li	a1,10
 2785 0770 13850400 		mv	a0,s1
 2786 0774 97000000 		call	_Z8printIntiii@plt
 2786      E7800000 
 2787              	.LVL299:
 2788              		.loc 1 124 44 is_stmt 1 discriminator 1
 2789              		.loc 1 124 55 is_stmt 0 discriminator 1
 2790 077c 17050000 		lla	a0,.LC3
 2790      13050500 
 2791 0784 97000000 		call	_Z11printStringPKc@plt
 2791      E7800000 
 2792              	.LVL300:
 123:src/../h/Z_Njihovo_Threads_CPP_API_Test.hpp ****         printString("D: i="); printInt(i); printString("\n");
 2793              		.loc 1 123 5 is_stmt 1 discriminator 1
 2794 078c 9B841400 		addiw	s1,s1,1
 2795              	.LVL301:
 2796 0790 93F4F40F 		andi	s1,s1,0xff
 2797              	.LVL302:
 2798              	.L140:
 123:src/../h/Z_Njihovo_Threads_CPP_API_Test.hpp ****         printString("D: i="); printInt(i); printString("\n");
 2799              		.loc 1 123 5 discriminator 2
 123:src/../h/Z_Njihovo_Threads_CPP_API_Test.hpp ****         printString("D: i="); printInt(i); printString("\n");
 2800              		.loc 1 123 14 discriminator 2
 2801 0794 9307F000 		li	a5,15
 2802 0798 E3F097FC 		bleu	s1,a5,.L143
 125:src/../h/Z_Njihovo_Threads_CPP_API_Test.hpp ****     }
 126:src/../h/Z_Njihovo_Threads_CPP_API_Test.hpp **** 
 127:src/../h/Z_Njihovo_Threads_CPP_API_Test.hpp ****     printString("D finished!\n");
 2803              		.loc 1 127 5
 2804              		.loc 1 127 16 is_stmt 0
 2805 079c 17050000 		lla	a0,.LC15
 2805      13050500 
 2806 07a4 97000000 		call	_Z11printStringPKc@plt
 2806      E7800000 
 2807              	.LVL303:
 128:src/../h/Z_Njihovo_Threads_CPP_API_Test.hpp ****     finishedD = true;
 2808              		.loc 1 128 5 is_stmt 1
 2809              		.loc 1 128 15 is_stmt 0
 2810 07ac 93071000 		li	a5,1
 2811 07b0 17070000 		sb	a5,.LANCHOR0+27,a4
 2811      2300F700 
 129:src/../h/Z_Njihovo_Threads_CPP_API_Test.hpp ****     thread_dispatch();
 2812              		.loc 1 129 5 is_stmt 1
 2813              		.loc 1 129 20 is_stmt 0
 2814 07b8 97000000 		call	_Z15thread_dispatchv@plt
 2814      E7800000 
 2815              	.LVL304:
 130:src/../h/Z_Njihovo_Threads_CPP_API_Test.hpp **** }
 2816              		.loc 1 130 1
 2817 07c0 83308101 		ld	ra,24(sp)
 2818              		.cfi_restore 1
 2819 07c4 03340101 		ld	s0,16(sp)
 2820              		.cfi_restore 8
 2821              		.cfi_def_cfa 2, 32
 2822 07c8 83348100 		ld	s1,8(sp)
 2823              		.cfi_restore 9
 2824              	.LVL305:
GAS LISTING /tmp/ccy4oBQd.s 			page 64


 2825 07cc 03390100 		ld	s2,0(sp)
 2826              		.cfi_restore 18
 2827              	.LVL306:
 2828 07d0 13010102 		addi	sp,sp,32
 2829              		.cfi_def_cfa_offset 0
 2830 07d4 67800000 		jr	ra
 2831              		.cfi_endproc
 2832              	.LFE70:
 2834              		.section	.text._ZN7WorkerD3runEv,"axG",@progbits,_ZN7WorkerD3runEv,comdat
 2835              		.align	2
 2836              		.weak	_ZN7WorkerD3runEv
 2838              	_ZN7WorkerD3runEv:
 2839              	.LFB66:
  54:src/../h/Z_Njihovo_Threads_CPP_API_Test.hpp ****         workerBodyD(nullptr);
 2840              		.loc 1 54 10 is_stmt 1
 2841              		.cfi_startproc
 2842              	.LVL307:
 2843 0000 130101FF 		addi	sp,sp,-16
 2844              		.cfi_def_cfa_offset 16
 2845 0004 23341100 		sd	ra,8(sp)
 2846 0008 23308100 		sd	s0,0(sp)
 2847              		.cfi_offset 1, -8
 2848              		.cfi_offset 8, -16
 2849 000c 13040101 		addi	s0,sp,16
 2850              		.cfi_def_cfa 8, 0
  55:src/../h/Z_Njihovo_Threads_CPP_API_Test.hpp ****     }
 2851              		.loc 1 55 9
  55:src/../h/Z_Njihovo_Threads_CPP_API_Test.hpp ****     }
 2852              		.loc 1 55 20 is_stmt 0
 2853 0010 93050000 		li	a1,0
 2854 0014 97000000 		call	_ZN7WorkerD11workerBodyDEPv
 2854      E7800000 
 2855              	.LVL308:
  56:src/../h/Z_Njihovo_Threads_CPP_API_Test.hpp **** };
 2856              		.loc 1 56 5
 2857 001c 83308100 		ld	ra,8(sp)
 2858              		.cfi_restore 1
 2859 0020 03340100 		ld	s0,0(sp)
 2860              		.cfi_restore 8
 2861              		.cfi_def_cfa 2, 16
 2862 0024 13010101 		addi	sp,sp,16
 2863              		.cfi_def_cfa_offset 0
 2864 0028 67800000 		jr	ra
 2865              		.cfi_endproc
 2866              	.LFE66:
 2868              		.section	.rodata.str1.8
 2869 00bd 000000   		.align	3
 2870              	.LC16:
 2871 00c0 54687265 		.string	"ThreadA created\n"
 2871      61644120 
 2871      63726561 
 2871      7465640A 
 2871      00
 2872 00d1 00000000 		.align	3
 2872      000000
 2873              	.LC17:
 2874 00d8 54687265 		.string	"ThreadB created\n"
GAS LISTING /tmp/ccy4oBQd.s 			page 65


 2874      61644220 
 2874      63726561 
 2874      7465640A 
 2874      00
 2875 00e9 00000000 		.align	3
 2875      000000
 2876              	.LC18:
 2877 00f0 54687265 		.string	"ThreadC created\n"
 2877      61644320 
 2877      63726561 
 2877      7465640A 
 2877      00
 2878 0101 00000000 		.align	3
 2878      000000
 2879              	.LC19:
 2880 0108 54687265 		.string	"ThreadD created\n"
 2880      61644420 
 2880      63726561 
 2880      7465640A 
 2880      00
 2881              		.text
 2882              		.align	2
 2883              		.globl	_Z20Threads_CPP_API_testv
 2885              	_Z20Threads_CPP_API_testv:
 2886              	.LFB71:
 131:src/../h/Z_Njihovo_Threads_CPP_API_Test.hpp **** 
 132:src/../h/Z_Njihovo_Threads_CPP_API_Test.hpp **** 
 133:src/../h/Z_Njihovo_Threads_CPP_API_Test.hpp **** void Threads_CPP_API_test() {
 2887              		.loc 1 133 29 is_stmt 1
 2888              		.cfi_startproc
 2889              		.cfi_personality 0x9b,DW.ref.__gxx_personality_v0
 2890              		.cfi_lsda 0x1b,.LLSDA71
 2891 07d8 130101FC 		addi	sp,sp,-64
 2892              		.cfi_def_cfa_offset 64
 2893 07dc 233C1102 		sd	ra,56(sp)
 2894 07e0 23388102 		sd	s0,48(sp)
 2895 07e4 23349102 		sd	s1,40(sp)
 2896 07e8 23302103 		sd	s2,32(sp)
 2897              		.cfi_offset 1, -8
 2898              		.cfi_offset 8, -16
 2899              		.cfi_offset 9, -24
 2900              		.cfi_offset 18, -32
 2901 07ec 13040104 		addi	s0,sp,64
 2902              		.cfi_def_cfa 8, 0
 134:src/../h/Z_Njihovo_Threads_CPP_API_Test.hpp ****     Thread* threads[4];
 2903              		.loc 1 134 5
 135:src/../h/Z_Njihovo_Threads_CPP_API_Test.hpp **** 
 136:src/../h/Z_Njihovo_Threads_CPP_API_Test.hpp ****     threads[0] = new WorkerA();
 2904              		.loc 1 136 5
 2905              		.loc 1 136 30 is_stmt 0
 2906 07f0 13050001 		li	a0,16
 2907              	.LEHB16:
 2908 07f4 97000000 		call	_Znwm@plt
 2908      E7800000 
 2909              	.LVL309:
 2910              	.LEHE16:
 2911 07fc 93040500 		mv	s1,a0
GAS LISTING /tmp/ccy4oBQd.s 			page 66


 2912              	.LVL310:
 2913              	.LEHB17:
 2914              	.LBB163:
 2915              	.LBB164:
  22:src/../h/Z_Njihovo_Threads_CPP_API_Test.hpp **** 
 2916              		.loc 1 22 22
 2917 0800 97000000 		call	_ZN6ThreadC2Ev@plt
 2917      E7800000 
 2918              	.LVL311:
 2919              	.LEHE17:
 2920 0808 97070000 		lla	a5,_ZTV7WorkerA+16
 2920      93870700 
 2921 0810 23B0F400 		sd	a5,0(s1)
 2922              	.LVL312:
 2923              	.LBE164:
 2924              	.LBE163:
 2925              		.loc 1 136 16
 2926 0814 233094FC 		sd	s1,-64(s0)
 137:src/../h/Z_Njihovo_Threads_CPP_API_Test.hpp ****     printString("ThreadA created\n");
 2927              		.loc 1 137 5 is_stmt 1
 2928              		.loc 1 137 16 is_stmt 0
 2929 0818 17050000 		lla	a0,.LC16
 2929      13050500 
 2930              	.LEHB18:
 2931 0820 97000000 		call	_Z11printStringPKc@plt
 2931      E7800000 
 2932              	.LVL313:
 138:src/../h/Z_Njihovo_Threads_CPP_API_Test.hpp **** 
 139:src/../h/Z_Njihovo_Threads_CPP_API_Test.hpp ****     threads[1] = new WorkerB();
 2933              		.loc 1 139 5 is_stmt 1
 2934              		.loc 1 139 30 is_stmt 0
 2935 0828 13050001 		li	a0,16
 2936 082c 97000000 		call	_Znwm@plt
 2936      E7800000 
 2937              	.LVL314:
 2938              	.LEHE18:
 2939 0834 93040500 		mv	s1,a0
 2940              	.LVL315:
 2941              	.LEHB19:
 2942              	.LBB165:
 2943              	.LBB166:
  32:src/../h/Z_Njihovo_Threads_CPP_API_Test.hpp **** 
 2944              		.loc 1 32 22
 2945 0838 97000000 		call	_ZN6ThreadC2Ev@plt
 2945      E7800000 
 2946              	.LVL316:
 2947              	.LEHE19:
 2948 0840 97070000 		lla	a5,_ZTV7WorkerB+16
 2948      93870700 
 2949 0848 23B0F400 		sd	a5,0(s1)
 2950              	.LVL317:
 2951              	.LBE166:
 2952              	.LBE165:
 2953              		.loc 1 139 16
 2954 084c 233494FC 		sd	s1,-56(s0)
 140:src/../h/Z_Njihovo_Threads_CPP_API_Test.hpp ****     printString("ThreadB created\n");
 2955              		.loc 1 140 5 is_stmt 1
GAS LISTING /tmp/ccy4oBQd.s 			page 67


 2956              		.loc 1 140 16 is_stmt 0
 2957 0850 17050000 		lla	a0,.LC17
 2957      13050500 
 2958              	.LEHB20:
 2959 0858 97000000 		call	_Z11printStringPKc@plt
 2959      E7800000 
 2960              	.LVL318:
 141:src/../h/Z_Njihovo_Threads_CPP_API_Test.hpp **** 
 142:src/../h/Z_Njihovo_Threads_CPP_API_Test.hpp ****     threads[2] = new WorkerC();
 2961              		.loc 1 142 5 is_stmt 1
 2962              		.loc 1 142 30 is_stmt 0
 2963 0860 13050001 		li	a0,16
 2964 0864 97000000 		call	_Znwm@plt
 2964      E7800000 
 2965              	.LVL319:
 2966              	.LEHE20:
 2967 086c 93040500 		mv	s1,a0
 2968              	.LVL320:
 2969              	.LEHB21:
 2970              	.LBB167:
 2971              	.LBB168:
  42:src/../h/Z_Njihovo_Threads_CPP_API_Test.hpp **** 
 2972              		.loc 1 42 22
 2973 0870 97000000 		call	_ZN6ThreadC2Ev@plt
 2973      E7800000 
 2974              	.LVL321:
 2975              	.LEHE21:
 2976 0878 97070000 		lla	a5,_ZTV7WorkerC+16
 2976      93870700 
 2977 0880 23B0F400 		sd	a5,0(s1)
 2978              	.LVL322:
 2979              	.LBE168:
 2980              	.LBE167:
 2981              		.loc 1 142 16
 2982 0884 233894FC 		sd	s1,-48(s0)
 143:src/../h/Z_Njihovo_Threads_CPP_API_Test.hpp ****     printString("ThreadC created\n");
 2983              		.loc 1 143 5 is_stmt 1
 2984              		.loc 1 143 16 is_stmt 0
 2985 0888 17050000 		lla	a0,.LC18
 2985      13050500 
 2986              	.LEHB22:
 2987 0890 97000000 		call	_Z11printStringPKc@plt
 2987      E7800000 
 2988              	.LVL323:
 144:src/../h/Z_Njihovo_Threads_CPP_API_Test.hpp **** 
 145:src/../h/Z_Njihovo_Threads_CPP_API_Test.hpp ****     threads[3] = new WorkerD();
 2989              		.loc 1 145 5 is_stmt 1
 2990              		.loc 1 145 30 is_stmt 0
 2991 0898 13050001 		li	a0,16
 2992 089c 97000000 		call	_Znwm@plt
 2992      E7800000 
 2993              	.LVL324:
 2994              	.LEHE22:
 2995 08a4 93040500 		mv	s1,a0
 2996              	.LVL325:
 2997              	.LEHB23:
 2998              	.LBB169:
GAS LISTING /tmp/ccy4oBQd.s 			page 68


 2999              	.LBB170:
  52:src/../h/Z_Njihovo_Threads_CPP_API_Test.hpp **** 
 3000              		.loc 1 52 22
 3001 08a8 97000000 		call	_ZN6ThreadC2Ev@plt
 3001      E7800000 
 3002              	.LVL326:
 3003              	.LEHE23:
 3004 08b0 97070000 		lla	a5,_ZTV7WorkerD+16
 3004      93870700 
 3005 08b8 23B0F400 		sd	a5,0(s1)
 3006              	.LVL327:
 3007              	.LBE170:
 3008              	.LBE169:
 3009              		.loc 1 145 16
 3010 08bc 233C94FC 		sd	s1,-40(s0)
 146:src/../h/Z_Njihovo_Threads_CPP_API_Test.hpp ****     printString("ThreadD created\n");
 3011              		.loc 1 146 5 is_stmt 1
 3012              		.loc 1 146 16 is_stmt 0
 3013 08c0 17050000 		lla	a0,.LC19
 3013      13050500 
 3014              	.LEHB24:
 3015 08c8 97000000 		call	_Z11printStringPKc@plt
 3015      E7800000 
 3016              	.LVL328:
 3017              	.LBB171:
 147:src/../h/Z_Njihovo_Threads_CPP_API_Test.hpp **** 
 148:src/../h/Z_Njihovo_Threads_CPP_API_Test.hpp ****     for(int i=0; i<4; i++) {
 3018              		.loc 1 148 13
 3019 08d0 93040000 		li	s1,0
 3020              	.L148:
 3021              	.LVL329:
 3022              		.loc 1 148 19 is_stmt 1 discriminator 1
 3023 08d4 93073000 		li	a5,3
 3024 08d8 63C69702 		bgt	s1,a5,.L147
 149:src/../h/Z_Njihovo_Threads_CPP_API_Test.hpp ****         threads[i]->start();
 3025              		.loc 1 149 9
 3026              		.loc 1 149 18 is_stmt 0
 3027 08dc 93973400 		slli	a5,s1,3
 3028 08e0 130704FE 		addi	a4,s0,-32
 3029 08e4 B307F700 		add	a5,a4,a5
 3030              		.loc 1 149 26
 3031 08e8 03B507FE 		ld	a0,-32(a5)
 3032 08ec 97000000 		call	_ZN6Thread5startEv@plt
 3032      E7800000 
 3033              	.LVL330:
 148:src/../h/Z_Njihovo_Threads_CPP_API_Test.hpp ****         threads[i]->start();
 3034              		.loc 1 148 5 is_stmt 1
 3035 08f4 9B841400 		addiw	s1,s1,1
 3036              	.LVL331:
 3037 08f8 6FF0DFFD 		j	.L148
 3038              	.LVL332:
 3039              	.L149:
 3040              	.LBE171:
 150:src/../h/Z_Njihovo_Threads_CPP_API_Test.hpp ****     }
 151:src/../h/Z_Njihovo_Threads_CPP_API_Test.hpp **** 
 152:src/../h/Z_Njihovo_Threads_CPP_API_Test.hpp ****     while (!(finishedA && finishedB && finishedC && finishedD)) {
 153:src/../h/Z_Njihovo_Threads_CPP_API_Test.hpp ****         Thread::dispatch();
GAS LISTING /tmp/ccy4oBQd.s 			page 69


 3041              		.loc 1 153 9
 3042              		.loc 1 153 25 is_stmt 0
 3043 08fc 97000000 		call	_ZN6Thread8dispatchEv@plt
 3043      E7800000 
 3044              	.LVL333:
 3045              	.LEHE24:
 3046              	.L147:
 152:src/../h/Z_Njihovo_Threads_CPP_API_Test.hpp ****         Thread::dispatch();
 3047              		.loc 1 152 5 is_stmt 1
 152:src/../h/Z_Njihovo_Threads_CPP_API_Test.hpp ****         Thread::dispatch();
 3048              		.loc 1 152 12
 3049 0904 97070000 		lbu	a5,.LANCHOR0+24
 3049      83C70700 
 3050 090c E38807FE 		beqz	a5,.L149
 152:src/../h/Z_Njihovo_Threads_CPP_API_Test.hpp ****         Thread::dispatch();
 3051              		.loc 1 152 24 is_stmt 0 discriminator 1
 3052 0910 97070000 		lbu	a5,.LANCHOR0+25
 3052      83C70700 
 3053 0918 E38207FE 		beqz	a5,.L149
 152:src/../h/Z_Njihovo_Threads_CPP_API_Test.hpp ****         Thread::dispatch();
 3054              		.loc 1 152 37 discriminator 2
 3055 091c 97070000 		lbu	a5,.LANCHOR0+26
 3055      83C70700 
 3056 0924 E38C07FC 		beqz	a5,.L149
 152:src/../h/Z_Njihovo_Threads_CPP_API_Test.hpp ****         Thread::dispatch();
 3057              		.loc 1 152 12 discriminator 3
 3058 0928 97070000 		lbu	a5,.LANCHOR0+27
 3058      83C70700 
 3059 0930 E38607FC 		beqz	a5,.L149
 3060              	.LBB172:
 154:src/../h/Z_Njihovo_Threads_CPP_API_Test.hpp ****     }
 155:src/../h/Z_Njihovo_Threads_CPP_API_Test.hpp **** 
 156:src/../h/Z_Njihovo_Threads_CPP_API_Test.hpp ****     for (auto thread: threads) { delete thread; }
 3061              		.loc 1 156 23
 3062 0934 930404FC 		addi	s1,s0,-64
 3063              	.LVL334:
 3064 0938 6F008000 		j	.L150
 3065              	.LVL335:
 3066              	.L152:
 3067              		.loc 1 156 5 is_stmt 1 discriminator 5
 3068 093c 93848400 		addi	s1,s1,8
 3069              	.LVL336:
 3070              	.L150:
 3071              		.loc 1 156 23 discriminator 6
 3072 0940 930704FE 		addi	a5,s0,-32
 3073 0944 6386F408 		beq	s1,a5,.L146
 3074              		.loc 1 156 15 is_stmt 0 discriminator 2
 3075 0948 03B50400 		ld	a0,0(s1)
 3076              	.LVL337:
 3077              		.loc 1 156 34 is_stmt 1 discriminator 2
 3078              		.loc 1 156 47 is_stmt 0 discriminator 2
 3079 094c E30805FE 		beqz	a0,.L152
 3080              		.loc 1 156 41 discriminator 3
 3081 0950 83370500 		ld	a5,0(a0)
 3082 0954 83B78700 		ld	a5,8(a5)
 3083 0958 E7800700 		jalr	a5
 3084              	.LVL338:
GAS LISTING /tmp/ccy4oBQd.s 			page 70


 3085 095c 6FF01FFE 		j	.L152
 3086              	.LVL339:
 3087              	.L158:
 3088 0960 13090500 		mv	s2,a0
 3089              	.LBE172:
 136:src/../h/Z_Njihovo_Threads_CPP_API_Test.hpp ****     printString("ThreadA created\n");
 3090              		.loc 1 136 30
 3091 0964 13850400 		mv	a0,s1
 3092 0968 97000000 		call	_ZdlPv@plt
 3092      E7800000 
 3093              	.LVL340:
 3094 0970 13050900 		mv	a0,s2
 3095              	.LEHB25:
 3096 0974 97000000 		call	_Unwind_Resume@plt
 3096      E7800000 
 3097              	.LVL341:
 3098              	.LEHE25:
 3099              	.L159:
 3100 097c 13090500 		mv	s2,a0
 139:src/../h/Z_Njihovo_Threads_CPP_API_Test.hpp ****     printString("ThreadB created\n");
 3101              		.loc 1 139 30
 3102 0980 13850400 		mv	a0,s1
 3103 0984 97000000 		call	_ZdlPv@plt
 3103      E7800000 
 3104              	.LVL342:
 3105 098c 13050900 		mv	a0,s2
 3106              	.LEHB26:
 3107 0990 97000000 		call	_Unwind_Resume@plt
 3107      E7800000 
 3108              	.LVL343:
 3109              	.LEHE26:
 3110              	.L160:
 3111 0998 13090500 		mv	s2,a0
 142:src/../h/Z_Njihovo_Threads_CPP_API_Test.hpp ****     printString("ThreadC created\n");
 3112              		.loc 1 142 30
 3113 099c 13850400 		mv	a0,s1
 3114 09a0 97000000 		call	_ZdlPv@plt
 3114      E7800000 
 3115              	.LVL344:
 3116 09a8 13050900 		mv	a0,s2
 3117              	.LEHB27:
 3118 09ac 97000000 		call	_Unwind_Resume@plt
 3118      E7800000 
 3119              	.LVL345:
 3120              	.LEHE27:
 3121              	.L161:
 3122 09b4 13090500 		mv	s2,a0
 145:src/../h/Z_Njihovo_Threads_CPP_API_Test.hpp ****     printString("ThreadD created\n");
 3123              		.loc 1 145 30
 3124 09b8 13850400 		mv	a0,s1
 3125 09bc 97000000 		call	_ZdlPv@plt
 3125      E7800000 
 3126              	.LVL346:
 3127 09c4 13050900 		mv	a0,s2
 3128              	.LEHB28:
 3129 09c8 97000000 		call	_Unwind_Resume@plt
 3129      E7800000 
GAS LISTING /tmp/ccy4oBQd.s 			page 71


 3130              	.LVL347:
 3131              	.LEHE28:
 3132              	.L146:
 157:src/../h/Z_Njihovo_Threads_CPP_API_Test.hpp **** }
 3133              		.loc 1 157 1
 3134 09d0 83308103 		ld	ra,56(sp)
 3135              		.cfi_restore 1
 3136 09d4 03340103 		ld	s0,48(sp)
 3137              		.cfi_restore 8
 3138              		.cfi_def_cfa 2, 64
 3139 09d8 83348102 		ld	s1,40(sp)
 3140              		.cfi_restore 9
 3141              	.LVL348:
 3142 09dc 03390102 		ld	s2,32(sp)
 3143              		.cfi_restore 18
 3144 09e0 13010104 		addi	sp,sp,64
 3145              		.cfi_def_cfa_offset 0
 3146 09e4 67800000 		jr	ra
 3147              		.cfi_endproc
 3148              	.LFE71:
 3149              		.section	.gcc_except_table
 3150              	.LLSDA71:
 3151 00d5 FF       		.byte	0xff
 3152 00d6 FF       		.byte	0xff
 3153 00d7 03       		.byte	0x3
 3154 00d8 A901     		.byte	0xa9,0x1
 3155 00da 00000000 		.4byte	.LEHB16-.LFB71
 3156 00de 00000000 		.4byte	.LEHE16-.LEHB16
 3157 00e2 00000000 		.4byte	0
 3158 00e6 00       		.byte	0
 3159 00e7 00000000 		.4byte	.LEHB17-.LFB71
 3160 00eb 00000000 		.4byte	.LEHE17-.LEHB17
 3161 00ef 00000000 		.4byte	.L158-.LFB71
 3162 00f3 00       		.byte	0
 3163 00f4 00000000 		.4byte	.LEHB18-.LFB71
 3164 00f8 00000000 		.4byte	.LEHE18-.LEHB18
 3165 00fc 00000000 		.4byte	0
 3166 0100 00       		.byte	0
 3167 0101 00000000 		.4byte	.LEHB19-.LFB71
 3168 0105 00000000 		.4byte	.LEHE19-.LEHB19
 3169 0109 00000000 		.4byte	.L159-.LFB71
 3170 010d 00       		.byte	0
 3171 010e 00000000 		.4byte	.LEHB20-.LFB71
 3172 0112 00000000 		.4byte	.LEHE20-.LEHB20
 3173 0116 00000000 		.4byte	0
 3174 011a 00       		.byte	0
 3175 011b 00000000 		.4byte	.LEHB21-.LFB71
 3176 011f 00000000 		.4byte	.LEHE21-.LEHB21
 3177 0123 00000000 		.4byte	.L160-.LFB71
 3178 0127 00       		.byte	0
 3179 0128 00000000 		.4byte	.LEHB22-.LFB71
 3180 012c 00000000 		.4byte	.LEHE22-.LEHB22
 3181 0130 00000000 		.4byte	0
 3182 0134 00       		.byte	0
 3183 0135 00000000 		.4byte	.LEHB23-.LFB71
 3184 0139 00000000 		.4byte	.LEHE23-.LEHB23
 3185 013d 00000000 		.4byte	.L161-.LFB71
GAS LISTING /tmp/ccy4oBQd.s 			page 72


 3186 0141 00       		.byte	0
 3187 0142 00000000 		.4byte	.LEHB24-.LFB71
 3188 0146 00000000 		.4byte	.LEHE24-.LEHB24
 3189 014a 00000000 		.4byte	0
 3190 014e 00       		.byte	0
 3191 014f 00000000 		.4byte	.LEHB25-.LFB71
 3192 0153 00000000 		.4byte	.LEHE25-.LEHB25
 3193 0157 00000000 		.4byte	0
 3194 015b 00       		.byte	0
 3195 015c 00000000 		.4byte	.LEHB26-.LFB71
 3196 0160 00000000 		.4byte	.LEHE26-.LEHB26
 3197 0164 00000000 		.4byte	0
 3198 0168 00       		.byte	0
 3199 0169 00000000 		.4byte	.LEHB27-.LFB71
 3200 016d 00000000 		.4byte	.LEHE27-.LEHB27
 3201 0171 00000000 		.4byte	0
 3202 0175 00       		.byte	0
 3203 0176 00000000 		.4byte	.LEHB28-.LFB71
 3204 017a 00000000 		.4byte	.LEHE28-.LEHB28
 3205 017e 00000000 		.4byte	0
 3206 0182 00       		.byte	0
 3207              		.text
 3209              		.align	2
 3210              		.globl	_Z12testSleepingv
 3212              	_Z12testSleepingv:
 3213              	.LFB73:
  21:src/../h/Z_Njihovo_ThreadSleep_C_API_Test.hpp **** 
  22:src/../h/Z_Njihovo_ThreadSleep_C_API_Test.hpp **** void testSleeping() {
 3214              		.loc 5 22 21 is_stmt 1
 3215              		.cfi_startproc
 3216 09e8 130101FC 		addi	sp,sp,-64
 3217              		.cfi_def_cfa_offset 64
 3218 09ec 233C1102 		sd	ra,56(sp)
 3219 09f0 23388102 		sd	s0,48(sp)
 3220 09f4 23349102 		sd	s1,40(sp)
 3221              		.cfi_offset 1, -8
 3222              		.cfi_offset 8, -16
 3223              		.cfi_offset 9, -24
 3224 09f8 13040104 		addi	s0,sp,64
 3225              		.cfi_def_cfa 8, 0
  23:src/../h/Z_Njihovo_ThreadSleep_C_API_Test.hpp ****     const int sleepy_thread_count = 2;
 3226              		.loc 5 23 5
 3227              	.LVL349:
  24:src/../h/Z_Njihovo_ThreadSleep_C_API_Test.hpp ****     time_t sleep_times[sleepy_thread_count] = {10, 20};
 3228              		.loc 5 24 5
 3229              		.loc 5 24 12 is_stmt 0
 3230 09fc 9307A000 		li	a5,10
 3231 0a00 2338F4FC 		sd	a5,-48(s0)
 3232 0a04 93074001 		li	a5,20
 3233 0a08 233CF4FC 		sd	a5,-40(s0)
  25:src/../h/Z_Njihovo_ThreadSleep_C_API_Test.hpp ****     thread_t sleepyThread[sleepy_thread_count];
 3234              		.loc 5 25 5 is_stmt 1
  26:src/../h/Z_Njihovo_ThreadSleep_C_API_Test.hpp **** 
  27:src/../h/Z_Njihovo_ThreadSleep_C_API_Test.hpp ****     for (int i = 0; i < sleepy_thread_count; i++) {
 3235              		.loc 5 27 5
 3236              	.LVL350:
 3237              	.LBB173:
GAS LISTING /tmp/ccy4oBQd.s 			page 73


 3238              		.loc 5 27 14 is_stmt 0
 3239 0a0c 93040000 		li	s1,0
 3240 0a10 6F00C002 		j	.L165
 3241              	.LVL351:
 3242              	.L168:
  28:src/../h/Z_Njihovo_ThreadSleep_C_API_Test.hpp ****         thread_create(&sleepyThread[i], sleepyRun, sleep_times + i);
 3243              		.loc 5 28 9 is_stmt 1
 3244              		.loc 5 28 64 is_stmt 0
 3245 0a14 93973400 		slli	a5,s1,3
 3246              		.loc 5 28 22
 3247 0a18 130604FD 		addi	a2,s0,-48
 3248 0a1c 3306F600 		add	a2,a2,a5
 3249 0a20 97050000 		lla	a1,_Z9sleepyRunPv
 3249      93850500 
 3250 0a28 130504FC 		addi	a0,s0,-64
 3251 0a2c 3305F500 		add	a0,a0,a5
 3252 0a30 97000000 		call	_Z13thread_createPP7_threadPFvPvES2_@plt
 3252      E7800000 
 3253              	.LVL352:
  27:src/../h/Z_Njihovo_ThreadSleep_C_API_Test.hpp ****         thread_create(&sleepyThread[i], sleepyRun, sleep_times + i);
 3254              		.loc 5 27 5 is_stmt 1
 3255 0a38 9B841400 		addiw	s1,s1,1
 3256              	.LVL353:
 3257              	.L165:
  27:src/../h/Z_Njihovo_ThreadSleep_C_API_Test.hpp ****         thread_create(&sleepyThread[i], sleepyRun, sleep_times + i);
 3258              		.loc 5 27 23 discriminator 1
 3259 0a3c 93071000 		li	a5,1
 3260 0a40 E3DA97FC 		ble	s1,a5,.L168
 3261              	.L166:
 3262              	.LBE173:
  29:src/../h/Z_Njihovo_ThreadSleep_C_API_Test.hpp ****     }
  30:src/../h/Z_Njihovo_ThreadSleep_C_API_Test.hpp **** 
  31:src/../h/Z_Njihovo_ThreadSleep_C_API_Test.hpp ****     while (!(finished[0] && finished[1])) {}
 3263              		.loc 5 31 5
 3264              		.loc 5 31 12
 3265              		.loc 5 31 24 is_stmt 0
 3266 0a44 97070000 		lbu	a5,.LANCHOR0
 3266      83C70700 
 3267              		.loc 5 31 12
 3268 0a4c E38C07FE 		beqz	a5,.L166
 3269              		.loc 5 31 39 discriminator 1
 3270 0a50 97070000 		lbu	a5,.LANCHOR0+1
 3270      83C70700 
 3271              		.loc 5 31 12 discriminator 1
 3272 0a58 E38607FE 		beqz	a5,.L166
  32:src/../h/Z_Njihovo_ThreadSleep_C_API_Test.hpp **** }
 3273              		.loc 5 32 1
 3274 0a5c 83308103 		ld	ra,56(sp)
 3275              		.cfi_restore 1
 3276 0a60 03340103 		ld	s0,48(sp)
 3277              		.cfi_restore 8
 3278              		.cfi_def_cfa 2, 64
 3279 0a64 83348102 		ld	s1,40(sp)
 3280              		.cfi_restore 9
 3281              	.LVL354:
 3282 0a68 13010104 		addi	sp,sp,64
 3283              		.cfi_def_cfa_offset 0
GAS LISTING /tmp/ccy4oBQd.s 			page 74


 3284 0a6c 67800000 		jr	ra
 3285              		.cfi_endproc
 3286              	.LFE73:
 3288              		.section	.rodata.str1.8
 3289 0119 00000000 		.align	3
 3289      000000
 3290              	.LC20:
 3291 0120 556E6573 		.string	"Unesite broj proizvodjaca?\n"
 3291      69746520 
 3291      62726F6A 
 3291      2070726F 
 3291      697A766F 
 3292 013c 00000000 		.align	3
 3293              	.LC21:
 3294 0140 556E6573 		.string	"Unesite velicinu bafera?\n"
 3294      69746520 
 3294      76656C69 
 3294      63696E75 
 3294      20626166 
 3295 015a 00000000 		.align	3
 3295      0000
 3296              	.LC22:
 3297 0160 42726F6A 		.string	"Broj proizvodjaca "
 3297      2070726F 
 3297      697A766F 
 3297      646A6163 
 3297      612000
 3298 0173 00000000 		.align	3
 3298      00
 3299              	.LC23:
 3300 0178 20692076 		.string	" i velicina bafera "
 3300      656C6963 
 3300      696E6120 
 3300      62616665 
 3300      72612000 
 3301 018c 00000000 		.align	3
 3302              	.LC24:
 3303 0190 2E0A00   		.string	".\n"
 3304 0193 00000000 		.align	3
 3304      00
 3305              	.LC25:
 3306 0198 42726F6A 		.string	"Broj proizvodjaca ne sme biti manji od velicine bafera!\n"
 3306      2070726F 
 3306      697A766F 
 3306      646A6163 
 3306      61206E65 
 3307 01d1 00000000 		.align	3
 3307      000000
 3308              	.LC26:
 3309 01d8 42726F6A 		.string	"Broj proizvodjaca mora biti veci od nula!\n"
 3309      2070726F 
 3309      697A766F 
 3309      646A6163 
 3309      61206D6F 
 3310              		.text
 3311              		.align	2
 3312              		.globl	_ZN19ConsumerProducerCPP20testConsumerProducerEv
GAS LISTING /tmp/ccy4oBQd.s 			page 75


 3314              	_ZN19ConsumerProducerCPP20testConsumerProducerEv:
 3315              	.LFB86:
  83:src/../h/Z_Njihovo_Consumer_Producer_CPP_API_Test.hpp ****     };
  84:src/../h/Z_Njihovo_Consumer_Producer_CPP_API_Test.hpp **** 
  85:src/../h/Z_Njihovo_Consumer_Producer_CPP_API_Test.hpp ****     void testConsumerProducer() {
 3316              		.loc 2 85 33 is_stmt 1
 3317              		.cfi_startproc
 3318              		.cfi_personality 0x9b,DW.ref.__gxx_personality_v0
 3319              		.cfi_lsda 0x1b,.LLSDA86
 3320 0a70 130101F8 		addi	sp,sp,-128
 3321              		.cfi_def_cfa_offset 128
 3322 0a74 233C1106 		sd	ra,120(sp)
 3323 0a78 23388106 		sd	s0,112(sp)
 3324 0a7c 23349106 		sd	s1,104(sp)
 3325 0a80 23302107 		sd	s2,96(sp)
 3326 0a84 233C3105 		sd	s3,88(sp)
 3327 0a88 23384105 		sd	s4,80(sp)
 3328 0a8c 23345105 		sd	s5,72(sp)
 3329 0a90 23306105 		sd	s6,64(sp)
 3330 0a94 233C7103 		sd	s7,56(sp)
 3331 0a98 23388103 		sd	s8,48(sp)
 3332 0a9c 23349103 		sd	s9,40(sp)
 3333              		.cfi_offset 1, -8
 3334              		.cfi_offset 8, -16
 3335              		.cfi_offset 9, -24
 3336              		.cfi_offset 18, -32
 3337              		.cfi_offset 19, -40
 3338              		.cfi_offset 20, -48
 3339              		.cfi_offset 21, -56
 3340              		.cfi_offset 22, -64
 3341              		.cfi_offset 23, -72
 3342              		.cfi_offset 24, -80
 3343              		.cfi_offset 25, -88
 3344 0aa0 13040108 		addi	s0,sp,128
 3345              		.cfi_def_cfa 8, 0
  86:src/../h/Z_Njihovo_Consumer_Producer_CPP_API_Test.hpp ****         char input[30];
  87:src/../h/Z_Njihovo_Consumer_Producer_CPP_API_Test.hpp ****         int n, threadNum;
  88:src/../h/Z_Njihovo_Consumer_Producer_CPP_API_Test.hpp **** 
  89:src/../h/Z_Njihovo_Consumer_Producer_CPP_API_Test.hpp ****         printString("Unesite broj proizvodjaca?\n");
  90:src/../h/Z_Njihovo_Consumer_Producer_CPP_API_Test.hpp ****         getString(input, 30);
  91:src/../h/Z_Njihovo_Consumer_Producer_CPP_API_Test.hpp ****         threadNum = stringToInt(input);
  92:src/../h/Z_Njihovo_Consumer_Producer_CPP_API_Test.hpp **** 
  93:src/../h/Z_Njihovo_Consumer_Producer_CPP_API_Test.hpp ****         printString("Unesite velicinu bafera?\n");
  94:src/../h/Z_Njihovo_Consumer_Producer_CPP_API_Test.hpp ****         getString(input, 30);
  95:src/../h/Z_Njihovo_Consumer_Producer_CPP_API_Test.hpp ****         n = stringToInt(input);
  96:src/../h/Z_Njihovo_Consumer_Producer_CPP_API_Test.hpp **** 
  97:src/../h/Z_Njihovo_Consumer_Producer_CPP_API_Test.hpp ****         printString("Broj proizvodjaca "); printInt(threadNum);
  98:src/../h/Z_Njihovo_Consumer_Producer_CPP_API_Test.hpp ****         printString(" i velicina bafera "); printInt(n);
  99:src/../h/Z_Njihovo_Consumer_Producer_CPP_API_Test.hpp ****         printString(".\n");
 100:src/../h/Z_Njihovo_Consumer_Producer_CPP_API_Test.hpp **** 
 101:src/../h/Z_Njihovo_Consumer_Producer_CPP_API_Test.hpp ****         if(threadNum > n) {
 102:src/../h/Z_Njihovo_Consumer_Producer_CPP_API_Test.hpp ****             printString("Broj proizvodjaca ne sme biti manji od velicine bafera!\n");
 103:src/../h/Z_Njihovo_Consumer_Producer_CPP_API_Test.hpp ****             return;
 104:src/../h/Z_Njihovo_Consumer_Producer_CPP_API_Test.hpp ****         } else if (threadNum < 1) {
 105:src/../h/Z_Njihovo_Consumer_Producer_CPP_API_Test.hpp ****             printString("Broj proizvodjaca mora biti veci od nula!\n");
 106:src/../h/Z_Njihovo_Consumer_Producer_CPP_API_Test.hpp ****             return;
 107:src/../h/Z_Njihovo_Consumer_Producer_CPP_API_Test.hpp ****         }
GAS LISTING /tmp/ccy4oBQd.s 			page 76


 108:src/../h/Z_Njihovo_Consumer_Producer_CPP_API_Test.hpp **** 
 109:src/../h/Z_Njihovo_Consumer_Producer_CPP_API_Test.hpp ****         BufferCPP *buffer = new BufferCPP(n);
 110:src/../h/Z_Njihovo_Consumer_Producer_CPP_API_Test.hpp **** 
 111:src/../h/Z_Njihovo_Consumer_Producer_CPP_API_Test.hpp ****         waitForAll = new Semaphore(0);
 112:src/../h/Z_Njihovo_Consumer_Producer_CPP_API_Test.hpp ****         Thread *producers[threadNum];
 113:src/../h/Z_Njihovo_Consumer_Producer_CPP_API_Test.hpp ****         thread_data threadData[threadNum + 1];
 114:src/../h/Z_Njihovo_Consumer_Producer_CPP_API_Test.hpp **** 
 115:src/../h/Z_Njihovo_Consumer_Producer_CPP_API_Test.hpp ****         threadData[threadNum].id = threadNum;
 116:src/../h/Z_Njihovo_Consumer_Producer_CPP_API_Test.hpp ****         threadData[threadNum].buffer = buffer;
 117:src/../h/Z_Njihovo_Consumer_Producer_CPP_API_Test.hpp ****         threadData[threadNum].sem = waitForAll;
 118:src/../h/Z_Njihovo_Consumer_Producer_CPP_API_Test.hpp ****         Thread *consumer = new Consumer(&threadData[threadNum]);
 119:src/../h/Z_Njihovo_Consumer_Producer_CPP_API_Test.hpp ****         consumer->start();
 120:src/../h/Z_Njihovo_Consumer_Producer_CPP_API_Test.hpp **** 
 121:src/../h/Z_Njihovo_Consumer_Producer_CPP_API_Test.hpp ****         threadData[0].id = 0;
 122:src/../h/Z_Njihovo_Consumer_Producer_CPP_API_Test.hpp ****         threadData[0].buffer = buffer;
 123:src/../h/Z_Njihovo_Consumer_Producer_CPP_API_Test.hpp ****         threadData[0].sem = waitForAll;
 124:src/../h/Z_Njihovo_Consumer_Producer_CPP_API_Test.hpp ****         producers[0] = new ProducerKeyborad(&threadData[0]);
 125:src/../h/Z_Njihovo_Consumer_Producer_CPP_API_Test.hpp ****         producers[0]->start();
 126:src/../h/Z_Njihovo_Consumer_Producer_CPP_API_Test.hpp **** 
 127:src/../h/Z_Njihovo_Consumer_Producer_CPP_API_Test.hpp ****         for (int i = 1; i < threadNum; i++) {
 128:src/../h/Z_Njihovo_Consumer_Producer_CPP_API_Test.hpp ****             threadData[i].id = i;
 129:src/../h/Z_Njihovo_Consumer_Producer_CPP_API_Test.hpp ****             threadData[i].buffer = buffer;
 130:src/../h/Z_Njihovo_Consumer_Producer_CPP_API_Test.hpp ****             threadData[i].sem = waitForAll;
 131:src/../h/Z_Njihovo_Consumer_Producer_CPP_API_Test.hpp **** 
 132:src/../h/Z_Njihovo_Consumer_Producer_CPP_API_Test.hpp ****             producers[i] = new Producer(&threadData[i]);
 133:src/../h/Z_Njihovo_Consumer_Producer_CPP_API_Test.hpp ****             producers[i]->start();
 134:src/../h/Z_Njihovo_Consumer_Producer_CPP_API_Test.hpp **** 
 135:src/../h/Z_Njihovo_Consumer_Producer_CPP_API_Test.hpp ****         }
 136:src/../h/Z_Njihovo_Consumer_Producer_CPP_API_Test.hpp **** 
 137:src/../h/Z_Njihovo_Consumer_Producer_CPP_API_Test.hpp ****         Thread::dispatch();
 138:src/../h/Z_Njihovo_Consumer_Producer_CPP_API_Test.hpp **** 
 139:src/../h/Z_Njihovo_Consumer_Producer_CPP_API_Test.hpp ****         for (int i = 0; i <= threadNum; i++) {
 140:src/../h/Z_Njihovo_Consumer_Producer_CPP_API_Test.hpp ****             waitForAll->wait();
 141:src/../h/Z_Njihovo_Consumer_Producer_CPP_API_Test.hpp ****         }
 142:src/../h/Z_Njihovo_Consumer_Producer_CPP_API_Test.hpp **** 
 143:src/../h/Z_Njihovo_Consumer_Producer_CPP_API_Test.hpp ****         delete waitForAll;
 144:src/../h/Z_Njihovo_Consumer_Producer_CPP_API_Test.hpp ****         for (int i = 0; i < threadNum; i++) {
 145:src/../h/Z_Njihovo_Consumer_Producer_CPP_API_Test.hpp ****             delete producers[i];
 146:src/../h/Z_Njihovo_Consumer_Producer_CPP_API_Test.hpp ****         }
 147:src/../h/Z_Njihovo_Consumer_Producer_CPP_API_Test.hpp ****         delete consumer;
 148:src/../h/Z_Njihovo_Consumer_Producer_CPP_API_Test.hpp ****         delete buffer;
 3346              		.loc 2 148 22 is_stmt 0
 3347 0aa4 130C0100 		mv	s8,sp
  86:src/../h/Z_Njihovo_Consumer_Producer_CPP_API_Test.hpp ****         char input[30];
 3348              		.loc 2 86 9 is_stmt 1
  87:src/../h/Z_Njihovo_Consumer_Producer_CPP_API_Test.hpp **** 
 3349              		.loc 2 87 9
  89:src/../h/Z_Njihovo_Consumer_Producer_CPP_API_Test.hpp ****         getString(input, 30);
 3350              		.loc 2 89 9
  89:src/../h/Z_Njihovo_Consumer_Producer_CPP_API_Test.hpp ****         getString(input, 30);
 3351              		.loc 2 89 20 is_stmt 0
 3352 0aa8 17050000 		lla	a0,.LC20
 3352      13050500 
 3353              	.LEHB29:
 3354 0ab0 97000000 		call	_Z11printStringPKc@plt
 3354      E7800000 
 3355              	.LVL355:
GAS LISTING /tmp/ccy4oBQd.s 			page 77


  90:src/../h/Z_Njihovo_Consumer_Producer_CPP_API_Test.hpp ****         threadNum = stringToInt(input);
 3356              		.loc 2 90 9 is_stmt 1
  90:src/../h/Z_Njihovo_Consumer_Producer_CPP_API_Test.hpp ****         threadNum = stringToInt(input);
 3357              		.loc 2 90 18 is_stmt 0
 3358 0ab8 9305E001 		li	a1,30
 3359 0abc 930404F8 		addi	s1,s0,-128
 3360 0ac0 13850400 		mv	a0,s1
 3361 0ac4 97000000 		call	_Z9getStringPci@plt
 3361      E7800000 
 3362              	.LVL356:
  91:src/../h/Z_Njihovo_Consumer_Producer_CPP_API_Test.hpp **** 
 3363              		.loc 2 91 9 is_stmt 1
  91:src/../h/Z_Njihovo_Consumer_Producer_CPP_API_Test.hpp **** 
 3364              		.loc 2 91 32 is_stmt 0
 3365 0acc 13850400 		mv	a0,s1
 3366 0ad0 97000000 		call	_Z11stringToIntPKc@plt
 3366      E7800000 
 3367              	.LVL357:
 3368 0ad8 93090500 		mv	s3,a0
 3369              	.LVL358:
  93:src/../h/Z_Njihovo_Consumer_Producer_CPP_API_Test.hpp ****         getString(input, 30);
 3370              		.loc 2 93 9 is_stmt 1
  93:src/../h/Z_Njihovo_Consumer_Producer_CPP_API_Test.hpp ****         getString(input, 30);
 3371              		.loc 2 93 20 is_stmt 0
 3372 0adc 17050000 		lla	a0,.LC21
 3372      13050500 
 3373 0ae4 97000000 		call	_Z11printStringPKc@plt
 3373      E7800000 
 3374              	.LVL359:
  94:src/../h/Z_Njihovo_Consumer_Producer_CPP_API_Test.hpp ****         n = stringToInt(input);
 3375              		.loc 2 94 9 is_stmt 1
  94:src/../h/Z_Njihovo_Consumer_Producer_CPP_API_Test.hpp ****         n = stringToInt(input);
 3376              		.loc 2 94 18 is_stmt 0
 3377 0aec 9305E001 		li	a1,30
 3378 0af0 13850400 		mv	a0,s1
 3379 0af4 97000000 		call	_Z9getStringPci@plt
 3379      E7800000 
 3380              	.LVL360:
  95:src/../h/Z_Njihovo_Consumer_Producer_CPP_API_Test.hpp **** 
 3381              		.loc 2 95 9 is_stmt 1
  95:src/../h/Z_Njihovo_Consumer_Producer_CPP_API_Test.hpp **** 
 3382              		.loc 2 95 24 is_stmt 0
 3383 0afc 13850400 		mv	a0,s1
 3384 0b00 97000000 		call	_Z11stringToIntPKc@plt
 3384      E7800000 
 3385              	.LVL361:
 3386 0b08 93040500 		mv	s1,a0
 3387              	.LVL362:
  97:src/../h/Z_Njihovo_Consumer_Producer_CPP_API_Test.hpp ****         printString(" i velicina bafera "); printInt(n);
 3388              		.loc 2 97 9 is_stmt 1
  97:src/../h/Z_Njihovo_Consumer_Producer_CPP_API_Test.hpp ****         printString(" i velicina bafera "); printInt(n);
 3389              		.loc 2 97 20 is_stmt 0
 3390 0b0c 17050000 		lla	a0,.LC22
 3390      13050500 
 3391 0b14 97000000 		call	_Z11printStringPKc@plt
 3391      E7800000 
 3392              	.LVL363:
GAS LISTING /tmp/ccy4oBQd.s 			page 78


  97:src/../h/Z_Njihovo_Consumer_Producer_CPP_API_Test.hpp ****         printString(" i velicina bafera "); printInt(n);
 3393              		.loc 2 97 44 is_stmt 1
  97:src/../h/Z_Njihovo_Consumer_Producer_CPP_API_Test.hpp ****         printString(" i velicina bafera "); printInt(n);
 3394              		.loc 2 97 52 is_stmt 0
 3395 0b1c 13060000 		li	a2,0
 3396 0b20 9305A000 		li	a1,10
 3397 0b24 13850900 		mv	a0,s3
 3398 0b28 97000000 		call	_Z8printIntiii@plt
 3398      E7800000 
 3399              	.LVL364:
  98:src/../h/Z_Njihovo_Consumer_Producer_CPP_API_Test.hpp ****         printString(".\n");
 3400              		.loc 2 98 9 is_stmt 1
  98:src/../h/Z_Njihovo_Consumer_Producer_CPP_API_Test.hpp ****         printString(".\n");
 3401              		.loc 2 98 20 is_stmt 0
 3402 0b30 17050000 		lla	a0,.LC23
 3402      13050500 
 3403 0b38 97000000 		call	_Z11printStringPKc@plt
 3403      E7800000 
 3404              	.LVL365:
  98:src/../h/Z_Njihovo_Consumer_Producer_CPP_API_Test.hpp ****         printString(".\n");
 3405              		.loc 2 98 45 is_stmt 1
  98:src/../h/Z_Njihovo_Consumer_Producer_CPP_API_Test.hpp ****         printString(".\n");
 3406              		.loc 2 98 53 is_stmt 0
 3407 0b40 13060000 		li	a2,0
 3408 0b44 9305A000 		li	a1,10
 3409 0b48 13850400 		mv	a0,s1
 3410 0b4c 97000000 		call	_Z8printIntiii@plt
 3410      E7800000 
 3411              	.LVL366:
  99:src/../h/Z_Njihovo_Consumer_Producer_CPP_API_Test.hpp **** 
 3412              		.loc 2 99 9 is_stmt 1
  99:src/../h/Z_Njihovo_Consumer_Producer_CPP_API_Test.hpp **** 
 3413              		.loc 2 99 20 is_stmt 0
 3414 0b54 17050000 		lla	a0,.LC24
 3414      13050500 
 3415 0b5c 97000000 		call	_Z11printStringPKc@plt
 3415      E7800000 
 3416              	.LVL367:
 101:src/../h/Z_Njihovo_Consumer_Producer_CPP_API_Test.hpp ****             printString("Broj proizvodjaca ne sme biti manji od velicine bafera!\n");
 3417              		.loc 2 101 9 is_stmt 1
 3418 0b64 63C43403 		bgt	s3,s1,.L195
 104:src/../h/Z_Njihovo_Consumer_Producer_CPP_API_Test.hpp ****             printString("Broj proizvodjaca mora biti veci od nula!\n");
 3419              		.loc 2 104 16
 3420 0b68 635C3003 		blez	s3,.L196
 109:src/../h/Z_Njihovo_Consumer_Producer_CPP_API_Test.hpp **** 
 3421              		.loc 2 109 9
 109:src/../h/Z_Njihovo_Consumer_Producer_CPP_API_Test.hpp **** 
 3422              		.loc 2 109 44 is_stmt 0
 3423 0b6c 13058003 		li	a0,56
 3424 0b70 97000000 		call	_Znwm@plt
 3424      E7800000 
 3425              	.LVL368:
 3426              	.LEHE29:
 3427 0b78 930A0500 		mv	s5,a0
 3428 0b7c 93850400 		mv	a1,s1
 3429              	.LEHB30:
 3430 0b80 97000000 		call	_ZN9BufferCPPC1Ei@plt
GAS LISTING /tmp/ccy4oBQd.s 			page 79


 3430      E7800000 
 3431              	.LVL369:
 3432              	.LEHE30:
 3433 0b88 6F000003 		j	.L197
 3434              	.L195:
 102:src/../h/Z_Njihovo_Consumer_Producer_CPP_API_Test.hpp ****             return;
 3435              		.loc 2 102 13 is_stmt 1
 102:src/../h/Z_Njihovo_Consumer_Producer_CPP_API_Test.hpp ****             return;
 3436              		.loc 2 102 24 is_stmt 0
 3437 0b8c 17050000 		lla	a0,.LC25
 3437      13050500 
 3438              	.LEHB31:
 3439 0b94 97000000 		call	_Z11printStringPKc@plt
 3439      E7800000 
 3440              	.LVL370:
 103:src/../h/Z_Njihovo_Consumer_Producer_CPP_API_Test.hpp ****         } else if (threadNum < 1) {
 3441              		.loc 2 103 13 is_stmt 1
 3442 0b9c 6F004001 		j	.L171
 3443              	.L196:
 105:src/../h/Z_Njihovo_Consumer_Producer_CPP_API_Test.hpp ****             return;
 3444              		.loc 2 105 13
 105:src/../h/Z_Njihovo_Consumer_Producer_CPP_API_Test.hpp ****             return;
 3445              		.loc 2 105 24 is_stmt 0
 3446 0ba0 17050000 		lla	a0,.LC26
 3446      13050500 
 3447 0ba8 97000000 		call	_Z11printStringPKc@plt
 3447      E7800000 
 3448              	.LVL371:
 106:src/../h/Z_Njihovo_Consumer_Producer_CPP_API_Test.hpp ****         }
 3449              		.loc 2 106 13 is_stmt 1
 3450              	.L171:
 3451 0bb0 13010C00 		mv	sp,s8
 3452 0bb4 6F00C021 		j	.L169
 3453              	.L197:
 3454              	.LVL372:
 111:src/../h/Z_Njihovo_Consumer_Producer_CPP_API_Test.hpp ****         Thread *producers[threadNum];
 3455              		.loc 2 111 9 discriminator 3
 111:src/../h/Z_Njihovo_Consumer_Producer_CPP_API_Test.hpp ****         Thread *producers[threadNum];
 3456              		.loc 2 111 37 is_stmt 0 discriminator 3
 3457 0bb8 13050001 		li	a0,16
 3458 0bbc 97000000 		call	_Znwm@plt
 3458      E7800000 
 3459              	.LVL373:
 3460              	.LEHE31:
 3461 0bc4 93040500 		mv	s1,a0
 3462              	.LVL374:
 3463 0bc8 93050000 		li	a1,0
 3464              	.LEHB32:
 3465 0bcc 97000000 		call	_ZN9SemaphoreC1Ej@plt
 3465      E7800000 
 3466              	.LVL375:
 3467              	.LEHE32:
 111:src/../h/Z_Njihovo_Consumer_Producer_CPP_API_Test.hpp ****         Thread *producers[threadNum];
 3468              		.loc 2 111 20 discriminator 3
 3469 0bd4 17070000 		lla	a4,.LANCHOR0
 3469      13070700 
 3470 0bdc 23309702 		sd	s1,32(a4)
GAS LISTING /tmp/ccy4oBQd.s 			page 80


 112:src/../h/Z_Njihovo_Consumer_Producer_CPP_API_Test.hpp ****         thread_data threadData[threadNum + 1];
 3471              		.loc 2 112 9 is_stmt 1 discriminator 3
 3472              	.LVL376:
 112:src/../h/Z_Njihovo_Consumer_Producer_CPP_API_Test.hpp ****         thread_data threadData[threadNum + 1];
 3473              		.loc 2 112 17 is_stmt 0 discriminator 3
 3474 0be0 93973900 		slli	a5,s3,3
 3475 0be4 9387F700 		addi	a5,a5,15
 3476 0be8 93F707FF 		andi	a5,a5,-16
 3477 0bec 3301F140 		sub	sp,sp,a5
 3478 0bf0 130A0100 		mv	s4,sp
 3479              	.LVL377:
 113:src/../h/Z_Njihovo_Consumer_Producer_CPP_API_Test.hpp **** 
 3480              		.loc 2 113 9 is_stmt 1 discriminator 3
 113:src/../h/Z_Njihovo_Consumer_Producer_CPP_API_Test.hpp **** 
 3481              		.loc 2 113 42 is_stmt 0 discriminator 3
 3482 0bf4 9B861900 		addiw	a3,s3,1
 3483              	.LVL378:
 113:src/../h/Z_Njihovo_Consumer_Producer_CPP_API_Test.hpp **** 
 3484              		.loc 2 113 21 discriminator 3
 3485 0bf8 93971600 		slli	a5,a3,1
 3486 0bfc B387D700 		add	a5,a5,a3
 3487 0c00 93973700 		slli	a5,a5,3
 3488 0c04 9387F700 		addi	a5,a5,15
 3489 0c08 93F707FF 		andi	a5,a5,-16
 3490 0c0c 3301F140 		sub	sp,sp,a5
 3491              	.LVL379:
 3492 0c10 130B0100 		mv	s6,sp
 3493              	.LVL380:
 115:src/../h/Z_Njihovo_Consumer_Producer_CPP_API_Test.hpp ****         threadData[threadNum].buffer = buffer;
 3494              		.loc 2 115 9 is_stmt 1 discriminator 3
 115:src/../h/Z_Njihovo_Consumer_Producer_CPP_API_Test.hpp ****         threadData[threadNum].buffer = buffer;
 3495              		.loc 2 115 34 is_stmt 0 discriminator 3
 3496 0c14 93941900 		slli	s1,s3,1
 3497 0c18 B3843401 		add	s1,s1,s3
 3498 0c1c 93943400 		slli	s1,s1,3
 3499 0c20 B3049B00 		add	s1,s6,s1
 3500 0c24 23A03401 		sw	s3,0(s1)
 116:src/../h/Z_Njihovo_Consumer_Producer_CPP_API_Test.hpp ****         threadData[threadNum].sem = waitForAll;
 3501              		.loc 2 116 9 is_stmt 1 discriminator 3
 116:src/../h/Z_Njihovo_Consumer_Producer_CPP_API_Test.hpp ****         threadData[threadNum].sem = waitForAll;
 3502              		.loc 2 116 38 is_stmt 0 discriminator 3
 3503 0c28 23B45401 		sd	s5,8(s1)
 117:src/../h/Z_Njihovo_Consumer_Producer_CPP_API_Test.hpp ****         Thread *consumer = new Consumer(&threadData[threadNum]);
 3504              		.loc 2 117 9 is_stmt 1 discriminator 3
 117:src/../h/Z_Njihovo_Consumer_Producer_CPP_API_Test.hpp ****         Thread *consumer = new Consumer(&threadData[threadNum]);
 3505              		.loc 2 117 35 is_stmt 0 discriminator 3
 3506 0c2c 83370702 		ld	a5,32(a4)
 3507 0c30 23B8F400 		sd	a5,16(s1)
 118:src/../h/Z_Njihovo_Consumer_Producer_CPP_API_Test.hpp ****         consumer->start();
 3508              		.loc 2 118 9 is_stmt 1 discriminator 3
 118:src/../h/Z_Njihovo_Consumer_Producer_CPP_API_Test.hpp ****         consumer->start();
 3509              		.loc 2 118 63 is_stmt 0 discriminator 3
 3510 0c34 13058001 		li	a0,24
 3511              	.LEHB33:
 3512 0c38 97000000 		call	_Znwm@plt
 3512      E7800000 
 3513              	.LVL381:
GAS LISTING /tmp/ccy4oBQd.s 			page 81


 3514              	.LEHE33:
 3515 0c40 930B0500 		mv	s7,a0
 3516              	.LVL382:
 3517              	.LEHB34:
 3518              	.LBB174:
 3519              	.LBB175:
  61:src/../h/Z_Njihovo_Consumer_Producer_CPP_API_Test.hpp **** 
 3520              		.loc 2 61 54 discriminator 3
 3521 0c44 97000000 		call	_ZN6ThreadC2Ev@plt
 3521      E7800000 
 3522              	.LVL383:
 3523              	.LEHE34:
  61:src/../h/Z_Njihovo_Consumer_Producer_CPP_API_Test.hpp **** 
 3524              		.loc 2 61 54
 3525 0c4c 97070000 		lla	a5,_ZTVN19ConsumerProducerCPP8ConsumerE+16
 3525      93870700 
 3526 0c54 23B0FB00 		sd	a5,0(s7)
 3527 0c58 23B89B00 		sd	s1,16(s7)
 3528              	.LVL384:
 3529              	.LBE175:
 3530              	.LBE174:
 119:src/../h/Z_Njihovo_Consumer_Producer_CPP_API_Test.hpp **** 
 3531              		.loc 2 119 9 is_stmt 1
 119:src/../h/Z_Njihovo_Consumer_Producer_CPP_API_Test.hpp **** 
 3532              		.loc 2 119 24 is_stmt 0
 3533 0c5c 13850B00 		mv	a0,s7
 3534              	.LEHB35:
 3535 0c60 97000000 		call	_ZN6Thread5startEv@plt
 3535      E7800000 
 3536              	.LVL385:
 121:src/../h/Z_Njihovo_Consumer_Producer_CPP_API_Test.hpp ****         threadData[0].buffer = buffer;
 3537              		.loc 2 121 9 is_stmt 1
 121:src/../h/Z_Njihovo_Consumer_Producer_CPP_API_Test.hpp ****         threadData[0].buffer = buffer;
 3538              		.loc 2 121 26 is_stmt 0
 3539 0c68 23200B00 		sw	zero,0(s6)
 122:src/../h/Z_Njihovo_Consumer_Producer_CPP_API_Test.hpp ****         threadData[0].sem = waitForAll;
 3540              		.loc 2 122 9 is_stmt 1
 122:src/../h/Z_Njihovo_Consumer_Producer_CPP_API_Test.hpp ****         threadData[0].sem = waitForAll;
 3541              		.loc 2 122 30 is_stmt 0
 3542 0c6c 23345B01 		sd	s5,8(s6)
 123:src/../h/Z_Njihovo_Consumer_Producer_CPP_API_Test.hpp ****         producers[0] = new ProducerKeyborad(&threadData[0]);
 3543              		.loc 2 123 9 is_stmt 1
 123:src/../h/Z_Njihovo_Consumer_Producer_CPP_API_Test.hpp ****         producers[0] = new ProducerKeyborad(&threadData[0]);
 3544              		.loc 2 123 27 is_stmt 0
 3545 0c70 97070000 		ld	a5,.LANCHOR0+32
 3545      83B70700 
 3546 0c78 2338FB00 		sd	a5,16(s6)
 124:src/../h/Z_Njihovo_Consumer_Producer_CPP_API_Test.hpp ****         producers[0]->start();
 3547              		.loc 2 124 9 is_stmt 1
 124:src/../h/Z_Njihovo_Consumer_Producer_CPP_API_Test.hpp ****         producers[0]->start();
 3548              		.loc 2 124 59 is_stmt 0
 3549 0c7c 13058001 		li	a0,24
 3550 0c80 97000000 		call	_Znwm@plt
 3550      E7800000 
 3551              	.LVL386:
 3552              	.LEHE35:
 3553 0c88 93040500 		mv	s1,a0
GAS LISTING /tmp/ccy4oBQd.s 			page 82


 3554              	.LVL387:
 3555              	.LEHB36:
 3556              	.LBB176:
 3557              	.LBB177:
  24:src/../h/Z_Njihovo_Consumer_Producer_CPP_API_Test.hpp **** 
 3558              		.loc 2 24 62
 3559 0c8c 97000000 		call	_ZN6ThreadC2Ev@plt
 3559      E7800000 
 3560              	.LVL388:
 3561              	.LEHE36:
 3562 0c94 97070000 		lla	a5,_ZTVN19ConsumerProducerCPP16ProducerKeyboradE+16
 3562      93870700 
 3563 0c9c 23B0F400 		sd	a5,0(s1)
 3564 0ca0 23B86401 		sd	s6,16(s1)
 3565              	.LVL389:
 3566              	.LBE177:
 3567              	.LBE176:
 124:src/../h/Z_Njihovo_Consumer_Producer_CPP_API_Test.hpp ****         producers[0]->start();
 3568              		.loc 2 124 22
 3569 0ca4 23309A00 		sd	s1,0(s4)
 125:src/../h/Z_Njihovo_Consumer_Producer_CPP_API_Test.hpp **** 
 3570              		.loc 2 125 9 is_stmt 1
 125:src/../h/Z_Njihovo_Consumer_Producer_CPP_API_Test.hpp **** 
 3571              		.loc 2 125 28 is_stmt 0
 3572 0ca8 13850400 		mv	a0,s1
 3573              	.LEHB37:
 3574 0cac 97000000 		call	_ZN6Thread5startEv@plt
 3574      E7800000 
 3575              	.LVL390:
 3576              	.LBB178:
 127:src/../h/Z_Njihovo_Consumer_Producer_CPP_API_Test.hpp ****             threadData[i].id = i;
 3577              		.loc 2 127 18
 3578 0cb4 13091000 		li	s2,1
 3579 0cb8 6F000003 		j	.L174
 3580              	.LVL391:
 3581              	.L198:
 3582              	.LBB179:
 3583              	.LBB180:
  44:src/../h/Z_Njihovo_Consumer_Producer_CPP_API_Test.hpp **** 
 3584              		.loc 2 44 54
 3585 0cbc 97070000 		lla	a5,_ZTVN19ConsumerProducerCPP8ProducerE+16
 3585      93870700 
 3586 0cc4 23B0FC00 		sd	a5,0(s9)
 3587 0cc8 23B89C00 		sd	s1,16(s9)
 3588              	.LVL392:
 3589              	.LBE180:
 3590              	.LBE179:
 132:src/../h/Z_Njihovo_Consumer_Producer_CPP_API_Test.hpp ****             producers[i]->start();
 3591              		.loc 2 132 26
 3592 0ccc 93173900 		slli	a5,s2,3
 3593 0cd0 B307FA00 		add	a5,s4,a5
 3594 0cd4 23B09701 		sd	s9,0(a5)
 133:src/../h/Z_Njihovo_Consumer_Producer_CPP_API_Test.hpp **** 
 3595              		.loc 2 133 13 is_stmt 1
 133:src/../h/Z_Njihovo_Consumer_Producer_CPP_API_Test.hpp **** 
 3596              		.loc 2 133 32 is_stmt 0
 3597 0cd8 13850C00 		mv	a0,s9
GAS LISTING /tmp/ccy4oBQd.s 			page 83


 3598 0cdc 97000000 		call	_ZN6Thread5startEv@plt
 3598      E7800000 
 3599              	.LVL393:
 127:src/../h/Z_Njihovo_Consumer_Producer_CPP_API_Test.hpp ****             threadData[i].id = i;
 3600              		.loc 2 127 9 is_stmt 1
 3601 0ce4 1B091900 		addiw	s2,s2,1
 3602              	.LVL394:
 3603              	.L174:
 127:src/../h/Z_Njihovo_Consumer_Producer_CPP_API_Test.hpp ****             threadData[i].id = i;
 3604              		.loc 2 127 27 discriminator 1
 3605 0ce8 63523905 		bge	s2,s3,.L173
 128:src/../h/Z_Njihovo_Consumer_Producer_CPP_API_Test.hpp ****             threadData[i].buffer = buffer;
 3606              		.loc 2 128 13
 128:src/../h/Z_Njihovo_Consumer_Producer_CPP_API_Test.hpp ****             threadData[i].buffer = buffer;
 3607              		.loc 2 128 30 is_stmt 0
 3608 0cec 93141900 		slli	s1,s2,1
 3609 0cf0 B3842401 		add	s1,s1,s2
 3610 0cf4 93943400 		slli	s1,s1,3
 3611 0cf8 B3049B00 		add	s1,s6,s1
 3612 0cfc 23A02401 		sw	s2,0(s1)
 129:src/../h/Z_Njihovo_Consumer_Producer_CPP_API_Test.hpp ****             threadData[i].sem = waitForAll;
 3613              		.loc 2 129 13 is_stmt 1
 129:src/../h/Z_Njihovo_Consumer_Producer_CPP_API_Test.hpp ****             threadData[i].sem = waitForAll;
 3614              		.loc 2 129 34 is_stmt 0
 3615 0d00 23B45401 		sd	s5,8(s1)
 130:src/../h/Z_Njihovo_Consumer_Producer_CPP_API_Test.hpp **** 
 3616              		.loc 2 130 13 is_stmt 1
 130:src/../h/Z_Njihovo_Consumer_Producer_CPP_API_Test.hpp **** 
 3617              		.loc 2 130 31 is_stmt 0
 3618 0d04 97070000 		ld	a5,.LANCHOR0+32
 3618      83B70700 
 3619 0d0c 23B8F400 		sd	a5,16(s1)
 132:src/../h/Z_Njihovo_Consumer_Producer_CPP_API_Test.hpp ****             producers[i]->start();
 3620              		.loc 2 132 13 is_stmt 1
 132:src/../h/Z_Njihovo_Consumer_Producer_CPP_API_Test.hpp ****             producers[i]->start();
 3621              		.loc 2 132 55 is_stmt 0
 3622 0d10 13058001 		li	a0,24
 3623 0d14 97000000 		call	_Znwm@plt
 3623      E7800000 
 3624              	.LVL395:
 3625              	.LEHE37:
 3626 0d1c 930C0500 		mv	s9,a0
 3627              	.LVL396:
 3628              	.LEHB38:
 3629              	.LBB182:
 3630              	.LBB181:
  44:src/../h/Z_Njihovo_Consumer_Producer_CPP_API_Test.hpp **** 
 3631              		.loc 2 44 54
 3632 0d20 97000000 		call	_ZN6ThreadC2Ev@plt
 3632      E7800000 
 3633              	.LVL397:
 3634              	.LEHE38:
 3635 0d28 6FF05FF9 		j	.L198
 3636              	.LVL398:
 3637              	.L173:
 3638              	.LBE181:
 3639              	.LBE182:
GAS LISTING /tmp/ccy4oBQd.s 			page 84


 3640              	.LBE178:
 137:src/../h/Z_Njihovo_Consumer_Producer_CPP_API_Test.hpp **** 
 3641              		.loc 2 137 9 is_stmt 1
 3642              	.LEHB39:
 137:src/../h/Z_Njihovo_Consumer_Producer_CPP_API_Test.hpp **** 
 3643              		.loc 2 137 25 is_stmt 0
 3644 0d2c 97000000 		call	_ZN6Thread8dispatchEv@plt
 3644      E7800000 
 3645              	.LVL399:
 3646              	.LBB183:
 139:src/../h/Z_Njihovo_Consumer_Producer_CPP_API_Test.hpp ****             waitForAll->wait();
 3647              		.loc 2 139 18
 3648 0d34 93040000 		li	s1,0
 3649              	.L176:
 3650              	.LVL400:
 139:src/../h/Z_Njihovo_Consumer_Producer_CPP_API_Test.hpp ****             waitForAll->wait();
 3651              		.loc 2 139 27 is_stmt 1 discriminator 1
 3652 0d38 63CE9900 		bgt	s1,s3,.L175
 140:src/../h/Z_Njihovo_Consumer_Producer_CPP_API_Test.hpp ****         }
 3653              		.loc 2 140 13
 140:src/../h/Z_Njihovo_Consumer_Producer_CPP_API_Test.hpp ****         }
 3654              		.loc 2 140 29 is_stmt 0
 3655 0d3c 17050000 		ld	a0,.LANCHOR0+32
 3655      03350500 
 3656 0d44 97000000 		call	_ZN9Semaphore4waitEv@plt
 3656      E7800000 
 3657              	.LVL401:
 139:src/../h/Z_Njihovo_Consumer_Producer_CPP_API_Test.hpp ****             waitForAll->wait();
 3658              		.loc 2 139 9 is_stmt 1
 3659 0d4c 9B841400 		addiw	s1,s1,1
 3660              	.LVL402:
 3661 0d50 6FF09FFE 		j	.L176
 3662              	.LVL403:
 3663              	.L175:
 3664              	.LBE183:
 143:src/../h/Z_Njihovo_Consumer_Producer_CPP_API_Test.hpp ****         for (int i = 0; i < threadNum; i++) {
 3665              		.loc 2 143 9
 143:src/../h/Z_Njihovo_Consumer_Producer_CPP_API_Test.hpp ****         for (int i = 0; i < threadNum; i++) {
 3666              		.loc 2 143 16 is_stmt 0
 3667 0d54 17050000 		ld	a0,.LANCHOR0+32
 3667      03350500 
 143:src/../h/Z_Njihovo_Consumer_Producer_CPP_API_Test.hpp ****         for (int i = 0; i < threadNum; i++) {
 3668              		.loc 2 143 26
 3669 0d5c 63080500 		beqz	a0,.L177
 143:src/../h/Z_Njihovo_Consumer_Producer_CPP_API_Test.hpp ****         for (int i = 0; i < threadNum; i++) {
 3670              		.loc 2 143 16 discriminator 1
 3671 0d60 83370500 		ld	a5,0(a0)
 3672 0d64 83B78700 		ld	a5,8(a5)
 3673 0d68 E7800700 		jalr	a5
 3674              	.LVL404:
 3675              	.L177:
 3676              	.LBB184:
 139:src/../h/Z_Njihovo_Consumer_Producer_CPP_API_Test.hpp ****             waitForAll->wait();
 3677              		.loc 2 139 18 discriminator 1
 3678 0d6c 93040000 		li	s1,0
 3679              	.LVL405:
 3680 0d70 6F008000 		j	.L180
GAS LISTING /tmp/ccy4oBQd.s 			page 85


 3681              	.LVL406:
 3682              	.L179:
 3683              	.LBE184:
 3684              	.LBB185:
 144:src/../h/Z_Njihovo_Consumer_Producer_CPP_API_Test.hpp ****             delete producers[i];
 3685              		.loc 2 144 9 is_stmt 1 discriminator 2
 3686 0d74 9B841400 		addiw	s1,s1,1
 3687              	.LVL407:
 3688              	.L180:
 144:src/../h/Z_Njihovo_Consumer_Producer_CPP_API_Test.hpp ****             delete producers[i];
 3689              		.loc 2 144 27 discriminator 1
 3690 0d78 63D23403 		bge	s1,s3,.L178
 145:src/../h/Z_Njihovo_Consumer_Producer_CPP_API_Test.hpp ****         }
 3691              		.loc 2 145 13
 145:src/../h/Z_Njihovo_Consumer_Producer_CPP_API_Test.hpp ****         }
 3692              		.loc 2 145 31 is_stmt 0
 3693 0d7c 93973400 		slli	a5,s1,3
 3694 0d80 B307FA00 		add	a5,s4,a5
 3695 0d84 03B50700 		ld	a0,0(a5)
 145:src/../h/Z_Njihovo_Consumer_Producer_CPP_API_Test.hpp ****         }
 3696              		.loc 2 145 32
 3697 0d88 E30605FE 		beqz	a0,.L179
 145:src/../h/Z_Njihovo_Consumer_Producer_CPP_API_Test.hpp ****         }
 3698              		.loc 2 145 31 discriminator 1
 3699 0d8c 83370500 		ld	a5,0(a0)
 3700 0d90 83B78700 		ld	a5,8(a5)
 3701 0d94 E7800700 		jalr	a5
 3702              	.LVL408:
 3703 0d98 6FF0DFFD 		j	.L179
 3704              	.L178:
 3705              	.LBE185:
 147:src/../h/Z_Njihovo_Consumer_Producer_CPP_API_Test.hpp ****         delete buffer;
 3706              		.loc 2 147 9 is_stmt 1
 147:src/../h/Z_Njihovo_Consumer_Producer_CPP_API_Test.hpp ****         delete buffer;
 3707              		.loc 2 147 24 is_stmt 0
 3708 0d9c 638A0B00 		beqz	s7,.L181
 147:src/../h/Z_Njihovo_Consumer_Producer_CPP_API_Test.hpp ****         delete buffer;
 3709              		.loc 2 147 16 discriminator 1
 3710 0da0 83B70B00 		ld	a5,0(s7)
 3711 0da4 83B78700 		ld	a5,8(a5)
 3712 0da8 13850B00 		mv	a0,s7
 3713 0dac E7800700 		jalr	a5
 3714              	.LVL409:
 3715              	.L181:
 3716              		.loc 2 148 9 is_stmt 1
 3717              		.loc 2 148 22 is_stmt 0
 3718 0db0 638E0A00 		beqz	s5,.L182
 3719              		.loc 2 148 16 discriminator 1
 3720 0db4 13850A00 		mv	a0,s5
 3721 0db8 97000000 		call	_ZN9BufferCPPD1Ev@plt
 3721      E7800000 
 3722              	.LVL410:
 3723 0dc0 13850A00 		mv	a0,s5
 3724 0dc4 97000000 		call	_ZdlPv@plt
 3724      E7800000 
 3725              	.LVL411:
 3726              	.LEHE39:
GAS LISTING /tmp/ccy4oBQd.s 			page 86


 3727              	.L182:
 3728 0dcc 13010C00 		mv	sp,s8
 3729              	.LVL412:
 3730              	.L169:
 149:src/../h/Z_Njihovo_Consumer_Producer_CPP_API_Test.hpp ****     }
 3731              		.loc 2 149 5
 3732 0dd0 130104F8 		addi	sp,s0,-128
 3733              		.cfi_remember_state
 3734              		.cfi_def_cfa 2, 128
 3735 0dd4 83308107 		ld	ra,120(sp)
 3736              		.cfi_restore 1
 3737 0dd8 03340107 		ld	s0,112(sp)
 3738              		.cfi_restore 8
 3739 0ddc 83348106 		ld	s1,104(sp)
 3740              		.cfi_restore 9
 3741 0de0 03390106 		ld	s2,96(sp)
 3742              		.cfi_restore 18
 3743 0de4 83398105 		ld	s3,88(sp)
 3744              		.cfi_restore 19
 3745              	.LVL413:
 3746 0de8 033A0105 		ld	s4,80(sp)
 3747              		.cfi_restore 20
 3748 0dec 833A8104 		ld	s5,72(sp)
 3749              		.cfi_restore 21
 3750 0df0 033B0104 		ld	s6,64(sp)
 3751              		.cfi_restore 22
 3752 0df4 833B8103 		ld	s7,56(sp)
 3753              		.cfi_restore 23
 3754 0df8 033C0103 		ld	s8,48(sp)
 3755              		.cfi_restore 24
 3756 0dfc 833C8102 		ld	s9,40(sp)
 3757              		.cfi_restore 25
 3758 0e00 13010108 		addi	sp,sp,128
 3759              		.cfi_def_cfa_offset 0
 3760 0e04 67800000 		jr	ra
 3761              	.LVL414:
 3762              	.L189:
 3763              		.cfi_restore_state
 3764 0e08 93040500 		mv	s1,a0
 3765              	.LVL415:
 109:src/../h/Z_Njihovo_Consumer_Producer_CPP_API_Test.hpp **** 
 3766              		.loc 2 109 44
 3767 0e0c 13850A00 		mv	a0,s5
 3768 0e10 97000000 		call	_ZdlPv@plt
 3768      E7800000 
 3769              	.LVL416:
 3770 0e18 13850400 		mv	a0,s1
 3771              	.LEHB40:
 3772 0e1c 97000000 		call	_Unwind_Resume@plt
 3772      E7800000 
 3773              	.LVL417:
 3774              	.LEHE40:
 3775              	.L190:
 3776 0e24 13090500 		mv	s2,a0
 111:src/../h/Z_Njihovo_Consumer_Producer_CPP_API_Test.hpp ****         Thread *producers[threadNum];
 3777              		.loc 2 111 37
 3778 0e28 13850400 		mv	a0,s1
GAS LISTING /tmp/ccy4oBQd.s 			page 87


 3779 0e2c 97000000 		call	_ZdlPv@plt
 3779      E7800000 
 3780              	.LVL418:
 3781 0e34 13050900 		mv	a0,s2
 3782              	.LEHB41:
 3783 0e38 97000000 		call	_Unwind_Resume@plt
 3783      E7800000 
 3784              	.LVL419:
 3785              	.LEHE41:
 3786              	.L191:
 3787 0e40 93040500 		mv	s1,a0
 3788              	.LVL420:
 118:src/../h/Z_Njihovo_Consumer_Producer_CPP_API_Test.hpp ****         consumer->start();
 3789              		.loc 2 118 63
 3790 0e44 13850B00 		mv	a0,s7
 3791 0e48 97000000 		call	_ZdlPv@plt
 3791      E7800000 
 3792              	.LVL421:
 3793 0e50 13850400 		mv	a0,s1
 3794              	.LEHB42:
 3795 0e54 97000000 		call	_Unwind_Resume@plt
 3795      E7800000 
 3796              	.LVL422:
 3797              	.LEHE42:
 3798              	.L192:
 3799 0e5c 13090500 		mv	s2,a0
 124:src/../h/Z_Njihovo_Consumer_Producer_CPP_API_Test.hpp ****         producers[0]->start();
 3800              		.loc 2 124 59
 3801 0e60 13850400 		mv	a0,s1
 3802 0e64 97000000 		call	_ZdlPv@plt
 3802      E7800000 
 3803              	.LVL423:
 3804 0e6c 13050900 		mv	a0,s2
 3805              	.LEHB43:
 3806 0e70 97000000 		call	_Unwind_Resume@plt
 3806      E7800000 
 3807              	.LVL424:
 3808              	.LEHE43:
 3809              	.L193:
 3810 0e78 93040500 		mv	s1,a0
 3811              	.LVL425:
 3812              	.LBB186:
 132:src/../h/Z_Njihovo_Consumer_Producer_CPP_API_Test.hpp ****             producers[i]->start();
 3813              		.loc 2 132 55
 3814 0e7c 13850C00 		mv	a0,s9
 3815 0e80 97000000 		call	_ZdlPv@plt
 3815      E7800000 
 3816              	.LVL426:
 3817 0e88 13850400 		mv	a0,s1
 3818              	.LEHB44:
 3819 0e8c 97000000 		call	_Unwind_Resume@plt
 3819      E7800000 
 3820              	.LVL427:
 3821              	.LEHE44:
 3822              	.LBE186:
 3823              		.cfi_endproc
 3824              	.LFE86:
GAS LISTING /tmp/ccy4oBQd.s 			page 88


 3825              		.section	.gcc_except_table
 3826              	.LLSDA86:
 3827 0183 FF       		.byte	0xff
 3828 0184 FF       		.byte	0xff
 3829 0185 03       		.byte	0x3
 3830 0186 D001     		.byte	0xd0,0x1
 3831 0188 00000000 		.4byte	.LEHB29-.LFB86
 3832 018c 00000000 		.4byte	.LEHE29-.LEHB29
 3833 0190 00000000 		.4byte	0
 3834 0194 00       		.byte	0
 3835 0195 00000000 		.4byte	.LEHB30-.LFB86
 3836 0199 00000000 		.4byte	.LEHE30-.LEHB30
 3837 019d 00000000 		.4byte	.L189-.LFB86
 3838 01a1 00       		.byte	0
 3839 01a2 00000000 		.4byte	.LEHB31-.LFB86
 3840 01a6 00000000 		.4byte	.LEHE31-.LEHB31
 3841 01aa 00000000 		.4byte	0
 3842 01ae 00       		.byte	0
 3843 01af 00000000 		.4byte	.LEHB32-.LFB86
 3844 01b3 00000000 		.4byte	.LEHE32-.LEHB32
 3845 01b7 00000000 		.4byte	.L190-.LFB86
 3846 01bb 00       		.byte	0
 3847 01bc 00000000 		.4byte	.LEHB33-.LFB86
 3848 01c0 00000000 		.4byte	.LEHE33-.LEHB33
 3849 01c4 00000000 		.4byte	0
 3850 01c8 00       		.byte	0
 3851 01c9 00000000 		.4byte	.LEHB34-.LFB86
 3852 01cd 00000000 		.4byte	.LEHE34-.LEHB34
 3853 01d1 00000000 		.4byte	.L191-.LFB86
 3854 01d5 00       		.byte	0
 3855 01d6 00000000 		.4byte	.LEHB35-.LFB86
 3856 01da 00000000 		.4byte	.LEHE35-.LEHB35
 3857 01de 00000000 		.4byte	0
 3858 01e2 00       		.byte	0
 3859 01e3 00000000 		.4byte	.LEHB36-.LFB86
 3860 01e7 00000000 		.4byte	.LEHE36-.LEHB36
 3861 01eb 00000000 		.4byte	.L192-.LFB86
 3862 01ef 00       		.byte	0
 3863 01f0 00000000 		.4byte	.LEHB37-.LFB86
 3864 01f4 00000000 		.4byte	.LEHE37-.LEHB37
 3865 01f8 00000000 		.4byte	0
 3866 01fc 00       		.byte	0
 3867 01fd 00000000 		.4byte	.LEHB38-.LFB86
 3868 0201 00000000 		.4byte	.LEHE38-.LEHB38
 3869 0205 00000000 		.4byte	.L193-.LFB86
 3870 0209 00       		.byte	0
 3871 020a 00000000 		.4byte	.LEHB39-.LFB86
 3872 020e 00000000 		.4byte	.LEHE39-.LEHB39
 3873 0212 00000000 		.4byte	0
 3874 0216 00       		.byte	0
 3875 0217 00000000 		.4byte	.LEHB40-.LFB86
 3876 021b 00000000 		.4byte	.LEHE40-.LEHB40
 3877 021f 00000000 		.4byte	0
 3878 0223 00       		.byte	0
 3879 0224 00000000 		.4byte	.LEHB41-.LFB86
 3880 0228 00000000 		.4byte	.LEHE41-.LEHB41
 3881 022c 00000000 		.4byte	0
GAS LISTING /tmp/ccy4oBQd.s 			page 89


 3882 0230 00       		.byte	0
 3883 0231 00000000 		.4byte	.LEHB42-.LFB86
 3884 0235 00000000 		.4byte	.LEHE42-.LEHB42
 3885 0239 00000000 		.4byte	0
 3886 023d 00       		.byte	0
 3887 023e 00000000 		.4byte	.LEHB43-.LFB86
 3888 0242 00000000 		.4byte	.LEHE43-.LEHB43
 3889 0246 00000000 		.4byte	0
 3890 024a 00       		.byte	0
 3891 024b 00000000 		.4byte	.LEHB44-.LFB86
 3892 024f 00000000 		.4byte	.LEHE44-.LEHB44
 3893 0253 00000000 		.4byte	0
 3894 0257 00       		.byte	0
 3895              		.text
 3897              		.align	2
 3898              		.globl	main
 3900              	main:
 3901              	.LFB107:
 124:src/main.cpp  **** 
 125:src/main.cpp  **** // funkcija main je u nadleznosti jezgra - jezgro ima kontrolu onda nad radnjama koje ce se izvrsit
 126:src/main.cpp  **** // nakon toga, funkcija main treba da pokrene nit nad funkcijom userMain
 127:src/main.cpp  **** void main() {
 3902              		.loc 3 127 13 is_stmt 1
 3903              		.cfi_startproc
 3904 0e94 130101FC 		addi	sp,sp,-64
 3905              		.cfi_def_cfa_offset 64
 3906 0e98 233C1102 		sd	ra,56(sp)
 3907 0e9c 23388102 		sd	s0,48(sp)
 3908 0ea0 23349102 		sd	s1,40(sp)
 3909              		.cfi_offset 1, -8
 3910              		.cfi_offset 8, -16
 3911              		.cfi_offset 9, -24
 3912 0ea4 13040104 		addi	s0,sp,64
 3913              		.cfi_def_cfa 8, 0
 128:src/main.cpp  **** 
 129:src/main.cpp  ****     // upisivanje adrese prekidne rutine u registar stvec
 130:src/main.cpp  ****     Riscv::writeStvec(reinterpret_cast<uint64>(&Riscv::supervisorTrap));
 3914              		.loc 3 130 5
 3915              		.loc 3 130 22 is_stmt 0
 3916 0ea8 97070000 		la	a5,_ZN5Riscv14supervisorTrapEv
 3916      83B70700 
 3917              	.LVL428:
 3918              	.LBB187:
 3919              	.LBB188:
 3920              		.file 6 "src/../h/Riscv.hpp"
   1:src/../h/Riscv.hpp **** #ifndef RISCV_HPP
   2:src/../h/Riscv.hpp **** #define RISCV_HPP
   3:src/../h/Riscv.hpp **** 
   4:src/../h/Riscv.hpp **** #include "../lib/hw.h"
   5:src/../h/Riscv.hpp **** 
   6:src/../h/Riscv.hpp **** class Riscv {
   7:src/../h/Riscv.hpp **** public:
   8:src/../h/Riscv.hpp ****     // prekidna rutina (definisana u assembly fajlu supervisorTrap.S; ignorisati upozorenje CLiona 
   9:src/../h/Riscv.hpp ****     static void supervisorTrap();
  10:src/../h/Riscv.hpp **** 
  11:src/../h/Riscv.hpp ****     // definisana u registersStack.S; ova metoda treba da sacuva registre a0-a7 na steku (preko ovi
  12:src/../h/Riscv.hpp ****     static void pushSysCallParameters();
GAS LISTING /tmp/ccy4oBQd.s 			page 90


  13:src/../h/Riscv.hpp **** 
  14:src/../h/Riscv.hpp ****     // definisana u registersStack.S; ova metoda treba da sacuva registre x3..x31 na steku
  15:src/../h/Riscv.hpp ****     static void pushMostRegisters();
  16:src/../h/Riscv.hpp **** 
  17:src/../h/Riscv.hpp ****     // definisana u registersStack.S; ova metoda treba da restaurira registre x3..x31 sa steka
  18:src/../h/Riscv.hpp ****     static void popMostRegisters();
  19:src/../h/Riscv.hpp **** 
  20:src/../h/Riscv.hpp ****     static void exitSupervisorTrap();
  21:src/../h/Riscv.hpp **** 
  22:src/../h/Riscv.hpp ****     // procitaj vrednost iz statusnog registra sstatus (ovaj registar pamti trenutno stanje proceso
  23:src/../h/Riscv.hpp ****     static uint64 readSstatus();
  24:src/../h/Riscv.hpp **** 
  25:src/../h/Riscv.hpp ****     // upisi vrednost u statusni registar sstatus
  26:src/../h/Riscv.hpp ****     static void writeSstatus(uint64 sstatus);
  27:src/../h/Riscv.hpp **** 
  28:src/../h/Riscv.hpp ****     // pod spoljasnjim prekidima se podrazumevaju prekidi od tajmera i spoljasnji hardverski prekid
  29:src/../h/Riscv.hpp ****     // u korisnickom rezimu bit SIE sstatus registra se ignorise - spoljasnji prekidi su tada podra
  30:src/../h/Riscv.hpp ****     enum BitMaskSstatus {
  31:src/../h/Riscv.hpp ****         SSTATUS_SIE = (1 << 1), // ovaj bit govori da li su dozvoljeni spoljasnji prekidi (0 - nisu
  32:src/../h/Riscv.hpp ****         SSTATUS_SPIE = (1 << 5), // ovaj bit govori koja je bila prethodna vrednost bita SIE (pre s
  33:src/../h/Riscv.hpp ****         SSTATUS_SPP = (1 << 8) // ovaj bit govori iz kog rezima se skocilo na prekidnu rutinu (0 - 
  34:src/../h/Riscv.hpp ****     };
  35:src/../h/Riscv.hpp **** 
  36:src/../h/Riscv.hpp ****     // postavi odgovarajuce bite u registru sstatus na 1 (odgovarajuca maska se prosledjuje kao arg
  37:src/../h/Riscv.hpp ****     static void maskSetBitsSstatus(uint64 mask);
  38:src/../h/Riscv.hpp **** 
  39:src/../h/Riscv.hpp ****     // postavi odgovarajuce bite u registru sstatus na 0 (odgovarajuca maska se prosledjuje kao arg
  40:src/../h/Riscv.hpp ****     static void maskClearBitsSstatus(uint64 mask);
  41:src/../h/Riscv.hpp **** 
  42:src/../h/Riscv.hpp ****     // procitaj vrednost iz registra sip (ovaj registar pamti koji zahtevi za prekid su trenutno ak
  43:src/../h/Riscv.hpp ****     static uint64 readSip();
  44:src/../h/Riscv.hpp **** 
  45:src/../h/Riscv.hpp ****     // upisi vrednost u registar sip
  46:src/../h/Riscv.hpp ****     static void writeSip(uint64 sip);
  47:src/../h/Riscv.hpp **** 
  48:src/../h/Riscv.hpp ****     enum BitMaskSip {
  49:src/../h/Riscv.hpp ****         SIP_SSIP = (1 << 1), // ovaj bit govori da li je aktivan zahtev za softverski prekid (0 - n
  50:src/../h/Riscv.hpp ****         SIP_SEIP = (1 << 9) // ovaj bit govori da li je aktivan zahtev za spoljasnji hardverski pre
  51:src/../h/Riscv.hpp ****     };
  52:src/../h/Riscv.hpp **** 
  53:src/../h/Riscv.hpp ****     // postavi odgovarajuce bite u registru sip na 1 (odgovarajuca maska se prosledjuje kao argumen
  54:src/../h/Riscv.hpp ****     static void maskSetBitsSip(uint64 mask);
  55:src/../h/Riscv.hpp **** 
  56:src/../h/Riscv.hpp ****     // postavi odgovarajuce bite u registru sip na 0 (odgovarajuca maska se prosledjuje kao argumen
  57:src/../h/Riscv.hpp ****     static void maskClearBitsSip(uint64 mask);
  58:src/../h/Riscv.hpp **** 
  59:src/../h/Riscv.hpp ****     // procitaj vrednost iz registra sie (ovaj registar pamti koji prekidi su trenutno dozvoljeni)
  60:src/../h/Riscv.hpp ****     static uint64 readSie();
  61:src/../h/Riscv.hpp **** 
  62:src/../h/Riscv.hpp ****     // upisi vrednost u registar sie
  63:src/../h/Riscv.hpp ****     static void writeSie(uint64 sie);
  64:src/../h/Riscv.hpp **** 
  65:src/../h/Riscv.hpp ****     // vrednost registra sie se uzima u obzir prilikom izvrsavanja u korisnickom rezimu;
  66:src/../h/Riscv.hpp ****     // ako se program izvrsava u sistemskom rezimu i bit SIE sstatus registra je nula, vrednost sie
  67:src/../h/Riscv.hpp ****     enum BitMaskSie {
  68:src/../h/Riscv.hpp ****         SIE_SSIE = (1 << 1), // ovaj bit govori da li su dozvoljeni softverski prekidi (0 - nisu, 1
  69:src/../h/Riscv.hpp ****         SIE_SEIE = (1 << 9) // ovaj bit govori da li su dozvoljeni spoljasnji hardverski prekidi (0
GAS LISTING /tmp/ccy4oBQd.s 			page 91


  70:src/../h/Riscv.hpp ****     };
  71:src/../h/Riscv.hpp **** 
  72:src/../h/Riscv.hpp ****     // postavi odgovarajuce bite u registru sie na 1 (odgovarajuca maska se prosledjuje kao argumen
  73:src/../h/Riscv.hpp ****     static void maskSetBitsSie(uint64 mask);
  74:src/../h/Riscv.hpp **** 
  75:src/../h/Riscv.hpp ****     // postavi odgovarajuce bite u registru sie na 0 (odgovarajuca maska se prosledjuje kao argumen
  76:src/../h/Riscv.hpp ****     static void maskClearBitsSie(uint64 mask);
  77:src/../h/Riscv.hpp **** 
  78:src/../h/Riscv.hpp ****     // procitaj vrednost iz registra scratch (ovaj registar sluzi za cuvanje privremenih vrednosti)
  79:src/../h/Riscv.hpp ****     static uint64 readScratch();
  80:src/../h/Riscv.hpp **** 
  81:src/../h/Riscv.hpp ****     // upisi vrednost u registar scratch
  82:src/../h/Riscv.hpp ****     static void writeScratch(uint64 scratch);
  83:src/../h/Riscv.hpp **** 
  84:src/../h/Riscv.hpp ****     // procitaj vrednost iz registra sepc (ovaj registar cuva vrednost registra pc iz korisnickog r
  85:src/../h/Riscv.hpp ****     // to ce biti adresa instrukcije ecall ili adresa prve neizvrsene/prekinute instrukcije)
  86:src/../h/Riscv.hpp ****     static uint64 readSepc();
  87:src/../h/Riscv.hpp **** 
  88:src/../h/Riscv.hpp ****     // upisi vrednost u registar sepc
  89:src/../h/Riscv.hpp ****     static void writeSepc(uint64 sepc);
  90:src/../h/Riscv.hpp **** 
  91:src/../h/Riscv.hpp ****     // procitaj vrednost iz registra scause (ovaj registar cuva razlog prelaska u sistemski rezim)
  92:src/../h/Riscv.hpp ****     static uint64 readScause();
  93:src/../h/Riscv.hpp **** 
  94:src/../h/Riscv.hpp ****     // upisi vrednost u registar scause
  95:src/../h/Riscv.hpp ****     static void writeScause(uint64 scause);
  96:src/../h/Riscv.hpp **** 
  97:src/../h/Riscv.hpp ****     // procitaj vrednost iz registra stvec (ovaj registar cuva adresu prekidne rutine)
  98:src/../h/Riscv.hpp ****     static uint64 readStvec();
  99:src/../h/Riscv.hpp **** 
 100:src/../h/Riscv.hpp ****     // upisi vrednost u registar stvec
 101:src/../h/Riscv.hpp ****     static void writeStvec(uint64 stvec);
 102:src/../h/Riscv.hpp **** 
 103:src/../h/Riscv.hpp ****     // procitaj vrednost iz registra stval (ovaj registar cuva dodatan opis greske koja se dogodila
 104:src/../h/Riscv.hpp ****     static uint64 readStval();
 105:src/../h/Riscv.hpp **** 
 106:src/../h/Riscv.hpp ****     // upisi vrednost u registar stval
 107:src/../h/Riscv.hpp ****     static void writeStval(uint64 stval);
 108:src/../h/Riscv.hpp **** 
 109:src/../h/Riscv.hpp **** private:
 110:src/../h/Riscv.hpp ****     // obrada sistemskog poziva/prekida/izuzetka
 111:src/../h/Riscv.hpp ****     static void handleSupervisorTrap();
 112:src/../h/Riscv.hpp **** };
 113:src/../h/Riscv.hpp **** 
 114:src/../h/Riscv.hpp **** // ove metode pisem kao inline da ne bi bilo rezijskih troskova koje iziskuje poziv funkcije (preno
 115:src/../h/Riscv.hpp **** // funkcije, cuvanje povratne adrese)- ovako ce kod tela funkcije samo da se ugradi na mesto poziva
 116:src/../h/Riscv.hpp **** // poziva funkcije
 117:src/../h/Riscv.hpp **** inline uint64 Riscv::readSstatus() {
 118:src/../h/Riscv.hpp ****     // volatile kvalifikator obezbedjuje da prevodilac ne izvrsi optimizaciju i sacuva lokalnu prom
 119:src/../h/Riscv.hpp ****     // registara - umesto toga, sacuvace je na steku
 120:src/../h/Riscv.hpp ****     uint64 volatile sstatus;
 121:src/../h/Riscv.hpp ****     __asm__ volatile ("csrr %[sstatus], sstatus" : [sstatus] "=r"(sstatus));
 122:src/../h/Riscv.hpp ****     return sstatus;
 123:src/../h/Riscv.hpp **** }
 124:src/../h/Riscv.hpp **** 
 125:src/../h/Riscv.hpp **** inline void Riscv::writeSstatus(uint64 sstatus) {
 126:src/../h/Riscv.hpp ****     __asm__ volatile ("csrw sstatus, %[sstatus]" : : [sstatus] "r"(sstatus));
GAS LISTING /tmp/ccy4oBQd.s 			page 92


 127:src/../h/Riscv.hpp **** }
 128:src/../h/Riscv.hpp **** 
 129:src/../h/Riscv.hpp **** inline void Riscv::maskSetBitsSstatus(uint64 mask) {
 130:src/../h/Riscv.hpp ****     __asm__ volatile ("csrs sstatus, %[mask]" : : [mask] "r"(mask));
 131:src/../h/Riscv.hpp **** }
 132:src/../h/Riscv.hpp **** 
 133:src/../h/Riscv.hpp **** inline void Riscv::maskClearBitsSstatus(uint64 mask) {
 134:src/../h/Riscv.hpp ****     __asm__ volatile ("csrc sstatus, %[mask]" : : [mask] "r"(mask));
 135:src/../h/Riscv.hpp **** }
 136:src/../h/Riscv.hpp **** 
 137:src/../h/Riscv.hpp **** inline uint64 Riscv::readSip() {
 138:src/../h/Riscv.hpp ****     uint64 volatile sip;
 139:src/../h/Riscv.hpp ****     __asm__ volatile ("csrr %[sip], sip" : [sip] "=r"(sip));
 140:src/../h/Riscv.hpp ****     return sip;
 141:src/../h/Riscv.hpp **** }
 142:src/../h/Riscv.hpp **** 
 143:src/../h/Riscv.hpp **** inline void Riscv::writeSip(uint64 sip) {
 144:src/../h/Riscv.hpp ****     __asm__ volatile ("csrw sip, %[sip]" : : [sip] "r"(sip));
 145:src/../h/Riscv.hpp **** }
 146:src/../h/Riscv.hpp **** 
 147:src/../h/Riscv.hpp **** inline void Riscv::maskSetBitsSip(uint64 mask) {
 148:src/../h/Riscv.hpp ****     __asm__ volatile ("csrs sip, %[mask]" : : [mask] "r"(mask));
 149:src/../h/Riscv.hpp **** }
 150:src/../h/Riscv.hpp **** 
 151:src/../h/Riscv.hpp **** inline void Riscv::maskClearBitsSip(uint64 mask) {
 152:src/../h/Riscv.hpp ****     __asm__ volatile ("csrc sip, %[mask]" : : [mask] "r"(mask));
 153:src/../h/Riscv.hpp **** }
 154:src/../h/Riscv.hpp **** 
 155:src/../h/Riscv.hpp **** inline uint64 Riscv::readSie() {
 156:src/../h/Riscv.hpp ****     uint64 volatile sie;
 157:src/../h/Riscv.hpp ****     __asm__ volatile ("csrr %[sie], sie" : [sie] "=r"(sie));
 158:src/../h/Riscv.hpp ****     return sie;
 159:src/../h/Riscv.hpp **** }
 160:src/../h/Riscv.hpp **** 
 161:src/../h/Riscv.hpp **** inline void Riscv::writeSie(uint64 sie) {
 162:src/../h/Riscv.hpp ****     __asm__ volatile ("csrw sie, %[sie]" : : [sie] "r"(sie));
 163:src/../h/Riscv.hpp **** }
 164:src/../h/Riscv.hpp **** 
 165:src/../h/Riscv.hpp **** inline void Riscv::maskSetBitsSie(uint64 mask) {
 166:src/../h/Riscv.hpp ****     __asm__ volatile ("csrs sie, %[mask]" : : [mask] "r"(mask));
 167:src/../h/Riscv.hpp **** }
 168:src/../h/Riscv.hpp **** 
 169:src/../h/Riscv.hpp **** inline void Riscv::maskClearBitsSie(uint64 mask) {
 170:src/../h/Riscv.hpp ****     __asm__ volatile ("csrc sie, %[mask]" : : [mask] "r"(mask));
 171:src/../h/Riscv.hpp **** }
 172:src/../h/Riscv.hpp **** 
 173:src/../h/Riscv.hpp **** inline uint64 Riscv::readScratch() {
 174:src/../h/Riscv.hpp ****     uint64 volatile scratch;
 175:src/../h/Riscv.hpp ****     __asm__ volatile ("csrr %[scratch], scratch" : [scratch] "=r"(scratch));
 176:src/../h/Riscv.hpp ****     return scratch;
 177:src/../h/Riscv.hpp **** }
 178:src/../h/Riscv.hpp **** 
 179:src/../h/Riscv.hpp **** inline void Riscv::writeScratch(uint64 scratch) {
 180:src/../h/Riscv.hpp ****     __asm__ volatile ("csrw scratch, %[scratch]" : : [scratch] "r"(scratch));
 181:src/../h/Riscv.hpp **** }
 182:src/../h/Riscv.hpp **** 
 183:src/../h/Riscv.hpp **** inline uint64 Riscv::readSepc() {
GAS LISTING /tmp/ccy4oBQd.s 			page 93


 184:src/../h/Riscv.hpp ****     uint64 volatile sepc;
 185:src/../h/Riscv.hpp ****     __asm__ volatile ("csrr %[sepc], sepc" : [sepc] "=r"(sepc));
 186:src/../h/Riscv.hpp ****     return sepc;
 187:src/../h/Riscv.hpp **** }
 188:src/../h/Riscv.hpp **** 
 189:src/../h/Riscv.hpp **** inline void Riscv::writeSepc(uint64 sepc) {
 190:src/../h/Riscv.hpp ****     __asm__ volatile ("csrw sepc, %[sepc]" : : [sepc] "r"(sepc));
 191:src/../h/Riscv.hpp **** }
 192:src/../h/Riscv.hpp **** 
 193:src/../h/Riscv.hpp **** inline uint64 Riscv::readScause() {
 194:src/../h/Riscv.hpp ****     uint64 volatile scause;
 195:src/../h/Riscv.hpp ****     __asm__ volatile ("csrr %[scause], scause" : [scause] "=r"(scause));
 196:src/../h/Riscv.hpp ****     return scause;
 197:src/../h/Riscv.hpp **** }
 198:src/../h/Riscv.hpp **** 
 199:src/../h/Riscv.hpp **** inline void Riscv::writeScause(uint64 scause) {
 200:src/../h/Riscv.hpp ****     __asm__ volatile ("csrw scause, %[scause]" : : [scause] "r"(scause));
 201:src/../h/Riscv.hpp **** }
 202:src/../h/Riscv.hpp **** 
 203:src/../h/Riscv.hpp **** inline uint64 Riscv::readStvec() {
 204:src/../h/Riscv.hpp ****     uint64 volatile stvec;
 205:src/../h/Riscv.hpp ****     __asm__ volatile ("csrr %[stvec], stvec" : [stvec] "=r"(stvec));
 206:src/../h/Riscv.hpp ****     return stvec;
 207:src/../h/Riscv.hpp **** }
 208:src/../h/Riscv.hpp **** 
 209:src/../h/Riscv.hpp **** inline void Riscv::writeStvec(uint64 stvec) {
 210:src/../h/Riscv.hpp ****     __asm__ volatile ("csrw stvec, %[stvec]" : : [stvec] "r"(stvec));
 3921              		.loc 6 210 5 is_stmt 1
 3922              		.loc 6 210 69 is_stmt 0
 3923              	#APP
 3924              	# 210 "src/../h/Riscv.hpp" 1
 211              	}
 3925              		csrw stvec, a5
 3926              	# 0 "" 2
 3927              	.LVL429:
 3928              	#NO_APP
 3929              	.LBE188:
 3930              	.LBE187:
 131:src/main.cpp  **** 
 132:src/main.cpp  ****     // kreiranje niti za main funkciju da bismo postavili pokazivac TCB::runningThread na nit main-
 133:src/main.cpp  ****     thread_t mainThreadHandle;
 3931              		.loc 3 133 5 is_stmt 1
 134:src/main.cpp  ****     thread_create(&mainThreadHandle, nullptr, nullptr);
 3932              		.loc 3 134 5
 3933              		.loc 3 134 18 is_stmt 0
 3934 0eb4 13060000 		li	a2,0
 3935 0eb8 93050000 		li	a1,0
 3936 0ebc 130584FD 		addi	a0,s0,-40
 3937 0ec0 97000000 		call	_Z13thread_createPP7_threadPFvPvES2_@plt
 3937      E7800000 
 3938              	.LVL430:
 135:src/main.cpp  ****     TCB::runningThread = (TCB*)(mainThreadHandle);
 3939              		.loc 3 135 5 is_stmt 1
 3940              		.loc 3 135 24 is_stmt 0
 3941 0ec8 97070000 		la	a5,_ZN3TCB13runningThreadE
 3941      83B70700 
 3942 0ed0 033784FD 		ld	a4,-40(s0)
GAS LISTING /tmp/ccy4oBQd.s 			page 94


 3943 0ed4 23B0E700 		sd	a4,0(a5)
 136:src/main.cpp  **** 
 137:src/main.cpp  ****     // kreiranje idle niti i ubacivanje nje u scheduler (ubacivanje niti u scheduler se radi u kons
 138:src/main.cpp  ****     // idle nit se nikada ne izbacuje iz schedulera i uvek ce biti na kraju schedulera
 139:src/main.cpp  ****     thread_t idleThreadHandle;
 3944              		.loc 3 139 5 is_stmt 1
 140:src/main.cpp  ****     thread_create(&idleThreadHandle, &idleFunction, nullptr);
 3945              		.loc 3 140 5
 3946              		.loc 3 140 18 is_stmt 0
 3947 0ed8 13060000 		li	a2,0
 3948 0edc 97050000 		la	a1,_Z12idleFunctionPv
 3948      83B50500 
 3949 0ee4 130504FD 		addi	a0,s0,-48
 3950 0ee8 97000000 		call	_Z13thread_createPP7_threadPFvPvES2_@plt
 3950      E7800000 
 3951              	.LVL431:
 141:src/main.cpp  **** 
 142:src/main.cpp  ****     // kreiranje niti nad funkcijom userMain i ubacivanje nje u scheduler (ubacivanje niti u schedu
 143:src/main.cpp  ****     thread_t userMainThreadHandle;
 3952              		.loc 3 143 5 is_stmt 1
 144:src/main.cpp  ****     thread_create(&userMainThreadHandle, &userMain, nullptr);
 3953              		.loc 3 144 5
 3954              		.loc 3 144 18 is_stmt 0
 3955 0ef0 13060000 		li	a2,0
 3956 0ef4 97050000 		lla	a1,_Z8userMainPv
 3956      93850500 
 3957 0efc 130584FC 		addi	a0,s0,-56
 3958 0f00 97000000 		call	_Z13thread_createPP7_threadPFvPvES2_@plt
 3958      E7800000 
 3959              	.LVL432:
 145:src/main.cpp  **** 
 146:src/main.cpp  ****     thread_t putcKernelThread;
 3960              		.loc 3 146 5 is_stmt 1
 147:src/main.cpp  ****     thread_create(&putcKernelThread, &putcKernelThreadFunction, nullptr);
 3961              		.loc 3 147 5
 3962              		.loc 3 147 18 is_stmt 0
 3963 0f08 13060000 		li	a2,0
 3964 0f0c 97050000 		la	a1,_Z24putcKernelThreadFunctionPv
 3964      83B50500 
 3965 0f14 130504FC 		addi	a0,s0,-64
 3966 0f18 97000000 		call	_Z13thread_createPP7_threadPFvPvES2_@plt
 3966      E7800000 
 3967              	.LVL433:
 148:src/main.cpp  **** 
 149:src/main.cpp  ****     // omogucujem spoljasnje prekide jer trenutno radimo sve u sistemskom rezimu, a tu su oni podra
 150:src/main.cpp  ****     // radicu u sistemskom rezimu sve dok ne dodjem do kraja projekta kad cu imati i semafore i isp
 151:src/main.cpp  ****     Riscv::maskSetBitsSstatus(Riscv::SSTATUS_SIE);
 3968              		.loc 3 151 5 is_stmt 1
 3969              	.LBB189:
 3970              	.LBB190:
 130:src/../h/Riscv.hpp **** }
 3971              		.loc 6 130 5
 130:src/../h/Riscv.hpp **** }
 3972              		.loc 6 130 68 is_stmt 0
 3973 0f20 93072000 		li	a5,2
 3974              	#APP
 3975              	# 130 "src/../h/Riscv.hpp" 1
GAS LISTING /tmp/ccy4oBQd.s 			page 95


 131:src/../h/Riscv.hpp **** 
 3976              		csrs sstatus, a5
 3977              	# 0 "" 2
 3978              		.loc 6 131 1
 3979              	#NO_APP
 3980 0f28 6F00C000 		j	.L202
 3981              	.LVL434:
 3982              	.L200:
 3983              	.LBE190:
 3984              	.LBE189:
 152:src/main.cpp  **** 
 153:src/main.cpp  ****     while (!((TCB*)userMainThreadHandle)->getFinished() || KernelBuffer::putcGetInstance()->getNumb
 154:src/main.cpp  ****         thread_dispatch();
 3985              		.loc 3 154 9 is_stmt 1 discriminator 5
 3986              		.loc 3 154 24 is_stmt 0 discriminator 5
 3987 0f2c 97000000 		call	_Z15thread_dispatchv@plt
 3987      E7800000 
 3988              	.LVL435:
 3989              	.L202:
 153:src/main.cpp  ****         thread_dispatch();
 3990              		.loc 3 153 5 is_stmt 1
 153:src/main.cpp  ****         thread_dispatch();
 3991              		.loc 3 153 57
 153:src/main.cpp  ****         thread_dispatch();
 3992              		.loc 3 153 54 is_stmt 0
 3993 0f34 833784FC 		ld	a5,-56(s0)
 3994              	.LVL436:
 3995              	.LBB191:
 3996              	.LBB192:
 3997              		.file 7 "src/../h/TCB.hpp"
   1:src/../h/TCB.hpp **** #ifndef TCB_HPP
   2:src/../h/TCB.hpp **** #define TCB_HPP
   3:src/../h/TCB.hpp **** 
   4:src/../h/TCB.hpp **** #include "../lib/hw.h"
   5:src/../h/TCB.hpp **** #include "Scheduler.hpp"
   6:src/../h/TCB.hpp **** #include "Riscv.hpp"
   7:src/../h/TCB.hpp **** 
   8:src/../h/TCB.hpp **** // klasa TCB predstavlja apstrakciju niti
   9:src/../h/TCB.hpp **** class TCB {
  10:src/../h/TCB.hpp **** public:
  11:src/../h/TCB.hpp ****     // definisanje korisnickog tipa Body - predstavljace pokazivac na void funkciju koja prima void
  12:src/../h/TCB.hpp ****     using Body = void (*)(void*);
  13:src/../h/TCB.hpp **** 
  14:src/../h/TCB.hpp ****     // ova funkcija treba da napravi novu nit koja ce da izvrsava telo funkcije date parametrom bod
  15:src/../h/TCB.hpp ****     // ako se prosledi nullptr, to znaci da treba napraviti nit koja ce da izvrsava main funkciju
  16:src/../h/TCB.hpp ****     // u tom slucaju, u konstrukciji te niti ne treba je davati scheduleru na raspolaganje, jer bi 
  17:src/../h/TCB.hpp ****     // zelimo da bas ta nit main-a nastavi da se izvrsava
  18:src/../h/TCB.hpp ****     static TCB* createThread(Body body, void* arg, void* stack, bool cppApi);
  19:src/../h/TCB.hpp **** 
  20:src/../h/TCB.hpp ****     // obezbedjena enkapsulacija - atribut finished je privatan i moze se citati samo kroz getter m
  21:src/../h/TCB.hpp ****     bool getFinished() const { return finished; }
 3998              		.loc 7 21 32 is_stmt 1
 3999              		.loc 7 21 39 is_stmt 0
 4000 0f38 83C70703 		lbu	a5,48(a5)
 4001              	.LVL437:
 4002              	.LBE192:
 4003              	.LBE191:
GAS LISTING /tmp/ccy4oBQd.s 			page 96


 153:src/main.cpp  ****         thread_dispatch();
 4004              		.loc 3 153 57
 4005 0f3c E38807FE 		beqz	a5,.L200
 153:src/main.cpp  ****         thread_dispatch();
 4006              		.loc 3 153 112 discriminator 2
 4007 0f40 97000000 		call	_ZN12KernelBuffer15putcGetInstanceEv@plt
 4007      E7800000 
 4008              	.LVL438:
 4009 0f48 97000000 		call	_ZN12KernelBuffer19getNumberOfElementsEv@plt
 4009      E7800000 
 4010              	.LVL439:
 153:src/main.cpp  ****         thread_dispatch();
 4011              		.loc 3 153 57 discriminator 2
 4012 0f50 E34EA0FC 		bgtz	a0,.L200
 155:src/main.cpp  ****     }
 156:src/main.cpp  **** 
 157:src/main.cpp  ****     // moram da dealociram bafer eksplicitno jer KernelBuffer::getInstance unutar sebe ne pravi sta
 158:src/main.cpp  ****     // dinamicki alocira na heap-u, sto znaci da se nece unistiti sam taj objekat kada se zavrsi ma
 159:src/main.cpp  ****     // statickom objektu) i zato moramo mi ovde eksplicitno da ga unistimo
 160:src/main.cpp  ****     delete KernelBuffer::getcGetInstance();
 4013              		.loc 3 160 5 is_stmt 1
 4014              		.loc 3 160 41 is_stmt 0
 4015 0f54 97000000 		call	_ZN12KernelBuffer15getcGetInstanceEv@plt
 4015      E7800000 
 4016              	.LVL440:
 4017 0f5c 93040500 		mv	s1,a0
 4018              		.loc 3 160 43
 4019 0f60 630C0500 		beqz	a0,.L199
 4020              		.loc 3 160 42 discriminator 2
 4021 0f64 97000000 		call	_ZN12KernelBufferD1Ev@plt
 4021      E7800000 
 4022              	.LVL441:
 4023 0f6c 13850400 		mv	a0,s1
 4024 0f70 97000000 		call	_ZN12KernelBufferdlEPv@plt
 4024      E7800000 
 4025              	.LVL442:
 4026              	.L199:
 161:src/main.cpp  ****     // ne brisem bafer za putc jer treba da se ispise Kernel Finished za sta treba taj bafer
 162:src/main.cpp  **** }...
 4027              		.loc 3 162 1
 4028 0f78 83308103 		ld	ra,56(sp)
 4029              		.cfi_restore 1
 4030 0f7c 03340103 		ld	s0,48(sp)
 4031              		.cfi_restore 8
 4032              		.cfi_def_cfa 2, 64
 4033 0f80 83348102 		ld	s1,40(sp)
 4034              		.cfi_restore 9
 4035 0f84 13010104 		addi	sp,sp,64
 4036              		.cfi_def_cfa_offset 0
 4037 0f88 67800000 		jr	ra
 4038              		.cfi_endproc
 4039              	.LFE107:
 4041              		.weak	_ZTV7WorkerA
 4042              		.section	.data.rel.ro.local._ZTV7WorkerA,"awG",@progbits,_ZTV7WorkerA,comdat
 4043              		.align	3
 4046              	_ZTV7WorkerA:
 4047 0000 00000000 		.dword	0
GAS LISTING /tmp/ccy4oBQd.s 			page 97


 4047      00000000 
 4048 0008 00000000 		.dword	0
 4048      00000000 
 4049 0010 00000000 		.dword	_ZN7WorkerAD1Ev
 4049      00000000 
 4050 0018 00000000 		.dword	_ZN7WorkerAD0Ev
 4050      00000000 
 4051 0020 00000000 		.dword	_ZN7WorkerA3runEv
 4051      00000000 
 4052              		.weak	_ZTV7WorkerB
 4053              		.section	.data.rel.ro.local._ZTV7WorkerB,"awG",@progbits,_ZTV7WorkerB,comdat
 4054              		.align	3
 4057              	_ZTV7WorkerB:
 4058 0000 00000000 		.dword	0
 4058      00000000 
 4059 0008 00000000 		.dword	0
 4059      00000000 
 4060 0010 00000000 		.dword	_ZN7WorkerBD1Ev
 4060      00000000 
 4061 0018 00000000 		.dword	_ZN7WorkerBD0Ev
 4061      00000000 
 4062 0020 00000000 		.dword	_ZN7WorkerB3runEv
 4062      00000000 
 4063              		.weak	_ZTV7WorkerC
 4064              		.section	.data.rel.ro.local._ZTV7WorkerC,"awG",@progbits,_ZTV7WorkerC,comdat
 4065              		.align	3
 4068              	_ZTV7WorkerC:
 4069 0000 00000000 		.dword	0
 4069      00000000 
 4070 0008 00000000 		.dword	0
 4070      00000000 
 4071 0010 00000000 		.dword	_ZN7WorkerCD1Ev
 4071      00000000 
 4072 0018 00000000 		.dword	_ZN7WorkerCD0Ev
 4072      00000000 
 4073 0020 00000000 		.dword	_ZN7WorkerC3runEv
 4073      00000000 
 4074              		.weak	_ZTV7WorkerD
 4075              		.section	.data.rel.ro.local._ZTV7WorkerD,"awG",@progbits,_ZTV7WorkerD,comdat
 4076              		.align	3
 4079              	_ZTV7WorkerD:
 4080 0000 00000000 		.dword	0
 4080      00000000 
 4081 0008 00000000 		.dword	0
 4081      00000000 
 4082 0010 00000000 		.dword	_ZN7WorkerDD1Ev
 4082      00000000 
 4083 0018 00000000 		.dword	_ZN7WorkerDD0Ev
 4083      00000000 
 4084 0020 00000000 		.dword	_ZN7WorkerD3runEv
 4084      00000000 
 4085              		.weak	_ZTVN19ConsumerProducerCPP16ProducerKeyboradE
 4086              		.section	.data.rel.ro.local._ZTVN19ConsumerProducerCPP16ProducerKeyboradE,"awG",@progbits,_ZTVN19C
 4087              		.align	3
 4090              	_ZTVN19ConsumerProducerCPP16ProducerKeyboradE:
 4091 0000 00000000 		.dword	0
 4091      00000000 
GAS LISTING /tmp/ccy4oBQd.s 			page 98


 4092 0008 00000000 		.dword	0
 4092      00000000 
 4093 0010 00000000 		.dword	_ZN19ConsumerProducerCPP16ProducerKeyboradD1Ev
 4093      00000000 
 4094 0018 00000000 		.dword	_ZN19ConsumerProducerCPP16ProducerKeyboradD0Ev
 4094      00000000 
 4095 0020 00000000 		.dword	_ZN19ConsumerProducerCPP16ProducerKeyborad3runEv
 4095      00000000 
 4096              		.weak	_ZTVN19ConsumerProducerCPP8ProducerE
 4097              		.section	.data.rel.ro.local._ZTVN19ConsumerProducerCPP8ProducerE,"awG",@progbits,_ZTVN19ConsumerPr
 4098              		.align	3
 4101              	_ZTVN19ConsumerProducerCPP8ProducerE:
 4102 0000 00000000 		.dword	0
 4102      00000000 
 4103 0008 00000000 		.dword	0
 4103      00000000 
 4104 0010 00000000 		.dword	_ZN19ConsumerProducerCPP8ProducerD1Ev
 4104      00000000 
 4105 0018 00000000 		.dword	_ZN19ConsumerProducerCPP8ProducerD0Ev
 4105      00000000 
 4106 0020 00000000 		.dword	_ZN19ConsumerProducerCPP8Producer3runEv
 4106      00000000 
 4107              		.weak	_ZTVN19ConsumerProducerCPP8ConsumerE
 4108              		.section	.data.rel.ro.local._ZTVN19ConsumerProducerCPP8ConsumerE,"awG",@progbits,_ZTVN19ConsumerPr
 4109              		.align	3
 4112              	_ZTVN19ConsumerProducerCPP8ConsumerE:
 4113 0000 00000000 		.dword	0
 4113      00000000 
 4114 0008 00000000 		.dword	0
 4114      00000000 
 4115 0010 00000000 		.dword	_ZN19ConsumerProducerCPP8ConsumerD1Ev
 4115      00000000 
 4116 0018 00000000 		.dword	_ZN19ConsumerProducerCPP8ConsumerD0Ev
 4116      00000000 
 4117 0020 00000000 		.dword	_ZN19ConsumerProducerCPP8Consumer3runEv
 4117      00000000 
 4118              		.weak	_ZTV1A
 4119              		.section	.data.rel.ro.local._ZTV1A,"awG",@progbits,_ZTV1A,comdat
 4120              		.align	3
 4123              	_ZTV1A:
 4124 0000 00000000 		.dword	0
 4124      00000000 
 4125 0008 00000000 		.dword	0
 4125      00000000 
 4126 0010 00000000 		.dword	_ZN1AD1Ev
 4126      00000000 
 4127 0018 00000000 		.dword	_ZN1AD0Ev
 4127      00000000 
 4128 0020 00000000 		.dword	_ZN1A3runEv
 4128      00000000 
 4129 0028 00000000 		.dword	_ZN1A18periodicActivationEv
 4129      00000000 
 4130              		.weak	_ZTV1B
 4131              		.section	.data.rel.ro.local._ZTV1B,"awG",@progbits,_ZTV1B,comdat
 4132              		.align	3
 4135              	_ZTV1B:
 4136 0000 00000000 		.dword	0
GAS LISTING /tmp/ccy4oBQd.s 			page 99


 4136      00000000 
 4137 0008 00000000 		.dword	0
 4137      00000000 
 4138 0010 00000000 		.dword	_ZN1BD1Ev
 4138      00000000 
 4139 0018 00000000 		.dword	_ZN1BD0Ev
 4139      00000000 
 4140 0020 00000000 		.dword	_ZN1B3runEv
 4140      00000000 
 4141 0028 00000000 		.dword	_ZN1B18periodicActivationEv
 4141      00000000 
 4142              		.weak	_ZTV1C
 4143              		.section	.data.rel.ro.local._ZTV1C,"awG",@progbits,_ZTV1C,comdat
 4144              		.align	3
 4147              	_ZTV1C:
 4148 0000 00000000 		.dword	0
 4148      00000000 
 4149 0008 00000000 		.dword	0
 4149      00000000 
 4150 0010 00000000 		.dword	_ZN1CD1Ev
 4150      00000000 
 4151 0018 00000000 		.dword	_ZN1CD0Ev
 4151      00000000 
 4152 0020 00000000 		.dword	_ZN1C3runEv
 4152      00000000 
 4153 0028 00000000 		.dword	_ZN1C18periodicActivationEv
 4153      00000000 
 4154              		.globl	myOwnWaitForAll
 4155              		.globl	myOwnMutex
 4156              		.globl	_ZN19ConsumerProducerCPP9threadEndE
 4157              		.globl	_ZN19ConsumerProducerCPP10waitForAllE
 4158              		.globl	finished
 4159              		.globl	finishedD
 4160              		.globl	finishedC
 4161              		.globl	finishedB
 4162              		.globl	finishedA
 4163              		.bss
 4164              		.align	3
 4165              		.set	.LANCHOR0,. + 0
 4168              	finished:
 4169 0000 0000     		.zero	2
 4170 0002 0000     		.zero	2
 4173              	_ZN19ConsumerProducerCPP9threadEndE:
 4174 0004 00000000 		.zero	4
 4177              	myOwnWaitForAll:
 4178 0008 00000000 		.zero	8
 4178      00000000 
 4181              	myOwnMutex:
 4182 0010 00000000 		.zero	8
 4182      00000000 
 4185              	finishedA:
 4186 0018 00       		.zero	1
 4189              	finishedB:
 4190 0019 00       		.zero	1
 4193              	finishedC:
 4194 001a 00       		.zero	1
 4197              	finishedD:
GAS LISTING /tmp/ccy4oBQd.s 			page 100


 4198 001b 00       		.zero	1
 4199 001c 00000000 		.zero	4
 4202              	_ZN19ConsumerProducerCPP10waitForAllE:
 4203 0020 00000000 		.zero	8
 4203      00000000 
 4204              		.text
 4205              	.Letext0:
 4206              		.file 8 "src/../h/../lib/hw.h"
 4207              		.file 9 "src/../h/../h/KernelSemaphore.hpp"
 4208              		.file 10 "src/../h/../h/syscall_c.h"
 4209              		.file 11 "src/../h/KernelBuffer.hpp"
 4210              		.file 12 "src/../h/Z_Njihovo_Buffer_CPP_API.hpp"
 4211              		.file 13 "src/../h/Z_Njihovo_Printing.hpp"
 15812              		.align	3
 15815              	DW.ref.__gxx_personality_v0:
 15816 0000 00000000 		.dword	__gxx_personality_v0
 15816      00000000 
 15817              		.ident	"GCC: (Ubuntu 9.4.0-1ubuntu1~20.04) 9.4.0"
 15818              		.section	.note.GNU-stack,"",@progbits
GAS LISTING /tmp/ccy4oBQd.s 			page 101

