GAS LISTING /tmp/ccScpZU8.s 			page 1


   1              		.file	"Riscv.cpp"
   2              		.option pic
   3              		.option norelax
   4              		.text
   5              	.Ltext0:
   6              		.align	2
   7              		.globl	_ZN5Riscv18exitSupervisorTrapEv
   9              	_ZN5Riscv18exitSupervisorTrapEv:
  10              	.LFB50:
  11              		.file 1 "src/Riscv.cpp"
   1:src/Riscv.cpp **** #include "../h/Riscv.hpp"
   2:src/Riscv.cpp **** #include "../h/print.hpp"
   3:src/Riscv.cpp **** #include "../h/MemoryAllocator.hpp"
   4:src/Riscv.cpp **** #include "../lib/console.h"
   5:src/Riscv.cpp **** #include "../h/TCB.hpp"
   6:src/Riscv.cpp **** #include "../h/KernelSemaphore.hpp"
   7:src/Riscv.cpp **** #include "../h/KernelBuffer.hpp"
   8:src/Riscv.cpp **** 
   9:src/Riscv.cpp **** void Riscv::exitSupervisorTrap() {
  12              		.loc 1 9 34
  13              		.cfi_startproc
  14 0000 130101FF 		addi	sp,sp,-16
  15              		.cfi_def_cfa_offset 16
  16 0004 23348100 		sd	s0,8(sp)
  17              		.cfi_offset 8, -8
  18 0008 13040101 		addi	s0,sp,16
  19              		.cfi_def_cfa 8, 0
  10:src/Riscv.cpp ****     __asm__ volatile ("csrw sepc, ra"); // u sepc postavljamo vrednost ra jer hocemo da se tu vrati
  20              		.loc 1 10 5
  21              		.loc 1 10 39 is_stmt 0
  22              	#APP
  23              	# 10 "src/Riscv.cpp" 1
  11              	    __asm__ volatile ("sret");
  24              		csrw sepc, ra
  25              	# 0 "" 2
  26              		.loc 1 11 5 is_stmt 1
  27              		.loc 1 11 30 is_stmt 0
  28              	# 11 "src/Riscv.cpp" 1
  12              	    // sret instrukcija radi sledece:
  13:src/Riscv.cpp ****     // prelazi se u rezim koji pise u SPP, u pc se upisuje vrednost iz sepc i u bit SIE sstatus reg
  14:src/Riscv.cpp **** }
  29              		sret
  30              	# 0 "" 2
  31              		.loc 1 14 1
  32              	#NO_APP
  33 0014 03348100 		ld	s0,8(sp)
  34              		.cfi_restore 8
  35              		.cfi_def_cfa 2, 16
  36 0018 13010101 		addi	sp,sp,16
  37              		.cfi_def_cfa_offset 0
  38 001c 67800000 		jr	ra
  39              		.cfi_endproc
  40              	.LFE50:
  42              		.align	2
  43              		.globl	_ZN5Riscv20handleSupervisorTrapEv
  45              	_ZN5Riscv20handleSupervisorTrapEv:
  46              	.LFB51:
GAS LISTING /tmp/ccScpZU8.s 			page 2


  15:src/Riscv.cpp **** 
  16:src/Riscv.cpp **** void Riscv::handleSupervisorTrap() {
  47              		.loc 1 16 36 is_stmt 1
  48              		.cfi_startproc
  49 0020 130101F4 		addi	sp,sp,-192
  50              		.cfi_def_cfa_offset 192
  51 0024 233C110A 		sd	ra,184(sp)
  52 0028 2338810A 		sd	s0,176(sp)
  53 002c 2334910A 		sd	s1,168(sp)
  54 0030 2330210B 		sd	s2,160(sp)
  55              		.cfi_offset 1, -8
  56              		.cfi_offset 8, -16
  57              		.cfi_offset 9, -24
  58              		.cfi_offset 18, -32
  59 0034 1304010C 		addi	s0,sp,192
  60              		.cfi_def_cfa 8, 0
  17:src/Riscv.cpp **** 
  18:src/Riscv.cpp ****     // alokacija prostora na steku za registre a0-a7; hocemo na steku da ih sacuvamo jer su to para
  19:src/Riscv.cpp ****     __asm__ volatile ("addi sp,sp,-64");
  61              		.loc 1 19 5
  62              		.loc 1 19 40 is_stmt 0
  63              	#APP
  64              	# 19 "src/Riscv.cpp" 1
  20              	    // cuvanje registara a0-a7 na steku
  21:src/Riscv.cpp ****     pushSysCallParameters();
  65              		addi sp,sp,-64
  66              	# 0 "" 2
  67              		.loc 1 21 5 is_stmt 1
  68              		.loc 1 21 26 is_stmt 0
  69              	#NO_APP
  70 003c 97000000 		call	_ZN5Riscv21pushSysCallParametersEv@plt
  70      E7800000 
  71              	.LVL0:
  22:src/Riscv.cpp **** 
  23:src/Riscv.cpp ****     // citanje razloga ulaska u prekidnu rutinu i smestanje u promenljivu scause
  24:src/Riscv.cpp ****     uint64 volatile scause = readScause();
  72              		.loc 1 24 5 is_stmt 1
  73              	.LBB90:
  74              	.LBB91:
  75              		.file 2 "src/../h/Riscv.hpp"
   1:src/../h/Riscv.hpp **** #ifndef RISCV_HPP
   2:src/../h/Riscv.hpp **** #define RISCV_HPP
   3:src/../h/Riscv.hpp **** 
   4:src/../h/Riscv.hpp **** #include "../lib/hw.h"
   5:src/../h/Riscv.hpp **** 
   6:src/../h/Riscv.hpp **** class Riscv {
   7:src/../h/Riscv.hpp **** public:
   8:src/../h/Riscv.hpp ****     // prekidna rutina (definisana u assembly fajlu supervisorTrap.S; ignorisati upozorenje CLiona 
   9:src/../h/Riscv.hpp ****     static void supervisorTrap();
  10:src/../h/Riscv.hpp **** 
  11:src/../h/Riscv.hpp ****     // definisana u registersStack.S; ova metoda treba da sacuva registre a0-a7 na steku (preko ovi
  12:src/../h/Riscv.hpp ****     static void pushSysCallParameters();
  13:src/../h/Riscv.hpp **** 
  14:src/../h/Riscv.hpp ****     // definisana u registersStack.S; ova metoda treba da sacuva registre x3..x31 na steku
  15:src/../h/Riscv.hpp ****     static void pushMostRegisters();
  16:src/../h/Riscv.hpp **** 
  17:src/../h/Riscv.hpp ****     // definisana u registersStack.S; ova metoda treba da restaurira registre x3..x31 sa steka
GAS LISTING /tmp/ccScpZU8.s 			page 3


  18:src/../h/Riscv.hpp ****     static void popMostRegisters();
  19:src/../h/Riscv.hpp **** 
  20:src/../h/Riscv.hpp ****     static void exitSupervisorTrap();
  21:src/../h/Riscv.hpp **** 
  22:src/../h/Riscv.hpp ****     // procitaj vrednost iz statusnog registra sstatus (ovaj registar pamti trenutno stanje proceso
  23:src/../h/Riscv.hpp ****     static uint64 readSstatus();
  24:src/../h/Riscv.hpp **** 
  25:src/../h/Riscv.hpp ****     // upisi vrednost u statusni registar sstatus
  26:src/../h/Riscv.hpp ****     static void writeSstatus(uint64 sstatus);
  27:src/../h/Riscv.hpp **** 
  28:src/../h/Riscv.hpp ****     // pod spoljasnjim prekidima se podrazumevaju prekidi od tajmera i spoljasnji hardverski prekid
  29:src/../h/Riscv.hpp ****     // u korisnickom rezimu bit SIE sstatus registra se ignorise - spoljasnji prekidi su tada podra
  30:src/../h/Riscv.hpp ****     enum BitMaskSstatus {
  31:src/../h/Riscv.hpp ****         SSTATUS_SIE = (1 << 1), // ovaj bit govori da li su dozvoljeni spoljasnji prekidi (0 - nisu
  32:src/../h/Riscv.hpp ****         SSTATUS_SPIE = (1 << 5), // ovaj bit govori koja je bila prethodna vrednost bita SIE (pre s
  33:src/../h/Riscv.hpp ****         SSTATUS_SPP = (1 << 8) // ovaj bit govori iz kog rezima se skocilo na prekidnu rutinu (0 - 
  34:src/../h/Riscv.hpp ****     };
  35:src/../h/Riscv.hpp **** 
  36:src/../h/Riscv.hpp ****     // postavi odgovarajuce bite u registru sstatus na 1 (odgovarajuca maska se prosledjuje kao arg
  37:src/../h/Riscv.hpp ****     static void maskSetBitsSstatus(uint64 mask);
  38:src/../h/Riscv.hpp **** 
  39:src/../h/Riscv.hpp ****     // postavi odgovarajuce bite u registru sstatus na 0 (odgovarajuca maska se prosledjuje kao arg
  40:src/../h/Riscv.hpp ****     static void maskClearBitsSstatus(uint64 mask);
  41:src/../h/Riscv.hpp **** 
  42:src/../h/Riscv.hpp ****     // procitaj vrednost iz registra sip (ovaj registar pamti koji zahtevi za prekid su trenutno ak
  43:src/../h/Riscv.hpp ****     static uint64 readSip();
  44:src/../h/Riscv.hpp **** 
  45:src/../h/Riscv.hpp ****     // upisi vrednost u registar sip
  46:src/../h/Riscv.hpp ****     static void writeSip(uint64 sip);
  47:src/../h/Riscv.hpp **** 
  48:src/../h/Riscv.hpp ****     enum BitMaskSip {
  49:src/../h/Riscv.hpp ****         SIP_SSIP = (1 << 1), // ovaj bit govori da li je aktivan zahtev za softverski prekid (0 - n
  50:src/../h/Riscv.hpp ****         SIP_SEIP = (1 << 9) // ovaj bit govori da li je aktivan zahtev za spoljasnji hardverski pre
  51:src/../h/Riscv.hpp ****     };
  52:src/../h/Riscv.hpp **** 
  53:src/../h/Riscv.hpp ****     // postavi odgovarajuce bite u registru sip na 1 (odgovarajuca maska se prosledjuje kao argumen
  54:src/../h/Riscv.hpp ****     static void maskSetBitsSip(uint64 mask);
  55:src/../h/Riscv.hpp **** 
  56:src/../h/Riscv.hpp ****     // postavi odgovarajuce bite u registru sip na 0 (odgovarajuca maska se prosledjuje kao argumen
  57:src/../h/Riscv.hpp ****     static void maskClearBitsSip(uint64 mask);
  58:src/../h/Riscv.hpp **** 
  59:src/../h/Riscv.hpp ****     // procitaj vrednost iz registra sie (ovaj registar pamti koji prekidi su trenutno dozvoljeni)
  60:src/../h/Riscv.hpp ****     static uint64 readSie();
  61:src/../h/Riscv.hpp **** 
  62:src/../h/Riscv.hpp ****     // upisi vrednost u registar sie
  63:src/../h/Riscv.hpp ****     static void writeSie(uint64 sie);
  64:src/../h/Riscv.hpp **** 
  65:src/../h/Riscv.hpp ****     // vrednost registra sie se uzima u obzir prilikom izvrsavanja u korisnickom rezimu;
  66:src/../h/Riscv.hpp ****     // ako se program izvrsava u sistemskom rezimu i bit SIE sstatus registra je nula, vrednost sie
  67:src/../h/Riscv.hpp ****     enum BitMaskSie {
  68:src/../h/Riscv.hpp ****         SIE_SSIE = (1 << 1), // ovaj bit govori da li su dozvoljeni softverski prekidi (0 - nisu, 1
  69:src/../h/Riscv.hpp ****         SIE_SEIE = (1 << 9) // ovaj bit govori da li su dozvoljeni spoljasnji hardverski prekidi (0
  70:src/../h/Riscv.hpp ****     };
  71:src/../h/Riscv.hpp **** 
  72:src/../h/Riscv.hpp ****     // postavi odgovarajuce bite u registru sie na 1 (odgovarajuca maska se prosledjuje kao argumen
  73:src/../h/Riscv.hpp ****     static void maskSetBitsSie(uint64 mask);
  74:src/../h/Riscv.hpp **** 
GAS LISTING /tmp/ccScpZU8.s 			page 4


  75:src/../h/Riscv.hpp ****     // postavi odgovarajuce bite u registru sie na 0 (odgovarajuca maska se prosledjuje kao argumen
  76:src/../h/Riscv.hpp ****     static void maskClearBitsSie(uint64 mask);
  77:src/../h/Riscv.hpp **** 
  78:src/../h/Riscv.hpp ****     // procitaj vrednost iz registra scratch (ovaj registar sluzi za cuvanje privremenih vrednosti)
  79:src/../h/Riscv.hpp ****     static uint64 readScratch();
  80:src/../h/Riscv.hpp **** 
  81:src/../h/Riscv.hpp ****     // upisi vrednost u registar scratch
  82:src/../h/Riscv.hpp ****     static void writeScratch(uint64 scratch);
  83:src/../h/Riscv.hpp **** 
  84:src/../h/Riscv.hpp ****     // procitaj vrednost iz registra sepc (ovaj registar cuva vrednost registra pc iz korisnickog r
  85:src/../h/Riscv.hpp ****     // to ce biti adresa instrukcije ecall ili adresa prve neizvrsene/prekinute instrukcije)
  86:src/../h/Riscv.hpp ****     static uint64 readSepc();
  87:src/../h/Riscv.hpp **** 
  88:src/../h/Riscv.hpp ****     // upisi vrednost u registar sepc
  89:src/../h/Riscv.hpp ****     static void writeSepc(uint64 sepc);
  90:src/../h/Riscv.hpp **** 
  91:src/../h/Riscv.hpp ****     // procitaj vrednost iz registra scause (ovaj registar cuva razlog prelaska u sistemski rezim)
  92:src/../h/Riscv.hpp ****     static uint64 readScause();
  93:src/../h/Riscv.hpp **** 
  94:src/../h/Riscv.hpp ****     // upisi vrednost u registar scause
  95:src/../h/Riscv.hpp ****     static void writeScause(uint64 scause);
  96:src/../h/Riscv.hpp **** 
  97:src/../h/Riscv.hpp ****     // procitaj vrednost iz registra stvec (ovaj registar cuva adresu prekidne rutine)
  98:src/../h/Riscv.hpp ****     static uint64 readStvec();
  99:src/../h/Riscv.hpp **** 
 100:src/../h/Riscv.hpp ****     // upisi vrednost u registar stvec
 101:src/../h/Riscv.hpp ****     static void writeStvec(uint64 stvec);
 102:src/../h/Riscv.hpp **** 
 103:src/../h/Riscv.hpp ****     // procitaj vrednost iz registra stval (ovaj registar cuva dodatan opis greske koja se dogodila
 104:src/../h/Riscv.hpp ****     static uint64 readStval();
 105:src/../h/Riscv.hpp **** 
 106:src/../h/Riscv.hpp ****     // upisi vrednost u registar stval
 107:src/../h/Riscv.hpp ****     static void writeStval(uint64 stval);
 108:src/../h/Riscv.hpp **** 
 109:src/../h/Riscv.hpp **** private:
 110:src/../h/Riscv.hpp ****     // obrada sistemskog poziva/prekida/izuzetka
 111:src/../h/Riscv.hpp ****     static void handleSupervisorTrap();
 112:src/../h/Riscv.hpp **** };
 113:src/../h/Riscv.hpp **** 
 114:src/../h/Riscv.hpp **** // ove metode pisem kao inline da ne bi bilo rezijskih troskova koje iziskuje poziv funkcije (preno
 115:src/../h/Riscv.hpp **** // funkcije, cuvanje povratne adrese)- ovako ce kod tela funkcije samo da se ugradi na mesto poziva
 116:src/../h/Riscv.hpp **** // poziva funkcije
 117:src/../h/Riscv.hpp **** inline uint64 Riscv::readSstatus() {
 118:src/../h/Riscv.hpp ****     // volatile kvalifikator obezbedjuje da prevodilac ne izvrsi optimizaciju i sacuva lokalnu prom
 119:src/../h/Riscv.hpp ****     // registara - umesto toga, sacuvace je na steku
 120:src/../h/Riscv.hpp ****     uint64 volatile sstatus;
 121:src/../h/Riscv.hpp ****     __asm__ volatile ("csrr %[sstatus], sstatus" : [sstatus] "=r"(sstatus));
 122:src/../h/Riscv.hpp ****     return sstatus;
 123:src/../h/Riscv.hpp **** }
 124:src/../h/Riscv.hpp **** 
 125:src/../h/Riscv.hpp **** inline void Riscv::writeSstatus(uint64 sstatus) {
 126:src/../h/Riscv.hpp ****     __asm__ volatile ("csrw sstatus, %[sstatus]" : : [sstatus] "r"(sstatus));
 127:src/../h/Riscv.hpp **** }
 128:src/../h/Riscv.hpp **** 
 129:src/../h/Riscv.hpp **** inline void Riscv::maskSetBitsSstatus(uint64 mask) {
 130:src/../h/Riscv.hpp ****     __asm__ volatile ("csrs sstatus, %[mask]" : : [mask] "r"(mask));
 131:src/../h/Riscv.hpp **** }
GAS LISTING /tmp/ccScpZU8.s 			page 5


 132:src/../h/Riscv.hpp **** 
 133:src/../h/Riscv.hpp **** inline void Riscv::maskClearBitsSstatus(uint64 mask) {
 134:src/../h/Riscv.hpp ****     __asm__ volatile ("csrc sstatus, %[mask]" : : [mask] "r"(mask));
 135:src/../h/Riscv.hpp **** }
 136:src/../h/Riscv.hpp **** 
 137:src/../h/Riscv.hpp **** inline uint64 Riscv::readSip() {
 138:src/../h/Riscv.hpp ****     uint64 volatile sip;
 139:src/../h/Riscv.hpp ****     __asm__ volatile ("csrr %[sip], sip" : [sip] "=r"(sip));
 140:src/../h/Riscv.hpp ****     return sip;
 141:src/../h/Riscv.hpp **** }
 142:src/../h/Riscv.hpp **** 
 143:src/../h/Riscv.hpp **** inline void Riscv::writeSip(uint64 sip) {
 144:src/../h/Riscv.hpp ****     __asm__ volatile ("csrw sip, %[sip]" : : [sip] "r"(sip));
 145:src/../h/Riscv.hpp **** }
 146:src/../h/Riscv.hpp **** 
 147:src/../h/Riscv.hpp **** inline void Riscv::maskSetBitsSip(uint64 mask) {
 148:src/../h/Riscv.hpp ****     __asm__ volatile ("csrs sip, %[mask]" : : [mask] "r"(mask));
 149:src/../h/Riscv.hpp **** }
 150:src/../h/Riscv.hpp **** 
 151:src/../h/Riscv.hpp **** inline void Riscv::maskClearBitsSip(uint64 mask) {
 152:src/../h/Riscv.hpp ****     __asm__ volatile ("csrc sip, %[mask]" : : [mask] "r"(mask));
 153:src/../h/Riscv.hpp **** }
 154:src/../h/Riscv.hpp **** 
 155:src/../h/Riscv.hpp **** inline uint64 Riscv::readSie() {
 156:src/../h/Riscv.hpp ****     uint64 volatile sie;
 157:src/../h/Riscv.hpp ****     __asm__ volatile ("csrr %[sie], sie" : [sie] "=r"(sie));
 158:src/../h/Riscv.hpp ****     return sie;
 159:src/../h/Riscv.hpp **** }
 160:src/../h/Riscv.hpp **** 
 161:src/../h/Riscv.hpp **** inline void Riscv::writeSie(uint64 sie) {
 162:src/../h/Riscv.hpp ****     __asm__ volatile ("csrw sie, %[sie]" : : [sie] "r"(sie));
 163:src/../h/Riscv.hpp **** }
 164:src/../h/Riscv.hpp **** 
 165:src/../h/Riscv.hpp **** inline void Riscv::maskSetBitsSie(uint64 mask) {
 166:src/../h/Riscv.hpp ****     __asm__ volatile ("csrs sie, %[mask]" : : [mask] "r"(mask));
 167:src/../h/Riscv.hpp **** }
 168:src/../h/Riscv.hpp **** 
 169:src/../h/Riscv.hpp **** inline void Riscv::maskClearBitsSie(uint64 mask) {
 170:src/../h/Riscv.hpp ****     __asm__ volatile ("csrc sie, %[mask]" : : [mask] "r"(mask));
 171:src/../h/Riscv.hpp **** }
 172:src/../h/Riscv.hpp **** 
 173:src/../h/Riscv.hpp **** inline uint64 Riscv::readScratch() {
 174:src/../h/Riscv.hpp ****     uint64 volatile scratch;
 175:src/../h/Riscv.hpp ****     __asm__ volatile ("csrr %[scratch], scratch" : [scratch] "=r"(scratch));
 176:src/../h/Riscv.hpp ****     return scratch;
 177:src/../h/Riscv.hpp **** }
 178:src/../h/Riscv.hpp **** 
 179:src/../h/Riscv.hpp **** inline void Riscv::writeScratch(uint64 scratch) {
 180:src/../h/Riscv.hpp ****     __asm__ volatile ("csrw scratch, %[scratch]" : : [scratch] "r"(scratch));
 181:src/../h/Riscv.hpp **** }
 182:src/../h/Riscv.hpp **** 
 183:src/../h/Riscv.hpp **** inline uint64 Riscv::readSepc() {
 184:src/../h/Riscv.hpp ****     uint64 volatile sepc;
 185:src/../h/Riscv.hpp ****     __asm__ volatile ("csrr %[sepc], sepc" : [sepc] "=r"(sepc));
 186:src/../h/Riscv.hpp ****     return sepc;
 187:src/../h/Riscv.hpp **** }
 188:src/../h/Riscv.hpp **** 
GAS LISTING /tmp/ccScpZU8.s 			page 6


 189:src/../h/Riscv.hpp **** inline void Riscv::writeSepc(uint64 sepc) {
 190:src/../h/Riscv.hpp ****     __asm__ volatile ("csrw sepc, %[sepc]" : : [sepc] "r"(sepc));
 191:src/../h/Riscv.hpp **** }
 192:src/../h/Riscv.hpp **** 
 193:src/../h/Riscv.hpp **** inline uint64 Riscv::readScause() {
 194:src/../h/Riscv.hpp ****     uint64 volatile scause;
  76              		.loc 2 194 5
 195:src/../h/Riscv.hpp ****     __asm__ volatile ("csrr %[scause], scause" : [scause] "=r"(scause));
  77              		.loc 2 195 5
  78              		.loc 2 195 72 is_stmt 0
  79              	#APP
  80              	# 195 "src/../h/Riscv.hpp" 1
 196              	    return scause;
  81              		csrr a5, scause
  82              	# 0 "" 2
  83              	#NO_APP
  84 0048 2330F4F8 		sd	a5,-128(s0)
  85              		.loc 2 196 5 is_stmt 1
  86              		.loc 2 196 12 is_stmt 0
  87 004c 833704F8 		ld	a5,-128(s0)
  88              	.LBE91:
  89              	.LBE90:
  90              		.loc 1 24 41
  91 0050 233CF4FC 		sd	a5,-40(s0)
  25:src/Riscv.cpp **** 
  26:src/Riscv.cpp ****     if (scause == 0x0000000000000008UL || scause == 0x0000000000000009UL) {
  92              		.loc 1 26 5 is_stmt 1
  93              	.LBB92:
  94              		.loc 1 26 16 is_stmt 0
  95 0054 033784FD 		ld	a4,-40(s0)
  96              		.loc 1 26 40
  97 0058 93078000 		li	a5,8
  98 005c 6304F708 		beq	a4,a5,.L4
  99              		.loc 1 26 50 discriminator 2
 100 0060 033784FD 		ld	a4,-40(s0)
 101              		.loc 1 26 40 discriminator 2
 102 0064 93079000 		li	a5,9
 103 0068 630EF706 		beq	a4,a5,.L4
 104              	.LBE92:
  27:src/Riscv.cpp ****         // spoljasnji prekid (tajmer ili konzola): ne; razlog prekida: ecall iz korisnickog ili sis
  28:src/Riscv.cpp **** 
  29:src/Riscv.cpp ****         // na steku niti koja je pozvala sistemski poziv ce biti sacuvane vrednosti sepc i sstatus;
  30:src/Riscv.cpp ****         // ovo radimo jer se kod ecall-a u sepc cuva adresa instrukcije ecall, a hocemo da se pri p
  31:src/Riscv.cpp ****         // na instrukciju posle ecall (sret upisuje sepc u pc, sve instrukcije su duzine 4 bajta)
  32:src/Riscv.cpp ****         uint64 volatile sepc = readSepc() + 4;
  33:src/Riscv.cpp ****         uint64 volatile sstatus = readSstatus();
  34:src/Riscv.cpp **** 
  35:src/Riscv.cpp ****         uint64 volatile sysCallCode; // iz registra a0 citamo kod sistemskog poziva i upisujemo ga 
  36:src/Riscv.cpp ****         __asm__ volatile ("ld %[sysCallCode],0(sp)" : [sysCallCode] "=r"(sysCallCode));
  37:src/Riscv.cpp **** 
  38:src/Riscv.cpp ****         if (sysCallCode == 0x01) {
  39:src/Riscv.cpp ****             // sistemski poziv: mem_alloc
  40:src/Riscv.cpp **** 
  41:src/Riscv.cpp ****             size_t volatile numberOfBlocks; // broj blokova memorije koje je korisnik zatrazio - ci
  42:src/Riscv.cpp ****             __asm__ volatile ("ld %[numberOfBlocks],8(sp)" : [numberOfBlocks] "=r"(numberOfBlocks))
  43:src/Riscv.cpp **** 
  44:src/Riscv.cpp ****             // izvrsavamo kernel kod - alociramo memoriju koju je korisnik trazio i upisujemo njenu
GAS LISTING /tmp/ccScpZU8.s 			page 7


  45:src/Riscv.cpp ****             void* allocatedMemory = MemoryAllocator::getInstance().allocateSegment(numberOfBlocks);
  46:src/Riscv.cpp **** 
  47:src/Riscv.cpp ****             // upisujemo adresu te memorije u registar a0 kao povratnu vrednost ovog sistemskog poz
  48:src/Riscv.cpp ****             __asm__ volatile ("mv a0,%[allocatedMemory]" : : [allocatedMemory] "r"(allocatedMemory)
  49:src/Riscv.cpp **** 
  50:src/Riscv.cpp ****         } else if (sysCallCode == 0x02) {
  51:src/Riscv.cpp ****             // sistemski poziv: mem_free
  52:src/Riscv.cpp **** 
  53:src/Riscv.cpp ****             uint64* volatile freeThisMemory; // ovde cemo smestiti adresu memorije koju treba oslob
  54:src/Riscv.cpp ****             __asm__ volatile ("ld %[freeThisMemory],8(sp)" : [freeThisMemory] "=r"(freeThisMemory))
  55:src/Riscv.cpp **** 
  56:src/Riscv.cpp ****             // izvrsavamo kernel kod - dealociramo memoriju koju je korisnik prosledio i rezultat o
  57:src/Riscv.cpp ****             int successInfo = MemoryAllocator::getInstance().deallocateSegment(freeThisMemory);
  58:src/Riscv.cpp **** 
  59:src/Riscv.cpp ****             // upisujemo informaciju o uspehu ove operacije u registar a0 kao povratnu vrednost ovo
  60:src/Riscv.cpp ****             __asm__ volatile ("mv a0,%[successInfo]" : : [successInfo] "r"(successInfo));
  61:src/Riscv.cpp **** 
  62:src/Riscv.cpp ****         } else if (sysCallCode == 0x11) {
  63:src/Riscv.cpp ****             // sistemski poziv: thread_create
  64:src/Riscv.cpp **** 
  65:src/Riscv.cpp ****             TCB** handle; // ovde ce biti smestena adresa na kojoj se nalazi vrednost pokazivaca ko
  66:src/Riscv.cpp ****             __asm__ volatile ("ld %[handle],8(sp)" : [handle] "=r"(handle)); // citanje iz registra
  67:src/Riscv.cpp ****             void (*startRoutine)(void*); // ovde cemo smestiti adresu funkcije koju novokreirana ni
  68:src/Riscv.cpp ****             __asm__ volatile ("ld %[startRoutine],16(sp)" : [startRoutine] "=r"(startRoutine));
  69:src/Riscv.cpp ****             void* arg; // ovde smestamo adresu argumenta koji treba proslediti funkciji cija je adr
  70:src/Riscv.cpp ****             __asm__ volatile ("ld %[arg],24(sp)" : [arg] "=r"(arg));
  71:src/Riscv.cpp ****             void* stack; // ovde smestamo adresu steka koji je alociran za nit koju treba napraviti
  72:src/Riscv.cpp ****             __asm__ volatile ("ld %[stack],32(sp)" : [stack] "=r"(stack));
  73:src/Riscv.cpp **** 
  74:src/Riscv.cpp ****             // izvrsavamo kernel kod - kreiramo novu nit za zadatom funkcijom, njenim argumentom i 
  75:src/Riscv.cpp ****             *handle = TCB::createThread(startRoutine, arg, stack, false);
  76:src/Riscv.cpp **** 
  77:src/Riscv.cpp ****         } else if (sysCallCode == 0x12) {
  78:src/Riscv.cpp ****             // sistemski poziv: thread_exit
  79:src/Riscv.cpp **** 
  80:src/Riscv.cpp ****             // za tekucu nit se postavlja flag da je ona zavrsena, pa se zato ona nece vise davati 
  81:src/Riscv.cpp ****             TCB::runningThread->setFinished(true);
  82:src/Riscv.cpp ****             // kada se ugasi tekuca nit, treba da se promeni kontekst kako bi procesor dobio neku d
  83:src/Riscv.cpp ****             TCB::dispatch();
  84:src/Riscv.cpp **** 
  85:src/Riscv.cpp ****         } else if (sysCallCode == 0x13) {
  86:src/Riscv.cpp ****             // sistemski poziv: thread_dispatch
  87:src/Riscv.cpp **** 
  88:src/Riscv.cpp ****             // u okviru staticke metode dispatch se menja kontekst;
  89:src/Riscv.cpp ****             // cuvanje i restauraciju registara radimo u okviru prekidne rutine supervisorTrap
  90:src/Riscv.cpp ****             TCB::dispatch();
  91:src/Riscv.cpp **** 
  92:src/Riscv.cpp ****         } else if (sysCallCode == 0x14) {
  93:src/Riscv.cpp ****             // sistemski poziv: thread_create_cpp
  94:src/Riscv.cpp **** 
  95:src/Riscv.cpp ****             TCB** handle; // ovde ce biti smestena adresa na kojoj se nalazi vrednost pokazivaca ko
  96:src/Riscv.cpp ****             __asm__ volatile ("ld %[handle],8(sp)" : [handle] "=r"(handle)); // citanje iz registra
  97:src/Riscv.cpp ****             void (*startRoutine)(void*); // ovde cemo smestiti adresu funkcije koju novokreirana ni
  98:src/Riscv.cpp ****             __asm__ volatile ("ld %[startRoutine],16(sp)" : [startRoutine] "=r"(startRoutine));
  99:src/Riscv.cpp ****             void* arg; // ovde smestamo adresu argumenta koji treba proslediti funkciji cija je adr
 100:src/Riscv.cpp ****             __asm__ volatile ("ld %[arg],24(sp)" : [arg] "=r"(arg));
 101:src/Riscv.cpp ****             void* stack; // ovde smestamo adresu steka koji je alociran za nit koju treba napraviti
GAS LISTING /tmp/ccScpZU8.s 			page 8


 102:src/Riscv.cpp ****             __asm__ volatile ("ld %[stack],32(sp)" : [stack] "=r"(stack));
 103:src/Riscv.cpp **** 
 104:src/Riscv.cpp ****             // izvrsavamo kernel kod - kreiramo novu nit za zadatom funkcijom, njenim argumentom i 
 105:src/Riscv.cpp ****             *handle = TCB::createThread(startRoutine, arg, stack, true);
 106:src/Riscv.cpp **** 
 107:src/Riscv.cpp ****         } else if (sysCallCode == 0x15) {
 108:src/Riscv.cpp ****             // sistemski poziv: scheduler_put
 109:src/Riscv.cpp **** 
 110:src/Riscv.cpp ****             TCB* thread;
 111:src/Riscv.cpp ****             __asm__ volatile ("ld %[thread],8(sp)" : [thread] "=r"(thread)); // citanje iz registra
 112:src/Riscv.cpp **** 
 113:src/Riscv.cpp ****             // stavljanje ove niti u scheduler
 114:src/Riscv.cpp ****             Scheduler::getInstance().put(thread);
 115:src/Riscv.cpp **** 
 116:src/Riscv.cpp ****         } else if (sysCallCode == 0x16) {
 117:src/Riscv.cpp ****             // sistemski poziv: getThreadId
 118:src/Riscv.cpp **** 
 119:src/Riscv.cpp ****             int volatile threadId = TCB::runningThread->getThreadId();
 120:src/Riscv.cpp **** 
 121:src/Riscv.cpp ****             TCB::dispatch();
 122:src/Riscv.cpp **** 
 123:src/Riscv.cpp ****             // upisujemo adresu te memorije u registar a0 kao povratnu vrednost ovog sistemskog poz
 124:src/Riscv.cpp ****             __asm__ volatile ("mv a0,%[threadId]" : : [threadId] "r"(threadId));
 125:src/Riscv.cpp **** 
 126:src/Riscv.cpp ****         }
 127:src/Riscv.cpp ****         else if (sysCallCode == 0x21) {
 128:src/Riscv.cpp ****             // sistemski poziv: sem_open
 129:src/Riscv.cpp **** 
 130:src/Riscv.cpp ****             KernelSemaphore** handle; // ovde ce biti smestena adresa na kojoj se nalazi vrednost p
 131:src/Riscv.cpp ****             __asm__ volatile ("ld %[handle],8(sp)" : [handle] "=r"(handle)); // citanje iz registra
 132:src/Riscv.cpp ****             uint16 initialSemaphoreValue; // pocetna vrednost semafora
 133:src/Riscv.cpp ****             __asm__ volatile ("ld %[initialSemaphoreValue],16(sp)" : [initialSemaphoreValue] "=r"(i
 134:src/Riscv.cpp **** 
 135:src/Riscv.cpp ****             // izvrsavamo kernel kod - kreiramo nov semafor sa zadatom pocetnom vrednoscu
 136:src/Riscv.cpp ****             *handle = KernelSemaphore::createSemaphore(initialSemaphoreValue);
 137:src/Riscv.cpp **** 
 138:src/Riscv.cpp ****         } else if (sysCallCode == 0x22) {
 139:src/Riscv.cpp ****             // sistemski poziv: sem_close
 140:src/Riscv.cpp **** 
 141:src/Riscv.cpp ****             KernelSemaphore* handle; // ovde ce biti smestena adresa semafora kojeg treba oslobodit
 142:src/Riscv.cpp ****             __asm__ volatile ("ld %[handle],8(sp)" : [handle] "=r"(handle)); // citanje iz registra
 143:src/Riscv.cpp **** 
 144:src/Riscv.cpp ****             // oslobadjamo zadati semafor
 145:src/Riscv.cpp ****             int successInfo = KernelSemaphore::closeSemaphore(handle);
 146:src/Riscv.cpp ****             // upisujemo informaciju o uspehu ove operacije u registar a0 kao povratnu vrednost ovo
 147:src/Riscv.cpp ****             __asm__ volatile ("mv a0,%[successInfo]" : : [successInfo] "r"(successInfo));
 148:src/Riscv.cpp **** 
 149:src/Riscv.cpp ****         } else if (sysCallCode == 0x23) {
 150:src/Riscv.cpp ****             // sistemski poziv: sem_wait
 151:src/Riscv.cpp **** 
 152:src/Riscv.cpp ****             KernelSemaphore* semaphoreId; // ovde ce biti smestena adresa semafora za koji treba da
 153:src/Riscv.cpp ****             __asm__ volatile ("ld %[semaphoreId],8(sp)" : [semaphoreId] "=r"(semaphoreId)); // cita
 154:src/Riscv.cpp **** 
 155:src/Riscv.cpp ****             // za prosledjeni semafor se zove metod wait nad tekucom niti
 156:src/Riscv.cpp ****             semaphoreId->wait();
 157:src/Riscv.cpp **** 
 158:src/Riscv.cpp ****             if (TCB::runningThread->getWaitSemaphoreFailed()) __asm__ volatile ("li a0,-1"); // slu
GAS LISTING /tmp/ccScpZU8.s 			page 9


 159:src/Riscv.cpp ****             else __asm__ volatile ("li a0,1"); // slucaj kada je nit odblokirana normalno pomocu si
 160:src/Riscv.cpp **** 
 161:src/Riscv.cpp ****         } else if (sysCallCode == 0x24) {
 162:src/Riscv.cpp ****             // sistemski poziv: sem_signal
 163:src/Riscv.cpp **** 
 164:src/Riscv.cpp ****             KernelSemaphore* semaphoreId; // ovde ce biti smestena adresa semafora za koji treba da
 165:src/Riscv.cpp ****             __asm__ volatile ("ld %[semaphoreId],8(sp)" : [semaphoreId] "=r"(semaphoreId)); // cita
 166:src/Riscv.cpp **** 
 167:src/Riscv.cpp ****             // za prosledjeni semafor se zove metod signal
 168:src/Riscv.cpp ****             semaphoreId->signal();
 169:src/Riscv.cpp **** 
 170:src/Riscv.cpp ****         } else if (sysCallCode == 0x31) {
 171:src/Riscv.cpp ****             // sistemski poziv: time_sleep
 172:src/Riscv.cpp **** 
 173:src/Riscv.cpp ****             uint64 time; // broj perioda tajmera na koliko treba da se uspava tekuca nit
 174:src/Riscv.cpp ****             __asm__ volatile ("ld %[time], 8(sp)" : [time] "=r"(time)); // citanje iz registra a1
 175:src/Riscv.cpp **** 
 176:src/Riscv.cpp ****             // umetanje tekuce niti u red uspavanih niti sa zadatim brojem perioda tajmera koliko t
 177:src/Riscv.cpp ****             TCB::insertSleepThread(time);
 178:src/Riscv.cpp ****             // tekucu nit treba suspendovati tako sto cemo promeniti kontekst bez vracanja tekuce n
 179:src/Riscv.cpp ****             TCB::suspendCurrentThread();
 180:src/Riscv.cpp **** 
 181:src/Riscv.cpp ****             // operacija umetanja uspavane niti u listu uvek uspeva jer ne alociram dodatnu memorij
 182:src/Riscv.cpp ****             // uvezujem u listu koju simuliram pomocu pokazivaca koji su atributi klase TCB
 183:src/Riscv.cpp ****             __asm__ volatile ("li a0,1");
 184:src/Riscv.cpp **** 
 185:src/Riscv.cpp ****         } else if (sysCallCode == 0x41) {
 186:src/Riscv.cpp ****             // sistemski poziv: getc
 187:src/Riscv.cpp **** 
 188:src/Riscv.cpp ****             char inputCharacter = KernelBuffer::getcGetInstance()->removeFromBuffer();
 189:src/Riscv.cpp ****             // rezultat ovog sistemskog poziva (uneti karakter) vracamo kroz registar a0
 190:src/Riscv.cpp ****             __asm__ volatile ("mv a0,%[inputCharacter]" : : [inputCharacter] "r"(inputCharacter));
 191:src/Riscv.cpp **** 
 192:src/Riscv.cpp ****         } else if (sysCallCode == 0x42) {
 193:src/Riscv.cpp ****             // sistemski poziv: putc
 194:src/Riscv.cpp **** 
 195:src/Riscv.cpp ****             char outputCharacter;
 196:src/Riscv.cpp ****             __asm__ volatile ("ld %[outputCharacter], 8(sp)" : [outputCharacter] "=r"(outputCharact
 197:src/Riscv.cpp **** 
 198:src/Riscv.cpp ****             KernelBuffer::putcGetInstance()->insertIntoBuffer(outputCharacter);
 199:src/Riscv.cpp **** 
 200:src/Riscv.cpp ****         } else if (sysCallCode == 0x50) {
 201:src/Riscv.cpp ****             // sistemski poziv: switchSupervisorToUser
 202:src/Riscv.cpp **** 
 203:src/Riscv.cpp ****             Riscv::maskClearBitsSstatus(Riscv::SSTATUS_SPP);
 204:src/Riscv.cpp **** 
 205:src/Riscv.cpp ****         } else if (sysCallCode == 0x51) {
 206:src/Riscv.cpp ****             // sistemski poziv: switchUserToSupervisor
 207:src/Riscv.cpp **** 
 208:src/Riscv.cpp ****             Riscv::maskSetBitsSstatus(Riscv::SSTATUS_SPP);
 209:src/Riscv.cpp **** 
 210:src/Riscv.cpp ****         }
 211:src/Riscv.cpp **** 
 212:src/Riscv.cpp ****         // pre ulaska u handleSupervisorTrap() u prekidnoj rutini (supervisorTrap) su sacuvane star
 213:src/Riscv.cpp ****         // nakon izlaska iz ove funkcije (handleSupervisorTrap), restarurirala bi se stara vrednost
 214:src/Riscv.cpp ****         // u registru a0 nakon povratka iz prekidne rutine, vec zelimo da se upise povratna vrednos
 215:src/Riscv.cpp ****         // sistemskog poziva preko stare vrednosti a0 koja se nalazi na steku, i na taj nacin ce se
GAS LISTING /tmp/ccScpZU8.s 			page 10


 216:src/Riscv.cpp ****         // nakon izlaska iz funkcije handleSupervisorTrap
 217:src/Riscv.cpp ****         __asm__ volatile ("sd a0,10*8(s0)"); // a0 je zapravo registar x10 - pise u dokumentaciji
 218:src/Riscv.cpp **** 
 219:src/Riscv.cpp ****         // restauracija registara sepc i sstatus sa steka tekuce niti
 220:src/Riscv.cpp ****         writeSepc(sepc);
 221:src/Riscv.cpp ****         if (sysCallCode != 0x50 && sysCallCode != 0x51) {
 222:src/Riscv.cpp ****             writeSstatus(sstatus);
 223:src/Riscv.cpp ****         }
 224:src/Riscv.cpp **** 
 225:src/Riscv.cpp ****     } else if (scause == 0x0000000000000002UL) {
 105              		.loc 1 225 12 is_stmt 1
 106              	.LBB330:
 107              	.LBB93:
 108              		.loc 1 225 23 is_stmt 0
 109 006c 033784FD 		ld	a4,-40(s0)
 110              		.loc 1 225 12
 111 0070 93072000 		li	a5,2
 112 0074 6306F738 		beq	a4,a5,.L33
 113              	.LBE93:
 114              	.LBE330:
 226:src/Riscv.cpp ****         // spoljasnji prekid (tajmer ili konzola): ne; razlog prekida: ilegalna instrukcija
 227:src/Riscv.cpp **** 
 228:src/Riscv.cpp ****         printErrorMessage(scause, readStval(), readSepc());
 229:src/Riscv.cpp ****     } else if (scause == 0x0000000000000005UL) {
 115              		.loc 1 229 12 is_stmt 1
 116              	.LBB331:
 117              	.LBB143:
 118              	.LBB94:
 119              		.loc 1 229 23 is_stmt 0
 120 0078 033784FD 		ld	a4,-40(s0)
 121              		.loc 1 229 12
 122 007c 93075000 		li	a5,5
 123 0080 6304F73A 		beq	a4,a5,.L34
 124              	.LBE94:
 125              	.LBE143:
 126              	.LBE331:
 230:src/Riscv.cpp ****         // spoljasnji prekid (tajmer ili konzola): ne; razlog prekida: nedozvoljena adresa citanja
 231:src/Riscv.cpp **** 
 232:src/Riscv.cpp ****         printErrorMessage(scause, readStval(), readSepc());
 233:src/Riscv.cpp ****     } else if (scause == 0x0000000000000007UL) {
 127              		.loc 1 233 12 is_stmt 1
 128              	.LBB332:
 129              	.LBB144:
 130              	.LBB135:
 131              	.LBB95:
 132              		.loc 1 233 23 is_stmt 0
 133 0084 033784FD 		ld	a4,-40(s0)
 134              		.loc 1 233 12
 135 0088 93077000 		li	a5,7
 136 008c 6302F73C 		beq	a4,a5,.L35
 137              	.LBE95:
 138              	.LBE135:
 139              	.LBE144:
 140              	.LBE332:
 234:src/Riscv.cpp ****         // spoljasnji prekid (tajmer ili konzola): ne; razlog prekida: nedozvoljena adresa upisa
 235:src/Riscv.cpp **** 
 236:src/Riscv.cpp ****         printErrorMessage(scause, readStval(), readSepc());
GAS LISTING /tmp/ccScpZU8.s 			page 11


 237:src/Riscv.cpp ****     } else if (scause == 0x8000000000000001UL) {
 141              		.loc 1 237 12 is_stmt 1
 142              	.LBB333:
 143              	.LBB145:
 144              	.LBB136:
 145              	.LBB128:
 146              	.LBB96:
 147              		.loc 1 237 23 is_stmt 0
 148 0090 033784FD 		ld	a4,-40(s0)
 149              		.loc 1 237 12
 150 0094 9307F0FF 		li	a5,-1
 151 0098 9397F703 		slli	a5,a5,63
 152 009c 93871700 		addi	a5,a5,1
 153 00a0 630CF73C 		beq	a4,a5,.L36
 154              	.LBE96:
 155              	.LBE128:
 156              	.LBE136:
 157              	.LBE145:
 158              	.LBE333:
 238:src/Riscv.cpp ****         // spoljasnji prekid (tajmer ili konzola): da; razlog prekida: softverski prekid od tajmera
 239:src/Riscv.cpp **** 
 240:src/Riscv.cpp ****         maskClearBitsSip(SIP_SSIP); // brise se zahtev za prekidom od tajmera
 241:src/Riscv.cpp ****         TCB::updateSleepThreadList(); // azuriranje liste uspavanih niti
 242:src/Riscv.cpp ****         TCB::timeSliceCounter++; // povecava se brojac perioda tajmera za tekucu nit (runningThread
 243:src/Riscv.cpp ****         // ako se tekuca nit se izvrsavala dovoljno perioda tajmera - promeniti kontekst
 244:src/Riscv.cpp ****         if (TCB::timeSliceCounter >= TCB::runningThread->getTimeSlice()) {
 245:src/Riscv.cpp ****             uint64 volatile sepc = readSepc();
 246:src/Riscv.cpp ****             uint64 volatile sstatus = readSstatus();
 247:src/Riscv.cpp ****             TCB::timeSliceCounter = 0;
 248:src/Riscv.cpp ****             TCB::dispatch(); // promena konteksta
 249:src/Riscv.cpp ****             writeSepc(sepc);
 250:src/Riscv.cpp ****             writeSstatus(sstatus);
 251:src/Riscv.cpp ****         }
 252:src/Riscv.cpp **** 
 253:src/Riscv.cpp ****     } else if (scause == 0x8000000000000009UL) {
 159              		.loc 1 253 12 is_stmt 1
 160              	.LBB334:
 161              	.LBB146:
 162              	.LBB137:
 163              	.LBB129:
 164              	.LBB122:
 165              	.LBB97:
 166              		.loc 1 253 23 is_stmt 0
 167 00a4 033784FD 		ld	a4,-40(s0)
 168              		.loc 1 253 12
 169 00a8 9307F0FF 		li	a5,-1
 170 00ac 9397F703 		slli	a5,a5,63
 171 00b0 93879700 		addi	a5,a5,9
 172 00b4 6310F718 		bne	a4,a5,.L25
 173              	.LBB98:
 254:src/Riscv.cpp ****         // spoljasnji prekid (tajmer ili konzola): da; razlog prekida: spoljasnji hardverski prekid
 255:src/Riscv.cpp **** 
 256:src/Riscv.cpp ****         // od kontrolera prekida saznajemo koji uredjaj je generisao prekid pozivajuci funkciju pli
 257:src/Riscv.cpp ****         int externalInterruptCode = plic_claim();
 174              		.loc 1 257 9 is_stmt 1
 175              		.loc 1 257 47 is_stmt 0
 176 00b8 97000000 		call	plic_claim@plt
GAS LISTING /tmp/ccScpZU8.s 			page 12


 176      E7800000 
 177              	.LVL1:
 178 00c0 13090500 		mv	s2,a0
 179              	.LVL2:
 258:src/Riscv.cpp **** 
 259:src/Riscv.cpp ****         if (externalInterruptCode == CONSOLE_IRQ) {
 180              		.loc 1 259 9 is_stmt 1
 181              	.LBB99:
 182 00c4 9307A000 		li	a5,10
 183 00c8 6308F542 		beq	a0,a5,.L30
 184              	.LVL3:
 185              	.L29:
 186              	.LBE99:
 260:src/Riscv.cpp ****             // prekid od konzole
 261:src/Riscv.cpp ****             while (*reinterpret_cast<char*>(CONSOLE_STATUS) & CONSOLE_RX_STATUS_BIT) {
 262:src/Riscv.cpp ****                 int consoleInput = *reinterpret_cast<char*>(CONSOLE_RX_DATA);
 263:src/Riscv.cpp ****                 KernelBuffer::getcGetInstance()->insertIntoBuffer(consoleInput);
 264:src/Riscv.cpp ****             }
 265:src/Riscv.cpp **** 
 266:src/Riscv.cpp ****         }
 267:src/Riscv.cpp **** 
 268:src/Riscv.cpp ****         // kontroler prekida se obavestava da je prekid obradjen
 269:src/Riscv.cpp ****         plic_complete(externalInterruptCode);
 187              		.loc 1 269 9
 188              		.loc 1 269 22 is_stmt 0
 189 00cc 13050900 		mv	a0,s2
 190 00d0 97000000 		call	plic_complete@plt
 190      E7800000 
 191              	.LVL4:
 270:src/Riscv.cpp ****         maskClearBitsSip(SIP_SEIP); // brise se zahtev za spoljasnjim hardverskim prekidom
 192              		.loc 1 270 9 is_stmt 1
 193              	.LBB102:
 194              	.LBB103:
 152:src/../h/Riscv.hpp **** }
 195              		.loc 2 152 5
 152:src/../h/Riscv.hpp **** }
 196              		.loc 2 152 64 is_stmt 0
 197 00d8 93070020 		li	a5,512
 198              	#APP
 199              	# 152 "src/../h/Riscv.hpp" 1
 153:src/../h/Riscv.hpp **** 
 200              		csrc sip, a5
 201              	# 0 "" 2
 202              		.loc 2 153 1
 203              	#NO_APP
 204 00e0 6F004015 		j	.L25
 205              	.LVL5:
 206              	.L4:
 207              	.LBE103:
 208              	.LBE102:
 209              	.LBE98:
 210              	.LBE97:
 211              	.LBE122:
 212              	.LBE129:
 213              	.LBE137:
 214              	.LBE146:
 215              	.LBB147:
GAS LISTING /tmp/ccScpZU8.s 			page 13


  32:src/Riscv.cpp ****         uint64 volatile sstatus = readSstatus();
 216              		.loc 1 32 9 is_stmt 1
 217              	.LBB148:
 218              	.LBB149:
 184:src/../h/Riscv.hpp ****     __asm__ volatile ("csrr %[sepc], sepc" : [sepc] "=r"(sepc));
 219              		.loc 2 184 5
 185:src/../h/Riscv.hpp ****     return sepc;
 220              		.loc 2 185 5
 185:src/../h/Riscv.hpp ****     return sepc;
 221              		.loc 2 185 64 is_stmt 0
 222              	#APP
 223              	# 185 "src/../h/Riscv.hpp" 1
 224              		csrr a5, sepc
 225              	# 0 "" 2
 226              	#NO_APP
 227 00e8 2338F4F8 		sd	a5,-112(s0)
 186:src/../h/Riscv.hpp **** }
 228              		.loc 2 186 5 is_stmt 1
 186:src/../h/Riscv.hpp **** }
 229              		.loc 2 186 12 is_stmt 0
 230 00ec 833704F9 		ld	a5,-112(s0)
 231              	.LBE149:
 232              	.LBE148:
  32:src/Riscv.cpp ****         uint64 volatile sstatus = readSstatus();
 233              		.loc 1 32 43
 234 00f0 93874700 		addi	a5,a5,4
  32:src/Riscv.cpp ****         uint64 volatile sstatus = readSstatus();
 235              		.loc 1 32 45
 236 00f4 2334F4F4 		sd	a5,-184(s0)
  33:src/Riscv.cpp **** 
 237              		.loc 1 33 9 is_stmt 1
 238              	.LBB150:
 239              	.LBB151:
 120:src/../h/Riscv.hpp ****     __asm__ volatile ("csrr %[sstatus], sstatus" : [sstatus] "=r"(sstatus));
 240              		.loc 2 120 5
 121:src/../h/Riscv.hpp ****     return sstatus;
 241              		.loc 2 121 5
 121:src/../h/Riscv.hpp ****     return sstatus;
 242              		.loc 2 121 76 is_stmt 0
 243              	#APP
 244              	# 121 "src/../h/Riscv.hpp" 1
 245              		csrr a5, sstatus
 246              	# 0 "" 2
 247              	#NO_APP
 248 00fc 2334F4F8 		sd	a5,-120(s0)
 122:src/../h/Riscv.hpp **** }
 249              		.loc 2 122 5 is_stmt 1
 122:src/../h/Riscv.hpp **** }
 250              		.loc 2 122 12 is_stmt 0
 251 0100 833784F8 		ld	a5,-120(s0)
 252              	.LBE151:
 253              	.LBE150:
  33:src/Riscv.cpp **** 
 254              		.loc 1 33 47
 255 0104 2338F4F4 		sd	a5,-176(s0)
  35:src/Riscv.cpp ****         __asm__ volatile ("ld %[sysCallCode],0(sp)" : [sysCallCode] "=r"(sysCallCode));
 256              		.loc 1 35 9 is_stmt 1
GAS LISTING /tmp/ccScpZU8.s 			page 14


  36:src/Riscv.cpp **** 
 257              		.loc 1 36 9
  36:src/Riscv.cpp **** 
 258              		.loc 1 36 87 is_stmt 0
 259              	#APP
 260              	# 36 "src/Riscv.cpp" 1
 261              		ld a5,0(sp)
 262              	# 0 "" 2
 263              	#NO_APP
 264 010c 233CF4F4 		sd	a5,-168(s0)
  38:src/Riscv.cpp ****             // sistemski poziv: mem_alloc
 265              		.loc 1 38 9 is_stmt 1
 266              	.LBB152:
  38:src/Riscv.cpp ****             // sistemski poziv: mem_alloc
 267              		.loc 1 38 25 is_stmt 0
 268 0110 033784F5 		ld	a4,-168(s0)
  38:src/Riscv.cpp ****             // sistemski poziv: mem_alloc
 269              		.loc 1 38 9
 270 0114 93071000 		li	a5,1
 271 0118 6308F70C 		beq	a4,a5,.L37
 272              	.LBE152:
 273              	.LBE147:
 274              	.LBE334:
  50:src/Riscv.cpp ****             // sistemski poziv: mem_free
 275              		.loc 1 50 16 is_stmt 1
 276              	.LBB335:
 277              	.LBB314:
 278              	.LBB295:
 279              	.LBB153:
  50:src/Riscv.cpp ****             // sistemski poziv: mem_free
 280              		.loc 1 50 32 is_stmt 0
 281 011c 033784F5 		ld	a4,-168(s0)
  50:src/Riscv.cpp ****             // sistemski poziv: mem_free
 282              		.loc 1 50 16
 283 0120 93072000 		li	a5,2
 284 0124 6306F712 		beq	a4,a5,.L38
 285              	.LBE153:
 286              	.LBE295:
 287              	.LBE314:
 288              	.LBE335:
  62:src/Riscv.cpp ****             // sistemski poziv: thread_create
 289              		.loc 1 62 16 is_stmt 1
 290              	.LBB336:
 291              	.LBB315:
 292              	.LBB296:
 293              	.LBB280:
 294              	.LBB154:
  62:src/Riscv.cpp ****             // sistemski poziv: thread_create
 295              		.loc 1 62 32 is_stmt 0
 296 0128 033784F5 		ld	a4,-168(s0)
  62:src/Riscv.cpp ****             // sistemski poziv: thread_create
 297              		.loc 1 62 16
 298 012c 93071001 		li	a5,17
 299 0130 6302F714 		beq	a4,a5,.L39
 300              	.LBE154:
 301              	.LBE280:
 302              	.LBE296:
GAS LISTING /tmp/ccScpZU8.s 			page 15


 303              	.LBE315:
 304              	.LBE336:
  77:src/Riscv.cpp ****             // sistemski poziv: thread_exit
 305              		.loc 1 77 16 is_stmt 1
 306              	.LBB337:
 307              	.LBB316:
 308              	.LBB297:
 309              	.LBB281:
 310              	.LBB266:
 311              	.LBB155:
  77:src/Riscv.cpp ****             // sistemski poziv: thread_exit
 312              		.loc 1 77 32 is_stmt 0
 313 0134 033784F5 		ld	a4,-168(s0)
  77:src/Riscv.cpp ****             // sistemski poziv: thread_exit
 314              		.loc 1 77 16
 315 0138 93072001 		li	a5,18
 316 013c 630EF714 		beq	a4,a5,.L40
 317              	.LBE155:
 318              	.LBE266:
 319              	.LBE281:
 320              	.LBE297:
 321              	.LBE316:
 322              	.LBE337:
  85:src/Riscv.cpp ****             // sistemski poziv: thread_dispatch
 323              		.loc 1 85 16 is_stmt 1
 324              	.LBB338:
 325              	.LBB317:
 326              	.LBB298:
 327              	.LBB282:
 328              	.LBB267:
 329              	.LBB253:
 330              	.LBB156:
  85:src/Riscv.cpp ****             // sistemski poziv: thread_dispatch
 331              		.loc 1 85 32 is_stmt 0
 332 0140 033784F5 		ld	a4,-168(s0)
  85:src/Riscv.cpp ****             // sistemski poziv: thread_dispatch
 333              		.loc 1 85 16
 334 0144 93073001 		li	a5,19
 335 0148 6308F716 		beq	a4,a5,.L41
 336              	.LBE156:
 337              	.LBE253:
 338              	.LBE267:
 339              	.LBE282:
 340              	.LBE298:
 341              	.LBE317:
 342              	.LBE338:
  92:src/Riscv.cpp ****             // sistemski poziv: thread_create_cpp
 343              		.loc 1 92 16 is_stmt 1
 344              	.LBB339:
 345              	.LBB318:
 346              	.LBB299:
 347              	.LBB283:
 348              	.LBB268:
 349              	.LBB254:
 350              	.LBB240:
 351              	.LBB157:
  92:src/Riscv.cpp ****             // sistemski poziv: thread_create_cpp
GAS LISTING /tmp/ccScpZU8.s 			page 16


 352              		.loc 1 92 32 is_stmt 0
 353 014c 033784F5 		ld	a4,-168(s0)
  92:src/Riscv.cpp ****             // sistemski poziv: thread_create_cpp
 354              		.loc 1 92 16
 355 0150 93074001 		li	a5,20
 356 0154 6308F716 		beq	a4,a5,.L42
 357              	.LBE157:
 358              	.LBE240:
 359              	.LBE254:
 360              	.LBE268:
 361              	.LBE283:
 362              	.LBE299:
 363              	.LBE318:
 364              	.LBE339:
 107:src/Riscv.cpp ****             // sistemski poziv: scheduler_put
 365              		.loc 1 107 16 is_stmt 1
 366              	.LBB340:
 367              	.LBB319:
 368              	.LBB300:
 369              	.LBB284:
 370              	.LBB269:
 371              	.LBB255:
 372              	.LBB241:
 373              	.LBB230:
 374              	.LBB158:
 107:src/Riscv.cpp ****             // sistemski poziv: scheduler_put
 375              		.loc 1 107 32 is_stmt 0
 376 0158 033784F5 		ld	a4,-168(s0)
 107:src/Riscv.cpp ****             // sistemski poziv: scheduler_put
 377              		.loc 1 107 16
 378 015c 93075001 		li	a5,21
 379 0160 6304F718 		beq	a4,a5,.L43
 380              	.LBE158:
 381              	.LBE230:
 382              	.LBE241:
 383              	.LBE255:
 384              	.LBE269:
 385              	.LBE284:
 386              	.LBE300:
 387              	.LBE319:
 388              	.LBE340:
 116:src/Riscv.cpp ****             // sistemski poziv: getThreadId
 389              		.loc 1 116 16 is_stmt 1
 390              	.LBB341:
 391              	.LBB320:
 392              	.LBB301:
 393              	.LBB285:
 394              	.LBB270:
 395              	.LBB256:
 396              	.LBB242:
 397              	.LBB231:
 398              	.LBB220:
 399              	.LBB159:
 116:src/Riscv.cpp ****             // sistemski poziv: getThreadId
 400              		.loc 1 116 32 is_stmt 0
 401 0164 033784F5 		ld	a4,-168(s0)
 116:src/Riscv.cpp ****             // sistemski poziv: getThreadId
GAS LISTING /tmp/ccScpZU8.s 			page 17


 402              		.loc 1 116 16
 403 0168 93076001 		li	a5,22
 404 016c 630CF718 		beq	a4,a5,.L44
 405              	.LBE159:
 406              	.LBE220:
 407              	.LBE231:
 408              	.LBE242:
 409              	.LBE256:
 410              	.LBE270:
 411              	.LBE285:
 412              	.LBE301:
 413              	.LBE320:
 414              	.LBE341:
 127:src/Riscv.cpp ****             // sistemski poziv: sem_open
 415              		.loc 1 127 14 is_stmt 1
 416              	.LBB342:
 417              	.LBB321:
 418              	.LBB302:
 419              	.LBB286:
 420              	.LBB271:
 421              	.LBB257:
 422              	.LBB243:
 423              	.LBB232:
 424              	.LBB221:
 425              	.LBB211:
 426              	.LBB160:
 127:src/Riscv.cpp ****             // sistemski poziv: sem_open
 427              		.loc 1 127 30 is_stmt 0
 428 0170 033784F5 		ld	a4,-168(s0)
 127:src/Riscv.cpp ****             // sistemski poziv: sem_open
 429              		.loc 1 127 14
 430 0174 93071002 		li	a5,33
 431 0178 630AF71A 		beq	a4,a5,.L45
 432              	.LBE160:
 433              	.LBE211:
 434              	.LBE221:
 435              	.LBE232:
 436              	.LBE243:
 437              	.LBE257:
 438              	.LBE271:
 439              	.LBE286:
 440              	.LBE302:
 441              	.LBE321:
 442              	.LBE342:
 138:src/Riscv.cpp ****             // sistemski poziv: sem_close
 443              		.loc 1 138 16 is_stmt 1
 444              	.LBB343:
 445              	.LBB322:
 446              	.LBB303:
 447              	.LBB287:
 448              	.LBB272:
 449              	.LBB258:
 450              	.LBB244:
 451              	.LBB233:
 452              	.LBB222:
 453              	.LBB212:
 454              	.LBB201:
GAS LISTING /tmp/ccScpZU8.s 			page 18


 455              	.LBB161:
 138:src/Riscv.cpp ****             // sistemski poziv: sem_close
 456              		.loc 1 138 32 is_stmt 0
 457 017c 033784F5 		ld	a4,-168(s0)
 138:src/Riscv.cpp ****             // sistemski poziv: sem_close
 458              		.loc 1 138 16
 459 0180 93072002 		li	a5,34
 460 0184 6304F71C 		beq	a4,a5,.L46
 461              	.LBE161:
 462              	.LBE201:
 463              	.LBE212:
 464              	.LBE222:
 465              	.LBE233:
 466              	.LBE244:
 467              	.LBE258:
 468              	.LBE272:
 469              	.LBE287:
 470              	.LBE303:
 471              	.LBE322:
 472              	.LBE343:
 149:src/Riscv.cpp ****             // sistemski poziv: sem_wait
 473              		.loc 1 149 16 is_stmt 1
 474              	.LBB344:
 475              	.LBB323:
 476              	.LBB304:
 477              	.LBB288:
 478              	.LBB273:
 479              	.LBB259:
 480              	.LBB245:
 481              	.LBB234:
 482              	.LBB223:
 483              	.LBB213:
 484              	.LBB202:
 485              	.LBB194:
 486              	.LBB162:
 149:src/Riscv.cpp ****             // sistemski poziv: sem_wait
 487              		.loc 1 149 32 is_stmt 0
 488 0188 033784F5 		ld	a4,-168(s0)
 149:src/Riscv.cpp ****             // sistemski poziv: sem_wait
 489              		.loc 1 149 16
 490 018c 93073002 		li	a5,35
 491 0190 6308F71C 		beq	a4,a5,.L47
 492              	.LBE162:
 493              	.LBE194:
 494              	.LBE202:
 495              	.LBE213:
 496              	.LBE223:
 497              	.LBE234:
 498              	.LBE245:
 499              	.LBE259:
 500              	.LBE273:
 501              	.LBE288:
 502              	.LBE304:
 503              	.LBE323:
 504              	.LBE344:
 161:src/Riscv.cpp ****             // sistemski poziv: sem_signal
 505              		.loc 1 161 16 is_stmt 1
GAS LISTING /tmp/ccScpZU8.s 			page 19


 506              	.LBB345:
 507              	.LBB324:
 508              	.LBB305:
 509              	.LBB289:
 510              	.LBB274:
 511              	.LBB260:
 512              	.LBB246:
 513              	.LBB235:
 514              	.LBB224:
 515              	.LBB214:
 516              	.LBB203:
 517              	.LBB195:
 518              	.LBB188:
 519              	.LBB163:
 161:src/Riscv.cpp ****             // sistemski poziv: sem_signal
 520              		.loc 1 161 32 is_stmt 0
 521 0194 033784F5 		ld	a4,-168(s0)
 161:src/Riscv.cpp ****             // sistemski poziv: sem_signal
 522              		.loc 1 161 16
 523 0198 93074002 		li	a5,36
 524 019c 630AF71E 		beq	a4,a5,.L48
 525              	.LBE163:
 526              	.LBE188:
 527              	.LBE195:
 528              	.LBE203:
 529              	.LBE214:
 530              	.LBE224:
 531              	.LBE235:
 532              	.LBE246:
 533              	.LBE260:
 534              	.LBE274:
 535              	.LBE289:
 536              	.LBE305:
 537              	.LBE324:
 538              	.LBE345:
 170:src/Riscv.cpp ****             // sistemski poziv: time_sleep
 539              		.loc 1 170 16 is_stmt 1
 540              	.LBB346:
 541              	.LBB325:
 542              	.LBB306:
 543              	.LBB290:
 544              	.LBB275:
 545              	.LBB261:
 546              	.LBB247:
 547              	.LBB236:
 548              	.LBB225:
 549              	.LBB215:
 550              	.LBB204:
 551              	.LBB196:
 552              	.LBB189:
 553              	.LBB181:
 554              	.LBB164:
 170:src/Riscv.cpp ****             // sistemski poziv: time_sleep
 555              		.loc 1 170 32 is_stmt 0
 556 01a0 033784F5 		ld	a4,-168(s0)
 170:src/Riscv.cpp ****             // sistemski poziv: time_sleep
 557              		.loc 1 170 16
GAS LISTING /tmp/ccScpZU8.s 			page 20


 558 01a4 93071003 		li	a5,49
 559 01a8 630CF71E 		beq	a4,a5,.L49
 560              	.LBE164:
 561              	.LBE181:
 562              	.LBE189:
 563              	.LBE196:
 564              	.LBE204:
 565              	.LBE215:
 566              	.LBE225:
 567              	.LBE236:
 568              	.LBE247:
 569              	.LBE261:
 570              	.LBE275:
 571              	.LBE290:
 572              	.LBE306:
 573              	.LBE325:
 574              	.LBE346:
 185:src/Riscv.cpp ****             // sistemski poziv: getc
 575              		.loc 1 185 16 is_stmt 1
 576              	.LBB347:
 577              	.LBB326:
 578              	.LBB307:
 579              	.LBB291:
 580              	.LBB276:
 581              	.LBB262:
 582              	.LBB248:
 583              	.LBB237:
 584              	.LBB226:
 585              	.LBB216:
 586              	.LBB205:
 587              	.LBB197:
 588              	.LBB190:
 589              	.LBB182:
 590              	.LBB177:
 591              	.LBB165:
 185:src/Riscv.cpp ****             // sistemski poziv: getc
 592              		.loc 1 185 32 is_stmt 0
 593 01ac 033784F5 		ld	a4,-168(s0)
 185:src/Riscv.cpp ****             // sistemski poziv: getc
 594              		.loc 1 185 16
 595 01b0 93071004 		li	a5,65
 596 01b4 6304F720 		beq	a4,a5,.L50
 597              	.LBE165:
 598              	.LBE177:
 599              	.LBE182:
 600              	.LBE190:
 601              	.LBE197:
 602              	.LBE205:
 603              	.LBE216:
 604              	.LBE226:
 605              	.LBE237:
 606              	.LBE248:
 607              	.LBE262:
 608              	.LBE276:
 609              	.LBE291:
 610              	.LBE307:
 611              	.LBE326:
GAS LISTING /tmp/ccScpZU8.s 			page 21


 612              	.LBE347:
 192:src/Riscv.cpp ****             // sistemski poziv: putc
 613              		.loc 1 192 16 is_stmt 1
 614              	.LBB348:
 615              	.LBB327:
 616              	.LBB308:
 617              	.LBB292:
 618              	.LBB277:
 619              	.LBB263:
 620              	.LBB249:
 621              	.LBB238:
 622              	.LBB227:
 623              	.LBB217:
 624              	.LBB206:
 625              	.LBB198:
 626              	.LBB191:
 627              	.LBB183:
 628              	.LBB178:
 629              	.LBB174:
 630              	.LBB166:
 192:src/Riscv.cpp ****             // sistemski poziv: putc
 631              		.loc 1 192 32 is_stmt 0
 632 01b8 033784F5 		ld	a4,-168(s0)
 192:src/Riscv.cpp ****             // sistemski poziv: putc
 633              		.loc 1 192 16
 634 01bc 93072004 		li	a5,66
 635 01c0 630AF720 		beq	a4,a5,.L51
 200:src/Riscv.cpp ****             // sistemski poziv: switchSupervisorToUser
 636              		.loc 1 200 16 is_stmt 1
 200:src/Riscv.cpp ****             // sistemski poziv: switchSupervisorToUser
 637              		.loc 1 200 32 is_stmt 0
 638 01c4 033784F5 		ld	a4,-168(s0)
 200:src/Riscv.cpp ****             // sistemski poziv: switchSupervisorToUser
 639              		.loc 1 200 16
 640 01c8 93070005 		li	a5,80
 641 01cc 6304F722 		beq	a4,a5,.L52
 205:src/Riscv.cpp ****             // sistemski poziv: switchUserToSupervisor
 642              		.loc 1 205 16 is_stmt 1
 205:src/Riscv.cpp ****             // sistemski poziv: switchUserToSupervisor
 643              		.loc 1 205 32 is_stmt 0
 644 01d0 033784F5 		ld	a4,-168(s0)
 205:src/Riscv.cpp ****             // sistemski poziv: switchUserToSupervisor
 645              		.loc 1 205 16
 646 01d4 93071005 		li	a5,81
 647 01d8 6318F702 		bne	a4,a5,.L8
 208:src/Riscv.cpp **** 
 648              		.loc 1 208 13 is_stmt 1
 649              	.LVL6:
 650              	.LBB167:
 651              	.LBB168:
 130:src/../h/Riscv.hpp **** }
 652              		.loc 2 130 5
 130:src/../h/Riscv.hpp **** }
 653              		.loc 2 130 68 is_stmt 0
 654 01dc 93070010 		li	a5,256
 655              	#APP
 656              	# 130 "src/../h/Riscv.hpp" 1
GAS LISTING /tmp/ccScpZU8.s 			page 22


 131:src/../h/Riscv.hpp **** 
 657              		csrs sstatus, a5
 658              	# 0 "" 2
 659              		.loc 2 131 1
 660              	#NO_APP
 661 01e4 6F004002 		j	.L8
 662              	.LVL7:
 663              	.L37:
 664              	.LBE168:
 665              	.LBE167:
 666              	.LBE166:
 667              	.LBE174:
 668              	.LBE178:
 669              	.LBE183:
 670              	.LBE191:
 671              	.LBE198:
 672              	.LBE206:
 673              	.LBE217:
 674              	.LBE227:
 675              	.LBE238:
 676              	.LBE249:
 677              	.LBE263:
 678              	.LBE277:
 679              	.LBE292:
 680              	.LBB293:
  41:src/Riscv.cpp ****             __asm__ volatile ("ld %[numberOfBlocks],8(sp)" : [numberOfBlocks] "=r"(numberOfBlocks))
 681              		.loc 1 41 13 is_stmt 1
  42:src/Riscv.cpp **** 
 682              		.loc 1 42 13
  42:src/Riscv.cpp **** 
 683              		.loc 1 42 100 is_stmt 0
 684              	#APP
 685              	# 42 "src/Riscv.cpp" 1
 686              		ld a5,8(sp)
 687              	# 0 "" 2
 688              	#NO_APP
 689 01ec 2330F4F6 		sd	a5,-160(s0)
  45:src/Riscv.cpp **** 
 690              		.loc 1 45 13 is_stmt 1
  45:src/Riscv.cpp **** 
 691              		.loc 1 45 66 is_stmt 0
 692 01f0 97000000 		call	_ZN15MemoryAllocator11getInstanceEv@plt
 692      E7800000 
 693              	.LVL8:
  45:src/Riscv.cpp **** 
 694              		.loc 1 45 83
 695 01f8 833504F6 		ld	a1,-160(s0)
 696 01fc 97000000 		call	_ZN15MemoryAllocator15allocateSegmentEm@plt
 696      E7800000 
 697              	.LVL9:
  48:src/Riscv.cpp **** 
 698              		.loc 1 48 13 is_stmt 1
  48:src/Riscv.cpp **** 
 699              		.loc 1 48 101 is_stmt 0
 700              	#APP
 701              	# 48 "src/Riscv.cpp" 1
 702              		mv a0,a0
GAS LISTING /tmp/ccScpZU8.s 			page 23


 703              	# 0 "" 2
 704              	.LVL10:
 705              	#NO_APP
 706              	.L8:
 707              	.LBE293:
 708              	.LBE308:
 217:src/Riscv.cpp **** 
 709              		.loc 1 217 9 is_stmt 1
 217:src/Riscv.cpp **** 
 710              		.loc 1 217 44 is_stmt 0
 711              	#APP
 712              	# 217 "src/Riscv.cpp" 1
 220:src/Riscv.cpp ****         if (sysCallCode != 0x50 && sysCallCode != 0x51) {
 713              		sd a0,10*8(s0)
 714              	# 0 "" 2
 715              		.loc 1 220 9 is_stmt 1
 220:src/Riscv.cpp ****         if (sysCallCode != 0x50 && sysCallCode != 0x51) {
 716              		.loc 1 220 18 is_stmt 0
 717              	#NO_APP
 718 020c 833784F4 		ld	a5,-184(s0)
 719              	.LVL11:
 720              	.LBB309:
 721              	.LBB310:
 190:src/../h/Riscv.hpp **** }
 722              		.loc 2 190 5 is_stmt 1
 190:src/../h/Riscv.hpp **** }
 723              		.loc 2 190 65 is_stmt 0
 724              	#APP
 725              	# 190 "src/../h/Riscv.hpp" 1
 726              		csrw sepc, a5
 727              	# 0 "" 2
 728              	.LVL12:
 729              	#NO_APP
 730              	.LBE310:
 731              	.LBE309:
 221:src/Riscv.cpp ****             writeSstatus(sstatus);
 732              		.loc 1 221 9 is_stmt 1
 221:src/Riscv.cpp ****             writeSstatus(sstatus);
 733              		.loc 1 221 25 is_stmt 0
 734 0214 033784F5 		ld	a4,-168(s0)
 221:src/Riscv.cpp ****             writeSstatus(sstatus);
 735              		.loc 1 221 33
 736 0218 93070005 		li	a5,80
 737 021c 630CF700 		beq	a4,a5,.L25
 221:src/Riscv.cpp ****             writeSstatus(sstatus);
 738              		.loc 1 221 48 discriminator 1
 739 0220 033784F5 		ld	a4,-168(s0)
 221:src/Riscv.cpp ****             writeSstatus(sstatus);
 740              		.loc 1 221 33 discriminator 1
 741 0224 93071005 		li	a5,81
 742 0228 6306F700 		beq	a4,a5,.L25
 222:src/Riscv.cpp ****         }
 743              		.loc 1 222 13 is_stmt 1
 222:src/Riscv.cpp ****         }
 744              		.loc 1 222 25 is_stmt 0
 745 022c 833704F5 		ld	a5,-176(s0)
 746              	.LVL13:
GAS LISTING /tmp/ccScpZU8.s 			page 24


 747              	.LBB311:
 748              	.LBB312:
 126:src/../h/Riscv.hpp **** }
 749              		.loc 2 126 5 is_stmt 1
 126:src/../h/Riscv.hpp **** }
 750              		.loc 2 126 77 is_stmt 0
 751              	#APP
 752              	# 126 "src/../h/Riscv.hpp" 1
 753              		csrw sstatus, a5
 754              	# 0 "" 2
 755              	.LVL14:
 756              	#NO_APP
 757              	.L25:
 758              	.LBE312:
 759              	.LBE311:
 760              	.LBE327:
 761              	.LBE348:
 271:src/Riscv.cpp ****     }
 272:src/Riscv.cpp **** 
 273:src/Riscv.cpp ****     // ciscenje steka - vise nisu potrebni parametri sistemskog poziva/prekida/izuzetka na steku po
 274:src/Riscv.cpp ****     __asm__ volatile ("addi sp,sp,64");
 762              		.loc 1 274 5 is_stmt 1
 763              		.loc 1 274 39 is_stmt 0
 764              	#APP
 765              	# 274 "src/Riscv.cpp" 1
 275              	
 276:src/Riscv.cpp **** }...
 766              		addi sp,sp,64
 767              	# 0 "" 2
 768              		.loc 1 276 1
 769              	#NO_APP
 770 0238 8330810B 		ld	ra,184(sp)
 771              		.cfi_remember_state
 772              		.cfi_restore 1
 773 023c 0334010B 		ld	s0,176(sp)
 774              		.cfi_restore 8
 775              		.cfi_def_cfa 2, 192
 776 0240 8334810A 		ld	s1,168(sp)
 777              		.cfi_restore 9
 778 0244 0339010A 		ld	s2,160(sp)
 779              		.cfi_restore 18
 780 0248 1301010C 		addi	sp,sp,192
 781              		.cfi_def_cfa_offset 0
 782 024c 67800000 		jr	ra
 783              	.L38:
 784              		.cfi_restore_state
 785              	.LBB349:
 786              	.LBB328:
 787              	.LBB313:
 788              	.LBB294:
 789              	.LBB278:
  53:src/Riscv.cpp ****             uint64* volatile freeThisMemory; // ovde cemo smestiti adresu memorije koju treba oslob
 790              		.loc 1 53 13 is_stmt 1
  54:src/Riscv.cpp ****             __asm__ volatile ("ld %[freeThisMemory],8(sp)" : [freeThisMemory] "=r"(freeThisMemory))
 791              		.loc 1 54 13
  54:src/Riscv.cpp ****             __asm__ volatile ("ld %[freeThisMemory],8(sp)" : [freeThisMemory] "=r"(freeThisMemory))
 792              		.loc 1 54 100 is_stmt 0
GAS LISTING /tmp/ccScpZU8.s 			page 25


 793              	#APP
 794              	# 54 "src/Riscv.cpp" 1
 795              		ld a5,8(sp)
 796              	# 0 "" 2
 797              	#NO_APP
 798 0254 2334F4F6 		sd	a5,-152(s0)
  57:src/Riscv.cpp ****             int successInfo = MemoryAllocator::getInstance().deallocateSegment(freeThisMemory);
 799              		.loc 1 57 13 is_stmt 1
  57:src/Riscv.cpp ****             int successInfo = MemoryAllocator::getInstance().deallocateSegment(freeThisMemory);
 800              		.loc 1 57 60 is_stmt 0
 801 0258 97000000 		call	_ZN15MemoryAllocator11getInstanceEv@plt
 801      E7800000 
 802              	.LVL15:
  57:src/Riscv.cpp ****             int successInfo = MemoryAllocator::getInstance().deallocateSegment(freeThisMemory);
 803              		.loc 1 57 79
 804 0260 833584F6 		ld	a1,-152(s0)
 805 0264 97000000 		call	_ZN15MemoryAllocator17deallocateSegmentEPv@plt
 805      E7800000 
 806              	.LVL16:
  60:src/Riscv.cpp ****             __asm__ volatile ("mv a0,%[successInfo]" : : [successInfo] "r"(successInfo));
 807              		.loc 1 60 13 is_stmt 1
  60:src/Riscv.cpp ****             __asm__ volatile ("mv a0,%[successInfo]" : : [successInfo] "r"(successInfo));
 808              		.loc 1 60 89 is_stmt 0
 809              	#APP
 810              	# 60 "src/Riscv.cpp" 1
 811              		mv a0,a0
 812              	# 0 "" 2
 813              	#NO_APP
 814              	.LBE278:
 815 0270 6FF09FF9 		j	.L8
 816              	.LVL17:
 817              	.L39:
 818              	.LBB279:
 819              	.LBB264:
  65:src/Riscv.cpp ****             TCB** handle; // ovde ce biti smestena adresa na kojoj se nalazi vrednost pokazivaca ko
 820              		.loc 1 65 13 is_stmt 1
  66:src/Riscv.cpp ****             __asm__ volatile ("ld %[handle],8(sp)" : [handle] "=r"(handle)); // citanje iz registra
 821              		.loc 1 66 13
  66:src/Riscv.cpp ****             __asm__ volatile ("ld %[handle],8(sp)" : [handle] "=r"(handle)); // citanje iz registra
 822              		.loc 1 66 76 is_stmt 0
 823              	#APP
 824              	# 66 "src/Riscv.cpp" 1
 825              		ld s1,8(sp)
 826              	# 0 "" 2
 827              	.LVL18:
  67:src/Riscv.cpp ****             void (*startRoutine)(void*); // ovde cemo smestiti adresu funkcije koju novokreirana ni
 828              		.loc 1 67 13 is_stmt 1
  68:src/Riscv.cpp ****             __asm__ volatile ("ld %[startRoutine],16(sp)" : [startRoutine] "=r"(startRoutine));
 829              		.loc 1 68 13
  68:src/Riscv.cpp ****             __asm__ volatile ("ld %[startRoutine],16(sp)" : [startRoutine] "=r"(startRoutine));
 830              		.loc 1 68 95 is_stmt 0
 831              	# 68 "src/Riscv.cpp" 1
 832              		ld a0,16(sp)
 833              	# 0 "" 2
 834              	.LVL19:
  69:src/Riscv.cpp ****             void* arg; // ovde smestamo adresu argumenta koji treba proslediti funkciji cija je adr
 835              		.loc 1 69 13 is_stmt 1
GAS LISTING /tmp/ccScpZU8.s 			page 26


  70:src/Riscv.cpp ****             __asm__ volatile ("ld %[arg],24(sp)" : [arg] "=r"(arg));
 836              		.loc 1 70 13
  70:src/Riscv.cpp ****             __asm__ volatile ("ld %[arg],24(sp)" : [arg] "=r"(arg));
 837              		.loc 1 70 68 is_stmt 0
 838              	# 70 "src/Riscv.cpp" 1
 839              		ld a1,24(sp)
 840              	# 0 "" 2
 841              	.LVL20:
  71:src/Riscv.cpp ****             void* stack; // ovde smestamo adresu steka koji je alociran za nit koju treba napraviti
 842              		.loc 1 71 13 is_stmt 1
  72:src/Riscv.cpp ****             __asm__ volatile ("ld %[stack],32(sp)" : [stack] "=r"(stack));
 843              		.loc 1 72 13
  72:src/Riscv.cpp ****             __asm__ volatile ("ld %[stack],32(sp)" : [stack] "=r"(stack));
 844              		.loc 1 72 74 is_stmt 0
 845              	# 72 "src/Riscv.cpp" 1
 846              		ld a2,32(sp)
 847              	# 0 "" 2
 848              	.LVL21:
  75:src/Riscv.cpp ****             *handle = TCB::createThread(startRoutine, arg, stack, false);
 849              		.loc 1 75 13 is_stmt 1
  75:src/Riscv.cpp ****             *handle = TCB::createThread(startRoutine, arg, stack, false);
 850              		.loc 1 75 40 is_stmt 0
 851              	#NO_APP
 852 0284 93060000 		li	a3,0
 853 0288 97000000 		call	_ZN3TCB12createThreadEPFvPvES0_S0_b@plt
 853      E7800000 
 854              	.LVL22:
  75:src/Riscv.cpp ****             *handle = TCB::createThread(startRoutine, arg, stack, false);
 855              		.loc 1 75 21
 856 0290 23B0A400 		sd	a0,0(s1)
 857              	.LBE264:
 858 0294 6FF05FF7 		j	.L8
 859              	.LVL23:
 860              	.L40:
 861              	.LBB265:
  81:src/Riscv.cpp ****             TCB::runningThread->setFinished(true);
 862              		.loc 1 81 13 is_stmt 1
  81:src/Riscv.cpp ****             TCB::runningThread->setFinished(true);
 863              		.loc 1 81 44 is_stmt 0
 864 0298 97070000 		la	a5,_ZN3TCB13runningThreadE
 864      83B70700 
 865 02a0 83B70700 		ld	a5,0(a5)
 866              	.LVL24:
 867              	.LBB250:
 868              	.LBB251:
 869              		.file 3 "src/../h/TCB.hpp"
   1:src/../h/TCB.hpp **** #ifndef TCB_HPP
   2:src/../h/TCB.hpp **** #define TCB_HPP
   3:src/../h/TCB.hpp **** 
   4:src/../h/TCB.hpp **** #include "../lib/hw.h"
   5:src/../h/TCB.hpp **** #include "Scheduler.hpp"
   6:src/../h/TCB.hpp **** #include "Riscv.hpp"
   7:src/../h/TCB.hpp **** 
   8:src/../h/TCB.hpp **** // klasa TCB predstavlja apstrakciju niti
   9:src/../h/TCB.hpp **** class TCB {
  10:src/../h/TCB.hpp **** public:
  11:src/../h/TCB.hpp ****     // definisanje korisnickog tipa Body - predstavljace pokazivac na void funkciju koja prima void
GAS LISTING /tmp/ccScpZU8.s 			page 27


  12:src/../h/TCB.hpp ****     using Body = void (*)(void*);
  13:src/../h/TCB.hpp **** 
  14:src/../h/TCB.hpp ****     // ova funkcija treba da napravi novu nit koja ce da izvrsava telo funkcije date parametrom bod
  15:src/../h/TCB.hpp ****     // ako se prosledi nullptr, to znaci da treba napraviti nit koja ce da izvrsava main funkciju
  16:src/../h/TCB.hpp ****     // u tom slucaju, u konstrukciji te niti ne treba je davati scheduleru na raspolaganje, jer bi 
  17:src/../h/TCB.hpp ****     // zelimo da bas ta nit main-a nastavi da se izvrsava
  18:src/../h/TCB.hpp ****     static TCB* createThread(Body body, void* arg, void* stack, bool cppApi);
  19:src/../h/TCB.hpp **** 
  20:src/../h/TCB.hpp ****     // obezbedjena enkapsulacija - atribut finished je privatan i moze se citati samo kroz getter m
  21:src/../h/TCB.hpp ****     bool getFinished() const { return finished; }
  22:src/../h/TCB.hpp ****     void setFinished(bool value) { finished = value; }
 870              		.loc 3 22 36 is_stmt 1
 871              		.loc 3 22 45 is_stmt 0
 872 02a4 13071000 		li	a4,1
 873 02a8 2388E702 		sb	a4,48(a5)
 874              	.LVL25:
 875              	.LBE251:
 876              	.LBE250:
  83:src/Riscv.cpp ****             TCB::dispatch();
 877              		.loc 1 83 13 is_stmt 1
  83:src/Riscv.cpp ****             TCB::dispatch();
 878              		.loc 1 83 26 is_stmt 0
 879 02ac 97000000 		call	_ZN3TCB8dispatchEv@plt
 879      E7800000 
 880              	.LVL26:
 881 02b4 6FF05FF5 		j	.L8
 882              	.L41:
 883              	.LBB252:
  90:src/Riscv.cpp ****             TCB::dispatch();
 884              		.loc 1 90 13 is_stmt 1
  90:src/Riscv.cpp ****             TCB::dispatch();
 885              		.loc 1 90 26 is_stmt 0
 886 02b8 97000000 		call	_ZN3TCB8dispatchEv@plt
 886      E7800000 
 887              	.LVL27:
 888 02c0 6FF09FF4 		j	.L8
 889              	.L42:
 890              	.LBB239:
 891              	.LBB228:
  95:src/Riscv.cpp ****             TCB** handle; // ovde ce biti smestena adresa na kojoj se nalazi vrednost pokazivaca ko
 892              		.loc 1 95 13 is_stmt 1
  96:src/Riscv.cpp ****             __asm__ volatile ("ld %[handle],8(sp)" : [handle] "=r"(handle)); // citanje iz registra
 893              		.loc 1 96 13
  96:src/Riscv.cpp ****             __asm__ volatile ("ld %[handle],8(sp)" : [handle] "=r"(handle)); // citanje iz registra
 894              		.loc 1 96 76 is_stmt 0
 895              	#APP
 896              	# 96 "src/Riscv.cpp" 1
 897              		ld s1,8(sp)
 898              	# 0 "" 2
 899              	.LVL28:
  97:src/Riscv.cpp ****             void (*startRoutine)(void*); // ovde cemo smestiti adresu funkcije koju novokreirana ni
 900              		.loc 1 97 13 is_stmt 1
  98:src/Riscv.cpp ****             __asm__ volatile ("ld %[startRoutine],16(sp)" : [startRoutine] "=r"(startRoutine));
 901              		.loc 1 98 13
  98:src/Riscv.cpp ****             __asm__ volatile ("ld %[startRoutine],16(sp)" : [startRoutine] "=r"(startRoutine));
 902              		.loc 1 98 95 is_stmt 0
 903              	# 98 "src/Riscv.cpp" 1
GAS LISTING /tmp/ccScpZU8.s 			page 28


 904              		ld a0,16(sp)
 905              	# 0 "" 2
 906              	.LVL29:
  99:src/Riscv.cpp ****             void* arg; // ovde smestamo adresu argumenta koji treba proslediti funkciji cija je adr
 907              		.loc 1 99 13 is_stmt 1
 100:src/Riscv.cpp ****             __asm__ volatile ("ld %[arg],24(sp)" : [arg] "=r"(arg));
 908              		.loc 1 100 13
 100:src/Riscv.cpp ****             __asm__ volatile ("ld %[arg],24(sp)" : [arg] "=r"(arg));
 909              		.loc 1 100 68 is_stmt 0
 910              	# 100 "src/Riscv.cpp" 1
 911              		ld a1,24(sp)
 912              	# 0 "" 2
 913              	.LVL30:
 101:src/Riscv.cpp ****             void* stack; // ovde smestamo adresu steka koji je alociran za nit koju treba napraviti
 914              		.loc 1 101 13 is_stmt 1
 102:src/Riscv.cpp ****             __asm__ volatile ("ld %[stack],32(sp)" : [stack] "=r"(stack));
 915              		.loc 1 102 13
 102:src/Riscv.cpp ****             __asm__ volatile ("ld %[stack],32(sp)" : [stack] "=r"(stack));
 916              		.loc 1 102 74 is_stmt 0
 917              	# 102 "src/Riscv.cpp" 1
 918              		ld a2,32(sp)
 919              	# 0 "" 2
 920              	.LVL31:
 105:src/Riscv.cpp ****             *handle = TCB::createThread(startRoutine, arg, stack, true);
 921              		.loc 1 105 13 is_stmt 1
 105:src/Riscv.cpp ****             *handle = TCB::createThread(startRoutine, arg, stack, true);
 922              		.loc 1 105 40 is_stmt 0
 923              	#NO_APP
 924 02d4 93061000 		li	a3,1
 925 02d8 97000000 		call	_ZN3TCB12createThreadEPFvPvES0_S0_b@plt
 925      E7800000 
 926              	.LVL32:
 105:src/Riscv.cpp ****             *handle = TCB::createThread(startRoutine, arg, stack, true);
 927              		.loc 1 105 21
 928 02e0 23B0A400 		sd	a0,0(s1)
 929              	.LBE228:
 930 02e4 6FF05FF2 		j	.L8
 931              	.LVL33:
 932              	.L43:
 933              	.LBB229:
 934              	.LBB218:
 110:src/Riscv.cpp ****             TCB* thread;
 935              		.loc 1 110 13 is_stmt 1
 111:src/Riscv.cpp ****             __asm__ volatile ("ld %[thread],8(sp)" : [thread] "=r"(thread)); // citanje iz registra
 936              		.loc 1 111 13
 111:src/Riscv.cpp ****             __asm__ volatile ("ld %[thread],8(sp)" : [thread] "=r"(thread)); // citanje iz registra
 937              		.loc 1 111 76 is_stmt 0
 938              	#APP
 939              	# 111 "src/Riscv.cpp" 1
 940              		ld s1,8(sp)
 941              	# 0 "" 2
 942              	.LVL34:
 114:src/Riscv.cpp ****             Scheduler::getInstance().put(thread);
 943              		.loc 1 114 13 is_stmt 1
 114:src/Riscv.cpp ****             Scheduler::getInstance().put(thread);
 944              		.loc 1 114 36 is_stmt 0
 945              	#NO_APP
GAS LISTING /tmp/ccScpZU8.s 			page 29


 946 02ec 97000000 		call	_ZN9Scheduler11getInstanceEv@plt
 946      E7800000 
 947              	.LVL35:
 114:src/Riscv.cpp ****             Scheduler::getInstance().put(thread);
 948              		.loc 1 114 41
 949 02f4 93850400 		mv	a1,s1
 950 02f8 97000000 		call	_ZN9Scheduler3putEP3TCB@plt
 950      E7800000 
 951              	.LVL36:
 952              	.LBE218:
 953 0300 6FF09FF0 		j	.L8
 954              	.LVL37:
 955              	.L44:
 956              	.LBB219:
 957              	.LBB207:
 119:src/Riscv.cpp ****             int volatile threadId = TCB::runningThread->getThreadId();
 958              		.loc 1 119 13 is_stmt 1
 119:src/Riscv.cpp ****             int volatile threadId = TCB::runningThread->getThreadId();
 959              		.loc 1 119 68 is_stmt 0
 960 0304 97070000 		la	a5,_ZN3TCB13runningThreadE
 960      83B70700 
 961 030c 83B70700 		ld	a5,0(a5)
 962              	.LVL38:
 963              	.LBB208:
 964              	.LBB209:
  23:src/../h/TCB.hpp **** 
  24:src/../h/TCB.hpp ****     // ovaj metod vraca vremenski odsecak (kvantum) koji je dodeljen tekucem objektu klase TCB (nit
  25:src/../h/TCB.hpp ****     // to je broj perioda tajmera - on govori koliko vremena ce se nit izvrsavati
  26:src/../h/TCB.hpp ****     uint64 getTimeSlice() const { return timeSlice; }
  27:src/../h/TCB.hpp **** 
  28:src/../h/TCB.hpp ****     // ovaj metod vraca adresu funkcije koju treba da izvrsava tekuca nit
  29:src/../h/TCB.hpp ****     Body getBody() const { return body; }
  30:src/../h/TCB.hpp **** 
  31:src/../h/TCB.hpp ****     // privatne atribute schedulerPrevThread i schedulerNextThread sam ispravno enkapsulirao jer su
  32:src/../h/TCB.hpp ****     // i mogu se modifikovati samo kroz setter metode, a mogu da se procitaju samo preko getter met
  33:src/../h/TCB.hpp ****     TCB* getPrevThreadScheduler() const { return schedulerPrevThread; }
  34:src/../h/TCB.hpp ****     void setPrevThreadScheduler(TCB* prev) { schedulerPrevThread = prev; }
  35:src/../h/TCB.hpp ****     TCB* getNextThreadScheduler() const { return schedulerNextThread; }
  36:src/../h/TCB.hpp ****     void setNextThreadScheduler(TCB* next) { schedulerNextThread = next; }
  37:src/../h/TCB.hpp **** 
  38:src/../h/TCB.hpp ****     // ova metoda sluzi da promeni kontekst, pri cemu tekucu nit suspenduje
  39:src/../h/TCB.hpp ****     // tako sto je ne vraca u rasporedjivac cak iako ona nije zavrsena
  40:src/../h/TCB.hpp ****     static void suspendCurrentThread();
  41:src/../h/TCB.hpp **** 
  42:src/../h/TCB.hpp ****     // ova metoda umece tekucu nit u red uspavanih niti i to sa zadatim brojem perioda tajmera koli
  43:src/../h/TCB.hpp ****     static void insertSleepThread(uint64 time);
  44:src/../h/TCB.hpp ****     // ova metoda azurira listu uspavanih niti tako sto dekrementira sleepTime prve niti u listi, i
  45:src/../h/TCB.hpp ****     // onda se u red spremnih niti vracaju sve niti koje takodje imaju sleepTime nula pocevsi od po
  46:src/../h/TCB.hpp ****     static void updateSleepThreadList();
  47:src/../h/TCB.hpp ****     TCB* getPrevSleepThread() const { return sleepPrevThread; }
  48:src/../h/TCB.hpp ****     void setPrevSleepThread(TCB* prev) { sleepPrevThread = prev; }
  49:src/../h/TCB.hpp ****     TCB* getNextSleepThread() const { return sleepNextThread; }
  50:src/../h/TCB.hpp ****     void setNextSleepThread(TCB* next) { sleepNextThread = next; }
  51:src/../h/TCB.hpp ****     void setSleepTime(uint64 time) { sleepTime = time; }
  52:src/../h/TCB.hpp ****     uint64 getSleepTime() const { return sleepTime; }
  53:src/../h/TCB.hpp **** 
  54:src/../h/TCB.hpp ****     // ove metode sluze kao pomoc za ulancavanje niti u listu blokiranih niti na semaforu
GAS LISTING /tmp/ccScpZU8.s 			page 30


  55:src/../h/TCB.hpp ****     TCB* getNextSemaphoreThread() const { return semaphoreNextThread; }
  56:src/../h/TCB.hpp ****     void setNextSemaphoreThread(TCB* next) { semaphoreNextThread = next; }
  57:src/../h/TCB.hpp ****     // ove metode sluze za postavljanje i dohvatanje flag-a koji nam govori da li je tekuca nit nas
  58:src/../h/TCB.hpp ****     // semafor na kojem je ona cekala zatvoren sistemskim pozivom sem_close - u tom slucaju sem_wai
  59:src/../h/TCB.hpp ****     void setWaitSemaphoreFailed(bool value) { waitSemaphoreFailed = value; }
  60:src/../h/TCB.hpp ****     bool getWaitSemaphoreFailed() const { return waitSemaphoreFailed; }
  61:src/../h/TCB.hpp **** 
  62:src/../h/TCB.hpp ****     int getThreadId() const { return threadId; }
 965              		.loc 3 62 31 is_stmt 1
 966              		.loc 3 62 38 is_stmt 0
 967 0310 83A7C706 		lw	a5,108(a5)
 968              	.LVL39:
 969              	.LBE209:
 970              	.LBE208:
 119:src/Riscv.cpp ****             int volatile threadId = TCB::runningThread->getThreadId();
 971              		.loc 1 119 69
 972 0314 2322F4F4 		sw	a5,-188(s0)
 121:src/Riscv.cpp ****             TCB::dispatch();
 973              		.loc 1 121 13 is_stmt 1
 121:src/Riscv.cpp ****             TCB::dispatch();
 974              		.loc 1 121 26 is_stmt 0
 975 0318 97000000 		call	_ZN3TCB8dispatchEv@plt
 975      E7800000 
 976              	.LVL40:
 124:src/Riscv.cpp ****             __asm__ volatile ("mv a0,%[threadId]" : : [threadId] "r"(threadId));
 977              		.loc 1 124 13 is_stmt 1
 124:src/Riscv.cpp ****             __asm__ volatile ("mv a0,%[threadId]" : : [threadId] "r"(threadId));
 978              		.loc 1 124 70 is_stmt 0
 979 0320 832744F4 		lw	a5,-188(s0)
 124:src/Riscv.cpp ****             __asm__ volatile ("mv a0,%[threadId]" : : [threadId] "r"(threadId));
 980              		.loc 1 124 80
 981              	#APP
 982              	# 124 "src/Riscv.cpp" 1
 983              		mv a0,a5
 984              	# 0 "" 2
 985              	#NO_APP
 986              	.LBE207:
 987 0328 6FF01FEE 		j	.L8
 988              	.L45:
 989              	.LBB210:
 990              	.LBB199:
 130:src/Riscv.cpp ****             KernelSemaphore** handle; // ovde ce biti smestena adresa na kojoj se nalazi vrednost p
 991              		.loc 1 130 13 is_stmt 1
 131:src/Riscv.cpp ****             __asm__ volatile ("ld %[handle],8(sp)" : [handle] "=r"(handle)); // citanje iz registra
 992              		.loc 1 131 13
 131:src/Riscv.cpp ****             __asm__ volatile ("ld %[handle],8(sp)" : [handle] "=r"(handle)); // citanje iz registra
 993              		.loc 1 131 76 is_stmt 0
 994              	#APP
 995              	# 131 "src/Riscv.cpp" 1
 996              		ld s1,8(sp)
 997              	# 0 "" 2
 998              	.LVL41:
 132:src/Riscv.cpp ****             uint16 initialSemaphoreValue; // pocetna vrednost semafora
 999              		.loc 1 132 13 is_stmt 1
 133:src/Riscv.cpp ****             __asm__ volatile ("ld %[initialSemaphoreValue],16(sp)" : [initialSemaphoreValue] "=r"(i
 1000              		.loc 1 133 13
 133:src/Riscv.cpp ****             __asm__ volatile ("ld %[initialSemaphoreValue],16(sp)" : [initialSemaphoreValue] "=r"(i
GAS LISTING /tmp/ccScpZU8.s 			page 31


 1001              		.loc 1 133 122 is_stmt 0
 1002              	# 133 "src/Riscv.cpp" 1
 1003              		ld a0,16(sp)
 1004              	# 0 "" 2
 1005              	.LVL42:
 136:src/Riscv.cpp ****             *handle = KernelSemaphore::createSemaphore(initialSemaphoreValue);
 1006              		.loc 1 136 13 is_stmt 1
 136:src/Riscv.cpp ****             *handle = KernelSemaphore::createSemaphore(initialSemaphoreValue);
 1007              		.loc 1 136 55 is_stmt 0
 1008              	#NO_APP
 1009 0334 13150503 		slli	a0,a0,48
 1010              	.LVL43:
 1011 0338 13550503 		srli	a0,a0,48
 1012 033c 97000000 		call	_ZN15KernelSemaphore15createSemaphoreEt@plt
 1012      E7800000 
 1013              	.LVL44:
 136:src/Riscv.cpp ****             *handle = KernelSemaphore::createSemaphore(initialSemaphoreValue);
 1014              		.loc 1 136 21
 1015 0344 23B0A400 		sd	a0,0(s1)
 1016              	.LBE199:
 1017 0348 6FF01FEC 		j	.L8
 1018              	.LVL45:
 1019              	.L46:
 1020              	.LBB200:
 1021              	.LBB192:
 141:src/Riscv.cpp ****             KernelSemaphore* handle; // ovde ce biti smestena adresa semafora kojeg treba oslobodit
 1022              		.loc 1 141 13 is_stmt 1
 142:src/Riscv.cpp ****             __asm__ volatile ("ld %[handle],8(sp)" : [handle] "=r"(handle)); // citanje iz registra
 1023              		.loc 1 142 13
 142:src/Riscv.cpp ****             __asm__ volatile ("ld %[handle],8(sp)" : [handle] "=r"(handle)); // citanje iz registra
 1024              		.loc 1 142 76 is_stmt 0
 1025              	#APP
 1026              	# 142 "src/Riscv.cpp" 1
 1027              		ld a0,8(sp)
 1028              	# 0 "" 2
 1029              	.LVL46:
 145:src/Riscv.cpp ****             int successInfo = KernelSemaphore::closeSemaphore(handle);
 1030              		.loc 1 145 13 is_stmt 1
 145:src/Riscv.cpp ****             int successInfo = KernelSemaphore::closeSemaphore(handle);
 1031              		.loc 1 145 62 is_stmt 0
 1032              	#NO_APP
 1033 0350 97000000 		call	_ZN15KernelSemaphore14closeSemaphoreEPS_@plt
 1033      E7800000 
 1034              	.LVL47:
 147:src/Riscv.cpp ****             __asm__ volatile ("mv a0,%[successInfo]" : : [successInfo] "r"(successInfo));
 1035              		.loc 1 147 13 is_stmt 1
 147:src/Riscv.cpp ****             __asm__ volatile ("mv a0,%[successInfo]" : : [successInfo] "r"(successInfo));
 1036              		.loc 1 147 89 is_stmt 0
 1037              	#APP
 1038              	# 147 "src/Riscv.cpp" 1
 1039              		mv a0,a0
 1040              	# 0 "" 2
 1041              	#NO_APP
 1042              	.LBE192:
 1043 035c 6FF0DFEA 		j	.L8
 1044              	.LVL48:
 1045              	.L47:
GAS LISTING /tmp/ccScpZU8.s 			page 32


 1046              	.LBB193:
 1047              	.LBB184:
 152:src/Riscv.cpp ****             KernelSemaphore* semaphoreId; // ovde ce biti smestena adresa semafora za koji treba da
 1048              		.loc 1 152 13 is_stmt 1
 153:src/Riscv.cpp ****             __asm__ volatile ("ld %[semaphoreId],8(sp)" : [semaphoreId] "=r"(semaphoreId)); // cita
 1049              		.loc 1 153 13
 153:src/Riscv.cpp ****             __asm__ volatile ("ld %[semaphoreId],8(sp)" : [semaphoreId] "=r"(semaphoreId)); // cita
 1050              		.loc 1 153 91 is_stmt 0
 1051              	#APP
 1052              	# 153 "src/Riscv.cpp" 1
 1053              		ld a0,8(sp)
 1054              	# 0 "" 2
 1055              	.LVL49:
 156:src/Riscv.cpp ****             semaphoreId->wait();
 1056              		.loc 1 156 13 is_stmt 1
 156:src/Riscv.cpp ****             semaphoreId->wait();
 1057              		.loc 1 156 30 is_stmt 0
 1058              	#NO_APP
 1059 0364 97000000 		call	_ZN15KernelSemaphore4waitEv@plt
 1059      E7800000 
 1060              	.LVL50:
 158:src/Riscv.cpp ****             if (TCB::runningThread->getWaitSemaphoreFailed()) __asm__ volatile ("li a0,-1"); // slu
 1061              		.loc 1 158 13 is_stmt 1
 158:src/Riscv.cpp ****             if (TCB::runningThread->getWaitSemaphoreFailed()) __asm__ volatile ("li a0,-1"); // slu
 1062              		.loc 1 158 59 is_stmt 0
 1063 036c 97070000 		la	a5,_ZN3TCB13runningThreadE
 1063      83B70700 
 1064 0374 83B70700 		ld	a5,0(a5)
 1065              	.LVL51:
 1066              	.LBB185:
 1067              	.LBB186:
  60:src/../h/TCB.hpp **** 
 1068              		.loc 3 60 43 is_stmt 1
  60:src/../h/TCB.hpp **** 
 1069              		.loc 3 60 50 is_stmt 0
 1070 0378 83C78706 		lbu	a5,104(a5)
 1071              	.LVL52:
 1072              	.LBE186:
 1073              	.LBE185:
 158:src/Riscv.cpp ****             if (TCB::runningThread->getWaitSemaphoreFailed()) __asm__ volatile ("li a0,-1"); // slu
 1074              		.loc 1 158 13
 1075 037c 63860700 		beqz	a5,.L19
 158:src/Riscv.cpp ****             if (TCB::runningThread->getWaitSemaphoreFailed()) __asm__ volatile ("li a0,-1"); // slu
 1076              		.loc 1 158 63 is_stmt 1 discriminator 1
 158:src/Riscv.cpp ****             if (TCB::runningThread->getWaitSemaphoreFailed()) __asm__ volatile ("li a0,-1"); // slu
 1077              		.loc 1 158 92 is_stmt 0 discriminator 1
 1078              	#APP
 1079              	# 158 "src/Riscv.cpp" 1
 1080              		li a0,-1
 1081              	# 0 "" 2
 1082              	#NO_APP
 1083 0384 6FF05FE8 		j	.L8
 1084              	.L19:
 159:src/Riscv.cpp ****             else __asm__ volatile ("li a0,1"); // slucaj kada je nit odblokirana normalno pomocu si
 1085              		.loc 1 159 18 is_stmt 1
 159:src/Riscv.cpp ****             else __asm__ volatile ("li a0,1"); // slucaj kada je nit odblokirana normalno pomocu si
 1086              		.loc 1 159 46 is_stmt 0
GAS LISTING /tmp/ccScpZU8.s 			page 33


 1087              	#APP
 1088              	# 159 "src/Riscv.cpp" 1
 1089              		li a0,1
 1090              	# 0 "" 2
 1091              	#NO_APP
 1092 038c 6FF0DFE7 		j	.L8
 1093              	.L48:
 1094              	.LBE184:
 1095              	.LBB187:
 1096              	.LBB179:
 164:src/Riscv.cpp ****             KernelSemaphore* semaphoreId; // ovde ce biti smestena adresa semafora za koji treba da
 1097              		.loc 1 164 13 is_stmt 1
 165:src/Riscv.cpp ****             __asm__ volatile ("ld %[semaphoreId],8(sp)" : [semaphoreId] "=r"(semaphoreId)); // cita
 1098              		.loc 1 165 13
 165:src/Riscv.cpp ****             __asm__ volatile ("ld %[semaphoreId],8(sp)" : [semaphoreId] "=r"(semaphoreId)); // cita
 1099              		.loc 1 165 91 is_stmt 0
 1100              	#APP
 1101              	# 165 "src/Riscv.cpp" 1
 1102              		ld a0,8(sp)
 1103              	# 0 "" 2
 1104              	.LVL53:
 168:src/Riscv.cpp ****             semaphoreId->signal();
 1105              		.loc 1 168 13 is_stmt 1
 168:src/Riscv.cpp ****             semaphoreId->signal();
 1106              		.loc 1 168 32 is_stmt 0
 1107              	#NO_APP
 1108 0394 97000000 		call	_ZN15KernelSemaphore6signalEv@plt
 1108      E7800000 
 1109              	.LVL54:
 1110              	.LBE179:
 1111 039c 6FF0DFE6 		j	.L8
 1112              	.L49:
 1113              	.LBB180:
 1114              	.LBB175:
 173:src/Riscv.cpp ****             uint64 time; // broj perioda tajmera na koliko treba da se uspava tekuca nit
 1115              		.loc 1 173 13 is_stmt 1
 174:src/Riscv.cpp ****             __asm__ volatile ("ld %[time], 8(sp)" : [time] "=r"(time)); // citanje iz registra a1
 1116              		.loc 1 174 13
 174:src/Riscv.cpp ****             __asm__ volatile ("ld %[time], 8(sp)" : [time] "=r"(time)); // citanje iz registra a1
 1117              		.loc 1 174 71 is_stmt 0
 1118              	#APP
 1119              	# 174 "src/Riscv.cpp" 1
 1120              		ld a0, 8(sp)
 1121              	# 0 "" 2
 1122              	.LVL55:
 177:src/Riscv.cpp ****             TCB::insertSleepThread(time);
 1123              		.loc 1 177 13 is_stmt 1
 177:src/Riscv.cpp ****             TCB::insertSleepThread(time);
 1124              		.loc 1 177 35 is_stmt 0
 1125              	#NO_APP
 1126 03a4 97000000 		call	_ZN3TCB17insertSleepThreadEm@plt
 1126      E7800000 
 1127              	.LVL56:
 179:src/Riscv.cpp ****             TCB::suspendCurrentThread();
 1128              		.loc 1 179 13 is_stmt 1
 179:src/Riscv.cpp ****             TCB::suspendCurrentThread();
 1129              		.loc 1 179 38 is_stmt 0
GAS LISTING /tmp/ccScpZU8.s 			page 34


 1130 03ac 97000000 		call	_ZN3TCB20suspendCurrentThreadEv@plt
 1130      E7800000 
 1131              	.LVL57:
 183:src/Riscv.cpp ****             __asm__ volatile ("li a0,1");
 1132              		.loc 1 183 13 is_stmt 1
 183:src/Riscv.cpp ****             __asm__ volatile ("li a0,1");
 1133              		.loc 1 183 41 is_stmt 0
 1134              	#APP
 1135              	# 183 "src/Riscv.cpp" 1
 1136              		li a0,1
 1137              	# 0 "" 2
 1138              	#NO_APP
 1139              	.LBE175:
 1140 03b8 6FF01FE5 		j	.L8
 1141              	.L50:
 1142              	.LBB176:
 1143              	.LBB172:
 188:src/Riscv.cpp ****             char inputCharacter = KernelBuffer::getcGetInstance()->removeFromBuffer();
 1144              		.loc 1 188 13 is_stmt 1
 188:src/Riscv.cpp ****             char inputCharacter = KernelBuffer::getcGetInstance()->removeFromBuffer();
 1145              		.loc 1 188 84 is_stmt 0
 1146 03bc 97000000 		call	_ZN12KernelBuffer15getcGetInstanceEv@plt
 1146      E7800000 
 1147              	.LVL58:
 1148 03c4 97000000 		call	_ZN12KernelBuffer16removeFromBufferEv@plt
 1148      E7800000 
 1149              	.LVL59:
 190:src/Riscv.cpp ****             __asm__ volatile ("mv a0,%[inputCharacter]" : : [inputCharacter] "r"(inputCharacter));
 1150              		.loc 1 190 13 is_stmt 1
 190:src/Riscv.cpp ****             __asm__ volatile ("mv a0,%[inputCharacter]" : : [inputCharacter] "r"(inputCharacter));
 1151              		.loc 1 190 98 is_stmt 0
 1152              	#APP
 1153              	# 190 "src/Riscv.cpp" 1
 1154              		mv a0,a0
 1155              	# 0 "" 2
 1156              	#NO_APP
 1157              	.LBE172:
 1158 03d0 6FF09FE3 		j	.L8
 1159              	.LVL60:
 1160              	.L51:
 1161              	.LBB173:
 1162              	.LBB169:
 195:src/Riscv.cpp ****             char outputCharacter;
 1163              		.loc 1 195 13 is_stmt 1
 196:src/Riscv.cpp ****             __asm__ volatile ("ld %[outputCharacter], 8(sp)" : [outputCharacter] "=r"(outputCharact
 1164              		.loc 1 196 13
 196:src/Riscv.cpp ****             __asm__ volatile ("ld %[outputCharacter], 8(sp)" : [outputCharacter] "=r"(outputCharact
 1165              		.loc 1 196 104 is_stmt 0
 1166              	#APP
 1167              	# 196 "src/Riscv.cpp" 1
 1168              		ld s1, 8(sp)
 1169              	# 0 "" 2
 1170              	#NO_APP
 1171 03d8 93F4F40F 		andi	s1,s1,0xff
 1172              	.LVL61:
 198:src/Riscv.cpp ****             KernelBuffer::putcGetInstance()->insertIntoBuffer(outputCharacter);
 1173              		.loc 1 198 13 is_stmt 1
GAS LISTING /tmp/ccScpZU8.s 			page 35


 198:src/Riscv.cpp ****             KernelBuffer::putcGetInstance()->insertIntoBuffer(outputCharacter);
 1174              		.loc 1 198 62 is_stmt 0
 1175 03dc 97000000 		call	_ZN12KernelBuffer15putcGetInstanceEv@plt
 1175      E7800000 
 1176              	.LVL62:
 1177 03e4 93850400 		mv	a1,s1
 1178 03e8 97000000 		call	_ZN12KernelBuffer16insertIntoBufferEi@plt
 1178      E7800000 
 1179              	.LVL63:
 1180              	.LBE169:
 1181 03f0 6FF09FE1 		j	.L8
 1182              	.LVL64:
 1183              	.L52:
 203:src/Riscv.cpp ****             Riscv::maskClearBitsSstatus(Riscv::SSTATUS_SPP);
 1184              		.loc 1 203 13 is_stmt 1
 1185              	.LBB170:
 1186              	.LBB171:
 134:src/../h/Riscv.hpp **** }
 1187              		.loc 2 134 5
 134:src/../h/Riscv.hpp **** }
 1188              		.loc 2 134 68 is_stmt 0
 1189 03f4 93070010 		li	a5,256
 1190              	#APP
 1191              	# 134 "src/../h/Riscv.hpp" 1
 135:src/../h/Riscv.hpp **** 
 1192              		csrc sstatus, a5
 1193              	# 0 "" 2
 1194              		.loc 2 135 1
 1195              	#NO_APP
 1196 03fc 6FF0DFE0 		j	.L8
 1197              	.LVL65:
 1198              	.L33:
 1199              	.LBE171:
 1200              	.LBE170:
 1201              	.LBE173:
 1202              	.LBE176:
 1203              	.LBE180:
 1204              	.LBE187:
 1205              	.LBE193:
 1206              	.LBE200:
 1207              	.LBE210:
 1208              	.LBE219:
 1209              	.LBE229:
 1210              	.LBE239:
 1211              	.LBE252:
 1212              	.LBE265:
 1213              	.LBE279:
 1214              	.LBE294:
 1215              	.LBE313:
 1216              	.LBE328:
 1217              	.LBB329:
 228:src/Riscv.cpp ****         printErrorMessage(scause, readStval(), readSepc());
 1218              		.loc 1 228 9 is_stmt 1
 228:src/Riscv.cpp ****         printErrorMessage(scause, readStval(), readSepc());
 1219              		.loc 1 228 26 is_stmt 0
 1220 0400 033584FD 		ld	a0,-40(s0)
 1221              	.LBB138:
GAS LISTING /tmp/ccScpZU8.s 			page 36


 1222              	.LBB139:
 197:src/../h/Riscv.hpp **** }
 198:src/../h/Riscv.hpp **** 
 199:src/../h/Riscv.hpp **** inline void Riscv::writeScause(uint64 scause) {
 200:src/../h/Riscv.hpp ****     __asm__ volatile ("csrw scause, %[scause]" : : [scause] "r"(scause));
 201:src/../h/Riscv.hpp **** }
 202:src/../h/Riscv.hpp **** 
 203:src/../h/Riscv.hpp **** inline uint64 Riscv::readStvec() {
 204:src/../h/Riscv.hpp ****     uint64 volatile stvec;
 205:src/../h/Riscv.hpp ****     __asm__ volatile ("csrr %[stvec], stvec" : [stvec] "=r"(stvec));
 206:src/../h/Riscv.hpp ****     return stvec;
 207:src/../h/Riscv.hpp **** }
 208:src/../h/Riscv.hpp **** 
 209:src/../h/Riscv.hpp **** inline void Riscv::writeStvec(uint64 stvec) {
 210:src/../h/Riscv.hpp ****     __asm__ volatile ("csrw stvec, %[stvec]" : : [stvec] "r"(stvec));
 211:src/../h/Riscv.hpp **** }
 212:src/../h/Riscv.hpp **** 
 213:src/../h/Riscv.hpp **** inline uint64 Riscv::readStval() {
 214:src/../h/Riscv.hpp ****     uint64 volatile stval;
 1223              		.loc 2 214 5 is_stmt 1
 215:src/../h/Riscv.hpp ****     __asm__ volatile ("csrr %[stval], stval" : [stval] "=r"(stval));
 1224              		.loc 2 215 5
 1225              		.loc 2 215 68 is_stmt 0
 1226              	#APP
 1227              	# 215 "src/../h/Riscv.hpp" 1
 216              	    return stval;
 1228              		csrr a5, stval
 1229              	# 0 "" 2
 1230              	#NO_APP
 1231 0408 2330F4FA 		sd	a5,-96(s0)
 1232              		.loc 2 216 5 is_stmt 1
 1233              		.loc 2 216 12 is_stmt 0
 1234 040c 833504FA 		ld	a1,-96(s0)
 1235              	.LBE139:
 1236              	.LBE138:
 1237              	.LBB140:
 1238              	.LBB141:
 184:src/../h/Riscv.hpp ****     __asm__ volatile ("csrr %[sepc], sepc" : [sepc] "=r"(sepc));
 1239              		.loc 2 184 5 is_stmt 1
 185:src/../h/Riscv.hpp ****     return sepc;
 1240              		.loc 2 185 5
 185:src/../h/Riscv.hpp ****     return sepc;
 1241              		.loc 2 185 64 is_stmt 0
 1242              	#APP
 1243              	# 185 "src/../h/Riscv.hpp" 1
 1244              		csrr a5, sepc
 1245              	# 0 "" 2
 1246              	#NO_APP
 1247 0414 233CF4F8 		sd	a5,-104(s0)
 186:src/../h/Riscv.hpp **** }
 1248              		.loc 2 186 5 is_stmt 1
 186:src/../h/Riscv.hpp **** }
 1249              		.loc 2 186 12 is_stmt 0
 1250 0418 033684F9 		ld	a2,-104(s0)
 1251              	.LBE141:
 1252              	.LBE140:
 228:src/Riscv.cpp ****         printErrorMessage(scause, readStval(), readSepc());
GAS LISTING /tmp/ccScpZU8.s 			page 37


 1253              		.loc 1 228 26
 1254 041c 97000000 		call	_Z17printErrorMessagemmm@plt
 1254      E7800000 
 1255              	.LVL66:
 1256 0424 6FF01FE1 		j	.L25
 1257              	.L34:
 1258              	.LBB142:
 232:src/Riscv.cpp ****         printErrorMessage(scause, readStval(), readSepc());
 1259              		.loc 1 232 9 is_stmt 1
 232:src/Riscv.cpp ****         printErrorMessage(scause, readStval(), readSepc());
 1260              		.loc 1 232 26 is_stmt 0
 1261 0428 033584FD 		ld	a0,-40(s0)
 1262              	.LBB130:
 1263              	.LBB131:
 214:src/../h/Riscv.hpp ****     __asm__ volatile ("csrr %[stval], stval" : [stval] "=r"(stval));
 1264              		.loc 2 214 5 is_stmt 1
 215:src/../h/Riscv.hpp ****     return stval;
 1265              		.loc 2 215 5
 215:src/../h/Riscv.hpp ****     return stval;
 1266              		.loc 2 215 68 is_stmt 0
 1267              	#APP
 1268              	# 215 "src/../h/Riscv.hpp" 1
 1269              		csrr a5, stval
 1270              	# 0 "" 2
 1271              	#NO_APP
 1272 0430 2338F4FA 		sd	a5,-80(s0)
 1273              		.loc 2 216 5 is_stmt 1
 1274              		.loc 2 216 12 is_stmt 0
 1275 0434 833504FB 		ld	a1,-80(s0)
 1276              	.LBE131:
 1277              	.LBE130:
 1278              	.LBB132:
 1279              	.LBB133:
 184:src/../h/Riscv.hpp ****     __asm__ volatile ("csrr %[sepc], sepc" : [sepc] "=r"(sepc));
 1280              		.loc 2 184 5 is_stmt 1
 185:src/../h/Riscv.hpp ****     return sepc;
 1281              		.loc 2 185 5
 185:src/../h/Riscv.hpp ****     return sepc;
 1282              		.loc 2 185 64 is_stmt 0
 1283              	#APP
 1284              	# 185 "src/../h/Riscv.hpp" 1
 1285              		csrr a5, sepc
 1286              	# 0 "" 2
 1287              	#NO_APP
 1288 043c 2334F4FA 		sd	a5,-88(s0)
 186:src/../h/Riscv.hpp **** }
 1289              		.loc 2 186 5 is_stmt 1
 186:src/../h/Riscv.hpp **** }
 1290              		.loc 2 186 12 is_stmt 0
 1291 0440 033684FA 		ld	a2,-88(s0)
 1292              	.LBE133:
 1293              	.LBE132:
 232:src/Riscv.cpp ****         printErrorMessage(scause, readStval(), readSepc());
 1294              		.loc 1 232 26
 1295 0444 97000000 		call	_Z17printErrorMessagemmm@plt
 1295      E7800000 
 1296              	.LVL67:
GAS LISTING /tmp/ccScpZU8.s 			page 38


 1297 044c 6FF09FDE 		j	.L25
 1298              	.L35:
 1299              	.LBB134:
 236:src/Riscv.cpp ****         printErrorMessage(scause, readStval(), readSepc());
 1300              		.loc 1 236 9 is_stmt 1
 236:src/Riscv.cpp ****         printErrorMessage(scause, readStval(), readSepc());
 1301              		.loc 1 236 26 is_stmt 0
 1302 0450 033584FD 		ld	a0,-40(s0)
 1303              	.LBB123:
 1304              	.LBB124:
 214:src/../h/Riscv.hpp ****     __asm__ volatile ("csrr %[stval], stval" : [stval] "=r"(stval));
 1305              		.loc 2 214 5 is_stmt 1
 215:src/../h/Riscv.hpp ****     return stval;
 1306              		.loc 2 215 5
 215:src/../h/Riscv.hpp ****     return stval;
 1307              		.loc 2 215 68 is_stmt 0
 1308              	#APP
 1309              	# 215 "src/../h/Riscv.hpp" 1
 1310              		csrr a5, stval
 1311              	# 0 "" 2
 1312              	#NO_APP
 1313 0458 2330F4FC 		sd	a5,-64(s0)
 1314              		.loc 2 216 5 is_stmt 1
 1315              		.loc 2 216 12 is_stmt 0
 1316 045c 833504FC 		ld	a1,-64(s0)
 1317              	.LBE124:
 1318              	.LBE123:
 1319              	.LBB125:
 1320              	.LBB126:
 184:src/../h/Riscv.hpp ****     __asm__ volatile ("csrr %[sepc], sepc" : [sepc] "=r"(sepc));
 1321              		.loc 2 184 5 is_stmt 1
 185:src/../h/Riscv.hpp ****     return sepc;
 1322              		.loc 2 185 5
 185:src/../h/Riscv.hpp ****     return sepc;
 1323              		.loc 2 185 64 is_stmt 0
 1324              	#APP
 1325              	# 185 "src/../h/Riscv.hpp" 1
 1326              		csrr a5, sepc
 1327              	# 0 "" 2
 1328              	#NO_APP
 1329 0464 233CF4FA 		sd	a5,-72(s0)
 186:src/../h/Riscv.hpp **** }
 1330              		.loc 2 186 5 is_stmt 1
 186:src/../h/Riscv.hpp **** }
 1331              		.loc 2 186 12 is_stmt 0
 1332 0468 033684FB 		ld	a2,-72(s0)
 1333              	.LBE126:
 1334              	.LBE125:
 236:src/Riscv.cpp ****         printErrorMessage(scause, readStval(), readSepc());
 1335              		.loc 1 236 26
 1336 046c 97000000 		call	_Z17printErrorMessagemmm@plt
 1336      E7800000 
 1337              	.LVL68:
 1338 0474 6FF01FDC 		j	.L25
 1339              	.L36:
 1340              	.LBB127:
 1341              	.LBB106:
GAS LISTING /tmp/ccScpZU8.s 			page 39


 240:src/Riscv.cpp ****         maskClearBitsSip(SIP_SSIP); // brise se zahtev za prekidom od tajmera
 1342              		.loc 1 240 9 is_stmt 1
 1343              	.LVL69:
 1344              	.LBB107:
 1345              	.LBB108:
 152:src/../h/Riscv.hpp **** }
 1346              		.loc 2 152 5
 152:src/../h/Riscv.hpp **** }
 1347              		.loc 2 152 64 is_stmt 0
 1348 0478 93072000 		li	a5,2
 1349              	#APP
 1350              	# 152 "src/../h/Riscv.hpp" 1
 1351              		csrc sip, a5
 1352              	# 0 "" 2
 1353              	.LVL70:
 1354              	#NO_APP
 1355              	.LBE108:
 1356              	.LBE107:
 241:src/Riscv.cpp ****         TCB::updateSleepThreadList(); // azuriranje liste uspavanih niti
 1357              		.loc 1 241 9 is_stmt 1
 241:src/Riscv.cpp ****         TCB::updateSleepThreadList(); // azuriranje liste uspavanih niti
 1358              		.loc 1 241 35 is_stmt 0
 1359 0480 97000000 		call	_ZN3TCB21updateSleepThreadListEv@plt
 1359      E7800000 
 1360              	.LVL71:
 242:src/Riscv.cpp ****         TCB::timeSliceCounter++; // povecava se brojac perioda tajmera za tekucu nit (runningThread
 1361              		.loc 1 242 9 is_stmt 1
 242:src/Riscv.cpp ****         TCB::timeSliceCounter++; // povecava se brojac perioda tajmera za tekucu nit (runningThread
 1362              		.loc 1 242 30 is_stmt 0
 1363 0488 17070000 		la	a4,_ZN3TCB16timeSliceCounterE
 1363      03370700 
 1364 0490 83370700 		ld	a5,0(a4)
 1365 0494 93871700 		addi	a5,a5,1
 1366 0498 2330F700 		sd	a5,0(a4)
 244:src/Riscv.cpp ****         if (TCB::timeSliceCounter >= TCB::runningThread->getTimeSlice()) {
 1367              		.loc 1 244 9 is_stmt 1
 1368              	.LBB109:
 244:src/Riscv.cpp ****         if (TCB::timeSliceCounter >= TCB::runningThread->getTimeSlice()) {
 1369              		.loc 1 244 70 is_stmt 0
 1370 049c 17070000 		la	a4,_ZN3TCB13runningThreadE
 1370      03370700 
 1371 04a4 03370700 		ld	a4,0(a4)
 1372              	.LVL72:
 1373              	.LBB110:
 1374              	.LBB111:
  26:src/../h/TCB.hpp **** 
 1375              		.loc 3 26 35 is_stmt 1
  26:src/../h/TCB.hpp **** 
 1376              		.loc 3 26 42 is_stmt 0
 1377 04a8 03370701 		ld	a4,16(a4)
 1378              	.LVL73:
 1379              	.LBE111:
 1380              	.LBE110:
 244:src/Riscv.cpp ****         if (TCB::timeSliceCounter >= TCB::runningThread->getTimeSlice()) {
 1381              		.loc 1 244 9
 1382 04ac E3E4E7D8 		bltu	a5,a4,.L25
 1383              	.LBB112:
GAS LISTING /tmp/ccScpZU8.s 			page 40


 245:src/Riscv.cpp ****             uint64 volatile sepc = readSepc();
 1384              		.loc 1 245 13 is_stmt 1
 1385              	.LBB113:
 1386              	.LBB114:
 184:src/../h/Riscv.hpp ****     __asm__ volatile ("csrr %[sepc], sepc" : [sepc] "=r"(sepc));
 1387              		.loc 2 184 5
 185:src/../h/Riscv.hpp ****     return sepc;
 1388              		.loc 2 185 5
 185:src/../h/Riscv.hpp ****     return sepc;
 1389              		.loc 2 185 64 is_stmt 0
 1390              	#APP
 1391              	# 185 "src/../h/Riscv.hpp" 1
 1392              		csrr a5, sepc
 1393              	# 0 "" 2
 1394              	#NO_APP
 1395 04b4 2338F4FC 		sd	a5,-48(s0)
 186:src/../h/Riscv.hpp **** }
 1396              		.loc 2 186 5 is_stmt 1
 186:src/../h/Riscv.hpp **** }
 1397              		.loc 2 186 12 is_stmt 0
 1398 04b8 833704FD 		ld	a5,-48(s0)
 1399              	.LBE114:
 1400              	.LBE113:
 245:src/Riscv.cpp ****             uint64 volatile sepc = readSepc();
 1401              		.loc 1 245 45
 1402 04bc 2338F4F6 		sd	a5,-144(s0)
 246:src/Riscv.cpp ****             uint64 volatile sstatus = readSstatus();
 1403              		.loc 1 246 13 is_stmt 1
 1404              	.LBB115:
 1405              	.LBB116:
 120:src/../h/Riscv.hpp ****     __asm__ volatile ("csrr %[sstatus], sstatus" : [sstatus] "=r"(sstatus));
 1406              		.loc 2 120 5
 121:src/../h/Riscv.hpp ****     return sstatus;
 1407              		.loc 2 121 5
 121:src/../h/Riscv.hpp ****     return sstatus;
 1408              		.loc 2 121 76 is_stmt 0
 1409              	#APP
 1410              	# 121 "src/../h/Riscv.hpp" 1
 1411              		csrr a5, sstatus
 1412              	# 0 "" 2
 1413              	#NO_APP
 1414 04c4 2334F4FC 		sd	a5,-56(s0)
 122:src/../h/Riscv.hpp **** }
 1415              		.loc 2 122 5 is_stmt 1
 122:src/../h/Riscv.hpp **** }
 1416              		.loc 2 122 12 is_stmt 0
 1417 04c8 833784FC 		ld	a5,-56(s0)
 1418              	.LBE116:
 1419              	.LBE115:
 246:src/Riscv.cpp ****             uint64 volatile sstatus = readSstatus();
 1420              		.loc 1 246 51
 1421 04cc 233CF4F6 		sd	a5,-136(s0)
 247:src/Riscv.cpp ****             TCB::timeSliceCounter = 0;
 1422              		.loc 1 247 13 is_stmt 1
 247:src/Riscv.cpp ****             TCB::timeSliceCounter = 0;
 1423              		.loc 1 247 35 is_stmt 0
 1424 04d0 97070000 		la	a5,_ZN3TCB16timeSliceCounterE
GAS LISTING /tmp/ccScpZU8.s 			page 41


 1424      83B70700 
 1425 04d8 23B00700 		sd	zero,0(a5)
 248:src/Riscv.cpp ****             TCB::dispatch(); // promena konteksta
 1426              		.loc 1 248 13 is_stmt 1
 248:src/Riscv.cpp ****             TCB::dispatch(); // promena konteksta
 1427              		.loc 1 248 26 is_stmt 0
 1428 04dc 97000000 		call	_ZN3TCB8dispatchEv@plt
 1428      E7800000 
 1429              	.LVL74:
 249:src/Riscv.cpp ****             writeSepc(sepc);
 1430              		.loc 1 249 13 is_stmt 1
 249:src/Riscv.cpp ****             writeSepc(sepc);
 1431              		.loc 1 249 22 is_stmt 0
 1432 04e4 833704F7 		ld	a5,-144(s0)
 1433              	.LVL75:
 1434              	.LBB117:
 1435              	.LBB118:
 190:src/../h/Riscv.hpp **** }
 1436              		.loc 2 190 5 is_stmt 1
 190:src/../h/Riscv.hpp **** }
 1437              		.loc 2 190 65 is_stmt 0
 1438              	#APP
 1439              	# 190 "src/../h/Riscv.hpp" 1
 1440              		csrw sepc, a5
 1441              	# 0 "" 2
 1442              	.LVL76:
 1443              	#NO_APP
 1444              	.LBE118:
 1445              	.LBE117:
 250:src/Riscv.cpp ****             writeSstatus(sstatus);
 1446              		.loc 1 250 13 is_stmt 1
 250:src/Riscv.cpp ****             writeSstatus(sstatus);
 1447              		.loc 1 250 25 is_stmt 0
 1448 04ec 833784F7 		ld	a5,-136(s0)
 1449              	.LVL77:
 1450              	.LBB119:
 1451              	.LBB120:
 126:src/../h/Riscv.hpp **** }
 1452              		.loc 2 126 5 is_stmt 1
 126:src/../h/Riscv.hpp **** }
 1453              		.loc 2 126 77 is_stmt 0
 1454              	#APP
 1455              	# 126 "src/../h/Riscv.hpp" 1
 127:src/../h/Riscv.hpp **** 
 1456              		csrw sstatus, a5
 1457              	# 0 "" 2
 1458              		.loc 2 127 1
 1459              	#NO_APP
 1460 04f4 6FF01FD4 		j	.L25
 1461              	.LVL78:
 1462              	.L30:
 1463              	.LBE120:
 1464              	.LBE119:
 1465              	.LBE112:
 1466              	.LBE109:
 1467              	.LBE106:
 1468              	.LBB121:
GAS LISTING /tmp/ccScpZU8.s 			page 42


 1469              	.LBB105:
 1470              	.LBB104:
 1471              	.LBB100:
 261:src/Riscv.cpp ****             while (*reinterpret_cast<char*>(CONSOLE_STATUS) & CONSOLE_RX_STATUS_BIT) {
 1472              		.loc 1 261 13 is_stmt 1
 261:src/Riscv.cpp ****             while (*reinterpret_cast<char*>(CONSOLE_STATUS) & CONSOLE_RX_STATUS_BIT) {
 1473              		.loc 1 261 63
 261:src/Riscv.cpp ****             while (*reinterpret_cast<char*>(CONSOLE_STATUS) & CONSOLE_RX_STATUS_BIT) {
 1474              		.loc 1 261 20 is_stmt 0
 1475 04f8 97070000 		la	a5,CONSOLE_STATUS
 1475      83B70700 
 1476 0500 83B70700 		ld	a5,0(a5)
 1477 0504 83C70700 		lbu	a5,0(a5)
 261:src/Riscv.cpp ****             while (*reinterpret_cast<char*>(CONSOLE_STATUS) & CONSOLE_RX_STATUS_BIT) {
 1478              		.loc 1 261 63
 1479 0508 93F71700 		andi	a5,a5,1
 1480 050c E38007BC 		beqz	a5,.L29
 1481              	.LBB101:
 262:src/Riscv.cpp ****                 int consoleInput = *reinterpret_cast<char*>(CONSOLE_RX_DATA);
 1482              		.loc 1 262 17 is_stmt 1
 262:src/Riscv.cpp ****                 int consoleInput = *reinterpret_cast<char*>(CONSOLE_RX_DATA);
 1483              		.loc 1 262 36 is_stmt 0
 1484 0510 97070000 		la	a5,CONSOLE_RX_DATA
 1484      83B70700 
 1485 0518 83B70700 		ld	a5,0(a5)
 262:src/Riscv.cpp ****                 int consoleInput = *reinterpret_cast<char*>(CONSOLE_RX_DATA);
 1486              		.loc 1 262 21
 1487 051c 83C40700 		lbu	s1,0(a5)
 1488              	.LVL79:
 263:src/Riscv.cpp ****                 KernelBuffer::getcGetInstance()->insertIntoBuffer(consoleInput);
 1489              		.loc 1 263 17 is_stmt 1
 263:src/Riscv.cpp ****                 KernelBuffer::getcGetInstance()->insertIntoBuffer(consoleInput);
 1490              		.loc 1 263 66 is_stmt 0
 1491 0520 97000000 		call	_ZN12KernelBuffer15getcGetInstanceEv@plt
 1491      E7800000 
 1492              	.LVL80:
 1493 0528 93850400 		mv	a1,s1
 1494 052c 97000000 		call	_ZN12KernelBuffer16insertIntoBufferEi@plt
 1494      E7800000 
 1495              	.LVL81:
 1496              	.LBE101:
 261:src/Riscv.cpp ****             while (*reinterpret_cast<char*>(CONSOLE_STATUS) & CONSOLE_RX_STATUS_BIT) {
 1497              		.loc 1 261 13
 1498 0534 6FF05FFC 		j	.L30
 1499              	.LBE100:
 1500              	.LBE104:
 1501              	.LBE105:
 1502              	.LBE121:
 1503              	.LBE127:
 1504              	.LBE134:
 1505              	.LBE142:
 1506              	.LBE329:
 1507              	.LBE349:
 1508              		.cfi_endproc
 1509              	.LFE51:
 1511              	.Letext0:
 1512              		.file 4 "src/../h/../lib/hw.h"
GAS LISTING /tmp/ccScpZU8.s 			page 43


 1513              		.file 5 "src/../h/MemoryAllocator.hpp"
 1514              		.file 6 "src/../h/Scheduler.hpp"
 1515              		.file 7 "src/../h/KernelSemaphore.hpp"
 1516              		.file 8 "src/../h/KernelBuffer.hpp"
 1517              		.file 9 "src/../h/../h/syscall_c.h"
 1518              		.file 10 "src/../h/print.hpp"
GAS LISTING /tmp/ccScpZU8.s 			page 44

