GAS LISTING /tmp/ccfhlxHk.s 			page 1


   1              		.file	"Scheduler.cpp"
   2              		.option pic
   3              		.option norelax
   4              		.text
   5              	.Ltext0:
   6              		.align	2
   7              		.globl	_ZN9Scheduler11getInstanceEv
   9              	_ZN9Scheduler11getInstanceEv:
  10              	.LFB0:
  11              		.file 1 "src/Scheduler.cpp"
   1:src/Scheduler.cpp **** #include "../h/Scheduler.hpp"
   2:src/Scheduler.cpp **** 
   3:src/Scheduler.cpp **** Scheduler& Scheduler::getInstance() {
  12              		.loc 1 3 37
  13              		.cfi_startproc
  14 0000 130101FF 		addi	sp,sp,-16
  15              		.cfi_def_cfa_offset 16
  16 0004 23348100 		sd	s0,8(sp)
  17              		.cfi_offset 8, -8
  18 0008 13040101 		addi	s0,sp,16
  19              		.cfi_def_cfa 8, 0
   4:src/Scheduler.cpp ****     static Scheduler scheduler;
  20              		.loc 1 4 5
   5:src/Scheduler.cpp ****     return scheduler;
  21              		.loc 1 5 5
   6:src/Scheduler.cpp **** }
  22              		.loc 1 6 1 is_stmt 0
  23 000c 17050000 		lla	a0,.LANCHOR0
  23      13050500 
  24 0014 03348100 		ld	s0,8(sp)
  25              		.cfi_restore 8
  26              		.cfi_def_cfa 2, 16
  27 0018 13010101 		addi	sp,sp,16
  28              		.cfi_def_cfa_offset 0
  29 001c 67800000 		jr	ra
  30              		.cfi_endproc
  31              	.LFE0:
  33              		.align	2
  34              		.globl	_ZN9Scheduler3getEv
  36              	_ZN9Scheduler3getEv:
  37              	.LFB4:
   7:src/Scheduler.cpp **** 
   8:src/Scheduler.cpp **** // uzima se nit sa pocetka ulancane liste schedulera i daje se procesoru
   9:src/Scheduler.cpp **** // u slucaju da takve niti nema, onda se procesoru daje nit koja izvrsava funkciju idleFunction (be
  10:src/Scheduler.cpp **** TCB* Scheduler::get() {
  38              		.loc 1 10 23 is_stmt 1
  39              		.cfi_startproc
  40              	.LVL0:
  41 0020 130101FF 		addi	sp,sp,-16
  42              		.cfi_def_cfa_offset 16
  43 0024 23341100 		sd	ra,8(sp)
  44 0028 23308100 		sd	s0,0(sp)
  45              		.cfi_offset 1, -8
  46              		.cfi_offset 8, -16
  47 002c 13040101 		addi	s0,sp,16
  48              		.cfi_def_cfa 8, 0
  11:src/Scheduler.cpp ****     return removeFromScheduler(schedulerHead, scheduletTail);
GAS LISTING /tmp/ccfhlxHk.s 			page 2


  49              		.loc 1 11 5
  50              		.loc 1 11 31 is_stmt 0
  51 0030 93058500 		addi	a1,a0,8
  52 0034 97000000 		call	_Z19removeFromSchedulerRP3TCBS1_@plt
  52      E7800000 
  53              	.LVL1:
  12:src/Scheduler.cpp **** }
  54              		.loc 1 12 1
  55 003c 83308100 		ld	ra,8(sp)
  56              		.cfi_restore 1
  57 0040 03340100 		ld	s0,0(sp)
  58              		.cfi_restore 8
  59              		.cfi_def_cfa 2, 16
  60 0044 13010101 		addi	sp,sp,16
  61              		.cfi_def_cfa_offset 0
  62 0048 67800000 		jr	ra
  63              		.cfi_endproc
  64              	.LFE4:
  66              		.align	2
  67              		.globl	_ZN9Scheduler3putEP3TCB
  69              	_ZN9Scheduler3putEP3TCB:
  70              	.LFB5:
  13:src/Scheduler.cpp **** 
  14:src/Scheduler.cpp **** // nova nit se smesta na kraj ulancane liste schedulera
  15:src/Scheduler.cpp **** void Scheduler::put(TCB* tcb) {
  71              		.loc 1 15 31 is_stmt 1
  72              		.cfi_startproc
  73              	.LVL2:
  74 004c 130101FF 		addi	sp,sp,-16
  75              		.cfi_def_cfa_offset 16
  76 0050 23341100 		sd	ra,8(sp)
  77 0054 23308100 		sd	s0,0(sp)
  78              		.cfi_offset 1, -8
  79              		.cfi_offset 8, -16
  80 0058 13040101 		addi	s0,sp,16
  81              		.cfi_def_cfa 8, 0
  82 005c 13860500 		mv	a2,a1
  16:src/Scheduler.cpp ****     insertIntoScheduler(schedulerHead, scheduletTail, tcb);
  83              		.loc 1 16 5
  84              		.loc 1 16 24 is_stmt 0
  85 0060 93058500 		addi	a1,a0,8
  86              	.LVL3:
  87 0064 97000000 		call	_Z19insertIntoSchedulerRP3TCBS1_S0_@plt
  87      E7800000 
  88              	.LVL4:
  17:src/Scheduler.cpp **** }...
  89              		.loc 1 17 1
  90 006c 83308100 		ld	ra,8(sp)
  91              		.cfi_restore 1
  92 0070 03340100 		ld	s0,0(sp)
  93              		.cfi_restore 8
  94              		.cfi_def_cfa 2, 16
  95 0074 13010101 		addi	sp,sp,16
  96              		.cfi_def_cfa_offset 0
  97 0078 67800000 		jr	ra
  98              		.cfi_endproc
  99              	.LFE5:
GAS LISTING /tmp/ccfhlxHk.s 			page 3


 101              		.bss
 102              		.align	3
 103              		.set	.LANCHOR0,. + 0
 106              	_ZZN9Scheduler11getInstanceEvE9scheduler:
 107 0000 00000000 		.zero	16
 107      00000000 
 107      00000000 
 107      00000000 
 108              		.text
 109              	.Letext0:
 110              		.file 2 "src/../h/Scheduler.hpp"
GAS LISTING /tmp/ccfhlxHk.s 			page 4

