GAS LISTING /tmp/ccnOg7gr.s 			page 1


   1              		.file	"syscall_c.cpp"
   2              		.option pic
   3              		.option norelax
   4              		.text
   5              	.Ltext0:
   6              		.align	2
   7              		.globl	_Z9mem_allocm
   9              	_Z9mem_allocm:
  10              	.LFB0:
  11              		.file 1 "src/syscall_c.cpp"
   1:src/syscall_c.cpp **** #include "../h/syscall_c.h"
   2:src/syscall_c.cpp **** 
   3:src/syscall_c.cpp **** void* mem_alloc(size_t size) { // size je broj bajtova koje je korisnik trazio - to cu zaokruziti n
  12              		.loc 1 3 30
  13              		.cfi_startproc
  14              	.LVL0:
  15 0000 130101FF 		addi	sp,sp,-16
  16              		.cfi_def_cfa_offset 16
  17 0004 23341100 		sd	ra,8(sp)
  18 0008 23308100 		sd	s0,0(sp)
  19              		.cfi_offset 1, -8
  20              		.cfi_offset 8, -16
  21 000c 13040101 		addi	s0,sp,16
  22              		.cfi_def_cfa 8, 0
   4:src/syscall_c.cpp ****     uint64 sysCallCode = 0x01; // kod ovog sistemskog poziva
  23              		.loc 1 4 5
  24              	.LVL1:
   5:src/syscall_c.cpp ****     size_t numberOfBlocks = size % MEM_BLOCK_SIZE ? size / MEM_BLOCK_SIZE + 1 : size / MEM_BLOCK_SI
  25              		.loc 1 5 5
  26              		.loc 1 5 34 is_stmt 0
  27 0010 9377F503 		andi	a5,a0,63
  28              		.loc 1 5 51
  29 0014 63840704 		beqz	a5,.L2
  30              		.loc 1 5 58 discriminator 1
  31 0018 13556500 		srli	a0,a0,6
  32              	.LVL2:
  33              		.loc 1 5 51 discriminator 1
  34 001c 93071500 		addi	a5,a0,1
  35              	.L3:
  36              	.LVL3:
   6:src/syscall_c.cpp **** 
   7:src/syscall_c.cpp ****     // pakovanje argumenata za ovaj sistemski poziv u strukturu i pozivanje funkcije koja ce ih upi
   8:src/syscall_c.cpp ****     static sysCallArgs arguments;
  37              		.loc 1 8 5 is_stmt 1 discriminator 4
   9:src/syscall_c.cpp ****     arguments.arg0 = sysCallCode;
  38              		.loc 1 9 5 discriminator 4
  39              		.loc 1 9 20 is_stmt 0 discriminator 4
  40 0020 17050000 		lla	a0,.LANCHOR0
  40      13050500 
  41 0028 13071000 		li	a4,1
  42 002c 2330E500 		sd	a4,0(a0)
  10:src/syscall_c.cpp ****     arguments.arg1 = numberOfBlocks;
  43              		.loc 1 10 5 is_stmt 1 discriminator 4
  44              		.loc 1 10 20 is_stmt 0 discriminator 4
  45 0030 2334F500 		sd	a5,8(a0)
  11:src/syscall_c.cpp ****     arguments.arg2 = 0;
  46              		.loc 1 11 5 is_stmt 1 discriminator 4
GAS LISTING /tmp/ccnOg7gr.s 			page 2


  47              		.loc 1 11 20 is_stmt 0 discriminator 4
  48 0034 23380500 		sd	zero,16(a0)
  12:src/syscall_c.cpp ****     arguments.arg3 = 0;
  49              		.loc 1 12 5 is_stmt 1 discriminator 4
  50              		.loc 1 12 20 is_stmt 0 discriminator 4
  51 0038 233C0500 		sd	zero,24(a0)
  13:src/syscall_c.cpp ****     arguments.arg4 = 0;
  52              		.loc 1 13 5 is_stmt 1 discriminator 4
  53              		.loc 1 13 20 is_stmt 0 discriminator 4
  54 003c 23300502 		sd	zero,32(a0)
  14:src/syscall_c.cpp ****     prepareArgsAndEcall(&arguments);
  55              		.loc 1 14 5 is_stmt 1 discriminator 4
  56              		.loc 1 14 24 is_stmt 0 discriminator 4
  57 0040 97000000 		call	_Z19prepareArgsAndEcallP11sysCallArgs@plt
  57      E7800000 
  58              	.LVL4:
  15:src/syscall_c.cpp **** 
  16:src/syscall_c.cpp ****     // u registru a0 se nalazi povratna vrednost sistemskog poziva - to ce biti ovde adresa alocira
  17:src/syscall_c.cpp ****     void* ptr;
  59              		.loc 1 17 5 is_stmt 1 discriminator 4
  18:src/syscall_c.cpp ****     __asm__ volatile ("mv a0,%[ptr]" : [ptr] "=r"(ptr));
  60              		.loc 1 18 5 discriminator 4
  61              		.loc 1 18 56 is_stmt 0 discriminator 4
  62              	#APP
  63              	# 18 "src/syscall_c.cpp" 1
  19              	    return ptr;
  64              		mv a0,a0
  65              	# 0 "" 2
  66              	.LVL5:
  67              		.loc 1 19 5 is_stmt 1 discriminator 4
  20:src/syscall_c.cpp **** }
  68              		.loc 1 20 1 is_stmt 0 discriminator 4
  69              	#NO_APP
  70 004c 83308100 		ld	ra,8(sp)
  71              		.cfi_remember_state
  72              		.cfi_restore 1
  73 0050 03340100 		ld	s0,0(sp)
  74              		.cfi_restore 8
  75              		.cfi_def_cfa 2, 16
  76 0054 13010101 		addi	sp,sp,16
  77              		.cfi_def_cfa_offset 0
  78 0058 67800000 		jr	ra
  79              	.LVL6:
  80              	.L2:
  81              		.cfi_restore_state
   5:src/syscall_c.cpp **** 
  82              		.loc 1 5 51 discriminator 2
  83 005c 93576500 		srli	a5,a0,6
  84 0060 6FF01FFC 		j	.L3
  85              		.cfi_endproc
  86              	.LFE0:
  88              		.align	2
  89              		.globl	_Z8mem_freePv
  91              	_Z8mem_freePv:
  92              	.LFB1:
  21:src/syscall_c.cpp **** 
  22:src/syscall_c.cpp **** int mem_free(void* ptr) {
GAS LISTING /tmp/ccnOg7gr.s 			page 3


  93              		.loc 1 22 25 is_stmt 1
  94              		.cfi_startproc
  95              	.LVL7:
  96 0064 130101FF 		addi	sp,sp,-16
  97              		.cfi_def_cfa_offset 16
  98 0068 23341100 		sd	ra,8(sp)
  99 006c 23308100 		sd	s0,0(sp)
 100              		.cfi_offset 1, -8
 101              		.cfi_offset 8, -16
 102 0070 13040101 		addi	s0,sp,16
 103              		.cfi_def_cfa 8, 0
  23:src/syscall_c.cpp ****     uint64 sysCallCode = 0x02; // kod ovog sistemskog poziva
 104              		.loc 1 23 5
 105              	.LVL8:
  24:src/syscall_c.cpp **** 
  25:src/syscall_c.cpp ****     // pakovanje argumenata za ovaj sistemski poziv u strukturu i pozivanje funkcije koja ce ih upi
  26:src/syscall_c.cpp ****     static sysCallArgs arguments;
 106              		.loc 1 26 5
  27:src/syscall_c.cpp ****     arguments.arg0 = sysCallCode;
 107              		.loc 1 27 5
 108              		.loc 1 27 20 is_stmt 0
 109 0074 97070000 		lla	a5,.LANCHOR0
 109      93870700 
 110 007c 13072000 		li	a4,2
 111 0080 23B4E702 		sd	a4,40(a5)
  28:src/syscall_c.cpp ****     arguments.arg1 = reinterpret_cast<uint64>(ptr);
 112              		.loc 1 28 5 is_stmt 1
 113              		.loc 1 28 20 is_stmt 0
 114 0084 23B8A702 		sd	a0,48(a5)
  29:src/syscall_c.cpp ****     arguments.arg2 = 0;
 115              		.loc 1 29 5 is_stmt 1
 116              		.loc 1 29 20 is_stmt 0
 117 0088 23BC0702 		sd	zero,56(a5)
  30:src/syscall_c.cpp ****     arguments.arg3 = 0;
 118              		.loc 1 30 5 is_stmt 1
 119              		.loc 1 30 20 is_stmt 0
 120 008c 23B00704 		sd	zero,64(a5)
  31:src/syscall_c.cpp ****     arguments.arg4 = 0;
 121              		.loc 1 31 5 is_stmt 1
 122              		.loc 1 31 20 is_stmt 0
 123 0090 23B40704 		sd	zero,72(a5)
  32:src/syscall_c.cpp ****     prepareArgsAndEcall(&arguments);
 124              		.loc 1 32 5 is_stmt 1
 125              		.loc 1 32 24 is_stmt 0
 126 0094 17050000 		lla	a0,.LANCHOR0+40
 126      13050500 
 127              	.LVL9:
 128 009c 97000000 		call	_Z19prepareArgsAndEcallP11sysCallArgs@plt
 128      E7800000 
 129              	.LVL10:
  33:src/syscall_c.cpp **** 
  34:src/syscall_c.cpp ****     // u registru a0 se nalazi povratna vrednost sistemskog poziva - to ce biti ovde informacija
  35:src/syscall_c.cpp ****     // o uspesnosti trazene operacije, to upisujem u successInfo i vracam korisniku
  36:src/syscall_c.cpp ****     int successInfo;
 130              		.loc 1 36 5 is_stmt 1
  37:src/syscall_c.cpp ****     __asm__ volatile ("mv a0,%[successInfo]" : [successInfo] "=r"(successInfo));
 131              		.loc 1 37 5
GAS LISTING /tmp/ccnOg7gr.s 			page 4


 132              		.loc 1 37 80 is_stmt 0
 133              	#APP
 134              	# 37 "src/syscall_c.cpp" 1
  38              	    return successInfo;
 135              		mv a0,a0
 136              	# 0 "" 2
 137              	.LVL11:
 138              		.loc 1 38 5 is_stmt 1
  39:src/syscall_c.cpp **** }
 139              		.loc 1 39 1 is_stmt 0
 140              	#NO_APP
 141 00a8 1B050500 		sext.w	a0,a0
 142 00ac 83308100 		ld	ra,8(sp)
 143              		.cfi_restore 1
 144 00b0 03340100 		ld	s0,0(sp)
 145              		.cfi_restore 8
 146              		.cfi_def_cfa 2, 16
 147 00b4 13010101 		addi	sp,sp,16
 148              		.cfi_def_cfa_offset 0
 149 00b8 67800000 		jr	ra
 150              		.cfi_endproc
 151              	.LFE1:
 153              		.align	2
 154              		.globl	_Z13thread_createPP7_threadPFvPvES2_
 156              	_Z13thread_createPP7_threadPFvPvES2_:
 157              	.LFB2:
  40:src/syscall_c.cpp **** 
  41:src/syscall_c.cpp **** int thread_create(thread_t* handle, void(*start_routine)(void*), void* arg) { // handle je dvostruk
 158              		.loc 1 41 77 is_stmt 1
 159              		.cfi_startproc
 160              	.LVL12:
 161 00bc 130101FD 		addi	sp,sp,-48
 162              		.cfi_def_cfa_offset 48
 163 00c0 23341102 		sd	ra,40(sp)
 164 00c4 23308102 		sd	s0,32(sp)
 165 00c8 233C9100 		sd	s1,24(sp)
 166 00cc 23382101 		sd	s2,16(sp)
 167 00d0 23343101 		sd	s3,8(sp)
 168              		.cfi_offset 1, -8
 169              		.cfi_offset 8, -16
 170              		.cfi_offset 9, -24
 171              		.cfi_offset 18, -32
 172              		.cfi_offset 19, -40
 173 00d4 13040103 		addi	s0,sp,48
 174              		.cfi_def_cfa 8, 0
 175 00d8 13090500 		mv	s2,a0
 176 00dc 93840500 		mv	s1,a1
 177 00e0 93090600 		mv	s3,a2
  42:src/syscall_c.cpp ****     uint64 sysCallCode = 0x11; // kod ovog sistemskog poziva
 178              		.loc 1 42 5
 179              	.LVL13:
  43:src/syscall_c.cpp ****     void* stack;
 180              		.loc 1 43 5
  44:src/syscall_c.cpp ****     if (!start_routine) { // ako je start_routine nullptr, znaci treba pokrenuti nit nad main-om, a
 181              		.loc 1 44 5
 182 00e4 63860506 		beqz	a1,.L10
  45:src/syscall_c.cpp ****         stack = nullptr;
GAS LISTING /tmp/ccnOg7gr.s 			page 5


  46:src/syscall_c.cpp ****     } else {
  47:src/syscall_c.cpp ****         // hocemo da na steku ima mesta za DEFAULT_STACK_SIZE (4096) bajtova - ima mesta za 512 vre
  48:src/syscall_c.cpp ****         stack = mem_alloc(DEFAULT_STACK_SIZE);
 183              		.loc 1 48 9
 184              		.loc 1 48 26 is_stmt 0
 185 00e8 37150000 		li	a0,4096
 186              	.LVL14:
 187 00ec 97000000 		call	_Z9mem_allocm
 187      E7800000 
 188              	.LVL15:
  49:src/syscall_c.cpp ****         if (!stack) return -1;
 189              		.loc 1 49 9 is_stmt 1
 190 00f4 63020506 		beqz	a0,.L14
 191              	.LVL16:
 192              	.L8:
  50:src/syscall_c.cpp ****     }
  51:src/syscall_c.cpp **** 
  52:src/syscall_c.cpp ****     // pakovanje argumenata za ovaj sistemski poziv u strukturu i pozivanje funkcije koja ce ih upi
  53:src/syscall_c.cpp ****     static sysCallArgs arguments;
 193              		.loc 1 53 5
  54:src/syscall_c.cpp ****     arguments.arg0 = sysCallCode;
 194              		.loc 1 54 5
 195              		.loc 1 54 20 is_stmt 0
 196 00f8 97070000 		lla	a5,.LANCHOR0
 196      93870700 
 197 0100 13071001 		li	a4,17
 198 0104 23B8E704 		sd	a4,80(a5)
  55:src/syscall_c.cpp ****     arguments.arg1 = reinterpret_cast<uint64>(handle); // adresa na koju treba upisati adresu novok
 199              		.loc 1 55 5 is_stmt 1
 200              		.loc 1 55 20 is_stmt 0
 201 0108 23BC2705 		sd	s2,88(a5)
  56:src/syscall_c.cpp ****     arguments.arg2 = reinterpret_cast<uint64>(start_routine); // adresa funkcije koju treba da izvr
 202              		.loc 1 56 5 is_stmt 1
 203              		.loc 1 56 20 is_stmt 0
 204 010c 23B09706 		sd	s1,96(a5)
  57:src/syscall_c.cpp ****     arguments.arg3 = reinterpret_cast<uint64>(arg); // adresa argumenta koji treba proslediti funkc
 205              		.loc 1 57 5 is_stmt 1
 206              		.loc 1 57 20 is_stmt 0
 207 0110 23B43707 		sd	s3,104(a5)
  58:src/syscall_c.cpp ****     arguments.arg4 = reinterpret_cast<uint64>(stack); // adresa na kojoj je alociran stek za ovu ni
 208              		.loc 1 58 5 is_stmt 1
 209              		.loc 1 58 20 is_stmt 0
 210 0114 23B8A706 		sd	a0,112(a5)
  59:src/syscall_c.cpp ****     prepareArgsAndEcall(&arguments);
 211              		.loc 1 59 5 is_stmt 1
 212              		.loc 1 59 24 is_stmt 0
 213 0118 17050000 		lla	a0,.LANCHOR0+80
 213      13050500 
 214              	.LVL17:
 215 0120 97000000 		call	_Z19prepareArgsAndEcallP11sysCallArgs@plt
 215      E7800000 
 216              	.LVL18:
  60:src/syscall_c.cpp **** 
  61:src/syscall_c.cpp ****     // slucaj kada je neuspesno alociran prostor za novu nit (u prekidnoj rutini se poziva TCB::cre
  62:src/syscall_c.cpp ****     if (*handle == nullptr) return -1;
 217              		.loc 1 62 5 is_stmt 1
 218              		.loc 1 62 9 is_stmt 0
GAS LISTING /tmp/ccnOg7gr.s 			page 6


 219 0128 83370900 		ld	a5,0(s2)
 220              		.loc 1 62 5
 221 012c 638A0702 		beqz	a5,.L12
  63:src/syscall_c.cpp **** 
  64:src/syscall_c.cpp ****     return 0;
 222              		.loc 1 64 12
 223 0130 13050000 		li	a0,0
 224              	.L9:
  65:src/syscall_c.cpp **** }
 225              		.loc 1 65 1
 226 0134 83308102 		ld	ra,40(sp)
 227              		.cfi_remember_state
 228              		.cfi_restore 1
 229 0138 03340102 		ld	s0,32(sp)
 230              		.cfi_restore 8
 231              		.cfi_def_cfa 2, 48
 232 013c 83348101 		ld	s1,24(sp)
 233              		.cfi_restore 9
 234              	.LVL19:
 235 0140 03390101 		ld	s2,16(sp)
 236              		.cfi_restore 18
 237              	.LVL20:
 238 0144 83398100 		ld	s3,8(sp)
 239              		.cfi_restore 19
 240              	.LVL21:
 241 0148 13010103 		addi	sp,sp,48
 242              		.cfi_def_cfa_offset 0
 243 014c 67800000 		jr	ra
 244              	.LVL22:
 245              	.L10:
 246              		.cfi_restore_state
  45:src/syscall_c.cpp ****     } else {
 247              		.loc 1 45 15
 248 0150 13050000 		li	a0,0
 249              	.LVL23:
 250 0154 6FF05FFA 		j	.L8
 251              	.LVL24:
 252              	.L14:
  49:src/syscall_c.cpp ****     }
 253              		.loc 1 49 29
 254 0158 1305F0FF 		li	a0,-1
 255              	.LVL25:
 256 015c 6FF09FFD 		j	.L9
 257              	.L12:
  62:src/syscall_c.cpp **** 
 258              		.loc 1 62 37
 259 0160 1305F0FF 		li	a0,-1
 260 0164 6FF01FFD 		j	.L9
 261              		.cfi_endproc
 262              	.LFE2:
 264              		.align	2
 265              		.globl	_Z11thread_exitv
 267              	_Z11thread_exitv:
 268              	.LFB3:
  66:src/syscall_c.cpp **** 
  67:src/syscall_c.cpp **** int thread_exit() {
 269              		.loc 1 67 19 is_stmt 1
GAS LISTING /tmp/ccnOg7gr.s 			page 7


 270              		.cfi_startproc
 271 0168 130101FF 		addi	sp,sp,-16
 272              		.cfi_def_cfa_offset 16
 273 016c 23341100 		sd	ra,8(sp)
 274 0170 23308100 		sd	s0,0(sp)
 275              		.cfi_offset 1, -8
 276              		.cfi_offset 8, -16
 277 0174 13040101 		addi	s0,sp,16
 278              		.cfi_def_cfa 8, 0
  68:src/syscall_c.cpp ****     uint64 sysCallCode = 0x12; // kod ovog sistemskog poziva
 279              		.loc 1 68 5
 280              	.LVL26:
  69:src/syscall_c.cpp **** 
  70:src/syscall_c.cpp ****     // pakovanje argumenata za ovaj sistemski poziv u strukturu i pozivanje funkcije koja ce ih upi
  71:src/syscall_c.cpp ****     static sysCallArgs arguments;
 281              		.loc 1 71 5
  72:src/syscall_c.cpp ****     arguments.arg0 = sysCallCode;
 282              		.loc 1 72 5
 283              		.loc 1 72 20 is_stmt 0
 284 0178 97070000 		lla	a5,.LANCHOR0
 284      93870700 
 285 0180 13072001 		li	a4,18
 286 0184 23BCE706 		sd	a4,120(a5)
  73:src/syscall_c.cpp ****     arguments.arg1 = 0;
 287              		.loc 1 73 5 is_stmt 1
 288              		.loc 1 73 20 is_stmt 0
 289 0188 23B00708 		sd	zero,128(a5)
  74:src/syscall_c.cpp ****     arguments.arg2 = 0;
 290              		.loc 1 74 5 is_stmt 1
 291              		.loc 1 74 20 is_stmt 0
 292 018c 23B40708 		sd	zero,136(a5)
  75:src/syscall_c.cpp ****     arguments.arg3 = 0;
 293              		.loc 1 75 5 is_stmt 1
 294              		.loc 1 75 20 is_stmt 0
 295 0190 23B80708 		sd	zero,144(a5)
  76:src/syscall_c.cpp ****     arguments.arg4 = 0;
 296              		.loc 1 76 5 is_stmt 1
 297              		.loc 1 76 20 is_stmt 0
 298 0194 23BC0708 		sd	zero,152(a5)
  77:src/syscall_c.cpp ****     prepareArgsAndEcall(&arguments);
 299              		.loc 1 77 5 is_stmt 1
 300              		.loc 1 77 24 is_stmt 0
 301 0198 17050000 		lla	a0,.LANCHOR0+120
 301      13050500 
 302 01a0 97000000 		call	_Z19prepareArgsAndEcallP11sysCallArgs@plt
 302      E7800000 
 303              	.LVL27:
  78:src/syscall_c.cpp **** 
  79:src/syscall_c.cpp ****     // ukoliko se sistemski poziv thread_exit vrati ovde, to znaci da nit nije uspesno ugasena i da
  80:src/syscall_c.cpp ****     // se vraca definitivno kod greske u tom slucaju
  81:src/syscall_c.cpp ****     return -1;
 304              		.loc 1 81 5 is_stmt 1
  82:src/syscall_c.cpp **** }
 305              		.loc 1 82 1 is_stmt 0
 306 01a8 1305F0FF 		li	a0,-1
 307 01ac 83308100 		ld	ra,8(sp)
 308              		.cfi_restore 1
GAS LISTING /tmp/ccnOg7gr.s 			page 8


 309 01b0 03340100 		ld	s0,0(sp)
 310              		.cfi_restore 8
 311              		.cfi_def_cfa 2, 16
 312 01b4 13010101 		addi	sp,sp,16
 313              		.cfi_def_cfa_offset 0
 314 01b8 67800000 		jr	ra
 315              		.cfi_endproc
 316              	.LFE3:
 318              		.align	2
 319              		.globl	_Z15thread_dispatchv
 321              	_Z15thread_dispatchv:
 322              	.LFB4:
  83:src/syscall_c.cpp **** 
  84:src/syscall_c.cpp **** void thread_dispatch() {
 323              		.loc 1 84 24 is_stmt 1
 324              		.cfi_startproc
 325 01bc 130101FF 		addi	sp,sp,-16
 326              		.cfi_def_cfa_offset 16
 327 01c0 23341100 		sd	ra,8(sp)
 328 01c4 23308100 		sd	s0,0(sp)
 329              		.cfi_offset 1, -8
 330              		.cfi_offset 8, -16
 331 01c8 13040101 		addi	s0,sp,16
 332              		.cfi_def_cfa 8, 0
  85:src/syscall_c.cpp ****     uint64 sysCallCode = 0x13; // kod ovog sistemskog poziva
 333              		.loc 1 85 5
 334              	.LVL28:
  86:src/syscall_c.cpp **** 
  87:src/syscall_c.cpp ****     // pakovanje argumenata za ovaj sistemski poziv u strukturu i pozivanje funkcije koja ce ih upi
  88:src/syscall_c.cpp ****     static sysCallArgs arguments;
 335              		.loc 1 88 5
  89:src/syscall_c.cpp ****     arguments.arg0 = sysCallCode;
 336              		.loc 1 89 5
 337              		.loc 1 89 20 is_stmt 0
 338 01cc 97070000 		lla	a5,.LANCHOR0
 338      93870700 
 339 01d4 13073001 		li	a4,19
 340 01d8 23B0E70A 		sd	a4,160(a5)
  90:src/syscall_c.cpp ****     arguments.arg1 = 0;
 341              		.loc 1 90 5 is_stmt 1
 342              		.loc 1 90 20 is_stmt 0
 343 01dc 23B4070A 		sd	zero,168(a5)
  91:src/syscall_c.cpp ****     arguments.arg2 = 0;
 344              		.loc 1 91 5 is_stmt 1
 345              		.loc 1 91 20 is_stmt 0
 346 01e0 23B8070A 		sd	zero,176(a5)
  92:src/syscall_c.cpp ****     arguments.arg3 = 0;
 347              		.loc 1 92 5 is_stmt 1
 348              		.loc 1 92 20 is_stmt 0
 349 01e4 23BC070A 		sd	zero,184(a5)
  93:src/syscall_c.cpp ****     arguments.arg4 = 0;
 350              		.loc 1 93 5 is_stmt 1
 351              		.loc 1 93 20 is_stmt 0
 352 01e8 23B0070C 		sd	zero,192(a5)
  94:src/syscall_c.cpp ****     prepareArgsAndEcall(&arguments);
 353              		.loc 1 94 5 is_stmt 1
 354              		.loc 1 94 24 is_stmt 0
GAS LISTING /tmp/ccnOg7gr.s 			page 9


 355 01ec 17050000 		lla	a0,.LANCHOR0+160
 355      13050500 
 356 01f4 97000000 		call	_Z19prepareArgsAndEcallP11sysCallArgs@plt
 356      E7800000 
 357              	.LVL29:
  95:src/syscall_c.cpp **** }
 358              		.loc 1 95 1
 359 01fc 83308100 		ld	ra,8(sp)
 360              		.cfi_restore 1
 361 0200 03340100 		ld	s0,0(sp)
 362              		.cfi_restore 8
 363              		.cfi_def_cfa 2, 16
 364 0204 13010101 		addi	sp,sp,16
 365              		.cfi_def_cfa_offset 0
 366 0208 67800000 		jr	ra
 367              		.cfi_endproc
 368              	.LFE4:
 370              		.align	2
 371              		.globl	_Z17thread_create_cppPP7_threadPFvPvES2_
 373              	_Z17thread_create_cppPP7_threadPFvPvES2_:
 374              	.LFB5:
  96:src/syscall_c.cpp **** 
  97:src/syscall_c.cpp **** int thread_create_cpp(thread_t* handle, void(*start_routine)(void*), void* arg) {
 375              		.loc 1 97 81 is_stmt 1
 376              		.cfi_startproc
 377              	.LVL30:
 378 020c 130101FD 		addi	sp,sp,-48
 379              		.cfi_def_cfa_offset 48
 380 0210 23341102 		sd	ra,40(sp)
 381 0214 23308102 		sd	s0,32(sp)
 382 0218 233C9100 		sd	s1,24(sp)
 383 021c 23382101 		sd	s2,16(sp)
 384 0220 23343101 		sd	s3,8(sp)
 385              		.cfi_offset 1, -8
 386              		.cfi_offset 8, -16
 387              		.cfi_offset 9, -24
 388              		.cfi_offset 18, -32
 389              		.cfi_offset 19, -40
 390 0224 13040103 		addi	s0,sp,48
 391              		.cfi_def_cfa 8, 0
 392 0228 13090500 		mv	s2,a0
 393 022c 93840500 		mv	s1,a1
 394 0230 93090600 		mv	s3,a2
  98:src/syscall_c.cpp ****     uint64 sysCallCode = 0x14; // kod ovog sistemskog poziva
 395              		.loc 1 98 5
 396              	.LVL31:
  99:src/syscall_c.cpp ****     void* stack;
 397              		.loc 1 99 5
 100:src/syscall_c.cpp ****     if (!start_routine) { // ako je start_routine nullptr, znaci treba pokrenuti nit nad main-om, a
 398              		.loc 1 100 5
 399 0234 63860506 		beqz	a1,.L22
 101:src/syscall_c.cpp ****         stack = nullptr;
 102:src/syscall_c.cpp ****     } else {
 103:src/syscall_c.cpp ****         // hocemo da na steku ima mesta za DEFAULT_STACK_SIZE (4096) bajtova - ima mesta za 512 vre
 104:src/syscall_c.cpp ****         stack = mem_alloc(DEFAULT_STACK_SIZE);
 400              		.loc 1 104 9
 401              		.loc 1 104 26 is_stmt 0
GAS LISTING /tmp/ccnOg7gr.s 			page 10


 402 0238 37150000 		li	a0,4096
 403              	.LVL32:
 404 023c 97000000 		call	_Z9mem_allocm
 404      E7800000 
 405              	.LVL33:
 105:src/syscall_c.cpp ****         if (!stack) return -1;
 406              		.loc 1 105 9 is_stmt 1
 407 0244 63020506 		beqz	a0,.L26
 408              	.LVL34:
 409              	.L20:
 106:src/syscall_c.cpp ****     }
 107:src/syscall_c.cpp **** 
 108:src/syscall_c.cpp ****     // pakovanje argumenata za ovaj sistemski poziv u strukturu i pozivanje funkcije koja ce ih upi
 109:src/syscall_c.cpp ****     static sysCallArgs arguments;
 410              		.loc 1 109 5
 110:src/syscall_c.cpp ****     arguments.arg0 = sysCallCode;
 411              		.loc 1 110 5
 412              		.loc 1 110 20 is_stmt 0
 413 0248 97070000 		lla	a5,.LANCHOR0
 413      93870700 
 414 0250 13074001 		li	a4,20
 415 0254 23B4E70C 		sd	a4,200(a5)
 111:src/syscall_c.cpp ****     arguments.arg1 = reinterpret_cast<uint64>(handle); // adresa na koju treba upisati adresu novok
 416              		.loc 1 111 5 is_stmt 1
 417              		.loc 1 111 20 is_stmt 0
 418 0258 23B8270D 		sd	s2,208(a5)
 112:src/syscall_c.cpp ****     arguments.arg2 = reinterpret_cast<uint64>(start_routine); // adresa funkcije koju treba da izvr
 419              		.loc 1 112 5 is_stmt 1
 420              		.loc 1 112 20 is_stmt 0
 421 025c 23BC970C 		sd	s1,216(a5)
 113:src/syscall_c.cpp ****     arguments.arg3 = reinterpret_cast<uint64>(arg); // adresa argumenta koji treba proslediti funkc
 422              		.loc 1 113 5 is_stmt 1
 423              		.loc 1 113 20 is_stmt 0
 424 0260 23B0370F 		sd	s3,224(a5)
 114:src/syscall_c.cpp ****     arguments.arg4 = reinterpret_cast<uint64>(stack); // adresa na kojoj je alociran stek za ovu ni
 425              		.loc 1 114 5 is_stmt 1
 426              		.loc 1 114 20 is_stmt 0
 427 0264 23B4A70E 		sd	a0,232(a5)
 115:src/syscall_c.cpp ****     prepareArgsAndEcall(&arguments);
 428              		.loc 1 115 5 is_stmt 1
 429              		.loc 1 115 24 is_stmt 0
 430 0268 17050000 		lla	a0,.LANCHOR0+200
 430      13050500 
 431              	.LVL35:
 432 0270 97000000 		call	_Z19prepareArgsAndEcallP11sysCallArgs@plt
 432      E7800000 
 433              	.LVL36:
 116:src/syscall_c.cpp **** 
 117:src/syscall_c.cpp ****     // slucaj kada je neuspesno alociran prostor za novu nit (u prekidnoj rutini se poziva TCB::cre
 118:src/syscall_c.cpp ****     if (*handle == nullptr) return -1;
 434              		.loc 1 118 5 is_stmt 1
 435              		.loc 1 118 9 is_stmt 0
 436 0278 83370900 		ld	a5,0(s2)
 437              		.loc 1 118 5
 438 027c 638A0702 		beqz	a5,.L24
 119:src/syscall_c.cpp **** 
 120:src/syscall_c.cpp ****     return 0;
GAS LISTING /tmp/ccnOg7gr.s 			page 11


 439              		.loc 1 120 12
 440 0280 13050000 		li	a0,0
 441              	.L21:
 121:src/syscall_c.cpp **** }
 442              		.loc 1 121 1
 443 0284 83308102 		ld	ra,40(sp)
 444              		.cfi_remember_state
 445              		.cfi_restore 1
 446 0288 03340102 		ld	s0,32(sp)
 447              		.cfi_restore 8
 448              		.cfi_def_cfa 2, 48
 449 028c 83348101 		ld	s1,24(sp)
 450              		.cfi_restore 9
 451              	.LVL37:
 452 0290 03390101 		ld	s2,16(sp)
 453              		.cfi_restore 18
 454              	.LVL38:
 455 0294 83398100 		ld	s3,8(sp)
 456              		.cfi_restore 19
 457              	.LVL39:
 458 0298 13010103 		addi	sp,sp,48
 459              		.cfi_def_cfa_offset 0
 460 029c 67800000 		jr	ra
 461              	.LVL40:
 462              	.L22:
 463              		.cfi_restore_state
 101:src/syscall_c.cpp ****     } else {
 464              		.loc 1 101 15
 465 02a0 13050000 		li	a0,0
 466              	.LVL41:
 467 02a4 6FF05FFA 		j	.L20
 468              	.LVL42:
 469              	.L26:
 105:src/syscall_c.cpp ****     }
 470              		.loc 1 105 29
 471 02a8 1305F0FF 		li	a0,-1
 472              	.LVL43:
 473 02ac 6FF09FFD 		j	.L21
 474              	.L24:
 118:src/syscall_c.cpp **** 
 475              		.loc 1 118 37
 476 02b0 1305F0FF 		li	a0,-1
 477 02b4 6FF01FFD 		j	.L21
 478              		.cfi_endproc
 479              	.LFE5:
 481              		.align	2
 482              		.globl	_Z13scheduler_putP7_thread
 484              	_Z13scheduler_putP7_thread:
 485              	.LFB6:
 122:src/syscall_c.cpp **** 
 123:src/syscall_c.cpp **** int scheduler_put(thread_t thread) {
 486              		.loc 1 123 36 is_stmt 1
 487              		.cfi_startproc
 488              	.LVL44:
 124:src/syscall_c.cpp ****     uint64 sysCallCode = 0x15; // kod ovog sistemskog poziva
 489              		.loc 1 124 5
 125:src/syscall_c.cpp ****     if (!thread) return -1;
GAS LISTING /tmp/ccnOg7gr.s 			page 12


 490              		.loc 1 125 5
 491 02b8 630C0504 		beqz	a0,.L29
 123:src/syscall_c.cpp ****     uint64 sysCallCode = 0x15; // kod ovog sistemskog poziva
 492              		.loc 1 123 36 is_stmt 0
 493 02bc 130101FF 		addi	sp,sp,-16
 494              		.cfi_def_cfa_offset 16
 495 02c0 23341100 		sd	ra,8(sp)
 496 02c4 23308100 		sd	s0,0(sp)
 497              		.cfi_offset 1, -8
 498              		.cfi_offset 8, -16
 499 02c8 13040101 		addi	s0,sp,16
 500              		.cfi_def_cfa 8, 0
 126:src/syscall_c.cpp **** 
 127:src/syscall_c.cpp ****     // pakovanje argumenata za ovaj sistemski poziv u strukturu i pozivanje funkcije koja ce ih upi
 128:src/syscall_c.cpp ****     static sysCallArgs arguments;
 501              		.loc 1 128 5 is_stmt 1
 129:src/syscall_c.cpp ****     arguments.arg0 = sysCallCode;
 502              		.loc 1 129 5
 503              		.loc 1 129 20 is_stmt 0
 504 02cc 97070000 		lla	a5,.LANCHOR0
 504      93870700 
 505 02d4 13075001 		li	a4,21
 506 02d8 23B8E70E 		sd	a4,240(a5)
 130:src/syscall_c.cpp ****     arguments.arg1 = reinterpret_cast<uint64>(thread);
 507              		.loc 1 130 5 is_stmt 1
 508              		.loc 1 130 20 is_stmt 0
 509 02dc 23BCA70E 		sd	a0,248(a5)
 131:src/syscall_c.cpp ****     arguments.arg2 = 0;
 510              		.loc 1 131 5 is_stmt 1
 511              		.loc 1 131 20 is_stmt 0
 512 02e0 23B00710 		sd	zero,256(a5)
 132:src/syscall_c.cpp ****     arguments.arg3 = 0;
 513              		.loc 1 132 5 is_stmt 1
 514              		.loc 1 132 20 is_stmt 0
 515 02e4 23B40710 		sd	zero,264(a5)
 133:src/syscall_c.cpp ****     arguments.arg4 = 0;
 516              		.loc 1 133 5 is_stmt 1
 517              		.loc 1 133 20 is_stmt 0
 518 02e8 23B80710 		sd	zero,272(a5)
 134:src/syscall_c.cpp ****     prepareArgsAndEcall(&arguments);
 519              		.loc 1 134 5 is_stmt 1
 520              		.loc 1 134 24 is_stmt 0
 521 02ec 17050000 		lla	a0,.LANCHOR0+240
 521      13050500 
 522              	.LVL45:
 523 02f4 97000000 		call	_Z19prepareArgsAndEcallP11sysCallArgs@plt
 523      E7800000 
 524              	.LVL46:
 135:src/syscall_c.cpp **** 
 136:src/syscall_c.cpp ****     // ovaj sistemski poziv uvek uspeva jer je ovo jednostavno uvezivanje u listu schedulera bez di
 137:src/syscall_c.cpp ****     return 0;
 525              		.loc 1 137 5 is_stmt 1
 526              		.loc 1 137 12 is_stmt 0
 527 02fc 13050000 		li	a0,0
 138:src/syscall_c.cpp **** }
 528              		.loc 1 138 1
 529 0300 83308100 		ld	ra,8(sp)
GAS LISTING /tmp/ccnOg7gr.s 			page 13


 530              		.cfi_restore 1
 531 0304 03340100 		ld	s0,0(sp)
 532              		.cfi_restore 8
 533              		.cfi_def_cfa 2, 16
 534 0308 13010101 		addi	sp,sp,16
 535              		.cfi_def_cfa_offset 0
 536 030c 67800000 		jr	ra
 537              	.LVL47:
 538              	.L29:
 125:src/syscall_c.cpp **** 
 539              		.loc 1 125 26
 540 0310 1305F0FF 		li	a0,-1
 541              	.LVL48:
 542              		.loc 1 138 1
 543 0314 67800000 		ret
 544              		.cfi_endproc
 545              	.LFE6:
 547              		.align	2
 548              		.globl	_Z11getThreadIdv
 550              	_Z11getThreadIdv:
 551              	.LFB7:
 139:src/syscall_c.cpp **** 
 140:src/syscall_c.cpp **** int getThreadId() {
 552              		.loc 1 140 19 is_stmt 1
 553              		.cfi_startproc
 554 0318 130101FF 		addi	sp,sp,-16
 555              		.cfi_def_cfa_offset 16
 556 031c 23341100 		sd	ra,8(sp)
 557 0320 23308100 		sd	s0,0(sp)
 558              		.cfi_offset 1, -8
 559              		.cfi_offset 8, -16
 560 0324 13040101 		addi	s0,sp,16
 561              		.cfi_def_cfa 8, 0
 141:src/syscall_c.cpp ****     uint64 sysCallCode = 0x16; // kod ovog sistemskog poziva
 562              		.loc 1 141 5
 563              	.LVL49:
 142:src/syscall_c.cpp **** 
 143:src/syscall_c.cpp ****     // pakovanje argumenata za ovaj sistemski poziv u strukturu i pozivanje funkcije koja ce ih upi
 144:src/syscall_c.cpp ****     static sysCallArgs arguments;
 564              		.loc 1 144 5
 145:src/syscall_c.cpp ****     arguments.arg0 = sysCallCode;
 565              		.loc 1 145 5
 566              		.loc 1 145 20 is_stmt 0
 567 0328 97070000 		lla	a5,.LANCHOR0
 567      93870700 
 568 0330 13076001 		li	a4,22
 569 0334 23BCE710 		sd	a4,280(a5)
 146:src/syscall_c.cpp ****     arguments.arg1 = 0;
 570              		.loc 1 146 5 is_stmt 1
 571              		.loc 1 146 20 is_stmt 0
 572 0338 23B00712 		sd	zero,288(a5)
 147:src/syscall_c.cpp ****     arguments.arg2 = 0;
 573              		.loc 1 147 5 is_stmt 1
 574              		.loc 1 147 20 is_stmt 0
 575 033c 23B40712 		sd	zero,296(a5)
 148:src/syscall_c.cpp ****     arguments.arg3 = 0;
 576              		.loc 1 148 5 is_stmt 1
GAS LISTING /tmp/ccnOg7gr.s 			page 14


 577              		.loc 1 148 20 is_stmt 0
 578 0340 23B80712 		sd	zero,304(a5)
 149:src/syscall_c.cpp ****     arguments.arg4 = 0;
 579              		.loc 1 149 5 is_stmt 1
 580              		.loc 1 149 20 is_stmt 0
 581 0344 23BC0712 		sd	zero,312(a5)
 150:src/syscall_c.cpp ****     prepareArgsAndEcall(&arguments);
 582              		.loc 1 150 5 is_stmt 1
 583              		.loc 1 150 24 is_stmt 0
 584 0348 17050000 		lla	a0,.LANCHOR0+280
 584      13050500 
 585 0350 97000000 		call	_Z19prepareArgsAndEcallP11sysCallArgs@plt
 585      E7800000 
 586              	.LVL50:
 151:src/syscall_c.cpp **** 
 152:src/syscall_c.cpp ****     // u registru a0 se nalazi povratna vrednost sistemskog poziva - to ce biti ovde informacija
 153:src/syscall_c.cpp ****     // o uspesnosti trazene operacije, to upisujem u successInfo i vracam korisniku
 154:src/syscall_c.cpp ****     int successInfo;
 587              		.loc 1 154 5 is_stmt 1
 155:src/syscall_c.cpp ****     __asm__ volatile ("mv a0,%[successInfo]" : [successInfo] "=r"(successInfo));
 588              		.loc 1 155 5
 589              		.loc 1 155 80 is_stmt 0
 590              	#APP
 591              	# 155 "src/syscall_c.cpp" 1
 156              	    return successInfo;
 592              		mv a0,a0
 593              	# 0 "" 2
 594              	.LVL51:
 595              		.loc 1 156 5 is_stmt 1
 157:src/syscall_c.cpp **** }
 596              		.loc 1 157 1 is_stmt 0
 597              	#NO_APP
 598 035c 1B050500 		sext.w	a0,a0
 599 0360 83308100 		ld	ra,8(sp)
 600              		.cfi_restore 1
 601 0364 03340100 		ld	s0,0(sp)
 602              		.cfi_restore 8
 603              		.cfi_def_cfa 2, 16
 604 0368 13010101 		addi	sp,sp,16
 605              		.cfi_def_cfa_offset 0
 606 036c 67800000 		jr	ra
 607              		.cfi_endproc
 608              	.LFE7:
 610              		.align	2
 611              		.globl	_Z8sem_openPP4_semj
 613              	_Z8sem_openPP4_semj:
 614              	.LFB8:
 158:src/syscall_c.cpp **** 
 159:src/syscall_c.cpp **** int sem_open(sem_t* handle, unsigned init) {
 615              		.loc 1 159 44 is_stmt 1
 616              		.cfi_startproc
 617              	.LVL52:
 618 0370 130101FE 		addi	sp,sp,-32
 619              		.cfi_def_cfa_offset 32
 620 0374 233C1100 		sd	ra,24(sp)
 621 0378 23388100 		sd	s0,16(sp)
 622 037c 23349100 		sd	s1,8(sp)
GAS LISTING /tmp/ccnOg7gr.s 			page 15


 623              		.cfi_offset 1, -8
 624              		.cfi_offset 8, -16
 625              		.cfi_offset 9, -24
 626 0380 13040102 		addi	s0,sp,32
 627              		.cfi_def_cfa 8, 0
 628 0384 93040500 		mv	s1,a0
 160:src/syscall_c.cpp ****     uint64 sysCallCode = 0x21; // kod ovog sistemskog poziva
 629              		.loc 1 160 5
 630              	.LVL53:
 161:src/syscall_c.cpp **** 
 162:src/syscall_c.cpp ****     // pakovanje argumenata za ovaj sistemski poziv u strukturu i pozivanje funkcije koja ce ih upi
 163:src/syscall_c.cpp ****     static sysCallArgs arguments;
 631              		.loc 1 163 5
 164:src/syscall_c.cpp ****     arguments.arg0 = sysCallCode;
 632              		.loc 1 164 5
 633              		.loc 1 164 20 is_stmt 0
 634 0388 97070000 		lla	a5,.LANCHOR0
 634      93870700 
 635 0390 13071002 		li	a4,33
 636 0394 23B0E714 		sd	a4,320(a5)
 165:src/syscall_c.cpp ****     arguments.arg1 = reinterpret_cast<uint64>(handle); // adresa na koju treba upisati adresu novok
 637              		.loc 1 165 5 is_stmt 1
 638              		.loc 1 165 20 is_stmt 0
 639 0398 23B4A714 		sd	a0,328(a5)
 166:src/syscall_c.cpp ****     arguments.arg2 = init;
 640              		.loc 1 166 5 is_stmt 1
 641              		.loc 1 166 22 is_stmt 0
 642 039c 93950502 		slli	a1,a1,32
 643              	.LVL54:
 644 03a0 93D50502 		srli	a1,a1,32
 645              		.loc 1 166 20
 646 03a4 23B8B714 		sd	a1,336(a5)
 167:src/syscall_c.cpp ****     arguments.arg3 = 0;
 647              		.loc 1 167 5 is_stmt 1
 648              		.loc 1 167 20 is_stmt 0
 649 03a8 23BC0714 		sd	zero,344(a5)
 168:src/syscall_c.cpp ****     arguments.arg4 = 0;
 650              		.loc 1 168 5 is_stmt 1
 651              		.loc 1 168 20 is_stmt 0
 652 03ac 23B00716 		sd	zero,352(a5)
 169:src/syscall_c.cpp ****     prepareArgsAndEcall(&arguments);
 653              		.loc 1 169 5 is_stmt 1
 654              		.loc 1 169 24 is_stmt 0
 655 03b0 17050000 		lla	a0,.LANCHOR0+320
 655      13050500 
 656              	.LVL55:
 657 03b8 97000000 		call	_Z19prepareArgsAndEcallP11sysCallArgs@plt
 657      E7800000 
 658              	.LVL56:
 170:src/syscall_c.cpp **** 
 171:src/syscall_c.cpp ****     // slucaj kada je neuspesno alociran prostor za nov semafor (u prekidnoj rutini se poziva Kerne
 172:src/syscall_c.cpp ****     if (*handle == nullptr) return -1;
 659              		.loc 1 172 5 is_stmt 1
 660              		.loc 1 172 9 is_stmt 0
 661 03c0 83B70400 		ld	a5,0(s1)
 662              		.loc 1 172 5
 663 03c4 638E0700 		beqz	a5,.L38
GAS LISTING /tmp/ccnOg7gr.s 			page 16


 173:src/syscall_c.cpp **** 
 174:src/syscall_c.cpp ****     return 0;
 664              		.loc 1 174 12
 665 03c8 13050000 		li	a0,0
 666              	.L37:
 175:src/syscall_c.cpp **** }
 667              		.loc 1 175 1
 668 03cc 83308101 		ld	ra,24(sp)
 669              		.cfi_remember_state
 670              		.cfi_restore 1
 671 03d0 03340101 		ld	s0,16(sp)
 672              		.cfi_restore 8
 673              		.cfi_def_cfa 2, 32
 674 03d4 83348100 		ld	s1,8(sp)
 675              		.cfi_restore 9
 676              	.LVL57:
 677 03d8 13010102 		addi	sp,sp,32
 678              		.cfi_def_cfa_offset 0
 679 03dc 67800000 		jr	ra
 680              	.LVL58:
 681              	.L38:
 682              		.cfi_restore_state
 172:src/syscall_c.cpp **** 
 683              		.loc 1 172 37
 684 03e0 1305F0FF 		li	a0,-1
 685 03e4 6FF09FFE 		j	.L37
 686              		.cfi_endproc
 687              	.LFE8:
 689              		.align	2
 690              		.globl	_Z9sem_closeP4_sem
 692              	_Z9sem_closeP4_sem:
 693              	.LFB9:
 176:src/syscall_c.cpp **** 
 177:src/syscall_c.cpp **** int sem_close(sem_t handle) {
 694              		.loc 1 177 29 is_stmt 1
 695              		.cfi_startproc
 696              	.LVL59:
 697 03e8 130101FF 		addi	sp,sp,-16
 698              		.cfi_def_cfa_offset 16
 699 03ec 23341100 		sd	ra,8(sp)
 700 03f0 23308100 		sd	s0,0(sp)
 701              		.cfi_offset 1, -8
 702              		.cfi_offset 8, -16
 703 03f4 13040101 		addi	s0,sp,16
 704              		.cfi_def_cfa 8, 0
 178:src/syscall_c.cpp ****     uint64 sysCallCode = 0x22; // kod ovog sistemskog poziva
 705              		.loc 1 178 5
 706              	.LVL60:
 179:src/syscall_c.cpp **** 
 180:src/syscall_c.cpp ****     // pakovanje argumenata za ovaj sistemski poziv u strukturu i pozivanje funkcije koja ce ih upi
 181:src/syscall_c.cpp ****     static sysCallArgs arguments;
 707              		.loc 1 181 5
 182:src/syscall_c.cpp ****     arguments.arg0 = sysCallCode;
 708              		.loc 1 182 5
 709              		.loc 1 182 20 is_stmt 0
 710 03f8 97070000 		lla	a5,.LANCHOR0
 710      93870700 
GAS LISTING /tmp/ccnOg7gr.s 			page 17


 711 0400 13072002 		li	a4,34
 712 0404 23B4E716 		sd	a4,360(a5)
 183:src/syscall_c.cpp ****     arguments.arg1 = reinterpret_cast<uint64>(handle); // adresa semafora kojeg treba osloboditi
 713              		.loc 1 183 5 is_stmt 1
 714              		.loc 1 183 20 is_stmt 0
 715 0408 23B8A716 		sd	a0,368(a5)
 184:src/syscall_c.cpp ****     arguments.arg2 = 0;
 716              		.loc 1 184 5 is_stmt 1
 717              		.loc 1 184 20 is_stmt 0
 718 040c 23BC0716 		sd	zero,376(a5)
 185:src/syscall_c.cpp ****     arguments.arg3 = 0;
 719              		.loc 1 185 5 is_stmt 1
 720              		.loc 1 185 20 is_stmt 0
 721 0410 23B00718 		sd	zero,384(a5)
 186:src/syscall_c.cpp ****     arguments.arg4 = 0;
 722              		.loc 1 186 5 is_stmt 1
 723              		.loc 1 186 20 is_stmt 0
 724 0414 23B40718 		sd	zero,392(a5)
 187:src/syscall_c.cpp ****     prepareArgsAndEcall(&arguments);
 725              		.loc 1 187 5 is_stmt 1
 726              		.loc 1 187 24 is_stmt 0
 727 0418 17050000 		lla	a0,.LANCHOR0+360
 727      13050500 
 728              	.LVL61:
 729 0420 97000000 		call	_Z19prepareArgsAndEcallP11sysCallArgs@plt
 729      E7800000 
 730              	.LVL62:
 188:src/syscall_c.cpp **** 
 189:src/syscall_c.cpp ****     // u registru a0 se nalazi povratna vrednost sistemskog poziva - to ce biti ovde informacija
 190:src/syscall_c.cpp ****     // o uspesnosti trazene operacije, to upisujem u successInfo i vracam korisniku
 191:src/syscall_c.cpp ****     int successInfo;
 731              		.loc 1 191 5 is_stmt 1
 192:src/syscall_c.cpp ****     __asm__ volatile ("mv a0,%[successInfo]" : [successInfo] "=r"(successInfo));
 732              		.loc 1 192 5
 733              		.loc 1 192 80 is_stmt 0
 734              	#APP
 735              	# 192 "src/syscall_c.cpp" 1
 193              	    return successInfo;
 736              		mv a0,a0
 737              	# 0 "" 2
 738              	.LVL63:
 739              		.loc 1 193 5 is_stmt 1
 194:src/syscall_c.cpp **** }
 740              		.loc 1 194 1 is_stmt 0
 741              	#NO_APP
 742 042c 1B050500 		sext.w	a0,a0
 743 0430 83308100 		ld	ra,8(sp)
 744              		.cfi_restore 1
 745 0434 03340100 		ld	s0,0(sp)
 746              		.cfi_restore 8
 747              		.cfi_def_cfa 2, 16
 748 0438 13010101 		addi	sp,sp,16
 749              		.cfi_def_cfa_offset 0
 750 043c 67800000 		jr	ra
 751              		.cfi_endproc
 752              	.LFE9:
 754              		.align	2
GAS LISTING /tmp/ccnOg7gr.s 			page 18


 755              		.globl	_Z8sem_waitP4_sem
 757              	_Z8sem_waitP4_sem:
 758              	.LFB10:
 195:src/syscall_c.cpp **** 
 196:src/syscall_c.cpp **** int sem_wait(sem_t id) {
 759              		.loc 1 196 24 is_stmt 1
 760              		.cfi_startproc
 761              	.LVL64:
 762 0440 130101FF 		addi	sp,sp,-16
 763              		.cfi_def_cfa_offset 16
 764 0444 23341100 		sd	ra,8(sp)
 765 0448 23308100 		sd	s0,0(sp)
 766              		.cfi_offset 1, -8
 767              		.cfi_offset 8, -16
 768 044c 13040101 		addi	s0,sp,16
 769              		.cfi_def_cfa 8, 0
 197:src/syscall_c.cpp ****     uint64 sysCallCode = 0x23; // kod ovog sistemskog poziva
 770              		.loc 1 197 5
 771              	.LVL65:
 198:src/syscall_c.cpp **** 
 199:src/syscall_c.cpp ****     // pakovanje argumenata za ovaj sistemski poziv u strukturu i pozivanje funkcije koja ce ih upi
 200:src/syscall_c.cpp ****     static sysCallArgs arguments;
 772              		.loc 1 200 5
 201:src/syscall_c.cpp ****     arguments.arg0 = sysCallCode;
 773              		.loc 1 201 5
 774              		.loc 1 201 20 is_stmt 0
 775 0450 97070000 		lla	a5,.LANCHOR0
 775      93870700 
 776 0458 13073002 		li	a4,35
 777 045c 23B8E718 		sd	a4,400(a5)
 202:src/syscall_c.cpp ****     arguments.arg1 = reinterpret_cast<uint64>(id); // adresa semafora za koji treba da se pozove me
 778              		.loc 1 202 5 is_stmt 1
 779              		.loc 1 202 20 is_stmt 0
 780 0460 23BCA718 		sd	a0,408(a5)
 203:src/syscall_c.cpp ****     arguments.arg2 = 0;
 781              		.loc 1 203 5 is_stmt 1
 782              		.loc 1 203 20 is_stmt 0
 783 0464 23B0071A 		sd	zero,416(a5)
 204:src/syscall_c.cpp ****     arguments.arg3 = 0;
 784              		.loc 1 204 5 is_stmt 1
 785              		.loc 1 204 20 is_stmt 0
 786 0468 23B4071A 		sd	zero,424(a5)
 205:src/syscall_c.cpp ****     arguments.arg4 = 0;
 787              		.loc 1 205 5 is_stmt 1
 788              		.loc 1 205 20 is_stmt 0
 789 046c 23B8071A 		sd	zero,432(a5)
 206:src/syscall_c.cpp ****     prepareArgsAndEcall(&arguments);
 790              		.loc 1 206 5 is_stmt 1
 791              		.loc 1 206 24 is_stmt 0
 792 0470 17050000 		lla	a0,.LANCHOR0+400
 792      13050500 
 793              	.LVL66:
 794 0478 97000000 		call	_Z19prepareArgsAndEcallP11sysCallArgs@plt
 794      E7800000 
 795              	.LVL67:
 207:src/syscall_c.cpp **** 
 208:src/syscall_c.cpp ****     // u registru a0 se nalazi povratna vrednost sistemskog poziva - to ce biti ovde informacija
GAS LISTING /tmp/ccnOg7gr.s 			page 19


 209:src/syscall_c.cpp ****     // o uspesnosti trazene operacije, to upisujem u successInfo i vracam korisniku
 210:src/syscall_c.cpp ****     int successInfo;
 796              		.loc 1 210 5 is_stmt 1
 211:src/syscall_c.cpp ****     __asm__ volatile ("mv a0,%[successInfo]" : [successInfo] "=r"(successInfo));
 797              		.loc 1 211 5
 798              		.loc 1 211 80 is_stmt 0
 799              	#APP
 800              	# 211 "src/syscall_c.cpp" 1
 212              	    return successInfo;
 801              		mv a0,a0
 802              	# 0 "" 2
 803              	.LVL68:
 804              		.loc 1 212 5 is_stmt 1
 213:src/syscall_c.cpp **** }
 805              		.loc 1 213 1 is_stmt 0
 806              	#NO_APP
 807 0484 1B050500 		sext.w	a0,a0
 808 0488 83308100 		ld	ra,8(sp)
 809              		.cfi_restore 1
 810 048c 03340100 		ld	s0,0(sp)
 811              		.cfi_restore 8
 812              		.cfi_def_cfa 2, 16
 813 0490 13010101 		addi	sp,sp,16
 814              		.cfi_def_cfa_offset 0
 815 0494 67800000 		jr	ra
 816              		.cfi_endproc
 817              	.LFE10:
 819              		.align	2
 820              		.globl	_Z10sem_signalP4_sem
 822              	_Z10sem_signalP4_sem:
 823              	.LFB11:
 214:src/syscall_c.cpp **** 
 215:src/syscall_c.cpp **** int sem_signal(sem_t id) {
 824              		.loc 1 215 26 is_stmt 1
 825              		.cfi_startproc
 826              	.LVL69:
 827 0498 130101FF 		addi	sp,sp,-16
 828              		.cfi_def_cfa_offset 16
 829 049c 23341100 		sd	ra,8(sp)
 830 04a0 23308100 		sd	s0,0(sp)
 831              		.cfi_offset 1, -8
 832              		.cfi_offset 8, -16
 833 04a4 13040101 		addi	s0,sp,16
 834              		.cfi_def_cfa 8, 0
 216:src/syscall_c.cpp ****     uint64 sysCallCode = 0x24; // kod ovog sistemskog poziva
 835              		.loc 1 216 5
 836              	.LVL70:
 217:src/syscall_c.cpp **** 
 218:src/syscall_c.cpp ****     // pakovanje argumenata za ovaj sistemski poziv u strukturu i pozivanje funkcije koja ce ih upi
 219:src/syscall_c.cpp ****     static sysCallArgs arguments;
 837              		.loc 1 219 5
 220:src/syscall_c.cpp ****     arguments.arg0 = sysCallCode;
 838              		.loc 1 220 5
 839              		.loc 1 220 20 is_stmt 0
 840 04a8 97070000 		lla	a5,.LANCHOR0
 840      93870700 
 841 04b0 13074002 		li	a4,36
GAS LISTING /tmp/ccnOg7gr.s 			page 20


 842 04b4 23BCE71A 		sd	a4,440(a5)
 221:src/syscall_c.cpp ****     arguments.arg1 = reinterpret_cast<uint64>(id); // adresa semafora za koji treba da se pozove me
 843              		.loc 1 221 5 is_stmt 1
 844              		.loc 1 221 20 is_stmt 0
 845 04b8 23B0A71C 		sd	a0,448(a5)
 222:src/syscall_c.cpp ****     arguments.arg2 = 0;
 846              		.loc 1 222 5 is_stmt 1
 847              		.loc 1 222 20 is_stmt 0
 848 04bc 23B4071C 		sd	zero,456(a5)
 223:src/syscall_c.cpp ****     arguments.arg3 = 0;
 849              		.loc 1 223 5 is_stmt 1
 850              		.loc 1 223 20 is_stmt 0
 851 04c0 23B8071C 		sd	zero,464(a5)
 224:src/syscall_c.cpp ****     arguments.arg4 = 0;
 852              		.loc 1 224 5 is_stmt 1
 853              		.loc 1 224 20 is_stmt 0
 854 04c4 23BC071C 		sd	zero,472(a5)
 225:src/syscall_c.cpp ****     prepareArgsAndEcall(&arguments);
 855              		.loc 1 225 5 is_stmt 1
 856              		.loc 1 225 24 is_stmt 0
 857 04c8 17050000 		lla	a0,.LANCHOR0+440
 857      13050500 
 858              	.LVL71:
 859 04d0 97000000 		call	_Z19prepareArgsAndEcallP11sysCallArgs@plt
 859      E7800000 
 860              	.LVL72:
 226:src/syscall_c.cpp **** 
 227:src/syscall_c.cpp ****     // sem_signal se uvek uspesno obavi - nema ni rizika od eventualnog loseg rada alokatora memori
 228:src/syscall_c.cpp ****     // i dealociram dinamicki elemente ulancane liste blokiranih niti na semaforu, vec pomocu pokaz
 229:src/syscall_c.cpp ****     // klase TCB formiram ulancanu listu
 230:src/syscall_c.cpp ****     return 0;
 861              		.loc 1 230 5 is_stmt 1
 231:src/syscall_c.cpp **** }
 862              		.loc 1 231 1 is_stmt 0
 863 04d8 13050000 		li	a0,0
 864 04dc 83308100 		ld	ra,8(sp)
 865              		.cfi_restore 1
 866 04e0 03340100 		ld	s0,0(sp)
 867              		.cfi_restore 8
 868              		.cfi_def_cfa 2, 16
 869 04e4 13010101 		addi	sp,sp,16
 870              		.cfi_def_cfa_offset 0
 871 04e8 67800000 		jr	ra
 872              		.cfi_endproc
 873              	.LFE11:
 875              		.align	2
 876              		.globl	_Z10time_sleepm
 878              	_Z10time_sleepm:
 879              	.LFB12:
 232:src/syscall_c.cpp **** 
 233:src/syscall_c.cpp **** int time_sleep(time_t time) { // time_t je zapravo uint64
 880              		.loc 1 233 29 is_stmt 1
 881              		.cfi_startproc
 882              	.LVL73:
 234:src/syscall_c.cpp ****     uint64 sysCallCode = 0x31; // kod ovog sistemskog poziva
 883              		.loc 1 234 5
 235:src/syscall_c.cpp **** 
GAS LISTING /tmp/ccnOg7gr.s 			page 21


 236:src/syscall_c.cpp ****     if (time == 0) return 0;
 884              		.loc 1 236 5
 885 04ec 63160500 		bnez	a0,.L53
 886              		.loc 1 236 27 is_stmt 0
 887 04f0 13050000 		li	a0,0
 888              	.LVL74:
 237:src/syscall_c.cpp **** 
 238:src/syscall_c.cpp ****     // pakovanje argumenata za ovaj sistemski poziv u strukturu i pozivanje funkcije koja ce ih upi
 239:src/syscall_c.cpp ****     static sysCallArgs arguments;
 240:src/syscall_c.cpp ****     arguments.arg0 = sysCallCode;
 241:src/syscall_c.cpp ****     arguments.arg1 = time;
 242:src/syscall_c.cpp ****     arguments.arg2 = 0;
 243:src/syscall_c.cpp ****     arguments.arg3 = 0;
 244:src/syscall_c.cpp ****     arguments.arg4 = 0;
 245:src/syscall_c.cpp ****     prepareArgsAndEcall(&arguments);
 246:src/syscall_c.cpp **** 
 247:src/syscall_c.cpp ****     // u registru a0 se nalazi povratna vrednost sistemskog poziva - to ce biti ovde informacija
 248:src/syscall_c.cpp ****     // o uspesnosti trazene operacije, to upisujem u successInfo i vracam korisniku
 249:src/syscall_c.cpp ****     int successInfo;
 250:src/syscall_c.cpp ****     __asm__ volatile ("mv a0,%[successInfo]" : [successInfo] "=r"(successInfo));
 251:src/syscall_c.cpp ****     return successInfo;
 252:src/syscall_c.cpp **** }
 889              		.loc 1 252 1
 890 04f4 67800000 		ret
 891              	.LVL75:
 892              	.L53:
 233:src/syscall_c.cpp ****     uint64 sysCallCode = 0x31; // kod ovog sistemskog poziva
 893              		.loc 1 233 29
 894 04f8 130101FF 		addi	sp,sp,-16
 895              		.cfi_def_cfa_offset 16
 896 04fc 23341100 		sd	ra,8(sp)
 897 0500 23308100 		sd	s0,0(sp)
 898              		.cfi_offset 1, -8
 899              		.cfi_offset 8, -16
 900 0504 13040101 		addi	s0,sp,16
 901              		.cfi_def_cfa 8, 0
 239:src/syscall_c.cpp ****     arguments.arg0 = sysCallCode;
 902              		.loc 1 239 5 is_stmt 1
 240:src/syscall_c.cpp ****     arguments.arg1 = time;
 903              		.loc 1 240 5
 240:src/syscall_c.cpp ****     arguments.arg1 = time;
 904              		.loc 1 240 20 is_stmt 0
 905 0508 97070000 		lla	a5,.LANCHOR0
 905      93870700 
 906 0510 13071003 		li	a4,49
 907 0514 23B0E71E 		sd	a4,480(a5)
 241:src/syscall_c.cpp ****     arguments.arg2 = 0;
 908              		.loc 1 241 5 is_stmt 1
 241:src/syscall_c.cpp ****     arguments.arg2 = 0;
 909              		.loc 1 241 20 is_stmt 0
 910 0518 23B4A71E 		sd	a0,488(a5)
 242:src/syscall_c.cpp ****     arguments.arg3 = 0;
 911              		.loc 1 242 5 is_stmt 1
 242:src/syscall_c.cpp ****     arguments.arg3 = 0;
 912              		.loc 1 242 20 is_stmt 0
 913 051c 23B8071E 		sd	zero,496(a5)
 243:src/syscall_c.cpp ****     arguments.arg4 = 0;
GAS LISTING /tmp/ccnOg7gr.s 			page 22


 914              		.loc 1 243 5 is_stmt 1
 243:src/syscall_c.cpp ****     arguments.arg4 = 0;
 915              		.loc 1 243 20 is_stmt 0
 916 0520 23BC071E 		sd	zero,504(a5)
 244:src/syscall_c.cpp ****     prepareArgsAndEcall(&arguments);
 917              		.loc 1 244 5 is_stmt 1
 244:src/syscall_c.cpp ****     prepareArgsAndEcall(&arguments);
 918              		.loc 1 244 20 is_stmt 0
 919 0524 23B00720 		sd	zero,512(a5)
 245:src/syscall_c.cpp **** 
 920              		.loc 1 245 5 is_stmt 1
 245:src/syscall_c.cpp **** 
 921              		.loc 1 245 24 is_stmt 0
 922 0528 17050000 		lla	a0,.LANCHOR0+480
 922      13050500 
 923              	.LVL76:
 924 0530 97000000 		call	_Z19prepareArgsAndEcallP11sysCallArgs@plt
 924      E7800000 
 925              	.LVL77:
 249:src/syscall_c.cpp ****     __asm__ volatile ("mv a0,%[successInfo]" : [successInfo] "=r"(successInfo));
 926              		.loc 1 249 5 is_stmt 1
 250:src/syscall_c.cpp ****     return successInfo;
 927              		.loc 1 250 5
 250:src/syscall_c.cpp ****     return successInfo;
 928              		.loc 1 250 80 is_stmt 0
 929              	#APP
 930              	# 250 "src/syscall_c.cpp" 1
 931              		mv a0,a0
 932              	# 0 "" 2
 933              	#NO_APP
 934 053c 1B050500 		sext.w	a0,a0
 935              	.LVL78:
 251:src/syscall_c.cpp **** }
 936              		.loc 1 251 5 is_stmt 1
 937              		.loc 1 252 1 is_stmt 0
 938 0540 83308100 		ld	ra,8(sp)
 939              		.cfi_restore 1
 940 0544 03340100 		ld	s0,0(sp)
 941              		.cfi_restore 8
 942              		.cfi_def_cfa 2, 16
 943 0548 13010101 		addi	sp,sp,16
 944              		.cfi_def_cfa_offset 0
 945 054c 67800000 		jr	ra
 946              		.cfi_endproc
 947              	.LFE12:
 949              		.align	2
 950              		.globl	_Z4getcv
 952              	_Z4getcv:
 953              	.LFB13:
 253:src/syscall_c.cpp **** 
 254:src/syscall_c.cpp **** char getc() {
 954              		.loc 1 254 13 is_stmt 1
 955              		.cfi_startproc
 956 0550 130101FF 		addi	sp,sp,-16
 957              		.cfi_def_cfa_offset 16
 958 0554 23341100 		sd	ra,8(sp)
 959 0558 23308100 		sd	s0,0(sp)
GAS LISTING /tmp/ccnOg7gr.s 			page 23


 960              		.cfi_offset 1, -8
 961              		.cfi_offset 8, -16
 962 055c 13040101 		addi	s0,sp,16
 963              		.cfi_def_cfa 8, 0
 255:src/syscall_c.cpp ****     uint64 sysCallCode = 0x41; // kod ovog sistemskog poziva
 964              		.loc 1 255 5
 965              	.LVL79:
 256:src/syscall_c.cpp **** 
 257:src/syscall_c.cpp ****     // pakovanje argumenata za ovaj sistemski poziv u strukturu i pozivanje funkcije koja ce ih upi
 258:src/syscall_c.cpp ****     static sysCallArgs arguments;
 966              		.loc 1 258 5
 259:src/syscall_c.cpp ****     arguments.arg0 = sysCallCode;
 967              		.loc 1 259 5
 968              		.loc 1 259 20 is_stmt 0
 969 0560 97070000 		lla	a5,.LANCHOR0
 969      93870700 
 970 0568 13071004 		li	a4,65
 971 056c 23B4E720 		sd	a4,520(a5)
 260:src/syscall_c.cpp ****     arguments.arg1 = 0;
 972              		.loc 1 260 5 is_stmt 1
 973              		.loc 1 260 20 is_stmt 0
 974 0570 23B80720 		sd	zero,528(a5)
 261:src/syscall_c.cpp ****     arguments.arg2 = 0;
 975              		.loc 1 261 5 is_stmt 1
 976              		.loc 1 261 20 is_stmt 0
 977 0574 23BC0720 		sd	zero,536(a5)
 262:src/syscall_c.cpp ****     arguments.arg3 = 0;
 978              		.loc 1 262 5 is_stmt 1
 979              		.loc 1 262 20 is_stmt 0
 980 0578 23B00722 		sd	zero,544(a5)
 263:src/syscall_c.cpp ****     arguments.arg4 = 0;
 981              		.loc 1 263 5 is_stmt 1
 982              		.loc 1 263 20 is_stmt 0
 983 057c 23B40722 		sd	zero,552(a5)
 264:src/syscall_c.cpp ****     prepareArgsAndEcall(&arguments);
 984              		.loc 1 264 5 is_stmt 1
 985              		.loc 1 264 24 is_stmt 0
 986 0580 17050000 		lla	a0,.LANCHOR0+520
 986      13050500 
 987 0588 97000000 		call	_Z19prepareArgsAndEcallP11sysCallArgs@plt
 987      E7800000 
 988              	.LVL80:
 265:src/syscall_c.cpp **** 
 266:src/syscall_c.cpp ****     char inputCharacter;
 989              		.loc 1 266 5 is_stmt 1
 267:src/syscall_c.cpp ****     __asm__ volatile ("mv a0,%[inputCharacter]" : [inputCharacter] "=r"(inputCharacter));
 990              		.loc 1 267 5
 991              		.loc 1 267 89 is_stmt 0
 992              	#APP
 993              	# 267 "src/syscall_c.cpp" 1
 268              	    return inputCharacter;
 994              		mv a0,a0
 995              	# 0 "" 2
 996              	.LVL81:
 997              		.loc 1 268 5 is_stmt 1
 269:src/syscall_c.cpp **** }
 998              		.loc 1 269 1 is_stmt 0
GAS LISTING /tmp/ccnOg7gr.s 			page 24


 999              	#NO_APP
 1000 0594 1375F50F 		andi	a0,a0,0xff
 1001 0598 83308100 		ld	ra,8(sp)
 1002              		.cfi_restore 1
 1003 059c 03340100 		ld	s0,0(sp)
 1004              		.cfi_restore 8
 1005              		.cfi_def_cfa 2, 16
 1006 05a0 13010101 		addi	sp,sp,16
 1007              		.cfi_def_cfa_offset 0
 1008 05a4 67800000 		jr	ra
 1009              		.cfi_endproc
 1010              	.LFE13:
 1012              		.align	2
 1013              		.globl	_Z4putcc
 1015              	_Z4putcc:
 1016              	.LFB14:
 270:src/syscall_c.cpp **** 
 271:src/syscall_c.cpp **** void putc(char c) {
 1017              		.loc 1 271 19 is_stmt 1
 1018              		.cfi_startproc
 1019              	.LVL82:
 1020 05a8 130101FF 		addi	sp,sp,-16
 1021              		.cfi_def_cfa_offset 16
 1022 05ac 23341100 		sd	ra,8(sp)
 1023 05b0 23308100 		sd	s0,0(sp)
 1024              		.cfi_offset 1, -8
 1025              		.cfi_offset 8, -16
 1026 05b4 13040101 		addi	s0,sp,16
 1027              		.cfi_def_cfa 8, 0
 272:src/syscall_c.cpp ****     uint64 sysCallCode = 0x42; // kod ovog sistemskog poziva
 1028              		.loc 1 272 5
 1029              	.LVL83:
 273:src/syscall_c.cpp **** 
 274:src/syscall_c.cpp ****     // pakovanje argumenata za ovaj sistemski poziv u strukturu i pozivanje funkcije koja ce ih upi
 275:src/syscall_c.cpp ****     static sysCallArgs arguments;
 1030              		.loc 1 275 5
 276:src/syscall_c.cpp ****     arguments.arg0 = sysCallCode;
 1031              		.loc 1 276 5
 1032              		.loc 1 276 20 is_stmt 0
 1033 05b8 97070000 		lla	a5,.LANCHOR0
 1033      93870700 
 1034 05c0 13072004 		li	a4,66
 1035 05c4 23B8E722 		sd	a4,560(a5)
 277:src/syscall_c.cpp ****     arguments.arg1 = c;
 1036              		.loc 1 277 5 is_stmt 1
 1037              		.loc 1 277 20 is_stmt 0
 1038 05c8 23BCA722 		sd	a0,568(a5)
 278:src/syscall_c.cpp ****     arguments.arg2 = 0;
 1039              		.loc 1 278 5 is_stmt 1
 1040              		.loc 1 278 20 is_stmt 0
 1041 05cc 23B00724 		sd	zero,576(a5)
 279:src/syscall_c.cpp ****     arguments.arg3 = 0;
 1042              		.loc 1 279 5 is_stmt 1
 1043              		.loc 1 279 20 is_stmt 0
 1044 05d0 23B40724 		sd	zero,584(a5)
 280:src/syscall_c.cpp ****     arguments.arg4 = 0;
 1045              		.loc 1 280 5 is_stmt 1
GAS LISTING /tmp/ccnOg7gr.s 			page 25


 1046              		.loc 1 280 20 is_stmt 0
 1047 05d4 23B80724 		sd	zero,592(a5)
 281:src/syscall_c.cpp ****     prepareArgsAndEcall(&arguments);
 1048              		.loc 1 281 5 is_stmt 1
 1049              		.loc 1 281 24 is_stmt 0
 1050 05d8 17050000 		lla	a0,.LANCHOR0+560
 1050      13050500 
 1051              	.LVL84:
 1052 05e0 97000000 		call	_Z19prepareArgsAndEcallP11sysCallArgs@plt
 1052      E7800000 
 1053              	.LVL85:
 282:src/syscall_c.cpp **** }
 1054              		.loc 1 282 1
 1055 05e8 83308100 		ld	ra,8(sp)
 1056              		.cfi_restore 1
 1057 05ec 03340100 		ld	s0,0(sp)
 1058              		.cfi_restore 8
 1059              		.cfi_def_cfa 2, 16
 1060 05f0 13010101 		addi	sp,sp,16
 1061              		.cfi_def_cfa_offset 0
 1062 05f4 67800000 		jr	ra
 1063              		.cfi_endproc
 1064              	.LFE14:
 1066              		.align	2
 1067              		.globl	_Z22switchSupervisorToUserv
 1069              	_Z22switchSupervisorToUserv:
 1070              	.LFB15:
 283:src/syscall_c.cpp **** 
 284:src/syscall_c.cpp **** void switchSupervisorToUser() {
 1071              		.loc 1 284 31 is_stmt 1
 1072              		.cfi_startproc
 1073 05f8 130101FF 		addi	sp,sp,-16
 1074              		.cfi_def_cfa_offset 16
 1075 05fc 23341100 		sd	ra,8(sp)
 1076 0600 23308100 		sd	s0,0(sp)
 1077              		.cfi_offset 1, -8
 1078              		.cfi_offset 8, -16
 1079 0604 13040101 		addi	s0,sp,16
 1080              		.cfi_def_cfa 8, 0
 285:src/syscall_c.cpp ****     uint64 sysCallCode = 0x50; // kod ovog sistemskog poziva
 1081              		.loc 1 285 5
 1082              	.LVL86:
 286:src/syscall_c.cpp **** 
 287:src/syscall_c.cpp ****     // pakovanje argumenata za ovaj sistemski poziv u strukturu i pozivanje funkcije koja ce ih upi
 288:src/syscall_c.cpp ****     static sysCallArgs arguments;
 1083              		.loc 1 288 5
 289:src/syscall_c.cpp ****     arguments.arg0 = sysCallCode;
 1084              		.loc 1 289 5
 1085              		.loc 1 289 20 is_stmt 0
 1086 0608 97070000 		lla	a5,.LANCHOR0
 1086      93870700 
 1087 0610 13070005 		li	a4,80
 1088 0614 23BCE724 		sd	a4,600(a5)
 290:src/syscall_c.cpp ****     arguments.arg1 = 0;
 1089              		.loc 1 290 5 is_stmt 1
 1090              		.loc 1 290 20 is_stmt 0
 1091 0618 23B00726 		sd	zero,608(a5)
GAS LISTING /tmp/ccnOg7gr.s 			page 26


 291:src/syscall_c.cpp ****     arguments.arg2 = 0;
 1092              		.loc 1 291 5 is_stmt 1
 1093              		.loc 1 291 20 is_stmt 0
 1094 061c 23B40726 		sd	zero,616(a5)
 292:src/syscall_c.cpp ****     arguments.arg3 = 0;
 1095              		.loc 1 292 5 is_stmt 1
 1096              		.loc 1 292 20 is_stmt 0
 1097 0620 23B80726 		sd	zero,624(a5)
 293:src/syscall_c.cpp ****     arguments.arg4 = 0;
 1098              		.loc 1 293 5 is_stmt 1
 1099              		.loc 1 293 20 is_stmt 0
 1100 0624 23BC0726 		sd	zero,632(a5)
 294:src/syscall_c.cpp ****     prepareArgsAndEcall(&arguments);
 1101              		.loc 1 294 5 is_stmt 1
 1102              		.loc 1 294 24 is_stmt 0
 1103 0628 17050000 		lla	a0,.LANCHOR0+600
 1103      13050500 
 1104 0630 97000000 		call	_Z19prepareArgsAndEcallP11sysCallArgs@plt
 1104      E7800000 
 1105              	.LVL87:
 295:src/syscall_c.cpp **** }
 1106              		.loc 1 295 1
 1107 0638 83308100 		ld	ra,8(sp)
 1108              		.cfi_restore 1
 1109 063c 03340100 		ld	s0,0(sp)
 1110              		.cfi_restore 8
 1111              		.cfi_def_cfa 2, 16
 1112 0640 13010101 		addi	sp,sp,16
 1113              		.cfi_def_cfa_offset 0
 1114 0644 67800000 		jr	ra
 1115              		.cfi_endproc
 1116              	.LFE15:
 1118              		.align	2
 1119              		.globl	_Z22switchUserToSupervisorv
 1121              	_Z22switchUserToSupervisorv:
 1122              	.LFB16:
 296:src/syscall_c.cpp **** 
 297:src/syscall_c.cpp **** void switchUserToSupervisor() {
 1123              		.loc 1 297 31 is_stmt 1
 1124              		.cfi_startproc
 1125 0648 130101FF 		addi	sp,sp,-16
 1126              		.cfi_def_cfa_offset 16
 1127 064c 23341100 		sd	ra,8(sp)
 1128 0650 23308100 		sd	s0,0(sp)
 1129              		.cfi_offset 1, -8
 1130              		.cfi_offset 8, -16
 1131 0654 13040101 		addi	s0,sp,16
 1132              		.cfi_def_cfa 8, 0
 298:src/syscall_c.cpp ****     uint64 sysCallCode = 0x51; // kod ovog sistemskog poziva
 1133              		.loc 1 298 5
 1134              	.LVL88:
 299:src/syscall_c.cpp **** 
 300:src/syscall_c.cpp ****     // pakovanje argumenata za ovaj sistemski poziv u strukturu i pozivanje funkcije koja ce ih upi
 301:src/syscall_c.cpp ****     static sysCallArgs arguments;
 1135              		.loc 1 301 5
 302:src/syscall_c.cpp ****     arguments.arg0 = sysCallCode;
 1136              		.loc 1 302 5
GAS LISTING /tmp/ccnOg7gr.s 			page 27


 1137              		.loc 1 302 20 is_stmt 0
 1138 0658 97070000 		lla	a5,.LANCHOR0
 1138      93870700 
 1139 0660 13071005 		li	a4,81
 1140 0664 23B0E728 		sd	a4,640(a5)
 303:src/syscall_c.cpp ****     arguments.arg1 = 0;
 1141              		.loc 1 303 5 is_stmt 1
 1142              		.loc 1 303 20 is_stmt 0
 1143 0668 23B40728 		sd	zero,648(a5)
 304:src/syscall_c.cpp ****     arguments.arg2 = 0;
 1144              		.loc 1 304 5 is_stmt 1
 1145              		.loc 1 304 20 is_stmt 0
 1146 066c 23B80728 		sd	zero,656(a5)
 305:src/syscall_c.cpp ****     arguments.arg3 = 0;
 1147              		.loc 1 305 5 is_stmt 1
 1148              		.loc 1 305 20 is_stmt 0
 1149 0670 23BC0728 		sd	zero,664(a5)
 306:src/syscall_c.cpp ****     arguments.arg4 = 0;
 1150              		.loc 1 306 5 is_stmt 1
 1151              		.loc 1 306 20 is_stmt 0
 1152 0674 23B0072A 		sd	zero,672(a5)
 307:src/syscall_c.cpp ****     prepareArgsAndEcall(&arguments);
 1153              		.loc 1 307 5 is_stmt 1
 1154              		.loc 1 307 24 is_stmt 0
 1155 0678 17050000 		lla	a0,.LANCHOR0+640
 1155      13050500 
 1156 0680 97000000 		call	_Z19prepareArgsAndEcallP11sysCallArgs@plt
 1156      E7800000 
 1157              	.LVL89:
 308:src/syscall_c.cpp **** }...
 1158              		.loc 1 308 1
 1159 0688 83308100 		ld	ra,8(sp)
 1160              		.cfi_restore 1
 1161 068c 03340100 		ld	s0,0(sp)
 1162              		.cfi_restore 8
 1163              		.cfi_def_cfa 2, 16
 1164 0690 13010101 		addi	sp,sp,16
 1165              		.cfi_def_cfa_offset 0
 1166 0694 67800000 		jr	ra
 1167              		.cfi_endproc
 1168              	.LFE16:
 1170              		.bss
 1171              		.align	3
 1172              		.set	.LANCHOR0,. + 0
 1175              	_ZZ9mem_allocmE9arguments:
 1176 0000 00000000 		.zero	40
 1176      00000000 
 1176      00000000 
 1176      00000000 
 1176      00000000 
 1179              	_ZZ8mem_freePvE9arguments:
 1180 0028 00000000 		.zero	40
 1180      00000000 
 1180      00000000 
 1180      00000000 
 1180      00000000 
 1183              	_ZZ13thread_createPP7_threadPFvPvES2_E9arguments:
GAS LISTING /tmp/ccnOg7gr.s 			page 28


 1184 0050 00000000 		.zero	40
 1184      00000000 
 1184      00000000 
 1184      00000000 
 1184      00000000 
 1187              	_ZZ11thread_exitvE9arguments:
 1188 0078 00000000 		.zero	40
 1188      00000000 
 1188      00000000 
 1188      00000000 
 1188      00000000 
 1191              	_ZZ15thread_dispatchvE9arguments:
 1192 00a0 00000000 		.zero	40
 1192      00000000 
 1192      00000000 
 1192      00000000 
 1192      00000000 
 1195              	_ZZ17thread_create_cppPP7_threadPFvPvES2_E9arguments:
 1196 00c8 00000000 		.zero	40
 1196      00000000 
 1196      00000000 
 1196      00000000 
 1196      00000000 
 1199              	_ZZ13scheduler_putP7_threadE9arguments:
 1200 00f0 00000000 		.zero	40
 1200      00000000 
 1200      00000000 
 1200      00000000 
 1200      00000000 
 1203              	_ZZ11getThreadIdvE9arguments:
 1204 0118 00000000 		.zero	40
 1204      00000000 
 1204      00000000 
 1204      00000000 
 1204      00000000 
 1207              	_ZZ8sem_openPP4_semjE9arguments:
 1208 0140 00000000 		.zero	40
 1208      00000000 
 1208      00000000 
 1208      00000000 
 1208      00000000 
 1211              	_ZZ9sem_closeP4_semE9arguments:
 1212 0168 00000000 		.zero	40
 1212      00000000 
 1212      00000000 
 1212      00000000 
 1212      00000000 
 1215              	_ZZ8sem_waitP4_semE9arguments:
 1216 0190 00000000 		.zero	40
 1216      00000000 
 1216      00000000 
 1216      00000000 
 1216      00000000 
 1219              	_ZZ10sem_signalP4_semE9arguments:
 1220 01b8 00000000 		.zero	40
 1220      00000000 
 1220      00000000 
GAS LISTING /tmp/ccnOg7gr.s 			page 29


 1220      00000000 
 1220      00000000 
 1223              	_ZZ10time_sleepmE9arguments:
 1224 01e0 00000000 		.zero	40
 1224      00000000 
 1224      00000000 
 1224      00000000 
 1224      00000000 
 1227              	_ZZ4getcvE9arguments:
 1228 0208 00000000 		.zero	40
 1228      00000000 
 1228      00000000 
 1228      00000000 
 1228      00000000 
 1231              	_ZZ4putccE9arguments:
 1232 0230 00000000 		.zero	40
 1232      00000000 
 1232      00000000 
 1232      00000000 
 1232      00000000 
 1235              	_ZZ22switchSupervisorToUservE9arguments:
 1236 0258 00000000 		.zero	40
 1236      00000000 
 1236      00000000 
 1236      00000000 
 1236      00000000 
 1239              	_ZZ22switchUserToSupervisorvE9arguments:
 1240 0280 00000000 		.zero	40
 1240      00000000 
 1240      00000000 
 1240      00000000 
 1240      00000000 
 1241              		.text
 1242              	.Letext0:
 1243              		.file 2 "src/../h/../lib/hw.h"
 1244              		.file 3 "src/../h/ABI_Interface.h"
 1245              		.file 4 "src/../h/syscall_c.h"
GAS LISTING /tmp/ccnOg7gr.s 			page 30


DEFINED SYMBOLS
                            *ABS*:0000000000000000 syscall_c.cpp
     /tmp/ccnOg7gr.s:9      .text:0000000000000000 _Z9mem_allocm
     /tmp/ccnOg7gr.s:13     .text:0000000000000000 .L0 
     /tmp/ccnOg7gr.s:15     .text:0000000000000000 .L0 
     /tmp/ccnOg7gr.s:16     .text:0000000000000004 .L0 
     /tmp/ccnOg7gr.s:19     .text:000000000000000c .L0 
     /tmp/ccnOg7gr.s:20     .text:000000000000000c .L0 
     /tmp/ccnOg7gr.s:22     .text:0000000000000010 .L0 
     /tmp/ccnOg7gr.s:25     .text:0000000000000010 .L0 
     /tmp/ccnOg7gr.s:26     .text:0000000000000010 .L0 
     /tmp/ccnOg7gr.s:27     .text:0000000000000010 .L0 
     /tmp/ccnOg7gr.s:29     .text:0000000000000014 .L0 
     /tmp/ccnOg7gr.s:31     .text:0000000000000018 .L0 
     /tmp/ccnOg7gr.s:34     .text:000000000000001c .L0 
     /tmp/ccnOg7gr.s:38     .text:0000000000000020 .L0 
     /tmp/ccnOg7gr.s:39     .text:0000000000000020 .L0 
     /tmp/ccnOg7gr.s:40     .text:0000000000000020 .L0 
     /tmp/ccnOg7gr.s:44     .text:0000000000000030 .L0 
     /tmp/ccnOg7gr.s:45     .text:0000000000000030 .L0 
     /tmp/ccnOg7gr.s:47     .text:0000000000000034 .L0 
     /tmp/ccnOg7gr.s:48     .text:0000000000000034 .L0 
     /tmp/ccnOg7gr.s:50     .text:0000000000000038 .L0 
     /tmp/ccnOg7gr.s:51     .text:0000000000000038 .L0 
     /tmp/ccnOg7gr.s:53     .text:000000000000003c .L0 
     /tmp/ccnOg7gr.s:54     .text:000000000000003c .L0 
     /tmp/ccnOg7gr.s:56     .text:0000000000000040 .L0 
     /tmp/ccnOg7gr.s:57     .text:0000000000000040 .L0 
     /tmp/ccnOg7gr.s:60     .text:0000000000000048 .L0 
     /tmp/ccnOg7gr.s:61     .text:0000000000000048 .L0 
   src/syscall_c.cpp:18     .text:0000000000000048 .L0 
     /tmp/ccnOg7gr.s:68     .text:000000000000004c .L0 
     /tmp/ccnOg7gr.s:70     .text:000000000000004c .L0 
     /tmp/ccnOg7gr.s:71     .text:0000000000000050 .L0 
     /tmp/ccnOg7gr.s:72     .text:0000000000000050 .L0 
     /tmp/ccnOg7gr.s:74     .text:0000000000000054 .L0 
     /tmp/ccnOg7gr.s:75     .text:0000000000000054 .L0 
     /tmp/ccnOg7gr.s:77     .text:0000000000000058 .L0 
     /tmp/ccnOg7gr.s:81     .text:000000000000005c .L0 
     /tmp/ccnOg7gr.s:83     .text:000000000000005c .L0 
     /tmp/ccnOg7gr.s:85     .text:0000000000000064 .L0 
     /tmp/ccnOg7gr.s:91     .text:0000000000000064 _Z8mem_freePv
     /tmp/ccnOg7gr.s:94     .text:0000000000000064 .L0 
     /tmp/ccnOg7gr.s:96     .text:0000000000000064 .L0 
     /tmp/ccnOg7gr.s:97     .text:0000000000000068 .L0 
     /tmp/ccnOg7gr.s:100    .text:0000000000000070 .L0 
     /tmp/ccnOg7gr.s:101    .text:0000000000000070 .L0 
     /tmp/ccnOg7gr.s:103    .text:0000000000000074 .L0 
     /tmp/ccnOg7gr.s:106    .text:0000000000000074 .L0 
     /tmp/ccnOg7gr.s:107    .text:0000000000000074 .L0 
     /tmp/ccnOg7gr.s:108    .text:0000000000000074 .L0 
     /tmp/ccnOg7gr.s:109    .text:0000000000000074 .L0 
     /tmp/ccnOg7gr.s:113    .text:0000000000000084 .L0 
     /tmp/ccnOg7gr.s:114    .text:0000000000000084 .L0 
     /tmp/ccnOg7gr.s:116    .text:0000000000000088 .L0 
     /tmp/ccnOg7gr.s:117    .text:0000000000000088 .L0 
     /tmp/ccnOg7gr.s:119    .text:000000000000008c .L0 
GAS LISTING /tmp/ccnOg7gr.s 			page 31


     /tmp/ccnOg7gr.s:120    .text:000000000000008c .L0 
     /tmp/ccnOg7gr.s:122    .text:0000000000000090 .L0 
     /tmp/ccnOg7gr.s:123    .text:0000000000000090 .L0 
     /tmp/ccnOg7gr.s:125    .text:0000000000000094 .L0 
     /tmp/ccnOg7gr.s:126    .text:0000000000000094 .L0 
     /tmp/ccnOg7gr.s:131    .text:00000000000000a4 .L0 
     /tmp/ccnOg7gr.s:132    .text:00000000000000a4 .L0 
   src/syscall_c.cpp:37     .text:00000000000000a4 .L0 
     /tmp/ccnOg7gr.s:139    .text:00000000000000a8 .L0 
     /tmp/ccnOg7gr.s:141    .text:00000000000000a8 .L0 
     /tmp/ccnOg7gr.s:143    .text:00000000000000b0 .L0 
     /tmp/ccnOg7gr.s:145    .text:00000000000000b4 .L0 
     /tmp/ccnOg7gr.s:146    .text:00000000000000b4 .L0 
     /tmp/ccnOg7gr.s:148    .text:00000000000000b8 .L0 
     /tmp/ccnOg7gr.s:150    .text:00000000000000bc .L0 
     /tmp/ccnOg7gr.s:156    .text:00000000000000bc _Z13thread_createPP7_threadPFvPvES2_
     /tmp/ccnOg7gr.s:159    .text:00000000000000bc .L0 
     /tmp/ccnOg7gr.s:161    .text:00000000000000bc .L0 
     /tmp/ccnOg7gr.s:162    .text:00000000000000c0 .L0 
     /tmp/ccnOg7gr.s:168    .text:00000000000000d4 .L0 
     /tmp/ccnOg7gr.s:169    .text:00000000000000d4 .L0 
     /tmp/ccnOg7gr.s:170    .text:00000000000000d4 .L0 
     /tmp/ccnOg7gr.s:171    .text:00000000000000d4 .L0 
     /tmp/ccnOg7gr.s:172    .text:00000000000000d4 .L0 
     /tmp/ccnOg7gr.s:174    .text:00000000000000d8 .L0 
     /tmp/ccnOg7gr.s:180    .text:00000000000000e4 .L0 
     /tmp/ccnOg7gr.s:181    .text:00000000000000e4 .L0 
     /tmp/ccnOg7gr.s:182    .text:00000000000000e4 .L0 
     /tmp/ccnOg7gr.s:184    .text:00000000000000e8 .L0 
     /tmp/ccnOg7gr.s:185    .text:00000000000000e8 .L0 
     /tmp/ccnOg7gr.s:190    .text:00000000000000f4 .L0 
     /tmp/ccnOg7gr.s:194    .text:00000000000000f8 .L0 
     /tmp/ccnOg7gr.s:195    .text:00000000000000f8 .L0 
     /tmp/ccnOg7gr.s:196    .text:00000000000000f8 .L0 
     /tmp/ccnOg7gr.s:200    .text:0000000000000108 .L0 
     /tmp/ccnOg7gr.s:201    .text:0000000000000108 .L0 
     /tmp/ccnOg7gr.s:203    .text:000000000000010c .L0 
     /tmp/ccnOg7gr.s:204    .text:000000000000010c .L0 
     /tmp/ccnOg7gr.s:206    .text:0000000000000110 .L0 
     /tmp/ccnOg7gr.s:207    .text:0000000000000110 .L0 
     /tmp/ccnOg7gr.s:209    .text:0000000000000114 .L0 
     /tmp/ccnOg7gr.s:210    .text:0000000000000114 .L0 
     /tmp/ccnOg7gr.s:212    .text:0000000000000118 .L0 
     /tmp/ccnOg7gr.s:213    .text:0000000000000118 .L0 
     /tmp/ccnOg7gr.s:218    .text:0000000000000128 .L0 
     /tmp/ccnOg7gr.s:219    .text:0000000000000128 .L0 
     /tmp/ccnOg7gr.s:221    .text:000000000000012c .L0 
     /tmp/ccnOg7gr.s:223    .text:0000000000000130 .L0 
     /tmp/ccnOg7gr.s:226    .text:0000000000000134 .L0 
     /tmp/ccnOg7gr.s:227    .text:0000000000000138 .L0 
     /tmp/ccnOg7gr.s:228    .text:0000000000000138 .L0 
     /tmp/ccnOg7gr.s:230    .text:000000000000013c .L0 
     /tmp/ccnOg7gr.s:231    .text:000000000000013c .L0 
     /tmp/ccnOg7gr.s:233    .text:0000000000000140 .L0 
     /tmp/ccnOg7gr.s:236    .text:0000000000000144 .L0 
     /tmp/ccnOg7gr.s:239    .text:0000000000000148 .L0 
     /tmp/ccnOg7gr.s:242    .text:000000000000014c .L0 
GAS LISTING /tmp/ccnOg7gr.s 			page 32


     /tmp/ccnOg7gr.s:246    .text:0000000000000150 .L0 
     /tmp/ccnOg7gr.s:248    .text:0000000000000150 .L0 
     /tmp/ccnOg7gr.s:254    .text:0000000000000158 .L0 
     /tmp/ccnOg7gr.s:259    .text:0000000000000160 .L0 
     /tmp/ccnOg7gr.s:261    .text:0000000000000168 .L0 
     /tmp/ccnOg7gr.s:267    .text:0000000000000168 _Z11thread_exitv
     /tmp/ccnOg7gr.s:270    .text:0000000000000168 .L0 
     /tmp/ccnOg7gr.s:271    .text:0000000000000168 .L0 
     /tmp/ccnOg7gr.s:272    .text:000000000000016c .L0 
     /tmp/ccnOg7gr.s:275    .text:0000000000000174 .L0 
     /tmp/ccnOg7gr.s:276    .text:0000000000000174 .L0 
     /tmp/ccnOg7gr.s:278    .text:0000000000000178 .L0 
     /tmp/ccnOg7gr.s:281    .text:0000000000000178 .L0 
     /tmp/ccnOg7gr.s:282    .text:0000000000000178 .L0 
     /tmp/ccnOg7gr.s:283    .text:0000000000000178 .L0 
     /tmp/ccnOg7gr.s:284    .text:0000000000000178 .L0 
     /tmp/ccnOg7gr.s:288    .text:0000000000000188 .L0 
     /tmp/ccnOg7gr.s:289    .text:0000000000000188 .L0 
     /tmp/ccnOg7gr.s:291    .text:000000000000018c .L0 
     /tmp/ccnOg7gr.s:292    .text:000000000000018c .L0 
     /tmp/ccnOg7gr.s:294    .text:0000000000000190 .L0 
     /tmp/ccnOg7gr.s:295    .text:0000000000000190 .L0 
     /tmp/ccnOg7gr.s:297    .text:0000000000000194 .L0 
     /tmp/ccnOg7gr.s:298    .text:0000000000000194 .L0 
     /tmp/ccnOg7gr.s:300    .text:0000000000000198 .L0 
     /tmp/ccnOg7gr.s:301    .text:0000000000000198 .L0 
     /tmp/ccnOg7gr.s:305    .text:00000000000001a8 .L0 
     /tmp/ccnOg7gr.s:306    .text:00000000000001a8 .L0 
     /tmp/ccnOg7gr.s:308    .text:00000000000001b0 .L0 
     /tmp/ccnOg7gr.s:310    .text:00000000000001b4 .L0 
     /tmp/ccnOg7gr.s:311    .text:00000000000001b4 .L0 
     /tmp/ccnOg7gr.s:313    .text:00000000000001b8 .L0 
     /tmp/ccnOg7gr.s:315    .text:00000000000001bc .L0 
     /tmp/ccnOg7gr.s:321    .text:00000000000001bc _Z15thread_dispatchv
     /tmp/ccnOg7gr.s:324    .text:00000000000001bc .L0 
     /tmp/ccnOg7gr.s:325    .text:00000000000001bc .L0 
     /tmp/ccnOg7gr.s:326    .text:00000000000001c0 .L0 
     /tmp/ccnOg7gr.s:329    .text:00000000000001c8 .L0 
     /tmp/ccnOg7gr.s:330    .text:00000000000001c8 .L0 
     /tmp/ccnOg7gr.s:332    .text:00000000000001cc .L0 
     /tmp/ccnOg7gr.s:335    .text:00000000000001cc .L0 
     /tmp/ccnOg7gr.s:336    .text:00000000000001cc .L0 
     /tmp/ccnOg7gr.s:337    .text:00000000000001cc .L0 
     /tmp/ccnOg7gr.s:338    .text:00000000000001cc .L0 
     /tmp/ccnOg7gr.s:342    .text:00000000000001dc .L0 
     /tmp/ccnOg7gr.s:343    .text:00000000000001dc .L0 
     /tmp/ccnOg7gr.s:345    .text:00000000000001e0 .L0 
     /tmp/ccnOg7gr.s:346    .text:00000000000001e0 .L0 
     /tmp/ccnOg7gr.s:348    .text:00000000000001e4 .L0 
     /tmp/ccnOg7gr.s:349    .text:00000000000001e4 .L0 
     /tmp/ccnOg7gr.s:351    .text:00000000000001e8 .L0 
     /tmp/ccnOg7gr.s:352    .text:00000000000001e8 .L0 
     /tmp/ccnOg7gr.s:354    .text:00000000000001ec .L0 
     /tmp/ccnOg7gr.s:355    .text:00000000000001ec .L0 
     /tmp/ccnOg7gr.s:359    .text:00000000000001fc .L0 
     /tmp/ccnOg7gr.s:360    .text:0000000000000200 .L0 
     /tmp/ccnOg7gr.s:362    .text:0000000000000204 .L0 
GAS LISTING /tmp/ccnOg7gr.s 			page 33


     /tmp/ccnOg7gr.s:363    .text:0000000000000204 .L0 
     /tmp/ccnOg7gr.s:365    .text:0000000000000208 .L0 
     /tmp/ccnOg7gr.s:367    .text:000000000000020c .L0 
     /tmp/ccnOg7gr.s:373    .text:000000000000020c _Z17thread_create_cppPP7_threadPFvPvES2_
     /tmp/ccnOg7gr.s:376    .text:000000000000020c .L0 
     /tmp/ccnOg7gr.s:378    .text:000000000000020c .L0 
     /tmp/ccnOg7gr.s:379    .text:0000000000000210 .L0 
     /tmp/ccnOg7gr.s:385    .text:0000000000000224 .L0 
     /tmp/ccnOg7gr.s:386    .text:0000000000000224 .L0 
     /tmp/ccnOg7gr.s:387    .text:0000000000000224 .L0 
     /tmp/ccnOg7gr.s:388    .text:0000000000000224 .L0 
     /tmp/ccnOg7gr.s:389    .text:0000000000000224 .L0 
     /tmp/ccnOg7gr.s:391    .text:0000000000000228 .L0 
     /tmp/ccnOg7gr.s:397    .text:0000000000000234 .L0 
     /tmp/ccnOg7gr.s:398    .text:0000000000000234 .L0 
     /tmp/ccnOg7gr.s:399    .text:0000000000000234 .L0 
     /tmp/ccnOg7gr.s:401    .text:0000000000000238 .L0 
     /tmp/ccnOg7gr.s:402    .text:0000000000000238 .L0 
     /tmp/ccnOg7gr.s:407    .text:0000000000000244 .L0 
     /tmp/ccnOg7gr.s:411    .text:0000000000000248 .L0 
     /tmp/ccnOg7gr.s:412    .text:0000000000000248 .L0 
     /tmp/ccnOg7gr.s:413    .text:0000000000000248 .L0 
     /tmp/ccnOg7gr.s:417    .text:0000000000000258 .L0 
     /tmp/ccnOg7gr.s:418    .text:0000000000000258 .L0 
     /tmp/ccnOg7gr.s:420    .text:000000000000025c .L0 
     /tmp/ccnOg7gr.s:421    .text:000000000000025c .L0 
     /tmp/ccnOg7gr.s:423    .text:0000000000000260 .L0 
     /tmp/ccnOg7gr.s:424    .text:0000000000000260 .L0 
     /tmp/ccnOg7gr.s:426    .text:0000000000000264 .L0 
     /tmp/ccnOg7gr.s:427    .text:0000000000000264 .L0 
     /tmp/ccnOg7gr.s:429    .text:0000000000000268 .L0 
     /tmp/ccnOg7gr.s:430    .text:0000000000000268 .L0 
     /tmp/ccnOg7gr.s:435    .text:0000000000000278 .L0 
     /tmp/ccnOg7gr.s:436    .text:0000000000000278 .L0 
     /tmp/ccnOg7gr.s:438    .text:000000000000027c .L0 
     /tmp/ccnOg7gr.s:440    .text:0000000000000280 .L0 
     /tmp/ccnOg7gr.s:443    .text:0000000000000284 .L0 
     /tmp/ccnOg7gr.s:444    .text:0000000000000288 .L0 
     /tmp/ccnOg7gr.s:445    .text:0000000000000288 .L0 
     /tmp/ccnOg7gr.s:447    .text:000000000000028c .L0 
     /tmp/ccnOg7gr.s:448    .text:000000000000028c .L0 
     /tmp/ccnOg7gr.s:450    .text:0000000000000290 .L0 
     /tmp/ccnOg7gr.s:453    .text:0000000000000294 .L0 
     /tmp/ccnOg7gr.s:456    .text:0000000000000298 .L0 
     /tmp/ccnOg7gr.s:459    .text:000000000000029c .L0 
     /tmp/ccnOg7gr.s:463    .text:00000000000002a0 .L0 
     /tmp/ccnOg7gr.s:465    .text:00000000000002a0 .L0 
     /tmp/ccnOg7gr.s:471    .text:00000000000002a8 .L0 
     /tmp/ccnOg7gr.s:476    .text:00000000000002b0 .L0 
     /tmp/ccnOg7gr.s:478    .text:00000000000002b8 .L0 
     /tmp/ccnOg7gr.s:484    .text:00000000000002b8 _Z13scheduler_putP7_thread
     /tmp/ccnOg7gr.s:487    .text:00000000000002b8 .L0 
     /tmp/ccnOg7gr.s:489    .text:00000000000002b8 .L0 
     /tmp/ccnOg7gr.s:490    .text:00000000000002b8 .L0 
     /tmp/ccnOg7gr.s:491    .text:00000000000002b8 .L0 
     /tmp/ccnOg7gr.s:493    .text:00000000000002bc .L0 
     /tmp/ccnOg7gr.s:494    .text:00000000000002c0 .L0 
GAS LISTING /tmp/ccnOg7gr.s 			page 34


     /tmp/ccnOg7gr.s:497    .text:00000000000002c8 .L0 
     /tmp/ccnOg7gr.s:498    .text:00000000000002c8 .L0 
     /tmp/ccnOg7gr.s:500    .text:00000000000002cc .L0 
     /tmp/ccnOg7gr.s:502    .text:00000000000002cc .L0 
     /tmp/ccnOg7gr.s:503    .text:00000000000002cc .L0 
     /tmp/ccnOg7gr.s:504    .text:00000000000002cc .L0 
     /tmp/ccnOg7gr.s:508    .text:00000000000002dc .L0 
     /tmp/ccnOg7gr.s:509    .text:00000000000002dc .L0 
     /tmp/ccnOg7gr.s:511    .text:00000000000002e0 .L0 
     /tmp/ccnOg7gr.s:512    .text:00000000000002e0 .L0 
     /tmp/ccnOg7gr.s:514    .text:00000000000002e4 .L0 
     /tmp/ccnOg7gr.s:515    .text:00000000000002e4 .L0 
     /tmp/ccnOg7gr.s:517    .text:00000000000002e8 .L0 
     /tmp/ccnOg7gr.s:518    .text:00000000000002e8 .L0 
     /tmp/ccnOg7gr.s:520    .text:00000000000002ec .L0 
     /tmp/ccnOg7gr.s:521    .text:00000000000002ec .L0 
     /tmp/ccnOg7gr.s:526    .text:00000000000002fc .L0 
     /tmp/ccnOg7gr.s:527    .text:00000000000002fc .L0 
     /tmp/ccnOg7gr.s:529    .text:0000000000000300 .L0 
     /tmp/ccnOg7gr.s:530    .text:0000000000000304 .L0 
     /tmp/ccnOg7gr.s:532    .text:0000000000000308 .L0 
     /tmp/ccnOg7gr.s:533    .text:0000000000000308 .L0 
     /tmp/ccnOg7gr.s:535    .text:000000000000030c .L0 
     /tmp/ccnOg7gr.s:540    .text:0000000000000310 .L0 
     /tmp/ccnOg7gr.s:543    .text:0000000000000314 .L0 
     /tmp/ccnOg7gr.s:544    .text:0000000000000318 .L0 
     /tmp/ccnOg7gr.s:550    .text:0000000000000318 _Z11getThreadIdv
     /tmp/ccnOg7gr.s:553    .text:0000000000000318 .L0 
     /tmp/ccnOg7gr.s:554    .text:0000000000000318 .L0 
     /tmp/ccnOg7gr.s:555    .text:000000000000031c .L0 
     /tmp/ccnOg7gr.s:558    .text:0000000000000324 .L0 
     /tmp/ccnOg7gr.s:559    .text:0000000000000324 .L0 
     /tmp/ccnOg7gr.s:561    .text:0000000000000328 .L0 
     /tmp/ccnOg7gr.s:564    .text:0000000000000328 .L0 
     /tmp/ccnOg7gr.s:565    .text:0000000000000328 .L0 
     /tmp/ccnOg7gr.s:566    .text:0000000000000328 .L0 
     /tmp/ccnOg7gr.s:567    .text:0000000000000328 .L0 
     /tmp/ccnOg7gr.s:571    .text:0000000000000338 .L0 
     /tmp/ccnOg7gr.s:572    .text:0000000000000338 .L0 
     /tmp/ccnOg7gr.s:574    .text:000000000000033c .L0 
     /tmp/ccnOg7gr.s:575    .text:000000000000033c .L0 
     /tmp/ccnOg7gr.s:577    .text:0000000000000340 .L0 
     /tmp/ccnOg7gr.s:578    .text:0000000000000340 .L0 
     /tmp/ccnOg7gr.s:580    .text:0000000000000344 .L0 
     /tmp/ccnOg7gr.s:581    .text:0000000000000344 .L0 
     /tmp/ccnOg7gr.s:583    .text:0000000000000348 .L0 
     /tmp/ccnOg7gr.s:584    .text:0000000000000348 .L0 
     /tmp/ccnOg7gr.s:588    .text:0000000000000358 .L0 
     /tmp/ccnOg7gr.s:589    .text:0000000000000358 .L0 
   src/syscall_c.cpp:155    .text:0000000000000358 .L0 
     /tmp/ccnOg7gr.s:596    .text:000000000000035c .L0 
     /tmp/ccnOg7gr.s:598    .text:000000000000035c .L0 
     /tmp/ccnOg7gr.s:600    .text:0000000000000364 .L0 
     /tmp/ccnOg7gr.s:602    .text:0000000000000368 .L0 
     /tmp/ccnOg7gr.s:603    .text:0000000000000368 .L0 
     /tmp/ccnOg7gr.s:605    .text:000000000000036c .L0 
     /tmp/ccnOg7gr.s:607    .text:0000000000000370 .L0 
GAS LISTING /tmp/ccnOg7gr.s 			page 35


     /tmp/ccnOg7gr.s:613    .text:0000000000000370 _Z8sem_openPP4_semj
     /tmp/ccnOg7gr.s:616    .text:0000000000000370 .L0 
     /tmp/ccnOg7gr.s:618    .text:0000000000000370 .L0 
     /tmp/ccnOg7gr.s:619    .text:0000000000000374 .L0 
     /tmp/ccnOg7gr.s:623    .text:0000000000000380 .L0 
     /tmp/ccnOg7gr.s:624    .text:0000000000000380 .L0 
     /tmp/ccnOg7gr.s:625    .text:0000000000000380 .L0 
     /tmp/ccnOg7gr.s:627    .text:0000000000000384 .L0 
     /tmp/ccnOg7gr.s:631    .text:0000000000000388 .L0 
     /tmp/ccnOg7gr.s:632    .text:0000000000000388 .L0 
     /tmp/ccnOg7gr.s:633    .text:0000000000000388 .L0 
     /tmp/ccnOg7gr.s:634    .text:0000000000000388 .L0 
     /tmp/ccnOg7gr.s:638    .text:0000000000000398 .L0 
     /tmp/ccnOg7gr.s:639    .text:0000000000000398 .L0 
     /tmp/ccnOg7gr.s:641    .text:000000000000039c .L0 
     /tmp/ccnOg7gr.s:642    .text:000000000000039c .L0 
     /tmp/ccnOg7gr.s:646    .text:00000000000003a4 .L0 
     /tmp/ccnOg7gr.s:648    .text:00000000000003a8 .L0 
     /tmp/ccnOg7gr.s:649    .text:00000000000003a8 .L0 
     /tmp/ccnOg7gr.s:651    .text:00000000000003ac .L0 
     /tmp/ccnOg7gr.s:652    .text:00000000000003ac .L0 
     /tmp/ccnOg7gr.s:654    .text:00000000000003b0 .L0 
     /tmp/ccnOg7gr.s:655    .text:00000000000003b0 .L0 
     /tmp/ccnOg7gr.s:660    .text:00000000000003c0 .L0 
     /tmp/ccnOg7gr.s:661    .text:00000000000003c0 .L0 
     /tmp/ccnOg7gr.s:663    .text:00000000000003c4 .L0 
     /tmp/ccnOg7gr.s:665    .text:00000000000003c8 .L0 
     /tmp/ccnOg7gr.s:668    .text:00000000000003cc .L0 
     /tmp/ccnOg7gr.s:669    .text:00000000000003d0 .L0 
     /tmp/ccnOg7gr.s:670    .text:00000000000003d0 .L0 
     /tmp/ccnOg7gr.s:672    .text:00000000000003d4 .L0 
     /tmp/ccnOg7gr.s:673    .text:00000000000003d4 .L0 
     /tmp/ccnOg7gr.s:675    .text:00000000000003d8 .L0 
     /tmp/ccnOg7gr.s:678    .text:00000000000003dc .L0 
     /tmp/ccnOg7gr.s:682    .text:00000000000003e0 .L0 
     /tmp/ccnOg7gr.s:684    .text:00000000000003e0 .L0 
     /tmp/ccnOg7gr.s:686    .text:00000000000003e8 .L0 
     /tmp/ccnOg7gr.s:692    .text:00000000000003e8 _Z9sem_closeP4_sem
     /tmp/ccnOg7gr.s:695    .text:00000000000003e8 .L0 
     /tmp/ccnOg7gr.s:697    .text:00000000000003e8 .L0 
     /tmp/ccnOg7gr.s:698    .text:00000000000003ec .L0 
     /tmp/ccnOg7gr.s:701    .text:00000000000003f4 .L0 
     /tmp/ccnOg7gr.s:702    .text:00000000000003f4 .L0 
     /tmp/ccnOg7gr.s:704    .text:00000000000003f8 .L0 
     /tmp/ccnOg7gr.s:707    .text:00000000000003f8 .L0 
     /tmp/ccnOg7gr.s:708    .text:00000000000003f8 .L0 
     /tmp/ccnOg7gr.s:709    .text:00000000000003f8 .L0 
     /tmp/ccnOg7gr.s:710    .text:00000000000003f8 .L0 
     /tmp/ccnOg7gr.s:714    .text:0000000000000408 .L0 
     /tmp/ccnOg7gr.s:715    .text:0000000000000408 .L0 
     /tmp/ccnOg7gr.s:717    .text:000000000000040c .L0 
     /tmp/ccnOg7gr.s:718    .text:000000000000040c .L0 
     /tmp/ccnOg7gr.s:720    .text:0000000000000410 .L0 
     /tmp/ccnOg7gr.s:721    .text:0000000000000410 .L0 
     /tmp/ccnOg7gr.s:723    .text:0000000000000414 .L0 
     /tmp/ccnOg7gr.s:724    .text:0000000000000414 .L0 
     /tmp/ccnOg7gr.s:726    .text:0000000000000418 .L0 
GAS LISTING /tmp/ccnOg7gr.s 			page 36


     /tmp/ccnOg7gr.s:727    .text:0000000000000418 .L0 
     /tmp/ccnOg7gr.s:732    .text:0000000000000428 .L0 
     /tmp/ccnOg7gr.s:733    .text:0000000000000428 .L0 
   src/syscall_c.cpp:192    .text:0000000000000428 .L0 
     /tmp/ccnOg7gr.s:740    .text:000000000000042c .L0 
     /tmp/ccnOg7gr.s:742    .text:000000000000042c .L0 
     /tmp/ccnOg7gr.s:744    .text:0000000000000434 .L0 
     /tmp/ccnOg7gr.s:746    .text:0000000000000438 .L0 
     /tmp/ccnOg7gr.s:747    .text:0000000000000438 .L0 
     /tmp/ccnOg7gr.s:749    .text:000000000000043c .L0 
     /tmp/ccnOg7gr.s:751    .text:0000000000000440 .L0 
     /tmp/ccnOg7gr.s:757    .text:0000000000000440 _Z8sem_waitP4_sem
     /tmp/ccnOg7gr.s:760    .text:0000000000000440 .L0 
     /tmp/ccnOg7gr.s:762    .text:0000000000000440 .L0 
     /tmp/ccnOg7gr.s:763    .text:0000000000000444 .L0 
     /tmp/ccnOg7gr.s:766    .text:000000000000044c .L0 
     /tmp/ccnOg7gr.s:767    .text:000000000000044c .L0 
     /tmp/ccnOg7gr.s:769    .text:0000000000000450 .L0 
     /tmp/ccnOg7gr.s:772    .text:0000000000000450 .L0 
     /tmp/ccnOg7gr.s:773    .text:0000000000000450 .L0 
     /tmp/ccnOg7gr.s:774    .text:0000000000000450 .L0 
     /tmp/ccnOg7gr.s:775    .text:0000000000000450 .L0 
     /tmp/ccnOg7gr.s:779    .text:0000000000000460 .L0 
     /tmp/ccnOg7gr.s:780    .text:0000000000000460 .L0 
     /tmp/ccnOg7gr.s:782    .text:0000000000000464 .L0 
     /tmp/ccnOg7gr.s:783    .text:0000000000000464 .L0 
     /tmp/ccnOg7gr.s:785    .text:0000000000000468 .L0 
     /tmp/ccnOg7gr.s:786    .text:0000000000000468 .L0 
     /tmp/ccnOg7gr.s:788    .text:000000000000046c .L0 
     /tmp/ccnOg7gr.s:789    .text:000000000000046c .L0 
     /tmp/ccnOg7gr.s:791    .text:0000000000000470 .L0 
     /tmp/ccnOg7gr.s:792    .text:0000000000000470 .L0 
     /tmp/ccnOg7gr.s:797    .text:0000000000000480 .L0 
     /tmp/ccnOg7gr.s:798    .text:0000000000000480 .L0 
   src/syscall_c.cpp:211    .text:0000000000000480 .L0 
     /tmp/ccnOg7gr.s:805    .text:0000000000000484 .L0 
     /tmp/ccnOg7gr.s:807    .text:0000000000000484 .L0 
     /tmp/ccnOg7gr.s:809    .text:000000000000048c .L0 
     /tmp/ccnOg7gr.s:811    .text:0000000000000490 .L0 
     /tmp/ccnOg7gr.s:812    .text:0000000000000490 .L0 
     /tmp/ccnOg7gr.s:814    .text:0000000000000494 .L0 
     /tmp/ccnOg7gr.s:816    .text:0000000000000498 .L0 
     /tmp/ccnOg7gr.s:822    .text:0000000000000498 _Z10sem_signalP4_sem
     /tmp/ccnOg7gr.s:825    .text:0000000000000498 .L0 
     /tmp/ccnOg7gr.s:827    .text:0000000000000498 .L0 
     /tmp/ccnOg7gr.s:828    .text:000000000000049c .L0 
     /tmp/ccnOg7gr.s:831    .text:00000000000004a4 .L0 
     /tmp/ccnOg7gr.s:832    .text:00000000000004a4 .L0 
     /tmp/ccnOg7gr.s:834    .text:00000000000004a8 .L0 
     /tmp/ccnOg7gr.s:837    .text:00000000000004a8 .L0 
     /tmp/ccnOg7gr.s:838    .text:00000000000004a8 .L0 
     /tmp/ccnOg7gr.s:839    .text:00000000000004a8 .L0 
     /tmp/ccnOg7gr.s:840    .text:00000000000004a8 .L0 
     /tmp/ccnOg7gr.s:844    .text:00000000000004b8 .L0 
     /tmp/ccnOg7gr.s:845    .text:00000000000004b8 .L0 
     /tmp/ccnOg7gr.s:847    .text:00000000000004bc .L0 
     /tmp/ccnOg7gr.s:848    .text:00000000000004bc .L0 
GAS LISTING /tmp/ccnOg7gr.s 			page 37


     /tmp/ccnOg7gr.s:850    .text:00000000000004c0 .L0 
     /tmp/ccnOg7gr.s:851    .text:00000000000004c0 .L0 
     /tmp/ccnOg7gr.s:853    .text:00000000000004c4 .L0 
     /tmp/ccnOg7gr.s:854    .text:00000000000004c4 .L0 
     /tmp/ccnOg7gr.s:856    .text:00000000000004c8 .L0 
     /tmp/ccnOg7gr.s:857    .text:00000000000004c8 .L0 
     /tmp/ccnOg7gr.s:862    .text:00000000000004d8 .L0 
     /tmp/ccnOg7gr.s:863    .text:00000000000004d8 .L0 
     /tmp/ccnOg7gr.s:865    .text:00000000000004e0 .L0 
     /tmp/ccnOg7gr.s:867    .text:00000000000004e4 .L0 
     /tmp/ccnOg7gr.s:868    .text:00000000000004e4 .L0 
     /tmp/ccnOg7gr.s:870    .text:00000000000004e8 .L0 
     /tmp/ccnOg7gr.s:872    .text:00000000000004ec .L0 
     /tmp/ccnOg7gr.s:878    .text:00000000000004ec _Z10time_sleepm
     /tmp/ccnOg7gr.s:881    .text:00000000000004ec .L0 
     /tmp/ccnOg7gr.s:883    .text:00000000000004ec .L0 
     /tmp/ccnOg7gr.s:884    .text:00000000000004ec .L0 
     /tmp/ccnOg7gr.s:885    .text:00000000000004ec .L0 
     /tmp/ccnOg7gr.s:887    .text:00000000000004f0 .L0 
     /tmp/ccnOg7gr.s:890    .text:00000000000004f4 .L0 
     /tmp/ccnOg7gr.s:894    .text:00000000000004f8 .L0 
     /tmp/ccnOg7gr.s:895    .text:00000000000004fc .L0 
     /tmp/ccnOg7gr.s:898    .text:0000000000000504 .L0 
     /tmp/ccnOg7gr.s:899    .text:0000000000000504 .L0 
     /tmp/ccnOg7gr.s:901    .text:0000000000000508 .L0 
     /tmp/ccnOg7gr.s:903    .text:0000000000000508 .L0 
     /tmp/ccnOg7gr.s:904    .text:0000000000000508 .L0 
     /tmp/ccnOg7gr.s:905    .text:0000000000000508 .L0 
     /tmp/ccnOg7gr.s:909    .text:0000000000000518 .L0 
     /tmp/ccnOg7gr.s:910    .text:0000000000000518 .L0 
     /tmp/ccnOg7gr.s:912    .text:000000000000051c .L0 
     /tmp/ccnOg7gr.s:913    .text:000000000000051c .L0 
     /tmp/ccnOg7gr.s:915    .text:0000000000000520 .L0 
     /tmp/ccnOg7gr.s:916    .text:0000000000000520 .L0 
     /tmp/ccnOg7gr.s:918    .text:0000000000000524 .L0 
     /tmp/ccnOg7gr.s:919    .text:0000000000000524 .L0 
     /tmp/ccnOg7gr.s:921    .text:0000000000000528 .L0 
     /tmp/ccnOg7gr.s:922    .text:0000000000000528 .L0 
     /tmp/ccnOg7gr.s:927    .text:0000000000000538 .L0 
     /tmp/ccnOg7gr.s:928    .text:0000000000000538 .L0 
   src/syscall_c.cpp:250    .text:0000000000000538 .L0 
     /tmp/ccnOg7gr.s:937    .text:0000000000000540 .L0 
     /tmp/ccnOg7gr.s:938    .text:0000000000000540 .L0 
     /tmp/ccnOg7gr.s:939    .text:0000000000000544 .L0 
     /tmp/ccnOg7gr.s:941    .text:0000000000000548 .L0 
     /tmp/ccnOg7gr.s:942    .text:0000000000000548 .L0 
     /tmp/ccnOg7gr.s:944    .text:000000000000054c .L0 
     /tmp/ccnOg7gr.s:946    .text:0000000000000550 .L0 
     /tmp/ccnOg7gr.s:952    .text:0000000000000550 _Z4getcv
     /tmp/ccnOg7gr.s:955    .text:0000000000000550 .L0 
     /tmp/ccnOg7gr.s:956    .text:0000000000000550 .L0 
     /tmp/ccnOg7gr.s:957    .text:0000000000000554 .L0 
     /tmp/ccnOg7gr.s:960    .text:000000000000055c .L0 
     /tmp/ccnOg7gr.s:961    .text:000000000000055c .L0 
     /tmp/ccnOg7gr.s:963    .text:0000000000000560 .L0 
     /tmp/ccnOg7gr.s:966    .text:0000000000000560 .L0 
     /tmp/ccnOg7gr.s:967    .text:0000000000000560 .L0 
GAS LISTING /tmp/ccnOg7gr.s 			page 38


     /tmp/ccnOg7gr.s:968    .text:0000000000000560 .L0 
     /tmp/ccnOg7gr.s:969    .text:0000000000000560 .L0 
     /tmp/ccnOg7gr.s:973    .text:0000000000000570 .L0 
     /tmp/ccnOg7gr.s:974    .text:0000000000000570 .L0 
     /tmp/ccnOg7gr.s:976    .text:0000000000000574 .L0 
     /tmp/ccnOg7gr.s:977    .text:0000000000000574 .L0 
     /tmp/ccnOg7gr.s:979    .text:0000000000000578 .L0 
     /tmp/ccnOg7gr.s:980    .text:0000000000000578 .L0 
     /tmp/ccnOg7gr.s:982    .text:000000000000057c .L0 
     /tmp/ccnOg7gr.s:983    .text:000000000000057c .L0 
     /tmp/ccnOg7gr.s:985    .text:0000000000000580 .L0 
     /tmp/ccnOg7gr.s:986    .text:0000000000000580 .L0 
     /tmp/ccnOg7gr.s:990    .text:0000000000000590 .L0 
     /tmp/ccnOg7gr.s:991    .text:0000000000000590 .L0 
   src/syscall_c.cpp:267    .text:0000000000000590 .L0 
     /tmp/ccnOg7gr.s:998    .text:0000000000000594 .L0 
     /tmp/ccnOg7gr.s:1000   .text:0000000000000594 .L0 
     /tmp/ccnOg7gr.s:1002   .text:000000000000059c .L0 
     /tmp/ccnOg7gr.s:1004   .text:00000000000005a0 .L0 
     /tmp/ccnOg7gr.s:1005   .text:00000000000005a0 .L0 
     /tmp/ccnOg7gr.s:1007   .text:00000000000005a4 .L0 
     /tmp/ccnOg7gr.s:1009   .text:00000000000005a8 .L0 
     /tmp/ccnOg7gr.s:1015   .text:00000000000005a8 _Z4putcc
     /tmp/ccnOg7gr.s:1018   .text:00000000000005a8 .L0 
     /tmp/ccnOg7gr.s:1020   .text:00000000000005a8 .L0 
     /tmp/ccnOg7gr.s:1021   .text:00000000000005ac .L0 
     /tmp/ccnOg7gr.s:1024   .text:00000000000005b4 .L0 
     /tmp/ccnOg7gr.s:1025   .text:00000000000005b4 .L0 
     /tmp/ccnOg7gr.s:1027   .text:00000000000005b8 .L0 
     /tmp/ccnOg7gr.s:1030   .text:00000000000005b8 .L0 
     /tmp/ccnOg7gr.s:1031   .text:00000000000005b8 .L0 
     /tmp/ccnOg7gr.s:1032   .text:00000000000005b8 .L0 
     /tmp/ccnOg7gr.s:1033   .text:00000000000005b8 .L0 
     /tmp/ccnOg7gr.s:1037   .text:00000000000005c8 .L0 
     /tmp/ccnOg7gr.s:1038   .text:00000000000005c8 .L0 
     /tmp/ccnOg7gr.s:1040   .text:00000000000005cc .L0 
     /tmp/ccnOg7gr.s:1041   .text:00000000000005cc .L0 
     /tmp/ccnOg7gr.s:1043   .text:00000000000005d0 .L0 
     /tmp/ccnOg7gr.s:1044   .text:00000000000005d0 .L0 
     /tmp/ccnOg7gr.s:1046   .text:00000000000005d4 .L0 
     /tmp/ccnOg7gr.s:1047   .text:00000000000005d4 .L0 
     /tmp/ccnOg7gr.s:1049   .text:00000000000005d8 .L0 
     /tmp/ccnOg7gr.s:1050   .text:00000000000005d8 .L0 
     /tmp/ccnOg7gr.s:1055   .text:00000000000005e8 .L0 
     /tmp/ccnOg7gr.s:1056   .text:00000000000005ec .L0 
     /tmp/ccnOg7gr.s:1058   .text:00000000000005f0 .L0 
     /tmp/ccnOg7gr.s:1059   .text:00000000000005f0 .L0 
     /tmp/ccnOg7gr.s:1061   .text:00000000000005f4 .L0 
     /tmp/ccnOg7gr.s:1063   .text:00000000000005f8 .L0 
     /tmp/ccnOg7gr.s:1069   .text:00000000000005f8 _Z22switchSupervisorToUserv
     /tmp/ccnOg7gr.s:1072   .text:00000000000005f8 .L0 
     /tmp/ccnOg7gr.s:1073   .text:00000000000005f8 .L0 
     /tmp/ccnOg7gr.s:1074   .text:00000000000005fc .L0 
     /tmp/ccnOg7gr.s:1077   .text:0000000000000604 .L0 
     /tmp/ccnOg7gr.s:1078   .text:0000000000000604 .L0 
     /tmp/ccnOg7gr.s:1080   .text:0000000000000608 .L0 
     /tmp/ccnOg7gr.s:1083   .text:0000000000000608 .L0 
GAS LISTING /tmp/ccnOg7gr.s 			page 39


     /tmp/ccnOg7gr.s:1084   .text:0000000000000608 .L0 
     /tmp/ccnOg7gr.s:1085   .text:0000000000000608 .L0 
     /tmp/ccnOg7gr.s:1086   .text:0000000000000608 .L0 
     /tmp/ccnOg7gr.s:1090   .text:0000000000000618 .L0 
     /tmp/ccnOg7gr.s:1091   .text:0000000000000618 .L0 
     /tmp/ccnOg7gr.s:1093   .text:000000000000061c .L0 
     /tmp/ccnOg7gr.s:1094   .text:000000000000061c .L0 
     /tmp/ccnOg7gr.s:1096   .text:0000000000000620 .L0 
     /tmp/ccnOg7gr.s:1097   .text:0000000000000620 .L0 
     /tmp/ccnOg7gr.s:1099   .text:0000000000000624 .L0 
     /tmp/ccnOg7gr.s:1100   .text:0000000000000624 .L0 
     /tmp/ccnOg7gr.s:1102   .text:0000000000000628 .L0 
     /tmp/ccnOg7gr.s:1103   .text:0000000000000628 .L0 
     /tmp/ccnOg7gr.s:1107   .text:0000000000000638 .L0 
     /tmp/ccnOg7gr.s:1108   .text:000000000000063c .L0 
     /tmp/ccnOg7gr.s:1110   .text:0000000000000640 .L0 
     /tmp/ccnOg7gr.s:1111   .text:0000000000000640 .L0 
     /tmp/ccnOg7gr.s:1113   .text:0000000000000644 .L0 
     /tmp/ccnOg7gr.s:1115   .text:0000000000000648 .L0 
     /tmp/ccnOg7gr.s:1121   .text:0000000000000648 _Z22switchUserToSupervisorv
     /tmp/ccnOg7gr.s:1124   .text:0000000000000648 .L0 
     /tmp/ccnOg7gr.s:1125   .text:0000000000000648 .L0 
     /tmp/ccnOg7gr.s:1126   .text:000000000000064c .L0 
     /tmp/ccnOg7gr.s:1129   .text:0000000000000654 .L0 
     /tmp/ccnOg7gr.s:1130   .text:0000000000000654 .L0 
     /tmp/ccnOg7gr.s:1132   .text:0000000000000658 .L0 
     /tmp/ccnOg7gr.s:1135   .text:0000000000000658 .L0 
     /tmp/ccnOg7gr.s:1136   .text:0000000000000658 .L0 
     /tmp/ccnOg7gr.s:1137   .text:0000000000000658 .L0 
     /tmp/ccnOg7gr.s:1138   .text:0000000000000658 .L0 
     /tmp/ccnOg7gr.s:1142   .text:0000000000000668 .L0 
     /tmp/ccnOg7gr.s:1143   .text:0000000000000668 .L0 
     /tmp/ccnOg7gr.s:1145   .text:000000000000066c .L0 
     /tmp/ccnOg7gr.s:1146   .text:000000000000066c .L0 
     /tmp/ccnOg7gr.s:1148   .text:0000000000000670 .L0 
     /tmp/ccnOg7gr.s:1149   .text:0000000000000670 .L0 
     /tmp/ccnOg7gr.s:1151   .text:0000000000000674 .L0 
     /tmp/ccnOg7gr.s:1152   .text:0000000000000674 .L0 
     /tmp/ccnOg7gr.s:1154   .text:0000000000000678 .L0 
     /tmp/ccnOg7gr.s:1155   .text:0000000000000678 .L0 
     /tmp/ccnOg7gr.s:1159   .text:0000000000000688 .L0 
     /tmp/ccnOg7gr.s:1160   .text:000000000000068c .L0 
     /tmp/ccnOg7gr.s:1162   .text:0000000000000690 .L0 
     /tmp/ccnOg7gr.s:1163   .text:0000000000000690 .L0 
     /tmp/ccnOg7gr.s:1165   .text:0000000000000694 .L0 
     /tmp/ccnOg7gr.s:1167   .text:0000000000000698 .L0 
     /tmp/ccnOg7gr.s:1172   .bss:0000000000000000 .LANCHOR0
     /tmp/ccnOg7gr.s:1175   .bss:0000000000000000 _ZZ9mem_allocmE9arguments
     /tmp/ccnOg7gr.s:1179   .bss:0000000000000028 _ZZ8mem_freePvE9arguments
     /tmp/ccnOg7gr.s:1183   .bss:0000000000000050 _ZZ13thread_createPP7_threadPFvPvES2_E9arguments
     /tmp/ccnOg7gr.s:1187   .bss:0000000000000078 _ZZ11thread_exitvE9arguments
     /tmp/ccnOg7gr.s:1191   .bss:00000000000000a0 _ZZ15thread_dispatchvE9arguments
     /tmp/ccnOg7gr.s:1195   .bss:00000000000000c8 _ZZ17thread_create_cppPP7_threadPFvPvES2_E9arguments
     /tmp/ccnOg7gr.s:1199   .bss:00000000000000f0 _ZZ13scheduler_putP7_threadE9arguments
     /tmp/ccnOg7gr.s:1203   .bss:0000000000000118 _ZZ11getThreadIdvE9arguments
     /tmp/ccnOg7gr.s:1207   .bss:0000000000000140 _ZZ8sem_openPP4_semjE9arguments
     /tmp/ccnOg7gr.s:1211   .bss:0000000000000168 _ZZ9sem_closeP4_semE9arguments
GAS LISTING /tmp/ccnOg7gr.s 			page 40


     /tmp/ccnOg7gr.s:1215   .bss:0000000000000190 _ZZ8sem_waitP4_semE9arguments
     /tmp/ccnOg7gr.s:1219   .bss:00000000000001b8 _ZZ10sem_signalP4_semE9arguments
     /tmp/ccnOg7gr.s:1223   .bss:00000000000001e0 _ZZ10time_sleepmE9arguments
     /tmp/ccnOg7gr.s:1227   .bss:0000000000000208 _ZZ4getcvE9arguments
     /tmp/ccnOg7gr.s:1231   .bss:0000000000000230 _ZZ4putccE9arguments
     /tmp/ccnOg7gr.s:1235   .bss:0000000000000258 _ZZ22switchSupervisorToUservE9arguments
     /tmp/ccnOg7gr.s:1239   .bss:0000000000000280 _ZZ22switchUserToSupervisorvE9arguments
     /tmp/ccnOg7gr.s:1246   .text:0000000000000698 .L0 
     /tmp/ccnOg7gr.s:40     .text:0000000000000020 .L0 
     /tmp/ccnOg7gr.s:109    .text:0000000000000074 .L0 
     /tmp/ccnOg7gr.s:126    .text:0000000000000094 .L0 
     /tmp/ccnOg7gr.s:196    .text:00000000000000f8 .L0 
     /tmp/ccnOg7gr.s:213    .text:0000000000000118 .L0 
     /tmp/ccnOg7gr.s:284    .text:0000000000000178 .L0 
     /tmp/ccnOg7gr.s:301    .text:0000000000000198 .L0 
     /tmp/ccnOg7gr.s:338    .text:00000000000001cc .L0 
     /tmp/ccnOg7gr.s:355    .text:00000000000001ec .L0 
     /tmp/ccnOg7gr.s:413    .text:0000000000000248 .L0 
     /tmp/ccnOg7gr.s:430    .text:0000000000000268 .L0 
     /tmp/ccnOg7gr.s:504    .text:00000000000002cc .L0 
     /tmp/ccnOg7gr.s:521    .text:00000000000002ec .L0 
     /tmp/ccnOg7gr.s:567    .text:0000000000000328 .L0 
     /tmp/ccnOg7gr.s:584    .text:0000000000000348 .L0 
     /tmp/ccnOg7gr.s:634    .text:0000000000000388 .L0 
     /tmp/ccnOg7gr.s:655    .text:00000000000003b0 .L0 
     /tmp/ccnOg7gr.s:710    .text:00000000000003f8 .L0 
     /tmp/ccnOg7gr.s:727    .text:0000000000000418 .L0 
     /tmp/ccnOg7gr.s:775    .text:0000000000000450 .L0 
     /tmp/ccnOg7gr.s:792    .text:0000000000000470 .L0 
     /tmp/ccnOg7gr.s:840    .text:00000000000004a8 .L0 
     /tmp/ccnOg7gr.s:857    .text:00000000000004c8 .L0 
     /tmp/ccnOg7gr.s:905    .text:0000000000000508 .L0 
     /tmp/ccnOg7gr.s:922    .text:0000000000000528 .L0 
     /tmp/ccnOg7gr.s:969    .text:0000000000000560 .L0 
     /tmp/ccnOg7gr.s:986    .text:0000000000000580 .L0 
     /tmp/ccnOg7gr.s:1033   .text:00000000000005b8 .L0 
     /tmp/ccnOg7gr.s:1050   .text:00000000000005d8 .L0 
     /tmp/ccnOg7gr.s:1086   .text:0000000000000608 .L0 
     /tmp/ccnOg7gr.s:1103   .text:0000000000000628 .L0 
     /tmp/ccnOg7gr.s:1138   .text:0000000000000658 .L0 
     /tmp/ccnOg7gr.s:1155   .text:0000000000000678 .L0 
     /tmp/ccnOg7gr.s:80     .text:000000000000005c .L2
     /tmp/ccnOg7gr.s:35     .text:0000000000000020 .L3
     /tmp/ccnOg7gr.s:245    .text:0000000000000150 .L10
     /tmp/ccnOg7gr.s:252    .text:0000000000000158 .L14
     /tmp/ccnOg7gr.s:257    .text:0000000000000160 .L12
     /tmp/ccnOg7gr.s:192    .text:00000000000000f8 .L8
     /tmp/ccnOg7gr.s:224    .text:0000000000000134 .L9
     /tmp/ccnOg7gr.s:462    .text:00000000000002a0 .L22
     /tmp/ccnOg7gr.s:469    .text:00000000000002a8 .L26
     /tmp/ccnOg7gr.s:474    .text:00000000000002b0 .L24
     /tmp/ccnOg7gr.s:409    .text:0000000000000248 .L20
     /tmp/ccnOg7gr.s:441    .text:0000000000000284 .L21
     /tmp/ccnOg7gr.s:538    .text:0000000000000310 .L29
     /tmp/ccnOg7gr.s:681    .text:00000000000003e0 .L38
     /tmp/ccnOg7gr.s:666    .text:00000000000003cc .L37
     /tmp/ccnOg7gr.s:892    .text:00000000000004f8 .L53
GAS LISTING /tmp/ccnOg7gr.s 			page 41


     /tmp/ccnOg7gr.s:2349   .debug_abbrev:0000000000000000 .Ldebug_abbrev0
     /tmp/ccnOg7gr.s:3322   .debug_str:0000000000000247 .LASF73
     /tmp/ccnOg7gr.s:3400   .debug_str:000000000000050f .LASF74
     /tmp/ccnOg7gr.s:3360   .debug_str:00000000000003f3 .LASF75
     /tmp/ccnOg7gr.s:5      .text:0000000000000000 .Ltext0
     /tmp/ccnOg7gr.s:1242   .text:0000000000000698 .Letext0
     /tmp/ccnOg7gr.s:3242   .debug_line:0000000000000000 .Ldebug_line0
     /tmp/ccnOg7gr.s:3334   .debug_str:000000000000034f .LASF0
     /tmp/ccnOg7gr.s:3306   .debug_str:00000000000001c0 .LASF1
     /tmp/ccnOg7gr.s:3294   .debug_str:0000000000000176 .LASF2
     /tmp/ccnOg7gr.s:3264   .debug_str:00000000000000b1 .LASF4
     /tmp/ccnOg7gr.s:3304   .debug_str:00000000000001ae .LASF3
     /tmp/ccnOg7gr.s:3248   .debug_str:0000000000000021 .LASF5
     /tmp/ccnOg7gr.s:3342   .debug_str:0000000000000381 .LASF6
     /tmp/ccnOg7gr.s:3246   .debug_str:000000000000000e .LASF7
     /tmp/ccnOg7gr.s:3286   .debug_str:000000000000014a .LASF8
     /tmp/ccnOg7gr.s:3346   .debug_str:000000000000039f .LASF9
     /tmp/ccnOg7gr.s:3262   .debug_str:00000000000000a3 .LASF10
     /tmp/ccnOg7gr.s:3402   .debug_str:0000000000000521 .LASF11
     /tmp/ccnOg7gr.s:3288   .debug_str:000000000000015d .LASF12
     /tmp/ccnOg7gr.s:3390   .debug_str:00000000000004ce .LASF13
     /tmp/ccnOg7gr.s:3354   .debug_str:00000000000003d3 .LASF14
     /tmp/ccnOg7gr.s:3310   .debug_str:00000000000001dc .LASF15
     /tmp/ccnOg7gr.s:3274   .debug_str:00000000000000e0 .LASF16
     /tmp/ccnOg7gr.s:3350   .debug_str:00000000000003b4 .LASF17
     /tmp/ccnOg7gr.s:3328   .debug_str:0000000000000319 .LASF76
     /tmp/ccnOg7gr.s:3364   .debug_str:0000000000000431 .LASF18
     /tmp/ccnOg7gr.s:3290   .debug_str:000000000000016c .LASF19
     /tmp/ccnOg7gr.s:3292   .debug_str:0000000000000171 .LASF20
     /tmp/ccnOg7gr.s:3254   .debug_str:0000000000000063 .LASF21
     /tmp/ccnOg7gr.s:3296   .debug_str:0000000000000184 .LASF22
     /tmp/ccnOg7gr.s:3352   .debug_str:00000000000003ca .LASF23
     /tmp/ccnOg7gr.s:3372   .debug_str:0000000000000453 .LASF25
     /tmp/ccnOg7gr.s:3258   .debug_str:000000000000008e .LASF24
     /tmp/ccnOg7gr.s:3324   .debug_str:000000000000030b .LASF26
     /tmp/ccnOg7gr.s:3394   .debug_str:00000000000004ea .LASF29
     /tmp/ccnOg7gr.s:3332   .debug_str:0000000000000333 .LASF31
     /tmp/ccnOg7gr.s:1122   .text:0000000000000648 .LFB16
     /tmp/ccnOg7gr.s:1168   .text:0000000000000698 .LFE16
     /tmp/ccnOg7gr.s:3278   .debug_str:0000000000000104 .LASF27
     /tmp/ccnOg7gr.s:3268   .debug_str:00000000000000be .LASF28
     /tmp/ccnOg7gr.s:1157   .text:0000000000000688 .LVL89
     /tmp/ccnOg7gr.s:3344   .debug_str:0000000000000388 .LASF30
     /tmp/ccnOg7gr.s:3382   .debug_str:0000000000000490 .LASF32
     /tmp/ccnOg7gr.s:1070   .text:00000000000005f8 .LFB15
     /tmp/ccnOg7gr.s:1116   .text:0000000000000648 .LFE15
     /tmp/ccnOg7gr.s:1105   .text:0000000000000638 .LVL87
     /tmp/ccnOg7gr.s:3368   .debug_str:0000000000000440 .LASF33
     /tmp/ccnOg7gr.s:3308   .debug_str:00000000000001d3 .LASF34
     /tmp/ccnOg7gr.s:1016   .text:00000000000005a8 .LFB14
     /tmp/ccnOg7gr.s:1064   .text:00000000000005f8 .LFE14
     /tmp/ccnOg7gr.s:2831   .debug_loc:0000000000000000 .LLST19
     /tmp/ccnOg7gr.s:1053   .text:00000000000005e8 .LVL85
     /tmp/ccnOg7gr.s:3338   .debug_str:0000000000000367 .LASF35
     /tmp/ccnOg7gr.s:3272   .debug_str:00000000000000db .LASF37
     /tmp/ccnOg7gr.s:3396   .debug_str:0000000000000501 .LASF39
     /tmp/ccnOg7gr.s:953    .text:0000000000000550 .LFB13
GAS LISTING /tmp/ccnOg7gr.s 			page 42


     /tmp/ccnOg7gr.s:1010   .text:00000000000005a8 .LFE13
     /tmp/ccnOg7gr.s:3312   .debug_str:00000000000001e8 .LASF36
     /tmp/ccnOg7gr.s:988    .text:0000000000000590 .LVL80
     /tmp/ccnOg7gr.s:3336   .debug_str:000000000000035c .LASF38
     /tmp/ccnOg7gr.s:3378   .debug_str:0000000000000474 .LASF40
     /tmp/ccnOg7gr.s:879    .text:00000000000004ec .LFB12
     /tmp/ccnOg7gr.s:947    .text:0000000000000550 .LFE12
     /tmp/ccnOg7gr.s:3348   .debug_str:00000000000003af .LASF41
     /tmp/ccnOg7gr.s:2845   .debug_loc:0000000000000039 .LLST18
     /tmp/ccnOg7gr.s:3380   .debug_str:0000000000000484 .LASF42
     /tmp/ccnOg7gr.s:925    .text:0000000000000538 .LVL77
     /tmp/ccnOg7gr.s:3316   .debug_str:0000000000000209 .LASF43
     /tmp/ccnOg7gr.s:3340   .debug_str:000000000000036c .LASF44
     /tmp/ccnOg7gr.s:823    .text:0000000000000498 .LFB11
     /tmp/ccnOg7gr.s:873    .text:00000000000004ec .LFE11
     /tmp/ccnOg7gr.s:2875   .debug_loc:00000000000000b6 .LLST17
     /tmp/ccnOg7gr.s:860    .text:00000000000004d8 .LVL72
     /tmp/ccnOg7gr.s:3326   .debug_str:0000000000000310 .LASF45
     /tmp/ccnOg7gr.s:3252   .debug_str:0000000000000051 .LASF46
     /tmp/ccnOg7gr.s:758    .text:0000000000000440 .LFB10
     /tmp/ccnOg7gr.s:817    .text:0000000000000498 .LFE10
     /tmp/ccnOg7gr.s:2894   .debug_loc:000000000000010a .LLST16
     /tmp/ccnOg7gr.s:795    .text:0000000000000480 .LVL67
     /tmp/ccnOg7gr.s:3302   .debug_str:00000000000001a4 .LASF47
     /tmp/ccnOg7gr.s:3270   .debug_str:00000000000000c8 .LASF48
     /tmp/ccnOg7gr.s:693    .text:00000000000003e8 .LFB9
     /tmp/ccnOg7gr.s:752    .text:0000000000000440 .LFE9
     /tmp/ccnOg7gr.s:3298   .debug_str:0000000000000189 .LASF49
     /tmp/ccnOg7gr.s:2913   .debug_loc:000000000000015e .LLST15
     /tmp/ccnOg7gr.s:730    .text:0000000000000428 .LVL62
     /tmp/ccnOg7gr.s:3376   .debug_str:000000000000046b .LASF50
     /tmp/ccnOg7gr.s:3300   .debug_str:0000000000000190 .LASF51
     /tmp/ccnOg7gr.s:614    .text:0000000000000370 .LFB8
     /tmp/ccnOg7gr.s:687    .text:00000000000003e8 .LFE8
     /tmp/ccnOg7gr.s:2932   .debug_loc:00000000000001b2 .LLST13
     /tmp/ccnOg7gr.s:3386   .debug_str:00000000000004bd .LASF52
     /tmp/ccnOg7gr.s:2954   .debug_loc:0000000000000211 .LLST14
     /tmp/ccnOg7gr.s:658    .text:00000000000003c0 .LVL56
     /tmp/ccnOg7gr.s:3388   .debug_str:00000000000004c2 .LASF53
     /tmp/ccnOg7gr.s:3282   .debug_str:0000000000000125 .LASF54
     /tmp/ccnOg7gr.s:551    .text:0000000000000318 .LFB7
     /tmp/ccnOg7gr.s:608    .text:0000000000000370 .LFE7
     /tmp/ccnOg7gr.s:586    .text:0000000000000358 .LVL50
     /tmp/ccnOg7gr.s:3276   .debug_str:00000000000000f6 .LASF55
     /tmp/ccnOg7gr.s:3362   .debug_str:0000000000000416 .LASF56
     /tmp/ccnOg7gr.s:485    .text:00000000000002b8 .LFB6
     /tmp/ccnOg7gr.s:545    .text:0000000000000318 .LFE6
     /tmp/ccnOg7gr.s:3358   .debug_str:00000000000003ec .LASF57
     /tmp/ccnOg7gr.s:2968   .debug_loc:000000000000024a .LLST12
     /tmp/ccnOg7gr.s:524    .text:00000000000002fc .LVL46
     /tmp/ccnOg7gr.s:3314   .debug_str:00000000000001f7 .LASF58
     /tmp/ccnOg7gr.s:3250   .debug_str:0000000000000028 .LASF59
     /tmp/ccnOg7gr.s:374    .text:000000000000020c .LFB5
     /tmp/ccnOg7gr.s:479    .text:00000000000002b8 .LFE5
     /tmp/ccnOg7gr.s:2998   .debug_loc:00000000000002c7 .LLST8
     /tmp/ccnOg7gr.s:3320   .debug_str:0000000000000239 .LASF60
     /tmp/ccnOg7gr.s:3024   .debug_loc:0000000000000339 .LLST9
GAS LISTING /tmp/ccnOg7gr.s 			page 43


     /tmp/ccnOg7gr.s:3046   .debug_loc:0000000000000398 .LLST10
     /tmp/ccnOg7gr.s:3266   .debug_str:00000000000000b8 .LASF61
     /tmp/ccnOg7gr.s:3072   .debug_loc:000000000000040a .LLST11
     /tmp/ccnOg7gr.s:405    .text:0000000000000244 .LVL33
     /tmp/ccnOg7gr.s:433    .text:0000000000000278 .LVL36
     /tmp/ccnOg7gr.s:3374   .debug_str:000000000000045b .LASF62
     /tmp/ccnOg7gr.s:3280   .debug_str:0000000000000110 .LASF77
     /tmp/ccnOg7gr.s:322    .text:00000000000001bc .LFB4
     /tmp/ccnOg7gr.s:368    .text:000000000000020c .LFE4
     /tmp/ccnOg7gr.s:357    .text:00000000000001fc .LVL29
     /tmp/ccnOg7gr.s:3392   .debug_str:00000000000004de .LASF63
     /tmp/ccnOg7gr.s:3384   .debug_str:00000000000004ac .LASF64
     /tmp/ccnOg7gr.s:268    .text:0000000000000168 .LFB3
     /tmp/ccnOg7gr.s:316    .text:00000000000001bc .LFE3
     /tmp/ccnOg7gr.s:303    .text:00000000000001a8 .LVL27
     /tmp/ccnOg7gr.s:3370   .debug_str:0000000000000445 .LASF65
     /tmp/ccnOg7gr.s:3318   .debug_str:0000000000000214 .LASF66
     /tmp/ccnOg7gr.s:157    .text:00000000000000bc .LFB2
     /tmp/ccnOg7gr.s:262    .text:0000000000000168 .LFE2
     /tmp/ccnOg7gr.s:3088   .debug_loc:000000000000045b .LLST4
     /tmp/ccnOg7gr.s:3114   .debug_loc:00000000000004cd .LLST5
     /tmp/ccnOg7gr.s:3136   .debug_loc:000000000000052c .LLST6
     /tmp/ccnOg7gr.s:3162   .debug_loc:000000000000059e .LLST7
     /tmp/ccnOg7gr.s:188    .text:00000000000000f4 .LVL15
     /tmp/ccnOg7gr.s:216    .text:0000000000000128 .LVL18
     /tmp/ccnOg7gr.s:3356   .debug_str:00000000000003e3 .LASF67
     /tmp/ccnOg7gr.s:3244   .debug_str:0000000000000000 .LASF68
     /tmp/ccnOg7gr.s:92     .text:0000000000000064 .LFB1
     /tmp/ccnOg7gr.s:151    .text:00000000000000bc .LFE1
     /tmp/ccnOg7gr.s:3178   .debug_loc:00000000000005ef .LLST3
     /tmp/ccnOg7gr.s:129    .text:00000000000000a4 .LVL10
     /tmp/ccnOg7gr.s:3366   .debug_str:0000000000000436 .LASF69
     /tmp/ccnOg7gr.s:3330   .debug_str:0000000000000325 .LASF70
     /tmp/ccnOg7gr.s:10     .text:0000000000000000 .LFB0
     /tmp/ccnOg7gr.s:86     .text:0000000000000064 .LFE0
     /tmp/ccnOg7gr.s:3398   .debug_str:000000000000050a .LASF71
     /tmp/ccnOg7gr.s:3197   .debug_loc:0000000000000643 .LLST0
     /tmp/ccnOg7gr.s:3260   .debug_str:0000000000000094 .LASF72
     /tmp/ccnOg7gr.s:3215   .debug_loc:000000000000068f .LLST1
     /tmp/ccnOg7gr.s:3222   .debug_loc:00000000000006b2 .LLST2
     /tmp/ccnOg7gr.s:58     .text:0000000000000048 .LVL4
     /tmp/ccnOg7gr.s:3256   .debug_str:0000000000000068 .LASF78
     /tmp/ccnOg7gr.s:3284   .debug_str:0000000000000136 .LASF79
     /tmp/ccnOg7gr.s:1019   .text:00000000000005a8 .LVL82
     /tmp/ccnOg7gr.s:1051   .text:00000000000005e0 .LVL84
     /tmp/ccnOg7gr.s:882    .text:00000000000004ec .LVL73
     /tmp/ccnOg7gr.s:888    .text:00000000000004f4 .LVL74
     /tmp/ccnOg7gr.s:891    .text:00000000000004f8 .LVL75
     /tmp/ccnOg7gr.s:923    .text:0000000000000530 .LVL76
     /tmp/ccnOg7gr.s:826    .text:0000000000000498 .LVL69
     /tmp/ccnOg7gr.s:858    .text:00000000000004d0 .LVL71
     /tmp/ccnOg7gr.s:761    .text:0000000000000440 .LVL64
     /tmp/ccnOg7gr.s:793    .text:0000000000000478 .LVL66
     /tmp/ccnOg7gr.s:696    .text:00000000000003e8 .LVL59
     /tmp/ccnOg7gr.s:728    .text:0000000000000420 .LVL61
     /tmp/ccnOg7gr.s:617    .text:0000000000000370 .LVL52
     /tmp/ccnOg7gr.s:656    .text:00000000000003b8 .LVL55
GAS LISTING /tmp/ccnOg7gr.s 			page 44


     /tmp/ccnOg7gr.s:676    .text:00000000000003d8 .LVL57
     /tmp/ccnOg7gr.s:680    .text:00000000000003e0 .LVL58
     /tmp/ccnOg7gr.s:643    .text:00000000000003a0 .LVL54
     /tmp/ccnOg7gr.s:488    .text:00000000000002b8 .LVL44
     /tmp/ccnOg7gr.s:522    .text:00000000000002f4 .LVL45
     /tmp/ccnOg7gr.s:537    .text:0000000000000310 .LVL47
     /tmp/ccnOg7gr.s:541    .text:0000000000000314 .LVL48
     /tmp/ccnOg7gr.s:377    .text:000000000000020c .LVL30
     /tmp/ccnOg7gr.s:403    .text:000000000000023c .LVL32
     /tmp/ccnOg7gr.s:454    .text:0000000000000294 .LVL38
     /tmp/ccnOg7gr.s:461    .text:00000000000002a0 .LVL40
     /tmp/ccnOg7gr.s:466    .text:00000000000002a4 .LVL41
     /tmp/ccnOg7gr.s:451    .text:0000000000000290 .LVL37
     /tmp/ccnOg7gr.s:457    .text:0000000000000298 .LVL39
     /tmp/ccnOg7gr.s:468    .text:00000000000002a8 .LVL42
     /tmp/ccnOg7gr.s:431    .text:0000000000000270 .LVL35
     /tmp/ccnOg7gr.s:472    .text:00000000000002ac .LVL43
     /tmp/ccnOg7gr.s:160    .text:00000000000000bc .LVL12
     /tmp/ccnOg7gr.s:186    .text:00000000000000ec .LVL14
     /tmp/ccnOg7gr.s:237    .text:0000000000000144 .LVL20
     /tmp/ccnOg7gr.s:244    .text:0000000000000150 .LVL22
     /tmp/ccnOg7gr.s:249    .text:0000000000000154 .LVL23
     /tmp/ccnOg7gr.s:234    .text:0000000000000140 .LVL19
     /tmp/ccnOg7gr.s:240    .text:0000000000000148 .LVL21
     /tmp/ccnOg7gr.s:251    .text:0000000000000158 .LVL24
     /tmp/ccnOg7gr.s:214    .text:0000000000000120 .LVL17
     /tmp/ccnOg7gr.s:255    .text:000000000000015c .LVL25
     /tmp/ccnOg7gr.s:95     .text:0000000000000064 .LVL7
     /tmp/ccnOg7gr.s:127    .text:000000000000009c .LVL9
     /tmp/ccnOg7gr.s:14     .text:0000000000000000 .LVL0
     /tmp/ccnOg7gr.s:32     .text:000000000000001c .LVL2
     /tmp/ccnOg7gr.s:79     .text:000000000000005c .LVL6
     /tmp/ccnOg7gr.s:36     .text:0000000000000020 .LVL3
     /tmp/ccnOg7gr.s:66     .text:000000000000004c .LVL5
     /tmp/ccnOg7gr.s:1247   .debug_info:0000000000000000 .Ldebug_info0

UNDEFINED SYMBOLS
_Z19prepareArgsAndEcallP11sysCallArgs
