GAS LISTING /tmp/cc3tuhPE.s 			page 1


   1              		.file	"Z_Njihovo_Buffer.cpp"
   2              		.option pic
   3              		.option norelax
   4              		.text
   5              	.Ltext0:
   6              		.align	2
   7              		.globl	_ZN6BufferC2Ei
   9              	_ZN6BufferC2Ei:
  10              	.LFB1:
  11              		.file 1 "src/Z_Njihovo_Buffer.cpp"
   1:src/Z_Njihovo_Buffer.cpp **** #include "../h/Z_Njihovo_Buffer.hpp"
   2:src/Z_Njihovo_Buffer.cpp **** 
   3:src/Z_Njihovo_Buffer.cpp **** Buffer::Buffer(int _cap) : cap(_cap + 1), head(0), tail(0) {
  12              		.loc 1 3 1
  13              		.cfi_startproc
  14              	.LVL0:
  15 0000 130101FE 		addi	sp,sp,-32
  16              		.cfi_def_cfa_offset 32
  17 0004 233C1100 		sd	ra,24(sp)
  18 0008 23388100 		sd	s0,16(sp)
  19 000c 23349100 		sd	s1,8(sp)
  20 0010 23302101 		sd	s2,0(sp)
  21              		.cfi_offset 1, -8
  22              		.cfi_offset 8, -16
  23              		.cfi_offset 9, -24
  24              		.cfi_offset 18, -32
  25 0014 13040102 		addi	s0,sp,32
  26              		.cfi_def_cfa 8, 0
  27 0018 93040500 		mv	s1,a0
  28 001c 13890500 		mv	s2,a1
  29              	.LBB2:
  30              		.loc 1 3 37 is_stmt 0
  31 0020 9B871500 		addiw	a5,a1,1
  32 0024 1B850700 		sext.w	a0,a5
  33              	.LVL1:
  34              		.loc 1 3 58
  35 0028 23A0F400 		sw	a5,0(s1)
  36 002c 23A80400 		sw	zero,16(s1)
  37 0030 23AA0400 		sw	zero,20(s1)
   4:src/Z_Njihovo_Buffer.cpp ****     buffer = (int *)mem_alloc(sizeof(int) * cap);
  38              		.loc 1 4 5 is_stmt 1
  39              		.loc 1 4 30 is_stmt 0
  40 0034 13152500 		slli	a0,a0,2
  41 0038 97000000 		call	_Z9mem_allocm@plt
  41      E7800000 
  42              	.LVL2:
  43              		.loc 1 4 12
  44 0040 23B4A400 		sd	a0,8(s1)
   5:src/Z_Njihovo_Buffer.cpp ****     sem_open(&itemAvailable, 0);
  45              		.loc 1 5 5 is_stmt 1
  46              		.loc 1 5 13 is_stmt 0
  47 0044 93050000 		li	a1,0
  48 0048 13850402 		addi	a0,s1,32
  49 004c 97000000 		call	_Z8sem_openPP4_semj@plt
  49      E7800000 
  50              	.LVL3:
   6:src/Z_Njihovo_Buffer.cpp ****     sem_open(&spaceAvailable, _cap);
GAS LISTING /tmp/cc3tuhPE.s 			page 2


  51              		.loc 1 6 5 is_stmt 1
  52              		.loc 1 6 13 is_stmt 0
  53 0054 93050900 		mv	a1,s2
  54 0058 13858401 		addi	a0,s1,24
  55 005c 97000000 		call	_Z8sem_openPP4_semj@plt
  55      E7800000 
  56              	.LVL4:
   7:src/Z_Njihovo_Buffer.cpp ****     sem_open(&mutexHead, 1);
  57              		.loc 1 7 5 is_stmt 1
  58              		.loc 1 7 13 is_stmt 0
  59 0064 93051000 		li	a1,1
  60 0068 13858402 		addi	a0,s1,40
  61 006c 97000000 		call	_Z8sem_openPP4_semj@plt
  61      E7800000 
  62              	.LVL5:
   8:src/Z_Njihovo_Buffer.cpp ****     sem_open(&mutexTail, 1);
  63              		.loc 1 8 5 is_stmt 1
  64              		.loc 1 8 13 is_stmt 0
  65 0074 93051000 		li	a1,1
  66 0078 13850403 		addi	a0,s1,48
  67 007c 97000000 		call	_Z8sem_openPP4_semj@plt
  67      E7800000 
  68              	.LVL6:
  69              	.LBE2:
   9:src/Z_Njihovo_Buffer.cpp **** }
  70              		.loc 1 9 1
  71 0084 83308101 		ld	ra,24(sp)
  72              		.cfi_restore 1
  73 0088 03340101 		ld	s0,16(sp)
  74              		.cfi_restore 8
  75              		.cfi_def_cfa 2, 32
  76 008c 83348100 		ld	s1,8(sp)
  77              		.cfi_restore 9
  78              	.LVL7:
  79 0090 03390100 		ld	s2,0(sp)
  80              		.cfi_restore 18
  81 0094 13010102 		addi	sp,sp,32
  82              		.cfi_def_cfa_offset 0
  83 0098 67800000 		jr	ra
  84              		.cfi_endproc
  85              	.LFE1:
  87              		.globl	_ZN6BufferC1Ei
  88              		.set	_ZN6BufferC1Ei,_ZN6BufferC2Ei
  89              		.align	2
  90              		.globl	_ZN6Buffer3putEi
  92              	_ZN6Buffer3putEi:
  93              	.LFB6:
  10:src/Z_Njihovo_Buffer.cpp **** 
  11:src/Z_Njihovo_Buffer.cpp **** Buffer::~Buffer() {
  12:src/Z_Njihovo_Buffer.cpp ****     putc('\n');
  13:src/Z_Njihovo_Buffer.cpp ****     printString("Buffer deleted!\n");
  14:src/Z_Njihovo_Buffer.cpp ****     while (getCnt() > 0) {
  15:src/Z_Njihovo_Buffer.cpp ****         char ch = buffer[head];
  16:src/Z_Njihovo_Buffer.cpp ****         putc(ch);
  17:src/Z_Njihovo_Buffer.cpp ****         head = (head + 1) % cap;
  18:src/Z_Njihovo_Buffer.cpp ****     }
  19:src/Z_Njihovo_Buffer.cpp ****     putc('!');
GAS LISTING /tmp/cc3tuhPE.s 			page 3


  20:src/Z_Njihovo_Buffer.cpp ****     putc('\n');
  21:src/Z_Njihovo_Buffer.cpp **** 
  22:src/Z_Njihovo_Buffer.cpp ****     mem_free(buffer);
  23:src/Z_Njihovo_Buffer.cpp ****     sem_close(itemAvailable);
  24:src/Z_Njihovo_Buffer.cpp ****     sem_close(spaceAvailable);
  25:src/Z_Njihovo_Buffer.cpp ****     sem_close(mutexTail);
  26:src/Z_Njihovo_Buffer.cpp ****     sem_close(mutexHead);
  27:src/Z_Njihovo_Buffer.cpp **** }
  28:src/Z_Njihovo_Buffer.cpp **** 
  29:src/Z_Njihovo_Buffer.cpp **** void Buffer::put(int val) {
  94              		.loc 1 29 27 is_stmt 1
  95              		.cfi_startproc
  96              	.LVL8:
  97 009c 130101FE 		addi	sp,sp,-32
  98              		.cfi_def_cfa_offset 32
  99 00a0 233C1100 		sd	ra,24(sp)
 100 00a4 23388100 		sd	s0,16(sp)
 101 00a8 23349100 		sd	s1,8(sp)
 102 00ac 23302101 		sd	s2,0(sp)
 103              		.cfi_offset 1, -8
 104              		.cfi_offset 8, -16
 105              		.cfi_offset 9, -24
 106              		.cfi_offset 18, -32
 107 00b0 13040102 		addi	s0,sp,32
 108              		.cfi_def_cfa 8, 0
 109 00b4 93040500 		mv	s1,a0
 110 00b8 13890500 		mv	s2,a1
  30:src/Z_Njihovo_Buffer.cpp ****     sem_wait(spaceAvailable);
 111              		.loc 1 30 5
 112              		.loc 1 30 13 is_stmt 0
 113 00bc 03358501 		ld	a0,24(a0)
 114              	.LVL9:
 115 00c0 97000000 		call	_Z8sem_waitP4_sem@plt
 115      E7800000 
 116              	.LVL10:
  31:src/Z_Njihovo_Buffer.cpp **** 
  32:src/Z_Njihovo_Buffer.cpp ****     sem_wait(mutexTail);
 117              		.loc 1 32 5 is_stmt 1
 118              		.loc 1 32 13 is_stmt 0
 119 00c8 03B50403 		ld	a0,48(s1)
 120 00cc 97000000 		call	_Z8sem_waitP4_sem@plt
 120      E7800000 
 121              	.LVL11:
  33:src/Z_Njihovo_Buffer.cpp ****     buffer[tail] = val;
 122              		.loc 1 33 5 is_stmt 1
 123 00d4 83B78400 		ld	a5,8(s1)
 124              		.loc 1 33 12 is_stmt 0
 125 00d8 03A74401 		lw	a4,20(s1)
 126              		.loc 1 33 16
 127 00dc 13172700 		slli	a4,a4,2
 128 00e0 B387E700 		add	a5,a5,a4
 129              		.loc 1 33 18
 130 00e4 23A02701 		sw	s2,0(a5)
  34:src/Z_Njihovo_Buffer.cpp ****     tail = (tail + 1) % cap;
 131              		.loc 1 34 5 is_stmt 1
 132              		.loc 1 34 13 is_stmt 0
 133 00e8 83A74401 		lw	a5,20(s1)
GAS LISTING /tmp/cc3tuhPE.s 			page 4


 134              		.loc 1 34 18
 135 00ec 9B871700 		addiw	a5,a5,1
 136              		.loc 1 34 25
 137 00f0 03A70400 		lw	a4,0(s1)
 138              		.loc 1 34 23
 139 00f4 BBE7E702 		remw	a5,a5,a4
 140              		.loc 1 34 10
 141 00f8 23AAF400 		sw	a5,20(s1)
  35:src/Z_Njihovo_Buffer.cpp ****     sem_signal(mutexTail);
 142              		.loc 1 35 5 is_stmt 1
 143              		.loc 1 35 15 is_stmt 0
 144 00fc 03B50403 		ld	a0,48(s1)
 145 0100 97000000 		call	_Z10sem_signalP4_sem@plt
 145      E7800000 
 146              	.LVL12:
  36:src/Z_Njihovo_Buffer.cpp **** 
  37:src/Z_Njihovo_Buffer.cpp ****     sem_signal(itemAvailable);
 147              		.loc 1 37 5 is_stmt 1
 148              		.loc 1 37 15 is_stmt 0
 149 0108 03B50402 		ld	a0,32(s1)
 150 010c 97000000 		call	_Z10sem_signalP4_sem@plt
 150      E7800000 
 151              	.LVL13:
  38:src/Z_Njihovo_Buffer.cpp **** 
  39:src/Z_Njihovo_Buffer.cpp **** }
 152              		.loc 1 39 1
 153 0114 83308101 		ld	ra,24(sp)
 154              		.cfi_restore 1
 155 0118 03340101 		ld	s0,16(sp)
 156              		.cfi_restore 8
 157              		.cfi_def_cfa 2, 32
 158 011c 83348100 		ld	s1,8(sp)
 159              		.cfi_restore 9
 160              	.LVL14:
 161 0120 03390100 		ld	s2,0(sp)
 162              		.cfi_restore 18
 163 0124 13010102 		addi	sp,sp,32
 164              		.cfi_def_cfa_offset 0
 165 0128 67800000 		jr	ra
 166              		.cfi_endproc
 167              	.LFE6:
 169              		.align	2
 170              		.globl	_ZN6Buffer3getEv
 172              	_ZN6Buffer3getEv:
 173              	.LFB7:
  40:src/Z_Njihovo_Buffer.cpp **** 
  41:src/Z_Njihovo_Buffer.cpp **** int Buffer::get() {
 174              		.loc 1 41 19 is_stmt 1
 175              		.cfi_startproc
 176              	.LVL15:
 177 012c 130101FE 		addi	sp,sp,-32
 178              		.cfi_def_cfa_offset 32
 179 0130 233C1100 		sd	ra,24(sp)
 180 0134 23388100 		sd	s0,16(sp)
 181 0138 23349100 		sd	s1,8(sp)
 182 013c 23302101 		sd	s2,0(sp)
 183              		.cfi_offset 1, -8
GAS LISTING /tmp/cc3tuhPE.s 			page 5


 184              		.cfi_offset 8, -16
 185              		.cfi_offset 9, -24
 186              		.cfi_offset 18, -32
 187 0140 13040102 		addi	s0,sp,32
 188              		.cfi_def_cfa 8, 0
 189 0144 93040500 		mv	s1,a0
  42:src/Z_Njihovo_Buffer.cpp ****     sem_wait(itemAvailable);
 190              		.loc 1 42 5
 191              		.loc 1 42 13 is_stmt 0
 192 0148 03350502 		ld	a0,32(a0)
 193              	.LVL16:
 194 014c 97000000 		call	_Z8sem_waitP4_sem@plt
 194      E7800000 
 195              	.LVL17:
  43:src/Z_Njihovo_Buffer.cpp **** 
  44:src/Z_Njihovo_Buffer.cpp ****     sem_wait(mutexHead);
 196              		.loc 1 44 5 is_stmt 1
 197              		.loc 1 44 13 is_stmt 0
 198 0154 03B58402 		ld	a0,40(s1)
 199 0158 97000000 		call	_Z8sem_waitP4_sem@plt
 199      E7800000 
 200              	.LVL18:
  45:src/Z_Njihovo_Buffer.cpp **** 
  46:src/Z_Njihovo_Buffer.cpp ****     int ret = buffer[head];
 201              		.loc 1 46 5 is_stmt 1
 202              		.loc 1 46 15 is_stmt 0
 203 0160 03B78400 		ld	a4,8(s1)
 204              		.loc 1 46 22
 205 0164 83A70401 		lw	a5,16(s1)
 206              		.loc 1 46 26
 207 0168 93962700 		slli	a3,a5,2
 208 016c 3307D700 		add	a4,a4,a3
 209              		.loc 1 46 9
 210 0170 03290700 		lw	s2,0(a4)
 211              	.LVL19:
  47:src/Z_Njihovo_Buffer.cpp ****     head = (head + 1) % cap;
 212              		.loc 1 47 5 is_stmt 1
 213              		.loc 1 47 18 is_stmt 0
 214 0174 9B871700 		addiw	a5,a5,1
 215              		.loc 1 47 25
 216 0178 03A70400 		lw	a4,0(s1)
 217              		.loc 1 47 23
 218 017c BBE7E702 		remw	a5,a5,a4
 219              		.loc 1 47 10
 220 0180 23A8F400 		sw	a5,16(s1)
  48:src/Z_Njihovo_Buffer.cpp ****     sem_signal(mutexHead);
 221              		.loc 1 48 5 is_stmt 1
 222              		.loc 1 48 15 is_stmt 0
 223 0184 03B58402 		ld	a0,40(s1)
 224 0188 97000000 		call	_Z10sem_signalP4_sem@plt
 224      E7800000 
 225              	.LVL20:
  49:src/Z_Njihovo_Buffer.cpp **** 
  50:src/Z_Njihovo_Buffer.cpp ****     sem_signal(spaceAvailable);
 226              		.loc 1 50 5 is_stmt 1
 227              		.loc 1 50 15 is_stmt 0
 228 0190 03B58401 		ld	a0,24(s1)
GAS LISTING /tmp/cc3tuhPE.s 			page 6


 229 0194 97000000 		call	_Z10sem_signalP4_sem@plt
 229      E7800000 
 230              	.LVL21:
  51:src/Z_Njihovo_Buffer.cpp **** 
  52:src/Z_Njihovo_Buffer.cpp ****     return ret;
 231              		.loc 1 52 5 is_stmt 1
  53:src/Z_Njihovo_Buffer.cpp **** }
 232              		.loc 1 53 1 is_stmt 0
 233 019c 13050900 		mv	a0,s2
 234 01a0 83308101 		ld	ra,24(sp)
 235              		.cfi_restore 1
 236 01a4 03340101 		ld	s0,16(sp)
 237              		.cfi_restore 8
 238              		.cfi_def_cfa 2, 32
 239 01a8 83348100 		ld	s1,8(sp)
 240              		.cfi_restore 9
 241              	.LVL22:
 242 01ac 03390100 		ld	s2,0(sp)
 243              		.cfi_restore 18
 244              	.LVL23:
 245 01b0 13010102 		addi	sp,sp,32
 246              		.cfi_def_cfa_offset 0
 247 01b4 67800000 		jr	ra
 248              		.cfi_endproc
 249              	.LFE7:
 251              		.align	2
 252              		.globl	_ZN6Buffer6getCntEv
 254              	_ZN6Buffer6getCntEv:
 255              	.LFB8:
  54:src/Z_Njihovo_Buffer.cpp **** 
  55:src/Z_Njihovo_Buffer.cpp **** int Buffer::getCnt() {
 256              		.loc 1 55 22 is_stmt 1
 257              		.cfi_startproc
 258              	.LVL24:
 259 01b8 130101FE 		addi	sp,sp,-32
 260              		.cfi_def_cfa_offset 32
 261 01bc 233C1100 		sd	ra,24(sp)
 262 01c0 23388100 		sd	s0,16(sp)
 263 01c4 23349100 		sd	s1,8(sp)
 264 01c8 23302101 		sd	s2,0(sp)
 265              		.cfi_offset 1, -8
 266              		.cfi_offset 8, -16
 267              		.cfi_offset 9, -24
 268              		.cfi_offset 18, -32
 269 01cc 13040102 		addi	s0,sp,32
 270              		.cfi_def_cfa 8, 0
 271 01d0 93040500 		mv	s1,a0
  56:src/Z_Njihovo_Buffer.cpp ****     int ret;
 272              		.loc 1 56 5
  57:src/Z_Njihovo_Buffer.cpp **** 
  58:src/Z_Njihovo_Buffer.cpp ****     sem_wait(mutexHead);
 273              		.loc 1 58 5
 274              		.loc 1 58 13 is_stmt 0
 275 01d4 03358502 		ld	a0,40(a0)
 276              	.LVL25:
 277 01d8 97000000 		call	_Z8sem_waitP4_sem@plt
 277      E7800000 
GAS LISTING /tmp/cc3tuhPE.s 			page 7


 278              	.LVL26:
  59:src/Z_Njihovo_Buffer.cpp ****     sem_wait(mutexTail);
 279              		.loc 1 59 5 is_stmt 1
 280              		.loc 1 59 13 is_stmt 0
 281 01e0 03B50403 		ld	a0,48(s1)
 282 01e4 97000000 		call	_Z8sem_waitP4_sem@plt
 282      E7800000 
 283              	.LVL27:
  60:src/Z_Njihovo_Buffer.cpp **** 
  61:src/Z_Njihovo_Buffer.cpp ****     if (tail >= head) {
 284              		.loc 1 61 5 is_stmt 1
 285              		.loc 1 61 9 is_stmt 0
 286 01ec 83A74401 		lw	a5,20(s1)
 287              		.loc 1 61 17
 288 01f0 03A90401 		lw	s2,16(s1)
 289              		.loc 1 61 5
 290 01f4 63CE2703 		blt	a5,s2,.L8
  62:src/Z_Njihovo_Buffer.cpp ****         ret = tail - head;
 291              		.loc 1 62 9 is_stmt 1
 292              		.loc 1 62 13 is_stmt 0
 293 01f8 3B892741 		subw	s2,a5,s2
 294              	.LVL28:
 295              	.L9:
  63:src/Z_Njihovo_Buffer.cpp ****     } else {
  64:src/Z_Njihovo_Buffer.cpp ****         ret = cap - head + tail;
  65:src/Z_Njihovo_Buffer.cpp ****     }
  66:src/Z_Njihovo_Buffer.cpp **** 
  67:src/Z_Njihovo_Buffer.cpp ****     sem_signal(mutexTail);
 296              		.loc 1 67 5 is_stmt 1
 297              		.loc 1 67 15 is_stmt 0
 298 01fc 03B50403 		ld	a0,48(s1)
 299 0200 97000000 		call	_Z10sem_signalP4_sem@plt
 299      E7800000 
 300              	.LVL29:
  68:src/Z_Njihovo_Buffer.cpp ****     sem_signal(mutexHead);
 301              		.loc 1 68 5 is_stmt 1
 302              		.loc 1 68 15 is_stmt 0
 303 0208 03B58402 		ld	a0,40(s1)
 304 020c 97000000 		call	_Z10sem_signalP4_sem@plt
 304      E7800000 
 305              	.LVL30:
  69:src/Z_Njihovo_Buffer.cpp **** 
  70:src/Z_Njihovo_Buffer.cpp ****     return ret;
 306              		.loc 1 70 5 is_stmt 1
  71:src/Z_Njihovo_Buffer.cpp **** }
 307              		.loc 1 71 1 is_stmt 0
 308 0214 13050900 		mv	a0,s2
 309 0218 83308101 		ld	ra,24(sp)
 310              		.cfi_remember_state
 311              		.cfi_restore 1
 312 021c 03340101 		ld	s0,16(sp)
 313              		.cfi_restore 8
 314              		.cfi_def_cfa 2, 32
 315 0220 83348100 		ld	s1,8(sp)
 316              		.cfi_restore 9
 317              	.LVL31:
 318 0224 03390100 		ld	s2,0(sp)
GAS LISTING /tmp/cc3tuhPE.s 			page 8


 319              		.cfi_restore 18
 320              	.LVL32:
 321 0228 13010102 		addi	sp,sp,32
 322              		.cfi_def_cfa_offset 0
 323 022c 67800000 		jr	ra
 324              	.LVL33:
 325              	.L8:
 326              		.cfi_restore_state
  64:src/Z_Njihovo_Buffer.cpp ****     }
 327              		.loc 1 64 9 is_stmt 1
  64:src/Z_Njihovo_Buffer.cpp ****     }
 328              		.loc 1 64 15 is_stmt 0
 329 0230 03A70400 		lw	a4,0(s1)
  64:src/Z_Njihovo_Buffer.cpp ****     }
 330              		.loc 1 64 19
 331 0234 3B092741 		subw	s2,a4,s2
  64:src/Z_Njihovo_Buffer.cpp ****     }
 332              		.loc 1 64 13
 333 0238 3B09F900 		addw	s2,s2,a5
 334 023c 6FF01FFC 		j	.L9
 335              		.cfi_endproc
 336              	.LFE8:
 338              		.section	.rodata.str1.8,"aMS",@progbits,1
 339              		.align	3
 340              	.LC0:
 341 0000 42756666 		.string	"Buffer deleted!\n"
 341      65722064 
 341      656C6574 
 341      6564210A 
 341      00
 342              		.text
 343              		.align	2
 344              		.globl	_ZN6BufferD2Ev
 346              	_ZN6BufferD2Ev:
 347              	.LFB4:
  11:src/Z_Njihovo_Buffer.cpp ****     putc('\n');
 348              		.loc 1 11 1 is_stmt 1
 349              		.cfi_startproc
 350              		.cfi_personality 0x9b,DW.ref.__gxx_personality_v0
 351              		.cfi_lsda 0x1b,.LLSDA4
 352              	.LVL34:
 353 0240 130101FE 		addi	sp,sp,-32
 354              		.cfi_def_cfa_offset 32
 355 0244 233C1100 		sd	ra,24(sp)
 356 0248 23388100 		sd	s0,16(sp)
 357 024c 23349100 		sd	s1,8(sp)
 358              		.cfi_offset 1, -8
 359              		.cfi_offset 8, -16
 360              		.cfi_offset 9, -24
 361 0250 13040102 		addi	s0,sp,32
 362              		.cfi_def_cfa 8, 0
 363 0254 93040500 		mv	s1,a0
 364              	.LBB3:
  12:src/Z_Njihovo_Buffer.cpp ****     printString("Buffer deleted!\n");
 365              		.loc 1 12 5
  12:src/Z_Njihovo_Buffer.cpp ****     printString("Buffer deleted!\n");
 366              		.loc 1 12 9 is_stmt 0
GAS LISTING /tmp/cc3tuhPE.s 			page 9


 367 0258 1305A000 		li	a0,10
 368              	.LVL35:
 369 025c 97000000 		call	_Z4putcc@plt
 369      E7800000 
 370              	.LVL36:
  13:src/Z_Njihovo_Buffer.cpp ****     while (getCnt() > 0) {
 371              		.loc 1 13 5 is_stmt 1
  13:src/Z_Njihovo_Buffer.cpp ****     while (getCnt() > 0) {
 372              		.loc 1 13 16 is_stmt 0
 373 0264 17050000 		lla	a0,.LC0
 373      13050500 
 374 026c 97000000 		call	_Z11printStringPKc@plt
 374      E7800000 
 375              	.LVL37:
 376              	.L13:
  14:src/Z_Njihovo_Buffer.cpp ****         char ch = buffer[head];
 377              		.loc 1 14 5 is_stmt 1
  14:src/Z_Njihovo_Buffer.cpp ****         char ch = buffer[head];
 378              		.loc 1 14 21
  14:src/Z_Njihovo_Buffer.cpp ****         char ch = buffer[head];
 379              		.loc 1 14 18 is_stmt 0
 380 0274 13850400 		mv	a0,s1
 381 0278 97000000 		call	_ZN6Buffer6getCntEv
 381      E7800000 
 382              	.LVL38:
  14:src/Z_Njihovo_Buffer.cpp ****         char ch = buffer[head];
 383              		.loc 1 14 21
 384 0280 635CA002 		blez	a0,.L12
 385              	.LBB4:
  15:src/Z_Njihovo_Buffer.cpp ****         putc(ch);
 386              		.loc 1 15 9 is_stmt 1
  15:src/Z_Njihovo_Buffer.cpp ****         putc(ch);
 387              		.loc 1 15 19 is_stmt 0
 388 0284 83B78400 		ld	a5,8(s1)
  15:src/Z_Njihovo_Buffer.cpp ****         putc(ch);
 389              		.loc 1 15 26
 390 0288 03A70401 		lw	a4,16(s1)
  15:src/Z_Njihovo_Buffer.cpp ****         putc(ch);
 391              		.loc 1 15 30
 392 028c 13172700 		slli	a4,a4,2
 393 0290 B387E700 		add	a5,a5,a4
 394              	.LVL39:
  16:src/Z_Njihovo_Buffer.cpp ****         head = (head + 1) % cap;
 395              		.loc 1 16 9 is_stmt 1
  16:src/Z_Njihovo_Buffer.cpp ****         head = (head + 1) % cap;
 396              		.loc 1 16 13 is_stmt 0
 397 0294 03C50700 		lbu	a0,0(a5)
 398 0298 97000000 		call	_Z4putcc@plt
 398      E7800000 
 399              	.LVL40:
  17:src/Z_Njihovo_Buffer.cpp ****     }
 400              		.loc 1 17 9 is_stmt 1
  17:src/Z_Njihovo_Buffer.cpp ****     }
 401              		.loc 1 17 17 is_stmt 0
 402 02a0 83A70401 		lw	a5,16(s1)
  17:src/Z_Njihovo_Buffer.cpp ****     }
 403              		.loc 1 17 22
GAS LISTING /tmp/cc3tuhPE.s 			page 10


 404 02a4 9B871700 		addiw	a5,a5,1
  17:src/Z_Njihovo_Buffer.cpp ****     }
 405              		.loc 1 17 29
 406 02a8 03A70400 		lw	a4,0(s1)
  17:src/Z_Njihovo_Buffer.cpp ****     }
 407              		.loc 1 17 27
 408 02ac BBE7E702 		remw	a5,a5,a4
  17:src/Z_Njihovo_Buffer.cpp ****     }
 409              		.loc 1 17 14
 410 02b0 23A8F400 		sw	a5,16(s1)
 411              	.LBE4:
  14:src/Z_Njihovo_Buffer.cpp ****         char ch = buffer[head];
 412              		.loc 1 14 5
 413 02b4 6FF01FFC 		j	.L13
 414              	.L12:
  19:src/Z_Njihovo_Buffer.cpp ****     putc('\n');
 415              		.loc 1 19 5 is_stmt 1
  19:src/Z_Njihovo_Buffer.cpp ****     putc('\n');
 416              		.loc 1 19 9 is_stmt 0
 417 02b8 13051002 		li	a0,33
 418 02bc 97000000 		call	_Z4putcc@plt
 418      E7800000 
 419              	.LVL41:
  20:src/Z_Njihovo_Buffer.cpp **** 
 420              		.loc 1 20 5 is_stmt 1
  20:src/Z_Njihovo_Buffer.cpp **** 
 421              		.loc 1 20 9 is_stmt 0
 422 02c4 1305A000 		li	a0,10
 423 02c8 97000000 		call	_Z4putcc@plt
 423      E7800000 
 424              	.LVL42:
  22:src/Z_Njihovo_Buffer.cpp ****     sem_close(itemAvailable);
 425              		.loc 1 22 5 is_stmt 1
  22:src/Z_Njihovo_Buffer.cpp ****     sem_close(itemAvailable);
 426              		.loc 1 22 13 is_stmt 0
 427 02d0 03B58400 		ld	a0,8(s1)
 428 02d4 97000000 		call	_Z8mem_freePv@plt
 428      E7800000 
 429              	.LVL43:
  23:src/Z_Njihovo_Buffer.cpp ****     sem_close(spaceAvailable);
 430              		.loc 1 23 5 is_stmt 1
  23:src/Z_Njihovo_Buffer.cpp ****     sem_close(spaceAvailable);
 431              		.loc 1 23 14 is_stmt 0
 432 02dc 03B50402 		ld	a0,32(s1)
 433 02e0 97000000 		call	_Z9sem_closeP4_sem@plt
 433      E7800000 
 434              	.LVL44:
  24:src/Z_Njihovo_Buffer.cpp ****     sem_close(mutexTail);
 435              		.loc 1 24 5 is_stmt 1
  24:src/Z_Njihovo_Buffer.cpp ****     sem_close(mutexTail);
 436              		.loc 1 24 14 is_stmt 0
 437 02e8 03B58401 		ld	a0,24(s1)
 438 02ec 97000000 		call	_Z9sem_closeP4_sem@plt
 438      E7800000 
 439              	.LVL45:
  25:src/Z_Njihovo_Buffer.cpp ****     sem_close(mutexHead);
 440              		.loc 1 25 5 is_stmt 1
GAS LISTING /tmp/cc3tuhPE.s 			page 11


  25:src/Z_Njihovo_Buffer.cpp ****     sem_close(mutexHead);
 441              		.loc 1 25 14 is_stmt 0
 442 02f4 03B50403 		ld	a0,48(s1)
 443 02f8 97000000 		call	_Z9sem_closeP4_sem@plt
 443      E7800000 
 444              	.LVL46:
  26:src/Z_Njihovo_Buffer.cpp **** }
 445              		.loc 1 26 5 is_stmt 1
  26:src/Z_Njihovo_Buffer.cpp **** }
 446              		.loc 1 26 14 is_stmt 0
 447 0300 03B58402 		ld	a0,40(s1)
 448 0304 97000000 		call	_Z9sem_closeP4_sem@plt
 448      E7800000 
 449              	.LVL47:
 450              	.LBE3:
  27:src/Z_Njihovo_Buffer.cpp **** 
 451              		.loc 1 27 1
 452 030c 83308101 		ld	ra,24(sp)
 453              		.cfi_restore 1
 454 0310 03340101 		ld	s0,16(sp)
 455              		.cfi_restore 8
 456              		.cfi_def_cfa 2, 32
 457 0314 83348100 		ld	s1,8(sp)
 458              		.cfi_restore 9
 459              	.LVL48:
 460 0318 13010102 		addi	sp,sp,32
 461              		.cfi_def_cfa_offset 0
 462 031c 67800000 		jr	ra
 463              		.cfi_endproc
 464              	.LFE4:
 465              		.globl	__gxx_personality_v0
 466              		.section	.gcc_except_table,"a",@progbits
 467              	.LLSDA4:
 468 0000 FF       		.byte	0xff
 469 0001 FF       		.byte	0xff
 470 0002 03       		.byte	0x3
 471 0003 00       		.byte	0
 472              		.text
 474              		.globl	_ZN6BufferD1Ev
 475              		.set	_ZN6BufferD1Ev,_ZN6BufferD2Ev
 476              	.Letext0:
 477              		.file 2 "src/../h/../h/../lib/hw.h"
 478              		.file 3 "src/../h/../h/syscall_c.h"
 479              		.file 4 "src/../h/Z_Njihovo_Buffer.hpp"
 480              		.file 5 "src/../h/Z_Njihovo_Printing.hpp"
 2042              		.align	3
 2045              	DW.ref.__gxx_personality_v0:
 2046 0000 00000000 		.dword	__gxx_personality_v0
 2046      00000000 
 2047              		.ident	"GCC: (Ubuntu 9.4.0-1ubuntu1~20.04) 9.4.0"
 2048              		.section	.note.GNU-stack,"",@progbits
GAS LISTING /tmp/cc3tuhPE.s 			page 12


DEFINED SYMBOLS
                            *ABS*:0000000000000000 Z_Njihovo_Buffer.cpp
     /tmp/cc3tuhPE.s:9      .text:0000000000000000 _ZN6BufferC2Ei
     /tmp/cc3tuhPE.s:13     .text:0000000000000000 .L0 
     /tmp/cc3tuhPE.s:15     .text:0000000000000000 .L0 
     /tmp/cc3tuhPE.s:16     .text:0000000000000004 .L0 
     /tmp/cc3tuhPE.s:21     .text:0000000000000014 .L0 
     /tmp/cc3tuhPE.s:22     .text:0000000000000014 .L0 
     /tmp/cc3tuhPE.s:23     .text:0000000000000014 .L0 
     /tmp/cc3tuhPE.s:24     .text:0000000000000014 .L0 
     /tmp/cc3tuhPE.s:26     .text:0000000000000018 .L0 
     /tmp/cc3tuhPE.s:31     .text:0000000000000020 .L0 
     /tmp/cc3tuhPE.s:35     .text:0000000000000028 .L0 
     /tmp/cc3tuhPE.s:39     .text:0000000000000034 .L0 
     /tmp/cc3tuhPE.s:40     .text:0000000000000034 .L0 
     /tmp/cc3tuhPE.s:44     .text:0000000000000040 .L0 
     /tmp/cc3tuhPE.s:46     .text:0000000000000044 .L0 
     /tmp/cc3tuhPE.s:47     .text:0000000000000044 .L0 
     /tmp/cc3tuhPE.s:52     .text:0000000000000054 .L0 
     /tmp/cc3tuhPE.s:53     .text:0000000000000054 .L0 
     /tmp/cc3tuhPE.s:58     .text:0000000000000064 .L0 
     /tmp/cc3tuhPE.s:59     .text:0000000000000064 .L0 
     /tmp/cc3tuhPE.s:64     .text:0000000000000074 .L0 
     /tmp/cc3tuhPE.s:65     .text:0000000000000074 .L0 
     /tmp/cc3tuhPE.s:71     .text:0000000000000084 .L0 
     /tmp/cc3tuhPE.s:72     .text:0000000000000088 .L0 
     /tmp/cc3tuhPE.s:74     .text:000000000000008c .L0 
     /tmp/cc3tuhPE.s:75     .text:000000000000008c .L0 
     /tmp/cc3tuhPE.s:77     .text:0000000000000090 .L0 
     /tmp/cc3tuhPE.s:80     .text:0000000000000094 .L0 
     /tmp/cc3tuhPE.s:82     .text:0000000000000098 .L0 
     /tmp/cc3tuhPE.s:84     .text:000000000000009c .L0 
     /tmp/cc3tuhPE.s:9      .text:0000000000000000 _ZN6BufferC1Ei
     /tmp/cc3tuhPE.s:92     .text:000000000000009c _ZN6Buffer3putEi
     /tmp/cc3tuhPE.s:95     .text:000000000000009c .L0 
     /tmp/cc3tuhPE.s:97     .text:000000000000009c .L0 
     /tmp/cc3tuhPE.s:98     .text:00000000000000a0 .L0 
     /tmp/cc3tuhPE.s:103    .text:00000000000000b0 .L0 
     /tmp/cc3tuhPE.s:104    .text:00000000000000b0 .L0 
     /tmp/cc3tuhPE.s:105    .text:00000000000000b0 .L0 
     /tmp/cc3tuhPE.s:106    .text:00000000000000b0 .L0 
     /tmp/cc3tuhPE.s:108    .text:00000000000000b4 .L0 
     /tmp/cc3tuhPE.s:112    .text:00000000000000bc .L0 
     /tmp/cc3tuhPE.s:113    .text:00000000000000bc .L0 
     /tmp/cc3tuhPE.s:118    .text:00000000000000c8 .L0 
     /tmp/cc3tuhPE.s:119    .text:00000000000000c8 .L0 
     /tmp/cc3tuhPE.s:123    .text:00000000000000d4 .L0 
     /tmp/cc3tuhPE.s:125    .text:00000000000000d8 .L0 
     /tmp/cc3tuhPE.s:127    .text:00000000000000dc .L0 
     /tmp/cc3tuhPE.s:130    .text:00000000000000e4 .L0 
     /tmp/cc3tuhPE.s:132    .text:00000000000000e8 .L0 
     /tmp/cc3tuhPE.s:133    .text:00000000000000e8 .L0 
     /tmp/cc3tuhPE.s:135    .text:00000000000000ec .L0 
     /tmp/cc3tuhPE.s:137    .text:00000000000000f0 .L0 
     /tmp/cc3tuhPE.s:139    .text:00000000000000f4 .L0 
     /tmp/cc3tuhPE.s:141    .text:00000000000000f8 .L0 
     /tmp/cc3tuhPE.s:143    .text:00000000000000fc .L0 
GAS LISTING /tmp/cc3tuhPE.s 			page 13


     /tmp/cc3tuhPE.s:144    .text:00000000000000fc .L0 
     /tmp/cc3tuhPE.s:148    .text:0000000000000108 .L0 
     /tmp/cc3tuhPE.s:149    .text:0000000000000108 .L0 
     /tmp/cc3tuhPE.s:153    .text:0000000000000114 .L0 
     /tmp/cc3tuhPE.s:154    .text:0000000000000118 .L0 
     /tmp/cc3tuhPE.s:156    .text:000000000000011c .L0 
     /tmp/cc3tuhPE.s:157    .text:000000000000011c .L0 
     /tmp/cc3tuhPE.s:159    .text:0000000000000120 .L0 
     /tmp/cc3tuhPE.s:162    .text:0000000000000124 .L0 
     /tmp/cc3tuhPE.s:164    .text:0000000000000128 .L0 
     /tmp/cc3tuhPE.s:166    .text:000000000000012c .L0 
     /tmp/cc3tuhPE.s:172    .text:000000000000012c _ZN6Buffer3getEv
     /tmp/cc3tuhPE.s:175    .text:000000000000012c .L0 
     /tmp/cc3tuhPE.s:177    .text:000000000000012c .L0 
     /tmp/cc3tuhPE.s:178    .text:0000000000000130 .L0 
     /tmp/cc3tuhPE.s:183    .text:0000000000000140 .L0 
     /tmp/cc3tuhPE.s:184    .text:0000000000000140 .L0 
     /tmp/cc3tuhPE.s:185    .text:0000000000000140 .L0 
     /tmp/cc3tuhPE.s:186    .text:0000000000000140 .L0 
     /tmp/cc3tuhPE.s:188    .text:0000000000000144 .L0 
     /tmp/cc3tuhPE.s:191    .text:0000000000000148 .L0 
     /tmp/cc3tuhPE.s:192    .text:0000000000000148 .L0 
     /tmp/cc3tuhPE.s:197    .text:0000000000000154 .L0 
     /tmp/cc3tuhPE.s:198    .text:0000000000000154 .L0 
     /tmp/cc3tuhPE.s:202    .text:0000000000000160 .L0 
     /tmp/cc3tuhPE.s:203    .text:0000000000000160 .L0 
     /tmp/cc3tuhPE.s:205    .text:0000000000000164 .L0 
     /tmp/cc3tuhPE.s:207    .text:0000000000000168 .L0 
     /tmp/cc3tuhPE.s:210    .text:0000000000000170 .L0 
     /tmp/cc3tuhPE.s:213    .text:0000000000000174 .L0 
     /tmp/cc3tuhPE.s:214    .text:0000000000000174 .L0 
     /tmp/cc3tuhPE.s:216    .text:0000000000000178 .L0 
     /tmp/cc3tuhPE.s:218    .text:000000000000017c .L0 
     /tmp/cc3tuhPE.s:220    .text:0000000000000180 .L0 
     /tmp/cc3tuhPE.s:222    .text:0000000000000184 .L0 
     /tmp/cc3tuhPE.s:223    .text:0000000000000184 .L0 
     /tmp/cc3tuhPE.s:227    .text:0000000000000190 .L0 
     /tmp/cc3tuhPE.s:228    .text:0000000000000190 .L0 
     /tmp/cc3tuhPE.s:232    .text:000000000000019c .L0 
     /tmp/cc3tuhPE.s:233    .text:000000000000019c .L0 
     /tmp/cc3tuhPE.s:235    .text:00000000000001a4 .L0 
     /tmp/cc3tuhPE.s:237    .text:00000000000001a8 .L0 
     /tmp/cc3tuhPE.s:238    .text:00000000000001a8 .L0 
     /tmp/cc3tuhPE.s:240    .text:00000000000001ac .L0 
     /tmp/cc3tuhPE.s:243    .text:00000000000001b0 .L0 
     /tmp/cc3tuhPE.s:246    .text:00000000000001b4 .L0 
     /tmp/cc3tuhPE.s:248    .text:00000000000001b8 .L0 
     /tmp/cc3tuhPE.s:254    .text:00000000000001b8 _ZN6Buffer6getCntEv
     /tmp/cc3tuhPE.s:257    .text:00000000000001b8 .L0 
     /tmp/cc3tuhPE.s:259    .text:00000000000001b8 .L0 
     /tmp/cc3tuhPE.s:260    .text:00000000000001bc .L0 
     /tmp/cc3tuhPE.s:265    .text:00000000000001cc .L0 
     /tmp/cc3tuhPE.s:266    .text:00000000000001cc .L0 
     /tmp/cc3tuhPE.s:267    .text:00000000000001cc .L0 
     /tmp/cc3tuhPE.s:268    .text:00000000000001cc .L0 
     /tmp/cc3tuhPE.s:270    .text:00000000000001d0 .L0 
     /tmp/cc3tuhPE.s:273    .text:00000000000001d4 .L0 
GAS LISTING /tmp/cc3tuhPE.s 			page 14


     /tmp/cc3tuhPE.s:274    .text:00000000000001d4 .L0 
     /tmp/cc3tuhPE.s:275    .text:00000000000001d4 .L0 
     /tmp/cc3tuhPE.s:280    .text:00000000000001e0 .L0 
     /tmp/cc3tuhPE.s:281    .text:00000000000001e0 .L0 
     /tmp/cc3tuhPE.s:285    .text:00000000000001ec .L0 
     /tmp/cc3tuhPE.s:286    .text:00000000000001ec .L0 
     /tmp/cc3tuhPE.s:288    .text:00000000000001f0 .L0 
     /tmp/cc3tuhPE.s:290    .text:00000000000001f4 .L0 
     /tmp/cc3tuhPE.s:292    .text:00000000000001f8 .L0 
     /tmp/cc3tuhPE.s:293    .text:00000000000001f8 .L0 
     /tmp/cc3tuhPE.s:297    .text:00000000000001fc .L0 
     /tmp/cc3tuhPE.s:298    .text:00000000000001fc .L0 
     /tmp/cc3tuhPE.s:302    .text:0000000000000208 .L0 
     /tmp/cc3tuhPE.s:303    .text:0000000000000208 .L0 
     /tmp/cc3tuhPE.s:307    .text:0000000000000214 .L0 
     /tmp/cc3tuhPE.s:308    .text:0000000000000214 .L0 
     /tmp/cc3tuhPE.s:310    .text:000000000000021c .L0 
     /tmp/cc3tuhPE.s:311    .text:000000000000021c .L0 
     /tmp/cc3tuhPE.s:313    .text:0000000000000220 .L0 
     /tmp/cc3tuhPE.s:314    .text:0000000000000220 .L0 
     /tmp/cc3tuhPE.s:316    .text:0000000000000224 .L0 
     /tmp/cc3tuhPE.s:319    .text:0000000000000228 .L0 
     /tmp/cc3tuhPE.s:322    .text:000000000000022c .L0 
     /tmp/cc3tuhPE.s:326    .text:0000000000000230 .L0 
     /tmp/cc3tuhPE.s:328    .text:0000000000000230 .L0 
     /tmp/cc3tuhPE.s:329    .text:0000000000000230 .L0 
     /tmp/cc3tuhPE.s:331    .text:0000000000000234 .L0 
     /tmp/cc3tuhPE.s:333    .text:0000000000000238 .L0 
     /tmp/cc3tuhPE.s:335    .text:0000000000000240 .L0 
     /tmp/cc3tuhPE.s:346    .text:0000000000000240 _ZN6BufferD2Ev
     /tmp/cc3tuhPE.s:349    .text:0000000000000240 .L0 
     /tmp/cc3tuhPE.s:2045   .data.rel.local.DW.ref.__gxx_personality_v0:0000000000000000 DW.ref.__gxx_personality_v0
     /tmp/cc3tuhPE.s:353    .text:0000000000000240 .L0 
     /tmp/cc3tuhPE.s:354    .text:0000000000000244 .L0 
     /tmp/cc3tuhPE.s:358    .text:0000000000000250 .L0 
     /tmp/cc3tuhPE.s:359    .text:0000000000000250 .L0 
     /tmp/cc3tuhPE.s:360    .text:0000000000000250 .L0 
     /tmp/cc3tuhPE.s:362    .text:0000000000000254 .L0 
     /tmp/cc3tuhPE.s:366    .text:0000000000000258 .L0 
     /tmp/cc3tuhPE.s:367    .text:0000000000000258 .L0 
     /tmp/cc3tuhPE.s:372    .text:0000000000000264 .L0 
     /tmp/cc3tuhPE.s:373    .text:0000000000000264 .L0 
     /tmp/cc3tuhPE.s:378    .text:0000000000000274 .L0 
     /tmp/cc3tuhPE.s:379    .text:0000000000000274 .L0 
     /tmp/cc3tuhPE.s:380    .text:0000000000000274 .L0 
     /tmp/cc3tuhPE.s:384    .text:0000000000000280 .L0 
     /tmp/cc3tuhPE.s:387    .text:0000000000000284 .L0 
     /tmp/cc3tuhPE.s:388    .text:0000000000000284 .L0 
     /tmp/cc3tuhPE.s:390    .text:0000000000000288 .L0 
     /tmp/cc3tuhPE.s:392    .text:000000000000028c .L0 
     /tmp/cc3tuhPE.s:396    .text:0000000000000294 .L0 
     /tmp/cc3tuhPE.s:397    .text:0000000000000294 .L0 
     /tmp/cc3tuhPE.s:401    .text:00000000000002a0 .L0 
     /tmp/cc3tuhPE.s:402    .text:00000000000002a0 .L0 
     /tmp/cc3tuhPE.s:404    .text:00000000000002a4 .L0 
     /tmp/cc3tuhPE.s:406    .text:00000000000002a8 .L0 
     /tmp/cc3tuhPE.s:408    .text:00000000000002ac .L0 
GAS LISTING /tmp/cc3tuhPE.s 			page 15


     /tmp/cc3tuhPE.s:410    .text:00000000000002b0 .L0 
     /tmp/cc3tuhPE.s:413    .text:00000000000002b4 .L0 
     /tmp/cc3tuhPE.s:416    .text:00000000000002b8 .L0 
     /tmp/cc3tuhPE.s:417    .text:00000000000002b8 .L0 
     /tmp/cc3tuhPE.s:421    .text:00000000000002c4 .L0 
     /tmp/cc3tuhPE.s:422    .text:00000000000002c4 .L0 
     /tmp/cc3tuhPE.s:426    .text:00000000000002d0 .L0 
     /tmp/cc3tuhPE.s:427    .text:00000000000002d0 .L0 
     /tmp/cc3tuhPE.s:431    .text:00000000000002dc .L0 
     /tmp/cc3tuhPE.s:432    .text:00000000000002dc .L0 
     /tmp/cc3tuhPE.s:436    .text:00000000000002e8 .L0 
     /tmp/cc3tuhPE.s:437    .text:00000000000002e8 .L0 
     /tmp/cc3tuhPE.s:441    .text:00000000000002f4 .L0 
     /tmp/cc3tuhPE.s:442    .text:00000000000002f4 .L0 
     /tmp/cc3tuhPE.s:446    .text:0000000000000300 .L0 
     /tmp/cc3tuhPE.s:447    .text:0000000000000300 .L0 
     /tmp/cc3tuhPE.s:452    .text:000000000000030c .L0 
     /tmp/cc3tuhPE.s:453    .text:0000000000000310 .L0 
     /tmp/cc3tuhPE.s:455    .text:0000000000000314 .L0 
     /tmp/cc3tuhPE.s:456    .text:0000000000000314 .L0 
     /tmp/cc3tuhPE.s:458    .text:0000000000000318 .L0 
     /tmp/cc3tuhPE.s:461    .text:000000000000031c .L0 
     /tmp/cc3tuhPE.s:463    .text:0000000000000320 .L0 
     /tmp/cc3tuhPE.s:346    .text:0000000000000240 _ZN6BufferD1Ev
     /tmp/cc3tuhPE.s:481    .text:0000000000000320 .L0 
     /tmp/cc3tuhPE.s:340    .rodata.str1.8:0000000000000000 .LC0
     /tmp/cc3tuhPE.s:373    .text:0000000000000264 .L0 
     /tmp/cc3tuhPE.s:325    .text:0000000000000230 .L8
     /tmp/cc3tuhPE.s:295    .text:00000000000001fc .L9
     /tmp/cc3tuhPE.s:414    .text:00000000000002b8 .L12
     /tmp/cc3tuhPE.s:376    .text:0000000000000274 .L13
     /tmp/cc3tuhPE.s:1167   .debug_abbrev:0000000000000000 .Ldebug_abbrev0
     /tmp/cc3tuhPE.s:1979   .debug_str:0000000000000190 .LASF52
     /tmp/cc3tuhPE.s:2001   .debug_str:00000000000002d0 .LASF53
     /tmp/cc3tuhPE.s:2009   .debug_str:0000000000000318 .LASF54
     /tmp/cc3tuhPE.s:5      .text:0000000000000000 .Ltext0
     /tmp/cc3tuhPE.s:476    .text:0000000000000320 .Letext0
     /tmp/cc3tuhPE.s:1919   .debug_line:0000000000000000 .Ldebug_line0
     /tmp/cc3tuhPE.s:1989   .debug_str:000000000000027e .LASF0
     /tmp/cc3tuhPE.s:1965   .debug_str:000000000000012b .LASF1
     /tmp/cc3tuhPE.s:1953   .debug_str:00000000000000df .LASF2
     /tmp/cc3tuhPE.s:1931   .debug_str:0000000000000033 .LASF4
     /tmp/cc3tuhPE.s:1963   .debug_str:0000000000000119 .LASF3
     /tmp/cc3tuhPE.s:1925   .debug_str:0000000000000018 .LASF5
     /tmp/cc3tuhPE.s:1923   .debug_str:0000000000000005 .LASF6
     /tmp/cc3tuhPE.s:1943   .debug_str:0000000000000087 .LASF7
     /tmp/cc3tuhPE.s:1999   .debug_str:00000000000002c0 .LASF8
     /tmp/cc3tuhPE.s:1929   .debug_str:0000000000000025 .LASF9
     /tmp/cc3tuhPE.s:2037   .debug_str:00000000000003b8 .LASF10
     /tmp/cc3tuhPE.s:1947   .debug_str:00000000000000ac .LASF11
     /tmp/cc3tuhPE.s:2025   .debug_str:000000000000036a .LASF12
     /tmp/cc3tuhPE.s:2005   .debug_str:00000000000002ff .LASF13
     /tmp/cc3tuhPE.s:1971   .debug_str:0000000000000156 .LASF14
     /tmp/cc3tuhPE.s:1939   .debug_str:0000000000000063 .LASF15
     /tmp/cc3tuhPE.s:2003   .debug_str:00000000000002e9 .LASF16
     /tmp/cc3tuhPE.s:1927   .debug_str:000000000000001f .LASF17
     /tmp/cc3tuhPE.s:1997   .debug_str:00000000000002bb .LASF55
GAS LISTING /tmp/cc3tuhPE.s 			page 16


     /tmp/cc3tuhPE.s:2011   .debug_str:000000000000033b .LASF25
     /tmp/cc3tuhPE.s:2015   .debug_str:0000000000000347 .LASF18
     /tmp/cc3tuhPE.s:1983   .debug_str:000000000000025d .LASF19
     /tmp/cc3tuhPE.s:2017   .debug_str:000000000000034e .LASF20
     /tmp/cc3tuhPE.s:1969   .debug_str:0000000000000147 .LASF21
     /tmp/cc3tuhPE.s:1941   .debug_str:0000000000000079 .LASF22
     /tmp/cc3tuhPE.s:1991   .debug_str:000000000000028b .LASF23
     /tmp/cc3tuhPE.s:2033   .debug_str:00000000000003a2 .LASF24
     /tmp/cc3tuhPE.s:2029   .debug_str:0000000000000384 .LASF27
     /tmp/cc3tuhPE.s:2019   .debug_str:0000000000000353 .LASF26
     /tmp/cc3tuhPE.s:1933   .debug_str:000000000000003a .LASF28
     /tmp/cc3tuhPE.s:1949   .debug_str:00000000000000bb .LASF56
     /tmp/cc3tuhPE.s:1993   .debug_str:0000000000000295 .LASF57
     /tmp/cc3tuhPE.s:1937   .debug_str:000000000000005c .LASF29
     /tmp/cc3tuhPE.s:1973   .debug_str:0000000000000162 .LASF30
     /tmp/cc3tuhPE.s:255    .text:00000000000001b8 .LFB8
     /tmp/cc3tuhPE.s:336    .text:0000000000000240 .LFE8
     /tmp/cc3tuhPE.s:1955   .debug_str:00000000000000ed .LASF31
     /tmp/cc3tuhPE.s:1758   .debug_loc:0000000000000000 .LLST6
     /tmp/cc3tuhPE.s:1780   .debug_loc:000000000000005f .LLST7
     /tmp/cc3tuhPE.s:278    .text:00000000000001e0 .LVL26
     /tmp/cc3tuhPE.s:283    .text:00000000000001ec .LVL27
     /tmp/cc3tuhPE.s:300    .text:0000000000000208 .LVL29
     /tmp/cc3tuhPE.s:305    .text:0000000000000214 .LVL30
     /tmp/cc3tuhPE.s:173    .text:000000000000012c .LFB7
     /tmp/cc3tuhPE.s:249    .text:00000000000001b8 .LFE7
     /tmp/cc3tuhPE.s:1787   .debug_loc:0000000000000082 .LLST4
     /tmp/cc3tuhPE.s:1805   .debug_loc:00000000000000ce .LLST5
     /tmp/cc3tuhPE.s:195    .text:0000000000000154 .LVL17
     /tmp/cc3tuhPE.s:200    .text:0000000000000160 .LVL18
     /tmp/cc3tuhPE.s:225    .text:0000000000000190 .LVL20
     /tmp/cc3tuhPE.s:230    .text:000000000000019c .LVL21
     /tmp/cc3tuhPE.s:93     .text:000000000000009c .LFB6
     /tmp/cc3tuhPE.s:167    .text:000000000000012c .LFE6
     /tmp/cc3tuhPE.s:1816   .debug_loc:0000000000000104 .LLST2
     /tmp/cc3tuhPE.s:1834   .debug_loc:0000000000000150 .LLST3
     /tmp/cc3tuhPE.s:116    .text:00000000000000c8 .LVL10
     /tmp/cc3tuhPE.s:121    .text:00000000000000d4 .LVL11
     /tmp/cc3tuhPE.s:146    .text:0000000000000108 .LVL12
     /tmp/cc3tuhPE.s:151    .text:0000000000000114 .LVL13
     /tmp/cc3tuhPE.s:2021   .debug_str:000000000000035b .LASF32
     /tmp/cc3tuhPE.s:2023   .debug_str:0000000000000365 .LASF33
     /tmp/cc3tuhPE.s:1977   .debug_str:0000000000000181 .LASF34
     /tmp/cc3tuhPE.s:347    .text:0000000000000240 .LFB4
     /tmp/cc3tuhPE.s:464    .text:0000000000000320 .LFE4
     /tmp/cc3tuhPE.s:1848   .debug_loc:0000000000000189 .LLST8
     /tmp/cc3tuhPE.s:399    .text:00000000000002a0 .LVL40
     /tmp/cc3tuhPE.s:385    .text:0000000000000284 .LBB4
     /tmp/cc3tuhPE.s:411    .text:00000000000002b4 .LBE4
     /tmp/cc3tuhPE.s:1866   .debug_loc:00000000000001d5 .LLST9
     /tmp/cc3tuhPE.s:370    .text:0000000000000264 .LVL36
     /tmp/cc3tuhPE.s:375    .text:0000000000000274 .LVL37
     /tmp/cc3tuhPE.s:382    .text:0000000000000280 .LVL38
     /tmp/cc3tuhPE.s:419    .text:00000000000002c4 .LVL41
     /tmp/cc3tuhPE.s:424    .text:00000000000002d0 .LVL42
     /tmp/cc3tuhPE.s:429    .text:00000000000002dc .LVL43
     /tmp/cc3tuhPE.s:434    .text:00000000000002e8 .LVL44
GAS LISTING /tmp/cc3tuhPE.s 			page 17


     /tmp/cc3tuhPE.s:439    .text:00000000000002f4 .LVL45
     /tmp/cc3tuhPE.s:444    .text:0000000000000300 .LVL46
     /tmp/cc3tuhPE.s:449    .text:000000000000030c .LVL47
     /tmp/cc3tuhPE.s:1921   .debug_str:0000000000000000 .LASF58
     /tmp/cc3tuhPE.s:2031   .debug_str:0000000000000393 .LASF35
     /tmp/cc3tuhPE.s:10     .text:0000000000000000 .LFB1
     /tmp/cc3tuhPE.s:85     .text:000000000000009c .LFE1
     /tmp/cc3tuhPE.s:1874   .debug_loc:00000000000001f9 .LLST0
     /tmp/cc3tuhPE.s:1892   .debug_loc:0000000000000245 .LLST1
     /tmp/cc3tuhPE.s:42     .text:0000000000000040 .LVL2
     /tmp/cc3tuhPE.s:50     .text:0000000000000054 .LVL3
     /tmp/cc3tuhPE.s:56     .text:0000000000000064 .LVL4
     /tmp/cc3tuhPE.s:62     .text:0000000000000074 .LVL5
     /tmp/cc3tuhPE.s:68     .text:0000000000000084 .LVL6
     /tmp/cc3tuhPE.s:1945   .debug_str:000000000000009a .LASF36
     /tmp/cc3tuhPE.s:1981   .debug_str:0000000000000254 .LASF38
     /tmp/cc3tuhPE.s:1995   .debug_str:00000000000002a6 .LASF37
     /tmp/cc3tuhPE.s:1975   .debug_str:0000000000000176 .LASF39
     /tmp/cc3tuhPE.s:1967   .debug_str:000000000000013e .LASF40
     /tmp/cc3tuhPE.s:2013   .debug_str:0000000000000342 .LASF41
     /tmp/cc3tuhPE.s:1951   .debug_str:00000000000000cc .LASF42
     /tmp/cc3tuhPE.s:2035   .debug_str:00000000000003ac .LASF43
     /tmp/cc3tuhPE.s:1987   .debug_str:0000000000000270 .LASF44
     /tmp/cc3tuhPE.s:2007   .debug_str:000000000000030f .LASF45
     /tmp/cc3tuhPE.s:1935   .debug_str:0000000000000049 .LASF46
     /tmp/cc3tuhPE.s:1961   .debug_str:000000000000010f .LASF47
     /tmp/cc3tuhPE.s:1985   .debug_str:0000000000000262 .LASF48
     /tmp/cc3tuhPE.s:2027   .debug_str:000000000000037a .LASF49
     /tmp/cc3tuhPE.s:1959   .debug_str:00000000000000fb .LASF50
     /tmp/cc3tuhPE.s:1957   .debug_str:00000000000000f2 .LASF51
     /tmp/cc3tuhPE.s:258    .text:00000000000001b8 .LVL24
     /tmp/cc3tuhPE.s:276    .text:00000000000001d8 .LVL25
     /tmp/cc3tuhPE.s:317    .text:0000000000000224 .LVL31
     /tmp/cc3tuhPE.s:324    .text:0000000000000230 .LVL33
     /tmp/cc3tuhPE.s:294    .text:00000000000001fc .LVL28
     /tmp/cc3tuhPE.s:320    .text:0000000000000228 .LVL32
     /tmp/cc3tuhPE.s:176    .text:000000000000012c .LVL15
     /tmp/cc3tuhPE.s:193    .text:000000000000014c .LVL16
     /tmp/cc3tuhPE.s:241    .text:00000000000001ac .LVL22
     /tmp/cc3tuhPE.s:211    .text:0000000000000174 .LVL19
     /tmp/cc3tuhPE.s:244    .text:00000000000001b0 .LVL23
     /tmp/cc3tuhPE.s:96     .text:000000000000009c .LVL8
     /tmp/cc3tuhPE.s:114    .text:00000000000000c0 .LVL9
     /tmp/cc3tuhPE.s:160    .text:0000000000000120 .LVL14
     /tmp/cc3tuhPE.s:352    .text:0000000000000240 .LVL34
     /tmp/cc3tuhPE.s:368    .text:000000000000025c .LVL35
     /tmp/cc3tuhPE.s:459    .text:0000000000000318 .LVL48
     /tmp/cc3tuhPE.s:394    .text:0000000000000294 .LVL39
     /tmp/cc3tuhPE.s:14     .text:0000000000000000 .LVL0
     /tmp/cc3tuhPE.s:33     .text:0000000000000028 .LVL1
     /tmp/cc3tuhPE.s:78     .text:0000000000000090 .LVL7
     /tmp/cc3tuhPE.s:482    .debug_info:0000000000000000 .Ldebug_info0
     /tmp/cc3tuhPE.s:467    .gcc_except_table:0000000000000000 .LLSDA4

UNDEFINED SYMBOLS
_Z9mem_allocm
_Z8sem_openPP4_semj
GAS LISTING /tmp/cc3tuhPE.s 			page 18


_Z8sem_waitP4_sem
_Z10sem_signalP4_sem
_Z4putcc
_Z11printStringPKc
_Z8mem_freePv
_Z9sem_closeP4_sem
__gxx_personality_v0
