GAS LISTING /tmp/cc7FoWwp.s 			page 1


   1              		.file	"KernelBuffer.cpp"
   2              		.option pic
   3              		.option norelax
   4              		.text
   5              	.Ltext0:
   6              		.align	2
   7              		.globl	_ZN12KernelBuffernwEm
   9              	_ZN12KernelBuffernwEm:
  10              	.LFB52:
  11              		.file 1 "src/Code/Console/KernelBuffer.cpp"
   1:src/Code/Console/KernelBuffer.cpp **** #include "../../../h/Code/Console/KernelBuffer.hpp"
   2:src/Code/Console/KernelBuffer.cpp **** #include "../../../h/Code/MemoryAllocator/MemoryAllocator.hpp"
   3:src/Code/Console/KernelBuffer.cpp **** 
   4:src/Code/Console/KernelBuffer.cpp **** KernelBuffer* KernelBuffer::putcKernelBufferHandle = nullptr;
   5:src/Code/Console/KernelBuffer.cpp **** KernelBuffer* KernelBuffer::getcKernelBufferHandle = nullptr;
   6:src/Code/Console/KernelBuffer.cpp **** 
   7:src/Code/Console/KernelBuffer.cpp **** KernelBuffer* KernelBuffer::putcGetInstance() {
   8:src/Code/Console/KernelBuffer.cpp ****     if (!putcKernelBufferHandle) {
   9:src/Code/Console/KernelBuffer.cpp ****         putcKernelBufferHandle = new KernelBuffer;
  10:src/Code/Console/KernelBuffer.cpp ****         return putcKernelBufferHandle;
  11:src/Code/Console/KernelBuffer.cpp ****     } else {
  12:src/Code/Console/KernelBuffer.cpp ****         return putcKernelBufferHandle;
  13:src/Code/Console/KernelBuffer.cpp ****     }
  14:src/Code/Console/KernelBuffer.cpp **** }
  15:src/Code/Console/KernelBuffer.cpp **** 
  16:src/Code/Console/KernelBuffer.cpp **** KernelBuffer* KernelBuffer::getcGetInstance() {
  17:src/Code/Console/KernelBuffer.cpp ****     if (!getcKernelBufferHandle) {
  18:src/Code/Console/KernelBuffer.cpp ****         getcKernelBufferHandle = new KernelBuffer;
  19:src/Code/Console/KernelBuffer.cpp ****         return getcKernelBufferHandle;
  20:src/Code/Console/KernelBuffer.cpp ****     } else {
  21:src/Code/Console/KernelBuffer.cpp ****         return getcKernelBufferHandle;
  22:src/Code/Console/KernelBuffer.cpp ****     }
  23:src/Code/Console/KernelBuffer.cpp **** }
  24:src/Code/Console/KernelBuffer.cpp **** 
  25:src/Code/Console/KernelBuffer.cpp **** void* KernelBuffer::operator new(size_t n) {
  12              		.loc 1 25 44
  13              		.cfi_startproc
  14              	.LVL0:
  15 0000 130101FE 		addi	sp,sp,-32
  16              		.cfi_def_cfa_offset 32
  17 0004 233C1100 		sd	ra,24(sp)
  18 0008 23388100 		sd	s0,16(sp)
  19 000c 23349100 		sd	s1,8(sp)
  20              		.cfi_offset 1, -8
  21              		.cfi_offset 8, -16
  22              		.cfi_offset 9, -24
  23 0010 13040102 		addi	s0,sp,32
  24              		.cfi_def_cfa 8, 0
  25 0014 93040500 		mv	s1,a0
  26:src/Code/Console/KernelBuffer.cpp ****     void* ptr = MemoryAllocator::getInstance().allocateSegment(n);
  26              		.loc 1 26 5
  27              		.loc 1 26 46 is_stmt 0
  28 0018 97000000 		call	_ZN15MemoryAllocator11getInstanceEv@plt
  28      E7800000 
  29              	.LVL1:
  30              		.loc 1 26 63
  31 0020 93850400 		mv	a1,s1
GAS LISTING /tmp/cc7FoWwp.s 			page 2


  32 0024 97000000 		call	_ZN15MemoryAllocator15allocateSegmentEm@plt
  32      E7800000 
  33              	.LVL2:
  27:src/Code/Console/KernelBuffer.cpp ****     return ptr;
  34              		.loc 1 27 5 is_stmt 1
  28:src/Code/Console/KernelBuffer.cpp **** }
  35              		.loc 1 28 1 is_stmt 0
  36 002c 83308101 		ld	ra,24(sp)
  37              		.cfi_restore 1
  38 0030 03340101 		ld	s0,16(sp)
  39              		.cfi_restore 8
  40              		.cfi_def_cfa 2, 32
  41 0034 83348100 		ld	s1,8(sp)
  42              		.cfi_restore 9
  43              	.LVL3:
  44 0038 13010102 		addi	sp,sp,32
  45              		.cfi_def_cfa_offset 0
  46 003c 67800000 		jr	ra
  47              		.cfi_endproc
  48              	.LFE52:
  50              		.align	2
  51              		.globl	_ZN12KernelBuffernaEm
  53              	_ZN12KernelBuffernaEm:
  54              	.LFB53:
  29:src/Code/Console/KernelBuffer.cpp **** 
  30:src/Code/Console/KernelBuffer.cpp **** void* KernelBuffer::operator new[](size_t n) {
  55              		.loc 1 30 46 is_stmt 1
  56              		.cfi_startproc
  57              	.LVL4:
  58 0040 130101FE 		addi	sp,sp,-32
  59              		.cfi_def_cfa_offset 32
  60 0044 233C1100 		sd	ra,24(sp)
  61 0048 23388100 		sd	s0,16(sp)
  62 004c 23349100 		sd	s1,8(sp)
  63              		.cfi_offset 1, -8
  64              		.cfi_offset 8, -16
  65              		.cfi_offset 9, -24
  66 0050 13040102 		addi	s0,sp,32
  67              		.cfi_def_cfa 8, 0
  68 0054 93040500 		mv	s1,a0
  31:src/Code/Console/KernelBuffer.cpp ****     void* ptr = MemoryAllocator::getInstance().allocateSegment(n);
  69              		.loc 1 31 5
  70              		.loc 1 31 46 is_stmt 0
  71 0058 97000000 		call	_ZN15MemoryAllocator11getInstanceEv@plt
  71      E7800000 
  72              	.LVL5:
  73              		.loc 1 31 63
  74 0060 93850400 		mv	a1,s1
  75 0064 97000000 		call	_ZN15MemoryAllocator15allocateSegmentEm@plt
  75      E7800000 
  76              	.LVL6:
  32:src/Code/Console/KernelBuffer.cpp ****     return ptr;
  77              		.loc 1 32 5 is_stmt 1
  33:src/Code/Console/KernelBuffer.cpp **** }
  78              		.loc 1 33 1 is_stmt 0
  79 006c 83308101 		ld	ra,24(sp)
  80              		.cfi_restore 1
GAS LISTING /tmp/cc7FoWwp.s 			page 3


  81 0070 03340101 		ld	s0,16(sp)
  82              		.cfi_restore 8
  83              		.cfi_def_cfa 2, 32
  84 0074 83348100 		ld	s1,8(sp)
  85              		.cfi_restore 9
  86              	.LVL7:
  87 0078 13010102 		addi	sp,sp,32
  88              		.cfi_def_cfa_offset 0
  89 007c 67800000 		jr	ra
  90              		.cfi_endproc
  91              	.LFE53:
  93              		.align	2
  94              		.globl	_ZN12KernelBufferdlEPv
  96              	_ZN12KernelBufferdlEPv:
  97              	.LFB54:
  34:src/Code/Console/KernelBuffer.cpp **** 
  35:src/Code/Console/KernelBuffer.cpp **** void KernelBuffer::operator delete(void *ptr) {
  98              		.loc 1 35 47 is_stmt 1
  99              		.cfi_startproc
 100              	.LVL8:
 101 0080 130101FE 		addi	sp,sp,-32
 102              		.cfi_def_cfa_offset 32
 103 0084 233C1100 		sd	ra,24(sp)
 104 0088 23388100 		sd	s0,16(sp)
 105 008c 23349100 		sd	s1,8(sp)
 106              		.cfi_offset 1, -8
 107              		.cfi_offset 8, -16
 108              		.cfi_offset 9, -24
 109 0090 13040102 		addi	s0,sp,32
 110              		.cfi_def_cfa 8, 0
 111 0094 93040500 		mv	s1,a0
  36:src/Code/Console/KernelBuffer.cpp ****     MemoryAllocator::getInstance().deallocateSegment(ptr);
 112              		.loc 1 36 5
 113              		.loc 1 36 34 is_stmt 0
 114 0098 97000000 		call	_ZN15MemoryAllocator11getInstanceEv@plt
 114      E7800000 
 115              	.LVL9:
 116              		.loc 1 36 53
 117 00a0 93850400 		mv	a1,s1
 118 00a4 97000000 		call	_ZN15MemoryAllocator17deallocateSegmentEPv@plt
 118      E7800000 
 119              	.LVL10:
  37:src/Code/Console/KernelBuffer.cpp **** }
 120              		.loc 1 37 1
 121 00ac 83308101 		ld	ra,24(sp)
 122              		.cfi_restore 1
 123 00b0 03340101 		ld	s0,16(sp)
 124              		.cfi_restore 8
 125              		.cfi_def_cfa 2, 32
 126 00b4 83348100 		ld	s1,8(sp)
 127              		.cfi_restore 9
 128              	.LVL11:
 129 00b8 13010102 		addi	sp,sp,32
 130              		.cfi_def_cfa_offset 0
 131 00bc 67800000 		jr	ra
 132              		.cfi_endproc
 133              	.LFE54:
GAS LISTING /tmp/cc7FoWwp.s 			page 4


 135              		.align	2
 136              		.globl	_ZN12KernelBufferdaEPv
 138              	_ZN12KernelBufferdaEPv:
 139              	.LFB55:
  38:src/Code/Console/KernelBuffer.cpp **** 
  39:src/Code/Console/KernelBuffer.cpp **** void KernelBuffer::operator delete[](void *ptr) {
 140              		.loc 1 39 49 is_stmt 1
 141              		.cfi_startproc
 142              	.LVL12:
 143 00c0 130101FE 		addi	sp,sp,-32
 144              		.cfi_def_cfa_offset 32
 145 00c4 233C1100 		sd	ra,24(sp)
 146 00c8 23388100 		sd	s0,16(sp)
 147 00cc 23349100 		sd	s1,8(sp)
 148              		.cfi_offset 1, -8
 149              		.cfi_offset 8, -16
 150              		.cfi_offset 9, -24
 151 00d0 13040102 		addi	s0,sp,32
 152              		.cfi_def_cfa 8, 0
 153 00d4 93040500 		mv	s1,a0
  40:src/Code/Console/KernelBuffer.cpp ****     MemoryAllocator::getInstance().deallocateSegment(ptr);
 154              		.loc 1 40 5
 155              		.loc 1 40 34 is_stmt 0
 156 00d8 97000000 		call	_ZN15MemoryAllocator11getInstanceEv@plt
 156      E7800000 
 157              	.LVL13:
 158              		.loc 1 40 53
 159 00e0 93850400 		mv	a1,s1
 160 00e4 97000000 		call	_ZN15MemoryAllocator17deallocateSegmentEPv@plt
 160      E7800000 
 161              	.LVL14:
  41:src/Code/Console/KernelBuffer.cpp **** }
 162              		.loc 1 41 1
 163 00ec 83308101 		ld	ra,24(sp)
 164              		.cfi_restore 1
 165 00f0 03340101 		ld	s0,16(sp)
 166              		.cfi_restore 8
 167              		.cfi_def_cfa 2, 32
 168 00f4 83348100 		ld	s1,8(sp)
 169              		.cfi_restore 9
 170              	.LVL15:
 171 00f8 13010102 		addi	sp,sp,32
 172              		.cfi_def_cfa_offset 0
 173 00fc 67800000 		jr	ra
 174              		.cfi_endproc
 175              	.LFE55:
 177              		.align	2
 178              		.globl	_ZN12KernelBufferC2Ev
 180              	_ZN12KernelBufferC2Ev:
 181              	.LFB57:
  42:src/Code/Console/KernelBuffer.cpp **** 
  43:src/Code/Console/KernelBuffer.cpp **** KernelBuffer::KernelBuffer() {
 182              		.loc 1 43 1 is_stmt 1
 183              		.cfi_startproc
 184              	.LVL16:
 185 0100 130101FE 		addi	sp,sp,-32
 186              		.cfi_def_cfa_offset 32
GAS LISTING /tmp/cc7FoWwp.s 			page 5


 187 0104 233C1100 		sd	ra,24(sp)
 188 0108 23388100 		sd	s0,16(sp)
 189 010c 23349100 		sd	s1,8(sp)
 190              		.cfi_offset 1, -8
 191              		.cfi_offset 8, -16
 192              		.cfi_offset 9, -24
 193 0110 13040102 		addi	s0,sp,32
 194              		.cfi_def_cfa 8, 0
 195 0114 93040500 		mv	s1,a0
 196              	.LBB2:
  44:src/Code/Console/KernelBuffer.cpp ****     capacity = 8192; // 8 KB
 197              		.loc 1 44 5
 198              		.loc 1 44 14 is_stmt 0
 199 0118 B7270000 		li	a5,8192
 200 011c 2320F500 		sw	a5,0(a0)
  45:src/Code/Console/KernelBuffer.cpp ****     head = tail = 0;
 201              		.loc 1 45 5 is_stmt 1
 202              		.loc 1 45 17 is_stmt 0
 203 0120 232A0500 		sw	zero,20(a0)
 204              		.loc 1 45 10
 205 0124 23280500 		sw	zero,16(a0)
  46:src/Code/Console/KernelBuffer.cpp ****     buffer = static_cast<int*>(KernelBuffer::operator new(capacity * sizeof(int)));
 206              		.loc 1 46 5 is_stmt 1
 207              		.loc 1 46 58 is_stmt 0
 208 0128 37850000 		li	a0,32768
 209              	.LVL17:
 210 012c 97000000 		call	_ZN12KernelBuffernwEm
 210      E7800000 
 211              	.LVL18:
 212              		.loc 1 46 12
 213 0134 23B4A400 		sd	a0,8(s1)
  47:src/Code/Console/KernelBuffer.cpp ****     spaceAvailable = KernelSemaphore::createSemaphore(capacity);
 214              		.loc 1 47 5 is_stmt 1
 215              		.loc 1 47 54 is_stmt 0
 216 0138 03D50400 		lhu	a0,0(s1)
 217 013c 97000000 		call	_ZN15KernelSemaphore15createSemaphoreEt@plt
 217      E7800000 
 218              	.LVL19:
 219              		.loc 1 47 20
 220 0144 23BCA400 		sd	a0,24(s1)
  48:src/Code/Console/KernelBuffer.cpp ****     itemAvailable = KernelSemaphore::createSemaphore(0);
 221              		.loc 1 48 5 is_stmt 1
 222              		.loc 1 48 53 is_stmt 0
 223 0148 13050000 		li	a0,0
 224 014c 97000000 		call	_ZN15KernelSemaphore15createSemaphoreEt@plt
 224      E7800000 
 225              	.LVL20:
 226              		.loc 1 48 19
 227 0154 23B0A402 		sd	a0,32(s1)
  49:src/Code/Console/KernelBuffer.cpp ****     mutexHead = KernelSemaphore::createSemaphore(1);
 228              		.loc 1 49 5 is_stmt 1
 229              		.loc 1 49 49 is_stmt 0
 230 0158 13051000 		li	a0,1
 231 015c 97000000 		call	_ZN15KernelSemaphore15createSemaphoreEt@plt
 231      E7800000 
 232              	.LVL21:
 233              		.loc 1 49 15
GAS LISTING /tmp/cc7FoWwp.s 			page 6


 234 0164 23B4A402 		sd	a0,40(s1)
  50:src/Code/Console/KernelBuffer.cpp ****     mutexTail = KernelSemaphore::createSemaphore(1);
 235              		.loc 1 50 5 is_stmt 1
 236              		.loc 1 50 49 is_stmt 0
 237 0168 13051000 		li	a0,1
 238 016c 97000000 		call	_ZN15KernelSemaphore15createSemaphoreEt@plt
 238      E7800000 
 239              	.LVL22:
 240              		.loc 1 50 15
 241 0174 23B8A402 		sd	a0,48(s1)
 242              	.LBE2:
  51:src/Code/Console/KernelBuffer.cpp **** }
 243              		.loc 1 51 1
 244 0178 83308101 		ld	ra,24(sp)
 245              		.cfi_restore 1
 246 017c 03340101 		ld	s0,16(sp)
 247              		.cfi_restore 8
 248              		.cfi_def_cfa 2, 32
 249 0180 83348100 		ld	s1,8(sp)
 250              		.cfi_restore 9
 251              	.LVL23:
 252 0184 13010102 		addi	sp,sp,32
 253              		.cfi_def_cfa_offset 0
 254 0188 67800000 		jr	ra
 255              		.cfi_endproc
 256              	.LFE57:
 258              		.globl	_ZN12KernelBufferC1Ev
 259              		.set	_ZN12KernelBufferC1Ev,_ZN12KernelBufferC2Ev
 260              		.align	2
 261              		.globl	_ZN12KernelBuffer15putcGetInstanceEv
 263              	_ZN12KernelBuffer15putcGetInstanceEv:
 264              	.LFB50:
   7:src/Code/Console/KernelBuffer.cpp ****     if (!putcKernelBufferHandle) {
 265              		.loc 1 7 47 is_stmt 1
 266              		.cfi_startproc
 267              		.cfi_personality 0x9b,DW.ref.__gxx_personality_v0
 268              		.cfi_lsda 0x1b,.LLSDA50
 269 018c 130101FE 		addi	sp,sp,-32
 270              		.cfi_def_cfa_offset 32
 271 0190 233C1100 		sd	ra,24(sp)
 272 0194 23388100 		sd	s0,16(sp)
 273 0198 23349100 		sd	s1,8(sp)
 274 019c 23302101 		sd	s2,0(sp)
 275              		.cfi_offset 1, -8
 276              		.cfi_offset 8, -16
 277              		.cfi_offset 9, -24
 278              		.cfi_offset 18, -32
 279 01a0 13040102 		addi	s0,sp,32
 280              		.cfi_def_cfa 8, 0
   8:src/Code/Console/KernelBuffer.cpp ****         putcKernelBufferHandle = new KernelBuffer;
 281              		.loc 1 8 5
   8:src/Code/Console/KernelBuffer.cpp ****         putcKernelBufferHandle = new KernelBuffer;
 282              		.loc 1 8 9 is_stmt 0
 283 01a4 97040000 		ld	s1,.LANCHOR0
 283      83B40400 
   8:src/Code/Console/KernelBuffer.cpp ****         putcKernelBufferHandle = new KernelBuffer;
 284              		.loc 1 8 5
GAS LISTING /tmp/cc7FoWwp.s 			page 7


 285 01ac 63800402 		beqz	s1,.L16
 286              	.L11:
  14:src/Code/Console/KernelBuffer.cpp **** 
 287              		.loc 1 14 1
 288 01b0 13850400 		mv	a0,s1
 289 01b4 83308101 		ld	ra,24(sp)
 290              		.cfi_remember_state
 291              		.cfi_restore 1
 292 01b8 03340101 		ld	s0,16(sp)
 293              		.cfi_restore 8
 294              		.cfi_def_cfa 2, 32
 295 01bc 83348100 		ld	s1,8(sp)
 296              		.cfi_restore 9
 297 01c0 03390100 		ld	s2,0(sp)
 298              		.cfi_restore 18
 299 01c4 13010102 		addi	sp,sp,32
 300              		.cfi_def_cfa_offset 0
 301 01c8 67800000 		jr	ra
 302              	.L16:
 303              		.cfi_restore_state
   9:src/Code/Console/KernelBuffer.cpp ****         return putcKernelBufferHandle;
 304              		.loc 1 9 9 is_stmt 1
   9:src/Code/Console/KernelBuffer.cpp ****         return putcKernelBufferHandle;
 305              		.loc 1 9 38 is_stmt 0
 306 01cc 13058003 		li	a0,56
 307              	.LEHB0:
 308 01d0 97000000 		call	_ZN12KernelBuffernwEm
 308      E7800000 
 309              	.LVL24:
 310              	.LEHE0:
 311 01d8 93040500 		mv	s1,a0
 312              	.LEHB1:
 313 01dc 97000000 		call	_ZN12KernelBufferC1Ev
 313      E7800000 
 314              	.LVL25:
 315              	.LEHE1:
   9:src/Code/Console/KernelBuffer.cpp ****         return putcKernelBufferHandle;
 316              		.loc 1 9 32 discriminator 2
 317 01e4 97070000 		sd	s1,.LANCHOR0,a5
 317      23B09700 
  10:src/Code/Console/KernelBuffer.cpp ****     } else {
 318              		.loc 1 10 9 is_stmt 1 discriminator 2
  10:src/Code/Console/KernelBuffer.cpp ****     } else {
 319              		.loc 1 10 16 is_stmt 0 discriminator 2
 320 01ec 6FF05FFC 		j	.L11
 321              	.L14:
 322 01f0 13090500 		mv	s2,a0
   9:src/Code/Console/KernelBuffer.cpp ****         return putcKernelBufferHandle;
 323              		.loc 1 9 38
 324 01f4 13850400 		mv	a0,s1
 325 01f8 97000000 		call	_ZN12KernelBufferdlEPv
 325      E7800000 
 326              	.LVL26:
 327 0200 13050900 		mv	a0,s2
 328              	.LEHB2:
 329 0204 97000000 		call	_Unwind_Resume@plt
 329      E7800000 
GAS LISTING /tmp/cc7FoWwp.s 			page 8


 330              	.LVL27:
 331              	.LEHE2:
 332              		.cfi_endproc
 333              	.LFE50:
 334              		.globl	__gxx_personality_v0
 335              		.section	.gcc_except_table,"a",@progbits
 336              	.LLSDA50:
 337 0000 FF       		.byte	0xff
 338 0001 FF       		.byte	0xff
 339 0002 03       		.byte	0x3
 340 0003 27       		.byte	0x27
 341 0004 00000000 		.4byte	.LEHB0-.LFB50
 342 0008 00000000 		.4byte	.LEHE0-.LEHB0
 343 000c 00000000 		.4byte	0
 344 0010 00       		.byte	0
 345 0011 00000000 		.4byte	.LEHB1-.LFB50
 346 0015 00000000 		.4byte	.LEHE1-.LEHB1
 347 0019 00000000 		.4byte	.L14-.LFB50
 348 001d 00       		.byte	0
 349 001e 00000000 		.4byte	.LEHB2-.LFB50
 350 0022 00000000 		.4byte	.LEHE2-.LEHB2
 351 0026 00000000 		.4byte	0
 352 002a 00       		.byte	0
 353              		.text
 355              		.align	2
 356              		.globl	_ZN12KernelBuffer15getcGetInstanceEv
 358              	_ZN12KernelBuffer15getcGetInstanceEv:
 359              	.LFB51:
  16:src/Code/Console/KernelBuffer.cpp ****     if (!getcKernelBufferHandle) {
 360              		.loc 1 16 47 is_stmt 1
 361              		.cfi_startproc
 362              		.cfi_personality 0x9b,DW.ref.__gxx_personality_v0
 363              		.cfi_lsda 0x1b,.LLSDA51
 364 020c 130101FE 		addi	sp,sp,-32
 365              		.cfi_def_cfa_offset 32
 366 0210 233C1100 		sd	ra,24(sp)
 367 0214 23388100 		sd	s0,16(sp)
 368 0218 23349100 		sd	s1,8(sp)
 369 021c 23302101 		sd	s2,0(sp)
 370              		.cfi_offset 1, -8
 371              		.cfi_offset 8, -16
 372              		.cfi_offset 9, -24
 373              		.cfi_offset 18, -32
 374 0220 13040102 		addi	s0,sp,32
 375              		.cfi_def_cfa 8, 0
  17:src/Code/Console/KernelBuffer.cpp ****         getcKernelBufferHandle = new KernelBuffer;
 376              		.loc 1 17 5
  17:src/Code/Console/KernelBuffer.cpp ****         getcKernelBufferHandle = new KernelBuffer;
 377              		.loc 1 17 9 is_stmt 0
 378 0224 97040000 		ld	s1,.LANCHOR0+8
 378      83B40400 
  17:src/Code/Console/KernelBuffer.cpp ****         getcKernelBufferHandle = new KernelBuffer;
 379              		.loc 1 17 5
 380 022c 63800402 		beqz	s1,.L22
 381              	.L17:
  23:src/Code/Console/KernelBuffer.cpp **** 
 382              		.loc 1 23 1
GAS LISTING /tmp/cc7FoWwp.s 			page 9


 383 0230 13850400 		mv	a0,s1
 384 0234 83308101 		ld	ra,24(sp)
 385              		.cfi_remember_state
 386              		.cfi_restore 1
 387 0238 03340101 		ld	s0,16(sp)
 388              		.cfi_restore 8
 389              		.cfi_def_cfa 2, 32
 390 023c 83348100 		ld	s1,8(sp)
 391              		.cfi_restore 9
 392 0240 03390100 		ld	s2,0(sp)
 393              		.cfi_restore 18
 394 0244 13010102 		addi	sp,sp,32
 395              		.cfi_def_cfa_offset 0
 396 0248 67800000 		jr	ra
 397              	.L22:
 398              		.cfi_restore_state
  18:src/Code/Console/KernelBuffer.cpp ****         return getcKernelBufferHandle;
 399              		.loc 1 18 9 is_stmt 1
  18:src/Code/Console/KernelBuffer.cpp ****         return getcKernelBufferHandle;
 400              		.loc 1 18 38 is_stmt 0
 401 024c 13058003 		li	a0,56
 402              	.LEHB3:
 403 0250 97000000 		call	_ZN12KernelBuffernwEm
 403      E7800000 
 404              	.LVL28:
 405              	.LEHE3:
 406 0258 93040500 		mv	s1,a0
 407              	.LEHB4:
 408 025c 97000000 		call	_ZN12KernelBufferC1Ev
 408      E7800000 
 409              	.LVL29:
 410              	.LEHE4:
  18:src/Code/Console/KernelBuffer.cpp ****         return getcKernelBufferHandle;
 411              		.loc 1 18 32 discriminator 2
 412 0264 97070000 		sd	s1,.LANCHOR0+8,a5
 412      23B09700 
  19:src/Code/Console/KernelBuffer.cpp ****     } else {
 413              		.loc 1 19 9 is_stmt 1 discriminator 2
  19:src/Code/Console/KernelBuffer.cpp ****     } else {
 414              		.loc 1 19 16 is_stmt 0 discriminator 2
 415 026c 6FF05FFC 		j	.L17
 416              	.L20:
 417 0270 13090500 		mv	s2,a0
  18:src/Code/Console/KernelBuffer.cpp ****         return getcKernelBufferHandle;
 418              		.loc 1 18 38
 419 0274 13850400 		mv	a0,s1
 420 0278 97000000 		call	_ZN12KernelBufferdlEPv
 420      E7800000 
 421              	.LVL30:
 422 0280 13050900 		mv	a0,s2
 423              	.LEHB5:
 424 0284 97000000 		call	_Unwind_Resume@plt
 424      E7800000 
 425              	.LVL31:
 426              	.LEHE5:
 427              		.cfi_endproc
 428              	.LFE51:
GAS LISTING /tmp/cc7FoWwp.s 			page 10


 429              		.section	.gcc_except_table
 430              	.LLSDA51:
 431 002b FF       		.byte	0xff
 432 002c FF       		.byte	0xff
 433 002d 03       		.byte	0x3
 434 002e 27       		.byte	0x27
 435 002f 00000000 		.4byte	.LEHB3-.LFB51
 436 0033 00000000 		.4byte	.LEHE3-.LEHB3
 437 0037 00000000 		.4byte	0
 438 003b 00       		.byte	0
 439 003c 00000000 		.4byte	.LEHB4-.LFB51
 440 0040 00000000 		.4byte	.LEHE4-.LEHB4
 441 0044 00000000 		.4byte	.L20-.LFB51
 442 0048 00       		.byte	0
 443 0049 00000000 		.4byte	.LEHB5-.LFB51
 444 004d 00000000 		.4byte	.LEHE5-.LEHB5
 445 0051 00000000 		.4byte	0
 446 0055 00       		.byte	0
 447              		.text
 449              		.align	2
 450              		.globl	_ZN12KernelBufferD2Ev
 452              	_ZN12KernelBufferD2Ev:
 453              	.LFB60:
  52:src/Code/Console/KernelBuffer.cpp **** 
  53:src/Code/Console/KernelBuffer.cpp **** KernelBuffer::~KernelBuffer() {
 454              		.loc 1 53 1 is_stmt 1
 455              		.cfi_startproc
 456              		.cfi_personality 0x9b,DW.ref.__gxx_personality_v0
 457              		.cfi_lsda 0x1b,.LLSDA60
 458              	.LVL32:
 459 028c 130101FE 		addi	sp,sp,-32
 460              		.cfi_def_cfa_offset 32
 461 0290 233C1100 		sd	ra,24(sp)
 462 0294 23388100 		sd	s0,16(sp)
 463 0298 23349100 		sd	s1,8(sp)
 464 029c 23302101 		sd	s2,0(sp)
 465              		.cfi_offset 1, -8
 466              		.cfi_offset 8, -16
 467              		.cfi_offset 9, -24
 468              		.cfi_offset 18, -32
 469 02a0 13040102 		addi	s0,sp,32
 470              		.cfi_def_cfa 8, 0
 471 02a4 93040500 		mv	s1,a0
 472              	.LBB3:
  54:src/Code/Console/KernelBuffer.cpp ****     KernelBuffer::operator delete[](buffer);
 473              		.loc 1 54 5
 474              		.loc 1 54 36 is_stmt 0
 475 02a8 03358500 		ld	a0,8(a0)
 476              	.LVL33:
 477 02ac 97000000 		call	_ZN12KernelBufferdaEPv
 477      E7800000 
 478              	.LVL34:
  55:src/Code/Console/KernelBuffer.cpp ****     delete spaceAvailable;
 479              		.loc 1 55 5 is_stmt 1
 480              		.loc 1 55 12 is_stmt 0
 481 02b4 03B98401 		ld	s2,24(s1)
 482              		.loc 1 55 26
GAS LISTING /tmp/cc7FoWwp.s 			page 11


 483 02b8 630E0900 		beqz	s2,.L24
 484              		.loc 1 55 12 discriminator 1
 485 02bc 13050900 		mv	a0,s2
 486 02c0 97000000 		call	_ZN15KernelSemaphoreD1Ev@plt
 486      E7800000 
 487              	.LVL35:
 488 02c8 13050900 		mv	a0,s2
 489 02cc 97000000 		call	_ZN15KernelSemaphoredlEPv@plt
 489      E7800000 
 490              	.LVL36:
 491              	.L24:
  56:src/Code/Console/KernelBuffer.cpp ****     delete itemAvailable;
 492              		.loc 1 56 5 is_stmt 1
 493              		.loc 1 56 12 is_stmt 0
 494 02d4 03B90402 		ld	s2,32(s1)
 495              		.loc 1 56 25
 496 02d8 630E0900 		beqz	s2,.L25
 497              		.loc 1 56 12 discriminator 1
 498 02dc 13050900 		mv	a0,s2
 499 02e0 97000000 		call	_ZN15KernelSemaphoreD1Ev@plt
 499      E7800000 
 500              	.LVL37:
 501 02e8 13050900 		mv	a0,s2
 502 02ec 97000000 		call	_ZN15KernelSemaphoredlEPv@plt
 502      E7800000 
 503              	.LVL38:
 504              	.L25:
  57:src/Code/Console/KernelBuffer.cpp ****     delete mutexHead;
 505              		.loc 1 57 5 is_stmt 1
 506              		.loc 1 57 12 is_stmt 0
 507 02f4 03B98402 		ld	s2,40(s1)
 508              		.loc 1 57 21
 509 02f8 630E0900 		beqz	s2,.L26
 510              		.loc 1 57 12 discriminator 1
 511 02fc 13050900 		mv	a0,s2
 512 0300 97000000 		call	_ZN15KernelSemaphoreD1Ev@plt
 512      E7800000 
 513              	.LVL39:
 514 0308 13050900 		mv	a0,s2
 515 030c 97000000 		call	_ZN15KernelSemaphoredlEPv@plt
 515      E7800000 
 516              	.LVL40:
 517              	.L26:
  58:src/Code/Console/KernelBuffer.cpp ****     delete mutexTail;
 518              		.loc 1 58 5 is_stmt 1
 519              		.loc 1 58 12 is_stmt 0
 520 0314 83B40403 		ld	s1,48(s1)
 521              	.LVL41:
 522              		.loc 1 58 21
 523 0318 638E0400 		beqz	s1,.L23
 524              		.loc 1 58 12 discriminator 1
 525 031c 13850400 		mv	a0,s1
 526 0320 97000000 		call	_ZN15KernelSemaphoreD1Ev@plt
 526      E7800000 
 527              	.LVL42:
 528 0328 13850400 		mv	a0,s1
 529 032c 97000000 		call	_ZN15KernelSemaphoredlEPv@plt
GAS LISTING /tmp/cc7FoWwp.s 			page 12


 529      E7800000 
 530              	.LVL43:
 531              	.L23:
 532              	.LBE3:
  59:src/Code/Console/KernelBuffer.cpp **** }
 533              		.loc 1 59 1
 534 0334 83308101 		ld	ra,24(sp)
 535              		.cfi_restore 1
 536 0338 03340101 		ld	s0,16(sp)
 537              		.cfi_restore 8
 538              		.cfi_def_cfa 2, 32
 539 033c 83348100 		ld	s1,8(sp)
 540              		.cfi_restore 9
 541 0340 03390100 		ld	s2,0(sp)
 542              		.cfi_restore 18
 543 0344 13010102 		addi	sp,sp,32
 544              		.cfi_def_cfa_offset 0
 545 0348 67800000 		jr	ra
 546              		.cfi_endproc
 547              	.LFE60:
 548              		.section	.gcc_except_table
 549              	.LLSDA60:
 550 0056 FF       		.byte	0xff
 551 0057 FF       		.byte	0xff
 552 0058 03       		.byte	0x3
 553 0059 00       		.byte	0
 554              		.text
 556              		.globl	_ZN12KernelBufferD1Ev
 557              		.set	_ZN12KernelBufferD1Ev,_ZN12KernelBufferD2Ev
 558              		.align	2
 559              		.globl	_ZN12KernelBuffer16insertIntoBufferEi
 561              	_ZN12KernelBuffer16insertIntoBufferEi:
 562              	.LFB62:
  60:src/Code/Console/KernelBuffer.cpp **** 
  61:src/Code/Console/KernelBuffer.cpp **** void KernelBuffer::insertIntoBuffer(int value) {
 563              		.loc 1 61 48 is_stmt 1
 564              		.cfi_startproc
 565              	.LVL44:
 566 034c 130101FE 		addi	sp,sp,-32
 567              		.cfi_def_cfa_offset 32
 568 0350 233C1100 		sd	ra,24(sp)
 569 0354 23388100 		sd	s0,16(sp)
 570 0358 23349100 		sd	s1,8(sp)
 571 035c 23302101 		sd	s2,0(sp)
 572              		.cfi_offset 1, -8
 573              		.cfi_offset 8, -16
 574              		.cfi_offset 9, -24
 575              		.cfi_offset 18, -32
 576 0360 13040102 		addi	s0,sp,32
 577              		.cfi_def_cfa 8, 0
 578 0364 93040500 		mv	s1,a0
 579 0368 13890500 		mv	s2,a1
  62:src/Code/Console/KernelBuffer.cpp ****     spaceAvailable->wait();
 580              		.loc 1 62 5
 581              		.loc 1 62 25 is_stmt 0
 582 036c 03358501 		ld	a0,24(a0)
 583              	.LVL45:
GAS LISTING /tmp/cc7FoWwp.s 			page 13


 584 0370 97000000 		call	_ZN15KernelSemaphore4waitEv@plt
 584      E7800000 
 585              	.LVL46:
  63:src/Code/Console/KernelBuffer.cpp **** 
  64:src/Code/Console/KernelBuffer.cpp ****     mutexTail->wait();
 586              		.loc 1 64 5 is_stmt 1
 587              		.loc 1 64 20 is_stmt 0
 588 0378 03B50403 		ld	a0,48(s1)
 589 037c 97000000 		call	_ZN15KernelSemaphore4waitEv@plt
 589      E7800000 
 590              	.LVL47:
  65:src/Code/Console/KernelBuffer.cpp ****     buffer[tail] = value;
 591              		.loc 1 65 5 is_stmt 1
 592 0384 83B78400 		ld	a5,8(s1)
 593              		.loc 1 65 12 is_stmt 0
 594 0388 03A74401 		lw	a4,20(s1)
 595              		.loc 1 65 16
 596 038c 13172700 		slli	a4,a4,2
 597 0390 B387E700 		add	a5,a5,a4
 598              		.loc 1 65 18
 599 0394 23A02701 		sw	s2,0(a5)
  66:src/Code/Console/KernelBuffer.cpp ****     tail = (tail + 1) % capacity;
 600              		.loc 1 66 5 is_stmt 1
 601              		.loc 1 66 13 is_stmt 0
 602 0398 83A74401 		lw	a5,20(s1)
 603              		.loc 1 66 18
 604 039c 9B871700 		addiw	a5,a5,1
 605              		.loc 1 66 25
 606 03a0 03A70400 		lw	a4,0(s1)
 607              		.loc 1 66 23
 608 03a4 BBE7E702 		remw	a5,a5,a4
 609              		.loc 1 66 10
 610 03a8 23AAF400 		sw	a5,20(s1)
  67:src/Code/Console/KernelBuffer.cpp ****     mutexTail->signal();
 611              		.loc 1 67 5 is_stmt 1
 612              		.loc 1 67 22 is_stmt 0
 613 03ac 03B50403 		ld	a0,48(s1)
 614 03b0 97000000 		call	_ZN15KernelSemaphore6signalEv@plt
 614      E7800000 
 615              	.LVL48:
  68:src/Code/Console/KernelBuffer.cpp **** 
  69:src/Code/Console/KernelBuffer.cpp ****     itemAvailable->signal();
 616              		.loc 1 69 5 is_stmt 1
 617              		.loc 1 69 26 is_stmt 0
 618 03b8 03B50402 		ld	a0,32(s1)
 619 03bc 97000000 		call	_ZN15KernelSemaphore6signalEv@plt
 619      E7800000 
 620              	.LVL49:
  70:src/Code/Console/KernelBuffer.cpp **** }
 621              		.loc 1 70 1
 622 03c4 83308101 		ld	ra,24(sp)
 623              		.cfi_restore 1
 624 03c8 03340101 		ld	s0,16(sp)
 625              		.cfi_restore 8
 626              		.cfi_def_cfa 2, 32
 627 03cc 83348100 		ld	s1,8(sp)
 628              		.cfi_restore 9
GAS LISTING /tmp/cc7FoWwp.s 			page 14


 629              	.LVL50:
 630 03d0 03390100 		ld	s2,0(sp)
 631              		.cfi_restore 18
 632 03d4 13010102 		addi	sp,sp,32
 633              		.cfi_def_cfa_offset 0
 634 03d8 67800000 		jr	ra
 635              		.cfi_endproc
 636              	.LFE62:
 638              		.align	2
 639              		.globl	_ZN12KernelBuffer16removeFromBufferEv
 641              	_ZN12KernelBuffer16removeFromBufferEv:
 642              	.LFB63:
  71:src/Code/Console/KernelBuffer.cpp **** 
  72:src/Code/Console/KernelBuffer.cpp **** int KernelBuffer::removeFromBuffer() {
 643              		.loc 1 72 38 is_stmt 1
 644              		.cfi_startproc
 645              	.LVL51:
 646 03dc 130101FE 		addi	sp,sp,-32
 647              		.cfi_def_cfa_offset 32
 648 03e0 233C1100 		sd	ra,24(sp)
 649 03e4 23388100 		sd	s0,16(sp)
 650 03e8 23349100 		sd	s1,8(sp)
 651 03ec 23302101 		sd	s2,0(sp)
 652              		.cfi_offset 1, -8
 653              		.cfi_offset 8, -16
 654              		.cfi_offset 9, -24
 655              		.cfi_offset 18, -32
 656 03f0 13040102 		addi	s0,sp,32
 657              		.cfi_def_cfa 8, 0
 658 03f4 93040500 		mv	s1,a0
  73:src/Code/Console/KernelBuffer.cpp ****     itemAvailable->wait();
 659              		.loc 1 73 5
 660              		.loc 1 73 24 is_stmt 0
 661 03f8 03350502 		ld	a0,32(a0)
 662              	.LVL52:
 663 03fc 97000000 		call	_ZN15KernelSemaphore4waitEv@plt
 663      E7800000 
 664              	.LVL53:
  74:src/Code/Console/KernelBuffer.cpp **** 
  75:src/Code/Console/KernelBuffer.cpp ****     mutexHead->wait();
 665              		.loc 1 75 5 is_stmt 1
 666              		.loc 1 75 20 is_stmt 0
 667 0404 03B58402 		ld	a0,40(s1)
 668 0408 97000000 		call	_ZN15KernelSemaphore4waitEv@plt
 668      E7800000 
 669              	.LVL54:
  76:src/Code/Console/KernelBuffer.cpp ****     int value = buffer[head];
 670              		.loc 1 76 5 is_stmt 1
 671              		.loc 1 76 17 is_stmt 0
 672 0410 03B78400 		ld	a4,8(s1)
 673              		.loc 1 76 24
 674 0414 83A70401 		lw	a5,16(s1)
 675              		.loc 1 76 28
 676 0418 93962700 		slli	a3,a5,2
 677 041c 3307D700 		add	a4,a4,a3
 678              		.loc 1 76 9
 679 0420 03290700 		lw	s2,0(a4)
GAS LISTING /tmp/cc7FoWwp.s 			page 15


 680              	.LVL55:
  77:src/Code/Console/KernelBuffer.cpp ****     head = (head + 1) % capacity;
 681              		.loc 1 77 5 is_stmt 1
 682              		.loc 1 77 18 is_stmt 0
 683 0424 9B871700 		addiw	a5,a5,1
 684              		.loc 1 77 25
 685 0428 03A70400 		lw	a4,0(s1)
 686              		.loc 1 77 23
 687 042c BBE7E702 		remw	a5,a5,a4
 688              		.loc 1 77 10
 689 0430 23A8F400 		sw	a5,16(s1)
  78:src/Code/Console/KernelBuffer.cpp ****     mutexHead->signal();
 690              		.loc 1 78 5 is_stmt 1
 691              		.loc 1 78 22 is_stmt 0
 692 0434 03B58402 		ld	a0,40(s1)
 693 0438 97000000 		call	_ZN15KernelSemaphore6signalEv@plt
 693      E7800000 
 694              	.LVL56:
  79:src/Code/Console/KernelBuffer.cpp **** 
  80:src/Code/Console/KernelBuffer.cpp ****     spaceAvailable->signal();
 695              		.loc 1 80 5 is_stmt 1
 696              		.loc 1 80 27 is_stmt 0
 697 0440 03B58401 		ld	a0,24(s1)
 698 0444 97000000 		call	_ZN15KernelSemaphore6signalEv@plt
 698      E7800000 
 699              	.LVL57:
  81:src/Code/Console/KernelBuffer.cpp **** 
  82:src/Code/Console/KernelBuffer.cpp ****     return value;
 700              		.loc 1 82 5 is_stmt 1
  83:src/Code/Console/KernelBuffer.cpp **** }
 701              		.loc 1 83 1 is_stmt 0
 702 044c 13050900 		mv	a0,s2
 703 0450 83308101 		ld	ra,24(sp)
 704              		.cfi_restore 1
 705 0454 03340101 		ld	s0,16(sp)
 706              		.cfi_restore 8
 707              		.cfi_def_cfa 2, 32
 708 0458 83348100 		ld	s1,8(sp)
 709              		.cfi_restore 9
 710              	.LVL58:
 711 045c 03390100 		ld	s2,0(sp)
 712              		.cfi_restore 18
 713              	.LVL59:
 714 0460 13010102 		addi	sp,sp,32
 715              		.cfi_def_cfa_offset 0
 716 0464 67800000 		jr	ra
 717              		.cfi_endproc
 718              	.LFE63:
 720              		.align	2
 721              		.globl	_ZN12KernelBuffer19getNumberOfElementsEv
 723              	_ZN12KernelBuffer19getNumberOfElementsEv:
 724              	.LFB64:
  84:src/Code/Console/KernelBuffer.cpp **** 
  85:src/Code/Console/KernelBuffer.cpp **** int KernelBuffer::getNumberOfElements() {
 725              		.loc 1 85 41 is_stmt 1
 726              		.cfi_startproc
 727              	.LVL60:
GAS LISTING /tmp/cc7FoWwp.s 			page 16


 728 0468 130101FE 		addi	sp,sp,-32
 729              		.cfi_def_cfa_offset 32
 730 046c 233C1100 		sd	ra,24(sp)
 731 0470 23388100 		sd	s0,16(sp)
 732 0474 23349100 		sd	s1,8(sp)
 733 0478 23302101 		sd	s2,0(sp)
 734              		.cfi_offset 1, -8
 735              		.cfi_offset 8, -16
 736              		.cfi_offset 9, -24
 737              		.cfi_offset 18, -32
 738 047c 13040102 		addi	s0,sp,32
 739              		.cfi_def_cfa 8, 0
 740 0480 93040500 		mv	s1,a0
  86:src/Code/Console/KernelBuffer.cpp ****     int value;
 741              		.loc 1 86 5
  87:src/Code/Console/KernelBuffer.cpp **** 
  88:src/Code/Console/KernelBuffer.cpp ****     mutexHead->wait();
 742              		.loc 1 88 5
 743              		.loc 1 88 20 is_stmt 0
 744 0484 03358502 		ld	a0,40(a0)
 745              	.LVL61:
 746 0488 97000000 		call	_ZN15KernelSemaphore4waitEv@plt
 746      E7800000 
 747              	.LVL62:
  89:src/Code/Console/KernelBuffer.cpp ****     mutexTail->wait();
 748              		.loc 1 89 5 is_stmt 1
 749              		.loc 1 89 20 is_stmt 0
 750 0490 03B50403 		ld	a0,48(s1)
 751 0494 97000000 		call	_ZN15KernelSemaphore4waitEv@plt
 751      E7800000 
 752              	.LVL63:
  90:src/Code/Console/KernelBuffer.cpp **** 
  91:src/Code/Console/KernelBuffer.cpp ****     if (tail >= head) {
 753              		.loc 1 91 5 is_stmt 1
 754              		.loc 1 91 9 is_stmt 0
 755 049c 83A74401 		lw	a5,20(s1)
 756              		.loc 1 91 17
 757 04a0 03A90401 		lw	s2,16(s1)
 758              		.loc 1 91 5
 759 04a4 63CE2703 		blt	a5,s2,.L34
  92:src/Code/Console/KernelBuffer.cpp ****         value = tail - head;
 760              		.loc 1 92 9 is_stmt 1
 761              		.loc 1 92 15 is_stmt 0
 762 04a8 3B892741 		subw	s2,a5,s2
 763              	.LVL64:
 764              	.L35:
  93:src/Code/Console/KernelBuffer.cpp ****     } else {
  94:src/Code/Console/KernelBuffer.cpp ****         value = capacity - head + tail;
  95:src/Code/Console/KernelBuffer.cpp ****     }
  96:src/Code/Console/KernelBuffer.cpp **** 
  97:src/Code/Console/KernelBuffer.cpp ****     mutexHead->signal();
 765              		.loc 1 97 5 is_stmt 1
 766              		.loc 1 97 22 is_stmt 0
 767 04ac 03B58402 		ld	a0,40(s1)
 768 04b0 97000000 		call	_ZN15KernelSemaphore6signalEv@plt
 768      E7800000 
 769              	.LVL65:
GAS LISTING /tmp/cc7FoWwp.s 			page 17


  98:src/Code/Console/KernelBuffer.cpp ****     mutexTail->signal();
 770              		.loc 1 98 5 is_stmt 1
 771              		.loc 1 98 22 is_stmt 0
 772 04b8 03B50403 		ld	a0,48(s1)
 773 04bc 97000000 		call	_ZN15KernelSemaphore6signalEv@plt
 773      E7800000 
 774              	.LVL66:
  99:src/Code/Console/KernelBuffer.cpp **** 
 100:src/Code/Console/KernelBuffer.cpp ****     return value;
 775              		.loc 1 100 5 is_stmt 1
 101:src/Code/Console/KernelBuffer.cpp **** }...
 776              		.loc 1 101 1 is_stmt 0
 777 04c4 13050900 		mv	a0,s2
 778 04c8 83308101 		ld	ra,24(sp)
 779              		.cfi_remember_state
 780              		.cfi_restore 1
 781 04cc 03340101 		ld	s0,16(sp)
 782              		.cfi_restore 8
 783              		.cfi_def_cfa 2, 32
 784 04d0 83348100 		ld	s1,8(sp)
 785              		.cfi_restore 9
 786              	.LVL67:
 787 04d4 03390100 		ld	s2,0(sp)
 788              		.cfi_restore 18
 789              	.LVL68:
 790 04d8 13010102 		addi	sp,sp,32
 791              		.cfi_def_cfa_offset 0
 792 04dc 67800000 		jr	ra
 793              	.LVL69:
 794              	.L34:
 795              		.cfi_restore_state
  94:src/Code/Console/KernelBuffer.cpp ****         value = capacity - head + tail;
 796              		.loc 1 94 9 is_stmt 1
  94:src/Code/Console/KernelBuffer.cpp ****         value = capacity - head + tail;
 797              		.loc 1 94 17 is_stmt 0
 798 04e0 03A70400 		lw	a4,0(s1)
  94:src/Code/Console/KernelBuffer.cpp ****         value = capacity - head + tail;
 799              		.loc 1 94 26
 800 04e4 3B092741 		subw	s2,a4,s2
  94:src/Code/Console/KernelBuffer.cpp ****         value = capacity - head + tail;
 801              		.loc 1 94 15
 802 04e8 3B09F900 		addw	s2,s2,a5
 803 04ec 6FF01FFC 		j	.L35
 804              		.cfi_endproc
 805              	.LFE64:
 807              		.globl	_ZN12KernelBuffer22getcKernelBufferHandleE
 808              		.globl	_ZN12KernelBuffer22putcKernelBufferHandleE
 809              		.bss
 810              		.align	3
 811              		.set	.LANCHOR0,. + 0
 814              	_ZN12KernelBuffer22putcKernelBufferHandleE:
 815 0000 00000000 		.zero	8
 815      00000000 
 818              	_ZN12KernelBuffer22getcKernelBufferHandleE:
 819 0008 00000000 		.zero	8
 819      00000000 
 820              		.text
GAS LISTING /tmp/cc7FoWwp.s 			page 18


 821              	.Letext0:
 822              		.file 2 "src/Code/Console/../../../h/Code/Console/../Semaphore/../Thread/../../../lib/hw.h"
 823              		.file 3 "src/Code/Console/../../../h/Code/Console/../Semaphore/../Thread/TCB.hpp"
 824              		.file 4 "src/Code/Console/../../../h/Code/Console/../Semaphore/KernelSemaphore.hpp"
 825              		.file 5 "src/Code/Console/../../../h/Code/Console/KernelBuffer.hpp"
 826              		.file 6 "src/Code/Console/../../../h/Code/MemoryAllocator/MemoryAllocator.hpp"
 827              		.file 7 "src/Code/Console/../../../h/Code/Console/../SystemCalls/syscall_c.h"
 4255              		.align	3
 4258              	DW.ref.__gxx_personality_v0:
 4259 0000 00000000 		.dword	__gxx_personality_v0
 4259      00000000 
 4260              		.ident	"GCC: (Ubuntu 9.4.0-1ubuntu1~20.04) 9.4.0"
 4261              		.section	.note.GNU-stack,"",@progbits
GAS LISTING /tmp/cc7FoWwp.s 			page 19

