GAS LISTING /tmp/ccBYUnRY.s 			page 1


   1              		.file	"main.cpp"
   2              		.option pic
   3              		.option norelax
   4              		.text
   5              	.Ltext0:
   6              		.align	2
   7              		.globl	_Z8userMainPv
   9              	_Z8userMainPv:
  10              	.LFB133:
  11              		.file 1 "src/Code/main.cpp"
   1:src/Code/main.cpp **** #include "../../h/Code/InterruptHandling/Riscv.hpp"
   2:src/Code/main.cpp **** #include "../../h/Code/Thread/TCB.hpp"
   3:src/Code/main.cpp **** #include "../../h/Code/Console/KernelThreadFunctions.hpp"
   4:src/Code/main.cpp **** #include "../../h/Code/Console/KernelBuffer.hpp"
   5:src/Code/main.cpp **** #include "../../h/Testing/Testing_OS1/Threads_C_API_Test.hpp"
   6:src/Code/main.cpp **** #include "../../h/Testing/Testing_OS1/Threads_CPP_API_Test.hpp"
   7:src/Code/main.cpp **** #include "../../h/Testing/Testing_OS1/Consumer_Producer_C_API_Test.hpp"
   8:src/Code/main.cpp **** #include "../../h/Testing/Testing_OS1/Consumer_Producer_CPP_Sync_API_Test.hpp"
   9:src/Code/main.cpp **** #include "../../h/Testing/Testing_OS1/ThreadSleep_C_API_Test.hpp"
  10:src/Code/main.cpp **** #include "../../h/Testing/Testing_OS1/Consumer_Producer_CPP_API_Test.hpp"
  11:src/Code/main.cpp **** #include "../../h/Testing/Testing_OS1/Periodic_Threads_CPP_API_Test.hpp"
  12:src/Code/main.cpp **** 
  13:src/Code/main.cpp **** void userMain(void* arg) {
  12              		.loc 1 13 26
  13              		.cfi_startproc
  14              	.LVL0:
  15 0000 130101FF 		addi	sp,sp,-16
  16              		.cfi_def_cfa_offset 16
  17 0004 23348100 		sd	s0,8(sp)
  18              		.cfi_offset 8, -8
  19 0008 13040101 		addi	s0,sp,16
  20              		.cfi_def_cfa 8, 0
  14:src/Code/main.cpp ****     //ThreadsTestC::Threads_C_API_test(); // niti C API, sinhrona promena konteksta (prosao)
  15:src/Code/main.cpp ****     //ThreadsTestCPP::Threads_CPP_API_test(); // niti CPP API, sinhrona promena konteksta (prosao)
  16:src/Code/main.cpp **** 
  17:src/Code/main.cpp ****     //ConsumerProducerSyncC::Consumer_Producer_Sync_C_API_Test(); // kompletan C API sa semaforima,
  18:src/Code/main.cpp ****     //ConsumerProducerSyncCPP::Consumer_Producer_Sync_CPP_API_Test(); // kompletan CPP API sa semaf
  19:src/Code/main.cpp **** 
  20:src/Code/main.cpp ****     //ThreadSleepTest::Thread_Sleep_C_API_Test(); // uspavljivanje i budjenje niti, C API test (pro
  21:src/Code/main.cpp ****     //ConsumerProducerAsyncCPP::Consumer_Producer_Async_CPP_API_Test(); // CPP API i asinhrona prom
  22:src/Code/main.cpp **** 
  23:src/Code/main.cpp ****     //PeriodicThreadsTest::Periodic_Threads_CPP_API_Test();  // test periodicnih niti (prosao)
  24:src/Code/main.cpp **** }
  21              		.loc 1 24 1 is_stmt 0
  22 000c 03348100 		ld	s0,8(sp)
  23              		.cfi_restore 8
  24              		.cfi_def_cfa 2, 16
  25 0010 13010101 		addi	sp,sp,16
  26              		.cfi_def_cfa_offset 0
  27 0014 67800000 		jr	ra
  28              		.cfi_endproc
  29              	.LFE133:
  31              		.section	.rodata.str1.8,"aMS",@progbits,1
  32              		.align	3
  33              	.LC0:
  34 0000 413A2069 		.string	"A: i="
  34      3D00
GAS LISTING /tmp/ccBYUnRY.s 			page 2


  35 0006 0000     		.align	3
  36              	.LC1:
  37 0008 0A00     		.string	"\n"
  38 000a 00000000 		.align	3
  38      0000
  39              	.LC2:
  40 0010 41206669 		.string	"A finished!\n"
  40      6E697368 
  40      6564210A 
  40      00
  41              		.text
  42              		.align	2
  43              		.globl	_ZN12ThreadsTestC11workerBodyAEPv
  45              	_ZN12ThreadsTestC11workerBodyAEPv:
  46              	.LFB51:
  47              		.file 2 "src/Code/../../h/Testing/Testing_OS1/Threads_C_API_Test.hpp"
   1:src/Code/../../h/Testing/Testing_OS1/Threads_C_API_Test.hpp **** #ifndef THREADS_C_API_TEST_HPP
   2:src/Code/../../h/Testing/Testing_OS1/Threads_C_API_Test.hpp **** #define THREADS_C_API_TEST_HPP
   3:src/Code/../../h/Testing/Testing_OS1/Threads_C_API_Test.hpp **** 
   4:src/Code/../../h/Testing/Testing_OS1/Threads_C_API_Test.hpp **** #include "../../Code/SystemCalls/syscall_c.h"
   5:src/Code/../../h/Testing/Testing_OS1/Threads_C_API_Test.hpp **** #include "Printing.hpp"
   6:src/Code/../../h/Testing/Testing_OS1/Threads_C_API_Test.hpp **** 
   7:src/Code/../../h/Testing/Testing_OS1/Threads_C_API_Test.hpp **** namespace ThreadsTestC {
   8:src/Code/../../h/Testing/Testing_OS1/Threads_C_API_Test.hpp ****     bool finishedA = false;
   9:src/Code/../../h/Testing/Testing_OS1/Threads_C_API_Test.hpp ****     bool finishedB = false;
  10:src/Code/../../h/Testing/Testing_OS1/Threads_C_API_Test.hpp ****     bool finishedC = false;
  11:src/Code/../../h/Testing/Testing_OS1/Threads_C_API_Test.hpp ****     bool finishedD = false;
  12:src/Code/../../h/Testing/Testing_OS1/Threads_C_API_Test.hpp **** 
  13:src/Code/../../h/Testing/Testing_OS1/Threads_C_API_Test.hpp ****     uint64 fibonacci(uint64 n) {
  14:src/Code/../../h/Testing/Testing_OS1/Threads_C_API_Test.hpp ****         if (n == 0 || n == 1) { return n; }
  15:src/Code/../../h/Testing/Testing_OS1/Threads_C_API_Test.hpp ****         if (n % 10 == 0) { thread_dispatch(); }
  16:src/Code/../../h/Testing/Testing_OS1/Threads_C_API_Test.hpp ****         return fibonacci(n - 1) + fibonacci(n - 2);
  17:src/Code/../../h/Testing/Testing_OS1/Threads_C_API_Test.hpp ****     }
  18:src/Code/../../h/Testing/Testing_OS1/Threads_C_API_Test.hpp **** 
  19:src/Code/../../h/Testing/Testing_OS1/Threads_C_API_Test.hpp ****     void workerBodyA(void* arg) {
  48              		.loc 2 19 33 is_stmt 1
  49              		.cfi_startproc
  50              	.LVL1:
  51 0018 130101FE 		addi	sp,sp,-32
  52              		.cfi_def_cfa_offset 32
  53 001c 233C1100 		sd	ra,24(sp)
  54 0020 23388100 		sd	s0,16(sp)
  55 0024 23349100 		sd	s1,8(sp)
  56 0028 23302101 		sd	s2,0(sp)
  57              		.cfi_offset 1, -8
  58              		.cfi_offset 8, -16
  59              		.cfi_offset 9, -24
  60              		.cfi_offset 18, -32
  61 002c 13040102 		addi	s0,sp,32
  62              		.cfi_def_cfa 8, 0
  20:src/Code/../../h/Testing/Testing_OS1/Threads_C_API_Test.hpp ****         for (uint64 i = 0; i < 10; i++) {
  63              		.loc 2 20 9
  64              	.LVL2:
  65              	.LBB118:
  66              		.loc 2 20 21 is_stmt 0
  67 0030 13090000 		li	s2,0
  68 0034 6F008003 		j	.L9
GAS LISTING /tmp/ccBYUnRY.s 			page 3


  69              	.LVL3:
  70              	.L6:
  71              	.LBB119:
  72              	.LBB120:
  73              	.LBB121:
  21:src/Code/../../h/Testing/Testing_OS1/Threads_C_API_Test.hpp ****             printString("A: i="); printInt(i); printString("\n");
  22:src/Code/../../h/Testing/Testing_OS1/Threads_C_API_Test.hpp ****             for (uint64 j = 0; j < 10000; j++) {
  23:src/Code/../../h/Testing/Testing_OS1/Threads_C_API_Test.hpp ****                 for (uint64 k = 0; k < 30000; k++) { }
  24:src/Code/../../h/Testing/Testing_OS1/Threads_C_API_Test.hpp ****                 thread_dispatch();
  74              		.loc 2 24 17 is_stmt 1 discriminator 2
  75              		.loc 2 24 32 is_stmt 0 discriminator 2
  76 0038 97000000 		call	_Z15thread_dispatchv@plt
  76      E7800000 
  77              	.LVL4:
  78              	.LBE121:
  22:src/Code/../../h/Testing/Testing_OS1/Threads_C_API_Test.hpp ****                 for (uint64 k = 0; k < 30000; k++) { }
  79              		.loc 2 22 13 is_stmt 1 discriminator 2
  80 0040 93841400 		addi	s1,s1,1
  81              	.LVL5:
  82              	.L8:
  22:src/Code/../../h/Testing/Testing_OS1/Threads_C_API_Test.hpp ****                 for (uint64 k = 0; k < 30000; k++) { }
  83              		.loc 2 22 34 discriminator 1
  84 0044 B7270000 		li	a5,8192
  85 0048 9387F770 		addi	a5,a5,1807
  86 004c 63EE9700 		bgtu	s1,a5,.L5
  87              	.LBB123:
  88              	.LBB122:
  23:src/Code/../../h/Testing/Testing_OS1/Threads_C_API_Test.hpp ****                 thread_dispatch();
  89              		.loc 2 23 29 is_stmt 0
  90 0050 13070000 		li	a4,0
  91              	.L7:
  92              	.LVL6:
  23:src/Code/../../h/Testing/Testing_OS1/Threads_C_API_Test.hpp ****                 thread_dispatch();
  93              		.loc 2 23 38 is_stmt 1 discriminator 3
  94 0054 B7770000 		li	a5,28672
  95 0058 9387F752 		addi	a5,a5,1327
  96 005c E3EEE7FC 		bgtu	a4,a5,.L6
  23:src/Code/../../h/Testing/Testing_OS1/Threads_C_API_Test.hpp ****                 thread_dispatch();
  97              		.loc 2 23 17 discriminator 2
  98 0060 13071700 		addi	a4,a4,1
  99              	.LVL7:
 100 0064 6FF01FFF 		j	.L7
 101              	.LVL8:
 102              	.L5:
 103              	.LBE122:
 104              	.LBE123:
 105              	.LBE120:
 106              	.LBE119:
  20:src/Code/../../h/Testing/Testing_OS1/Threads_C_API_Test.hpp ****             printString("A: i="); printInt(i); printString("\n");
 107              		.loc 2 20 9 discriminator 2
 108 0068 13091900 		addi	s2,s2,1
 109              	.LVL9:
 110              	.L9:
  20:src/Code/../../h/Testing/Testing_OS1/Threads_C_API_Test.hpp ****             printString("A: i="); printInt(i); printString("\n");
 111              		.loc 2 20 30 discriminator 1
 112 006c 93079000 		li	a5,9
 113 0070 63E02705 		bgtu	s2,a5,.L4
GAS LISTING /tmp/ccBYUnRY.s 			page 4


 114              	.LBB125:
  21:src/Code/../../h/Testing/Testing_OS1/Threads_C_API_Test.hpp ****             for (uint64 j = 0; j < 10000; j++) {
 115              		.loc 2 21 13
  21:src/Code/../../h/Testing/Testing_OS1/Threads_C_API_Test.hpp ****             for (uint64 j = 0; j < 10000; j++) {
 116              		.loc 2 21 24 is_stmt 0
 117 0074 17050000 		lla	a0,.LC0
 117      13050500 
 118 007c 97000000 		call	_Z11printStringPKc@plt
 118      E7800000 
 119              	.LVL10:
  21:src/Code/../../h/Testing/Testing_OS1/Threads_C_API_Test.hpp ****             for (uint64 j = 0; j < 10000; j++) {
 120              		.loc 2 21 35 is_stmt 1
  21:src/Code/../../h/Testing/Testing_OS1/Threads_C_API_Test.hpp ****             for (uint64 j = 0; j < 10000; j++) {
 121              		.loc 2 21 43 is_stmt 0
 122 0084 13060000 		li	a2,0
 123 0088 9305A000 		li	a1,10
 124 008c 1B050900 		sext.w	a0,s2
 125 0090 97000000 		call	_Z8printIntiii@plt
 125      E7800000 
 126              	.LVL11:
  21:src/Code/../../h/Testing/Testing_OS1/Threads_C_API_Test.hpp ****             for (uint64 j = 0; j < 10000; j++) {
 127              		.loc 2 21 48 is_stmt 1
  21:src/Code/../../h/Testing/Testing_OS1/Threads_C_API_Test.hpp ****             for (uint64 j = 0; j < 10000; j++) {
 128              		.loc 2 21 59 is_stmt 0
 129 0098 17050000 		lla	a0,.LC1
 129      13050500 
 130 00a0 97000000 		call	_Z11printStringPKc@plt
 130      E7800000 
 131              	.LVL12:
  22:src/Code/../../h/Testing/Testing_OS1/Threads_C_API_Test.hpp ****                 for (uint64 k = 0; k < 30000; k++) { }
 132              		.loc 2 22 13 is_stmt 1
 133              	.LBB124:
  22:src/Code/../../h/Testing/Testing_OS1/Threads_C_API_Test.hpp ****                 for (uint64 k = 0; k < 30000; k++) { }
 134              		.loc 2 22 25 is_stmt 0
 135 00a8 93040000 		li	s1,0
 136 00ac 6FF09FF9 		j	.L8
 137              	.LVL13:
 138              	.L4:
 139              	.LBE124:
 140              	.LBE125:
 141              	.LBE118:
  25:src/Code/../../h/Testing/Testing_OS1/Threads_C_API_Test.hpp ****             }
  26:src/Code/../../h/Testing/Testing_OS1/Threads_C_API_Test.hpp ****         }
  27:src/Code/../../h/Testing/Testing_OS1/Threads_C_API_Test.hpp ****         printString("A finished!\n");
 142              		.loc 2 27 9 is_stmt 1
 143              		.loc 2 27 20 is_stmt 0
 144 00b0 17050000 		lla	a0,.LC2
 144      13050500 
 145 00b8 97000000 		call	_Z11printStringPKc@plt
 145      E7800000 
 146              	.LVL14:
  28:src/Code/../../h/Testing/Testing_OS1/Threads_C_API_Test.hpp ****         finishedA = true;
 147              		.loc 2 28 9 is_stmt 1
 148              		.loc 2 28 19 is_stmt 0
 149 00c0 93071000 		li	a5,1
 150 00c4 17070000 		sb	a5,.LANCHOR0,a4
 150      2300F700 
GAS LISTING /tmp/ccBYUnRY.s 			page 5


  29:src/Code/../../h/Testing/Testing_OS1/Threads_C_API_Test.hpp ****     }
 151              		.loc 2 29 5
 152 00cc 83308101 		ld	ra,24(sp)
 153              		.cfi_restore 1
 154 00d0 03340101 		ld	s0,16(sp)
 155              		.cfi_restore 8
 156              		.cfi_def_cfa 2, 32
 157 00d4 83348100 		ld	s1,8(sp)
 158              		.cfi_restore 9
 159 00d8 03390100 		ld	s2,0(sp)
 160              		.cfi_restore 18
 161              	.LVL15:
 162 00dc 13010102 		addi	sp,sp,32
 163              		.cfi_def_cfa_offset 0
 164 00e0 67800000 		jr	ra
 165              		.cfi_endproc
 166              	.LFE51:
 168              		.section	.rodata.str1.8
 169 001d 000000   		.align	3
 170              	.LC3:
 171 0020 423A2069 		.string	"B: i="
 171      3D00
 172 0026 0000     		.align	3
 173              	.LC4:
 174 0028 42206669 		.string	"B finished!\n"
 174      6E697368 
 174      6564210A 
 174      00
 175              		.text
 176              		.align	2
 177              		.globl	_ZN12ThreadsTestC11workerBodyBEPv
 179              	_ZN12ThreadsTestC11workerBodyBEPv:
 180              	.LFB52:
  30:src/Code/../../h/Testing/Testing_OS1/Threads_C_API_Test.hpp **** 
  31:src/Code/../../h/Testing/Testing_OS1/Threads_C_API_Test.hpp ****     void workerBodyB(void* arg) {
 181              		.loc 2 31 33 is_stmt 1
 182              		.cfi_startproc
 183              	.LVL16:
 184 00e4 130101FE 		addi	sp,sp,-32
 185              		.cfi_def_cfa_offset 32
 186 00e8 233C1100 		sd	ra,24(sp)
 187 00ec 23388100 		sd	s0,16(sp)
 188 00f0 23349100 		sd	s1,8(sp)
 189 00f4 23302101 		sd	s2,0(sp)
 190              		.cfi_offset 1, -8
 191              		.cfi_offset 8, -16
 192              		.cfi_offset 9, -24
 193              		.cfi_offset 18, -32
 194 00f8 13040102 		addi	s0,sp,32
 195              		.cfi_def_cfa 8, 0
  32:src/Code/../../h/Testing/Testing_OS1/Threads_C_API_Test.hpp ****         for (uint64 i = 0; i < 16; i++) {
 196              		.loc 2 32 9
 197              	.LVL17:
 198              	.LBB126:
 199              		.loc 2 32 21 is_stmt 0
 200 00fc 13090000 		li	s2,0
 201 0100 6F008003 		j	.L17
GAS LISTING /tmp/ccBYUnRY.s 			page 6


 202              	.LVL18:
 203              	.L14:
 204              	.LBB127:
 205              	.LBB128:
 206              	.LBB129:
  33:src/Code/../../h/Testing/Testing_OS1/Threads_C_API_Test.hpp ****             printString("B: i="); printInt(i); printString("\n");
  34:src/Code/../../h/Testing/Testing_OS1/Threads_C_API_Test.hpp ****             for (uint64 j = 0; j < 10000; j++) {
  35:src/Code/../../h/Testing/Testing_OS1/Threads_C_API_Test.hpp ****                 for (uint64 k = 0; k < 30000; k++) { }
  36:src/Code/../../h/Testing/Testing_OS1/Threads_C_API_Test.hpp ****                 thread_dispatch();
 207              		.loc 2 36 17 is_stmt 1 discriminator 2
 208              		.loc 2 36 32 is_stmt 0 discriminator 2
 209 0104 97000000 		call	_Z15thread_dispatchv@plt
 209      E7800000 
 210              	.LVL19:
 211              	.LBE129:
  34:src/Code/../../h/Testing/Testing_OS1/Threads_C_API_Test.hpp ****                 for (uint64 k = 0; k < 30000; k++) { }
 212              		.loc 2 34 13 is_stmt 1 discriminator 2
 213 010c 93841400 		addi	s1,s1,1
 214              	.LVL20:
 215              	.L16:
  34:src/Code/../../h/Testing/Testing_OS1/Threads_C_API_Test.hpp ****                 for (uint64 k = 0; k < 30000; k++) { }
 216              		.loc 2 34 34 discriminator 1
 217 0110 B7270000 		li	a5,8192
 218 0114 9387F770 		addi	a5,a5,1807
 219 0118 63EE9700 		bgtu	s1,a5,.L13
 220              	.LBB131:
 221              	.LBB130:
  35:src/Code/../../h/Testing/Testing_OS1/Threads_C_API_Test.hpp ****                 thread_dispatch();
 222              		.loc 2 35 29 is_stmt 0
 223 011c 13070000 		li	a4,0
 224              	.L15:
 225              	.LVL21:
  35:src/Code/../../h/Testing/Testing_OS1/Threads_C_API_Test.hpp ****                 thread_dispatch();
 226              		.loc 2 35 38 is_stmt 1 discriminator 3
 227 0120 B7770000 		li	a5,28672
 228 0124 9387F752 		addi	a5,a5,1327
 229 0128 E3EEE7FC 		bgtu	a4,a5,.L14
  35:src/Code/../../h/Testing/Testing_OS1/Threads_C_API_Test.hpp ****                 thread_dispatch();
 230              		.loc 2 35 17 discriminator 2
 231 012c 13071700 		addi	a4,a4,1
 232              	.LVL22:
 233 0130 6FF01FFF 		j	.L15
 234              	.LVL23:
 235              	.L13:
 236              	.LBE130:
 237              	.LBE131:
 238              	.LBE128:
 239              	.LBE127:
  32:src/Code/../../h/Testing/Testing_OS1/Threads_C_API_Test.hpp ****             printString("B: i="); printInt(i); printString("\n");
 240              		.loc 2 32 9 discriminator 2
 241 0134 13091900 		addi	s2,s2,1
 242              	.LVL24:
 243              	.L17:
  32:src/Code/../../h/Testing/Testing_OS1/Threads_C_API_Test.hpp ****             printString("B: i="); printInt(i); printString("\n");
 244              		.loc 2 32 30 discriminator 1
 245 0138 9307F000 		li	a5,15
 246 013c 63E02705 		bgtu	s2,a5,.L12
GAS LISTING /tmp/ccBYUnRY.s 			page 7


 247              	.LBB133:
  33:src/Code/../../h/Testing/Testing_OS1/Threads_C_API_Test.hpp ****             for (uint64 j = 0; j < 10000; j++) {
 248              		.loc 2 33 13
  33:src/Code/../../h/Testing/Testing_OS1/Threads_C_API_Test.hpp ****             for (uint64 j = 0; j < 10000; j++) {
 249              		.loc 2 33 24 is_stmt 0
 250 0140 17050000 		lla	a0,.LC3
 250      13050500 
 251 0148 97000000 		call	_Z11printStringPKc@plt
 251      E7800000 
 252              	.LVL25:
  33:src/Code/../../h/Testing/Testing_OS1/Threads_C_API_Test.hpp ****             for (uint64 j = 0; j < 10000; j++) {
 253              		.loc 2 33 35 is_stmt 1
  33:src/Code/../../h/Testing/Testing_OS1/Threads_C_API_Test.hpp ****             for (uint64 j = 0; j < 10000; j++) {
 254              		.loc 2 33 43 is_stmt 0
 255 0150 13060000 		li	a2,0
 256 0154 9305A000 		li	a1,10
 257 0158 1B050900 		sext.w	a0,s2
 258 015c 97000000 		call	_Z8printIntiii@plt
 258      E7800000 
 259              	.LVL26:
  33:src/Code/../../h/Testing/Testing_OS1/Threads_C_API_Test.hpp ****             for (uint64 j = 0; j < 10000; j++) {
 260              		.loc 2 33 48 is_stmt 1
  33:src/Code/../../h/Testing/Testing_OS1/Threads_C_API_Test.hpp ****             for (uint64 j = 0; j < 10000; j++) {
 261              		.loc 2 33 59 is_stmt 0
 262 0164 17050000 		lla	a0,.LC1
 262      13050500 
 263 016c 97000000 		call	_Z11printStringPKc@plt
 263      E7800000 
 264              	.LVL27:
  34:src/Code/../../h/Testing/Testing_OS1/Threads_C_API_Test.hpp ****                 for (uint64 k = 0; k < 30000; k++) { }
 265              		.loc 2 34 13 is_stmt 1
 266              	.LBB132:
  34:src/Code/../../h/Testing/Testing_OS1/Threads_C_API_Test.hpp ****                 for (uint64 k = 0; k < 30000; k++) { }
 267              		.loc 2 34 25 is_stmt 0
 268 0174 93040000 		li	s1,0
 269 0178 6FF09FF9 		j	.L16
 270              	.LVL28:
 271              	.L12:
 272              	.LBE132:
 273              	.LBE133:
 274              	.LBE126:
  37:src/Code/../../h/Testing/Testing_OS1/Threads_C_API_Test.hpp ****             }
  38:src/Code/../../h/Testing/Testing_OS1/Threads_C_API_Test.hpp ****         }
  39:src/Code/../../h/Testing/Testing_OS1/Threads_C_API_Test.hpp ****         printString("B finished!\n");
 275              		.loc 2 39 9 is_stmt 1
 276              		.loc 2 39 20 is_stmt 0
 277 017c 17050000 		lla	a0,.LC4
 277      13050500 
 278 0184 97000000 		call	_Z11printStringPKc@plt
 278      E7800000 
 279              	.LVL29:
  40:src/Code/../../h/Testing/Testing_OS1/Threads_C_API_Test.hpp ****         finishedB = true;
 280              		.loc 2 40 9 is_stmt 1
 281              		.loc 2 40 19 is_stmt 0
 282 018c 93071000 		li	a5,1
 283 0190 17070000 		sb	a5,.LANCHOR0+1,a4
 283      2300F700 
GAS LISTING /tmp/ccBYUnRY.s 			page 8


  41:src/Code/../../h/Testing/Testing_OS1/Threads_C_API_Test.hpp ****         thread_dispatch();
 284              		.loc 2 41 9 is_stmt 1
 285              		.loc 2 41 24 is_stmt 0
 286 0198 97000000 		call	_Z15thread_dispatchv@plt
 286      E7800000 
 287              	.LVL30:
  42:src/Code/../../h/Testing/Testing_OS1/Threads_C_API_Test.hpp ****     }
 288              		.loc 2 42 5
 289 01a0 83308101 		ld	ra,24(sp)
 290              		.cfi_restore 1
 291 01a4 03340101 		ld	s0,16(sp)
 292              		.cfi_restore 8
 293              		.cfi_def_cfa 2, 32
 294 01a8 83348100 		ld	s1,8(sp)
 295              		.cfi_restore 9
 296 01ac 03390100 		ld	s2,0(sp)
 297              		.cfi_restore 18
 298              	.LVL31:
 299 01b0 13010102 		addi	sp,sp,32
 300              		.cfi_def_cfa_offset 0
 301 01b4 67800000 		jr	ra
 302              		.cfi_endproc
 303              	.LFE52:
 305              		.section	.text._ZN14ThreadsTestCPP7WorkerAD2Ev,"axG",@progbits,_ZN14ThreadsTestCPP7WorkerAD5Ev,com
 306              		.align	2
 307              		.weak	_ZN14ThreadsTestCPP7WorkerAD2Ev
 309              	_ZN14ThreadsTestCPP7WorkerAD2Ev:
 310              	.LFB184:
 311              		.file 3 "src/Code/../../h/Testing/Testing_OS1/Threads_CPP_API_Test.hpp"
   1:src/Code/../../h/Testing/Testing_OS1/Threads_CPP_API_Test.hpp **** #ifndef THREADS_CPP_API_TEST_HPP
   2:src/Code/../../h/Testing/Testing_OS1/Threads_CPP_API_Test.hpp **** #define THREADS_CPP_API_TEST_HPP
   3:src/Code/../../h/Testing/Testing_OS1/Threads_CPP_API_Test.hpp **** 
   4:src/Code/../../h/Testing/Testing_OS1/Threads_CPP_API_Test.hpp **** #include "../../Code/SystemCalls/syscall_cpp.hpp"
   5:src/Code/../../h/Testing/Testing_OS1/Threads_CPP_API_Test.hpp **** #include "Printing.hpp"
   6:src/Code/../../h/Testing/Testing_OS1/Threads_CPP_API_Test.hpp **** 
   7:src/Code/../../h/Testing/Testing_OS1/Threads_CPP_API_Test.hpp **** namespace ThreadsTestCPP {
   8:src/Code/../../h/Testing/Testing_OS1/Threads_CPP_API_Test.hpp ****     bool finishedA = false;
   9:src/Code/../../h/Testing/Testing_OS1/Threads_CPP_API_Test.hpp ****     bool finishedB = false;
  10:src/Code/../../h/Testing/Testing_OS1/Threads_CPP_API_Test.hpp ****     bool finishedC = false;
  11:src/Code/../../h/Testing/Testing_OS1/Threads_CPP_API_Test.hpp ****     bool finishedD = false;
  12:src/Code/../../h/Testing/Testing_OS1/Threads_CPP_API_Test.hpp **** 
  13:src/Code/../../h/Testing/Testing_OS1/Threads_CPP_API_Test.hpp ****     uint64 fibonacci(uint64 n) {
  14:src/Code/../../h/Testing/Testing_OS1/Threads_CPP_API_Test.hpp ****         if (n == 0 || n == 1) { return n; }
  15:src/Code/../../h/Testing/Testing_OS1/Threads_CPP_API_Test.hpp ****         if (n % 10 == 0) { thread_dispatch(); }
  16:src/Code/../../h/Testing/Testing_OS1/Threads_CPP_API_Test.hpp ****         return fibonacci(n - 1) + fibonacci(n - 2);
  17:src/Code/../../h/Testing/Testing_OS1/Threads_CPP_API_Test.hpp ****     }
  18:src/Code/../../h/Testing/Testing_OS1/Threads_CPP_API_Test.hpp **** 
  19:src/Code/../../h/Testing/Testing_OS1/Threads_CPP_API_Test.hpp ****     class WorkerA: public Thread {
 312              		.loc 3 19 11 is_stmt 1
 313              		.cfi_startproc
 314              	.LVL32:
 315 0000 130101FF 		addi	sp,sp,-16
 316              		.cfi_def_cfa_offset 16
 317 0004 23341100 		sd	ra,8(sp)
 318 0008 23308100 		sd	s0,0(sp)
 319              		.cfi_offset 1, -8
 320              		.cfi_offset 8, -16
GAS LISTING /tmp/ccBYUnRY.s 			page 9


 321 000c 13040101 		addi	s0,sp,16
 322              		.cfi_def_cfa 8, 0
 323              	.LBB134:
 324              		.loc 3 19 11 is_stmt 0
 325 0010 97070000 		lla	a5,_ZTVN14ThreadsTestCPP7WorkerAE+16
 325      93870700 
 326 0018 2330F500 		sd	a5,0(a0)
 327 001c 97000000 		call	_ZN6ThreadD2Ev@plt
 327      E7800000 
 328              	.LVL33:
 329              	.LBE134:
 330 0024 83308100 		ld	ra,8(sp)
 331              		.cfi_restore 1
 332 0028 03340100 		ld	s0,0(sp)
 333              		.cfi_restore 8
 334              		.cfi_def_cfa 2, 16
 335 002c 13010101 		addi	sp,sp,16
 336              		.cfi_def_cfa_offset 0
 337 0030 67800000 		jr	ra
 338              		.cfi_endproc
 339              	.LFE184:
 341              		.weak	_ZN14ThreadsTestCPP7WorkerAD1Ev
 342              		.set	_ZN14ThreadsTestCPP7WorkerAD1Ev,_ZN14ThreadsTestCPP7WorkerAD2Ev
 343              		.section	.text._ZN14ThreadsTestCPP7WorkerAD0Ev,"axG",@progbits,_ZN14ThreadsTestCPP7WorkerAD5Ev,com
 344              		.align	2
 345              		.weak	_ZN14ThreadsTestCPP7WorkerAD0Ev
 347              	_ZN14ThreadsTestCPP7WorkerAD0Ev:
 348              	.LFB186:
 349              		.loc 3 19 11 is_stmt 1
 350              		.cfi_startproc
 351              	.LVL34:
 352 0000 130101FE 		addi	sp,sp,-32
 353              		.cfi_def_cfa_offset 32
 354 0004 233C1100 		sd	ra,24(sp)
 355 0008 23388100 		sd	s0,16(sp)
 356 000c 23349100 		sd	s1,8(sp)
 357              		.cfi_offset 1, -8
 358              		.cfi_offset 8, -16
 359              		.cfi_offset 9, -24
 360 0010 13040102 		addi	s0,sp,32
 361              		.cfi_def_cfa 8, 0
 362 0014 93040500 		mv	s1,a0
 363              	.LVL35:
 364              	.LBB135:
 365              	.LBB136:
 366              		.loc 3 19 11 is_stmt 0
 367 0018 97070000 		lla	a5,_ZTVN14ThreadsTestCPP7WorkerAE+16
 367      93870700 
 368 0020 2330F500 		sd	a5,0(a0)
 369 0024 97000000 		call	_ZN6ThreadD2Ev@plt
 369      E7800000 
 370              	.LVL36:
 371              	.LBE136:
 372              	.LBE135:
 373 002c 13850400 		mv	a0,s1
 374 0030 97000000 		call	_ZdlPv@plt
 374      E7800000 
GAS LISTING /tmp/ccBYUnRY.s 			page 10


 375              	.LVL37:
 376 0038 83308101 		ld	ra,24(sp)
 377              		.cfi_restore 1
 378 003c 03340101 		ld	s0,16(sp)
 379              		.cfi_restore 8
 380              		.cfi_def_cfa 2, 32
 381 0040 83348100 		ld	s1,8(sp)
 382              		.cfi_restore 9
 383              	.LVL38:
 384 0044 13010102 		addi	sp,sp,32
 385              		.cfi_def_cfa_offset 0
 386 0048 67800000 		jr	ra
 387              		.cfi_endproc
 388              	.LFE186:
 390              		.section	.text._ZN14ThreadsTestCPP7WorkerBD2Ev,"axG",@progbits,_ZN14ThreadsTestCPP7WorkerBD5Ev,com
 391              		.align	2
 392              		.weak	_ZN14ThreadsTestCPP7WorkerBD2Ev
 394              	_ZN14ThreadsTestCPP7WorkerBD2Ev:
 395              	.LFB180:
  20:src/Code/../../h/Testing/Testing_OS1/Threads_CPP_API_Test.hpp ****         void workerBodyA(void* arg);
  21:src/Code/../../h/Testing/Testing_OS1/Threads_CPP_API_Test.hpp ****     public:
  22:src/Code/../../h/Testing/Testing_OS1/Threads_CPP_API_Test.hpp ****         WorkerA():Thread() {}
  23:src/Code/../../h/Testing/Testing_OS1/Threads_CPP_API_Test.hpp **** 
  24:src/Code/../../h/Testing/Testing_OS1/Threads_CPP_API_Test.hpp ****         void run() override {
  25:src/Code/../../h/Testing/Testing_OS1/Threads_CPP_API_Test.hpp ****             workerBodyA(nullptr);
  26:src/Code/../../h/Testing/Testing_OS1/Threads_CPP_API_Test.hpp ****         }
  27:src/Code/../../h/Testing/Testing_OS1/Threads_CPP_API_Test.hpp ****     };
  28:src/Code/../../h/Testing/Testing_OS1/Threads_CPP_API_Test.hpp **** 
  29:src/Code/../../h/Testing/Testing_OS1/Threads_CPP_API_Test.hpp ****     class WorkerB: public Thread {
 396              		.loc 3 29 11 is_stmt 1
 397              		.cfi_startproc
 398              	.LVL39:
 399 0000 130101FF 		addi	sp,sp,-16
 400              		.cfi_def_cfa_offset 16
 401 0004 23341100 		sd	ra,8(sp)
 402 0008 23308100 		sd	s0,0(sp)
 403              		.cfi_offset 1, -8
 404              		.cfi_offset 8, -16
 405 000c 13040101 		addi	s0,sp,16
 406              		.cfi_def_cfa 8, 0
 407              	.LBB137:
 408              		.loc 3 29 11 is_stmt 0
 409 0010 97070000 		lla	a5,_ZTVN14ThreadsTestCPP7WorkerBE+16
 409      93870700 
 410 0018 2330F500 		sd	a5,0(a0)
 411 001c 97000000 		call	_ZN6ThreadD2Ev@plt
 411      E7800000 
 412              	.LVL40:
 413              	.LBE137:
 414 0024 83308100 		ld	ra,8(sp)
 415              		.cfi_restore 1
 416 0028 03340100 		ld	s0,0(sp)
 417              		.cfi_restore 8
 418              		.cfi_def_cfa 2, 16
 419 002c 13010101 		addi	sp,sp,16
 420              		.cfi_def_cfa_offset 0
 421 0030 67800000 		jr	ra
GAS LISTING /tmp/ccBYUnRY.s 			page 11


 422              		.cfi_endproc
 423              	.LFE180:
 425              		.weak	_ZN14ThreadsTestCPP7WorkerBD1Ev
 426              		.set	_ZN14ThreadsTestCPP7WorkerBD1Ev,_ZN14ThreadsTestCPP7WorkerBD2Ev
 427              		.section	.text._ZN14ThreadsTestCPP7WorkerBD0Ev,"axG",@progbits,_ZN14ThreadsTestCPP7WorkerBD5Ev,com
 428              		.align	2
 429              		.weak	_ZN14ThreadsTestCPP7WorkerBD0Ev
 431              	_ZN14ThreadsTestCPP7WorkerBD0Ev:
 432              	.LFB182:
 433              		.loc 3 29 11 is_stmt 1
 434              		.cfi_startproc
 435              	.LVL41:
 436 0000 130101FE 		addi	sp,sp,-32
 437              		.cfi_def_cfa_offset 32
 438 0004 233C1100 		sd	ra,24(sp)
 439 0008 23388100 		sd	s0,16(sp)
 440 000c 23349100 		sd	s1,8(sp)
 441              		.cfi_offset 1, -8
 442              		.cfi_offset 8, -16
 443              		.cfi_offset 9, -24
 444 0010 13040102 		addi	s0,sp,32
 445              		.cfi_def_cfa 8, 0
 446 0014 93040500 		mv	s1,a0
 447              	.LVL42:
 448              	.LBB138:
 449              	.LBB139:
 450              		.loc 3 29 11 is_stmt 0
 451 0018 97070000 		lla	a5,_ZTVN14ThreadsTestCPP7WorkerBE+16
 451      93870700 
 452 0020 2330F500 		sd	a5,0(a0)
 453 0024 97000000 		call	_ZN6ThreadD2Ev@plt
 453      E7800000 
 454              	.LVL43:
 455              	.LBE139:
 456              	.LBE138:
 457 002c 13850400 		mv	a0,s1
 458 0030 97000000 		call	_ZdlPv@plt
 458      E7800000 
 459              	.LVL44:
 460 0038 83308101 		ld	ra,24(sp)
 461              		.cfi_restore 1
 462 003c 03340101 		ld	s0,16(sp)
 463              		.cfi_restore 8
 464              		.cfi_def_cfa 2, 32
 465 0040 83348100 		ld	s1,8(sp)
 466              		.cfi_restore 9
 467              	.LVL45:
 468 0044 13010102 		addi	sp,sp,32
 469              		.cfi_def_cfa_offset 0
 470 0048 67800000 		jr	ra
 471              		.cfi_endproc
 472              	.LFE182:
 474              		.section	.text._ZN14ThreadsTestCPP7WorkerCD2Ev,"axG",@progbits,_ZN14ThreadsTestCPP7WorkerCD5Ev,com
 475              		.align	2
 476              		.weak	_ZN14ThreadsTestCPP7WorkerCD2Ev
 478              	_ZN14ThreadsTestCPP7WorkerCD2Ev:
 479              	.LFB176:
GAS LISTING /tmp/ccBYUnRY.s 			page 12


  30:src/Code/../../h/Testing/Testing_OS1/Threads_CPP_API_Test.hpp ****         void workerBodyB(void* arg);
  31:src/Code/../../h/Testing/Testing_OS1/Threads_CPP_API_Test.hpp ****     public:
  32:src/Code/../../h/Testing/Testing_OS1/Threads_CPP_API_Test.hpp ****         WorkerB():Thread() {}
  33:src/Code/../../h/Testing/Testing_OS1/Threads_CPP_API_Test.hpp **** 
  34:src/Code/../../h/Testing/Testing_OS1/Threads_CPP_API_Test.hpp ****         void run() override {
  35:src/Code/../../h/Testing/Testing_OS1/Threads_CPP_API_Test.hpp ****             workerBodyB(nullptr);
  36:src/Code/../../h/Testing/Testing_OS1/Threads_CPP_API_Test.hpp ****         }
  37:src/Code/../../h/Testing/Testing_OS1/Threads_CPP_API_Test.hpp ****     };
  38:src/Code/../../h/Testing/Testing_OS1/Threads_CPP_API_Test.hpp **** 
  39:src/Code/../../h/Testing/Testing_OS1/Threads_CPP_API_Test.hpp ****     class WorkerC: public Thread {
 480              		.loc 3 39 11 is_stmt 1
 481              		.cfi_startproc
 482              	.LVL46:
 483 0000 130101FF 		addi	sp,sp,-16
 484              		.cfi_def_cfa_offset 16
 485 0004 23341100 		sd	ra,8(sp)
 486 0008 23308100 		sd	s0,0(sp)
 487              		.cfi_offset 1, -8
 488              		.cfi_offset 8, -16
 489 000c 13040101 		addi	s0,sp,16
 490              		.cfi_def_cfa 8, 0
 491              	.LBB140:
 492              		.loc 3 39 11 is_stmt 0
 493 0010 97070000 		lla	a5,_ZTVN14ThreadsTestCPP7WorkerCE+16
 493      93870700 
 494 0018 2330F500 		sd	a5,0(a0)
 495 001c 97000000 		call	_ZN6ThreadD2Ev@plt
 495      E7800000 
 496              	.LVL47:
 497              	.LBE140:
 498 0024 83308100 		ld	ra,8(sp)
 499              		.cfi_restore 1
 500 0028 03340100 		ld	s0,0(sp)
 501              		.cfi_restore 8
 502              		.cfi_def_cfa 2, 16
 503 002c 13010101 		addi	sp,sp,16
 504              		.cfi_def_cfa_offset 0
 505 0030 67800000 		jr	ra
 506              		.cfi_endproc
 507              	.LFE176:
 509              		.weak	_ZN14ThreadsTestCPP7WorkerCD1Ev
 510              		.set	_ZN14ThreadsTestCPP7WorkerCD1Ev,_ZN14ThreadsTestCPP7WorkerCD2Ev
 511              		.section	.text._ZN14ThreadsTestCPP7WorkerCD0Ev,"axG",@progbits,_ZN14ThreadsTestCPP7WorkerCD5Ev,com
 512              		.align	2
 513              		.weak	_ZN14ThreadsTestCPP7WorkerCD0Ev
 515              	_ZN14ThreadsTestCPP7WorkerCD0Ev:
 516              	.LFB178:
 517              		.loc 3 39 11 is_stmt 1
 518              		.cfi_startproc
 519              	.LVL48:
 520 0000 130101FE 		addi	sp,sp,-32
 521              		.cfi_def_cfa_offset 32
 522 0004 233C1100 		sd	ra,24(sp)
 523 0008 23388100 		sd	s0,16(sp)
 524 000c 23349100 		sd	s1,8(sp)
 525              		.cfi_offset 1, -8
 526              		.cfi_offset 8, -16
GAS LISTING /tmp/ccBYUnRY.s 			page 13


 527              		.cfi_offset 9, -24
 528 0010 13040102 		addi	s0,sp,32
 529              		.cfi_def_cfa 8, 0
 530 0014 93040500 		mv	s1,a0
 531              	.LVL49:
 532              	.LBB141:
 533              	.LBB142:
 534              		.loc 3 39 11 is_stmt 0
 535 0018 97070000 		lla	a5,_ZTVN14ThreadsTestCPP7WorkerCE+16
 535      93870700 
 536 0020 2330F500 		sd	a5,0(a0)
 537 0024 97000000 		call	_ZN6ThreadD2Ev@plt
 537      E7800000 
 538              	.LVL50:
 539              	.LBE142:
 540              	.LBE141:
 541 002c 13850400 		mv	a0,s1
 542 0030 97000000 		call	_ZdlPv@plt
 542      E7800000 
 543              	.LVL51:
 544 0038 83308101 		ld	ra,24(sp)
 545              		.cfi_restore 1
 546 003c 03340101 		ld	s0,16(sp)
 547              		.cfi_restore 8
 548              		.cfi_def_cfa 2, 32
 549 0040 83348100 		ld	s1,8(sp)
 550              		.cfi_restore 9
 551              	.LVL52:
 552 0044 13010102 		addi	sp,sp,32
 553              		.cfi_def_cfa_offset 0
 554 0048 67800000 		jr	ra
 555              		.cfi_endproc
 556              	.LFE178:
 558              		.section	.text._ZN14ThreadsTestCPP7WorkerDD2Ev,"axG",@progbits,_ZN14ThreadsTestCPP7WorkerDD5Ev,com
 559              		.align	2
 560              		.weak	_ZN14ThreadsTestCPP7WorkerDD2Ev
 562              	_ZN14ThreadsTestCPP7WorkerDD2Ev:
 563              	.LFB172:
  40:src/Code/../../h/Testing/Testing_OS1/Threads_CPP_API_Test.hpp ****         void workerBodyC(void* arg);
  41:src/Code/../../h/Testing/Testing_OS1/Threads_CPP_API_Test.hpp ****     public:
  42:src/Code/../../h/Testing/Testing_OS1/Threads_CPP_API_Test.hpp ****         WorkerC():Thread() {}
  43:src/Code/../../h/Testing/Testing_OS1/Threads_CPP_API_Test.hpp **** 
  44:src/Code/../../h/Testing/Testing_OS1/Threads_CPP_API_Test.hpp ****         void run() override {
  45:src/Code/../../h/Testing/Testing_OS1/Threads_CPP_API_Test.hpp ****             workerBodyC(nullptr);
  46:src/Code/../../h/Testing/Testing_OS1/Threads_CPP_API_Test.hpp ****         }
  47:src/Code/../../h/Testing/Testing_OS1/Threads_CPP_API_Test.hpp ****     };
  48:src/Code/../../h/Testing/Testing_OS1/Threads_CPP_API_Test.hpp **** 
  49:src/Code/../../h/Testing/Testing_OS1/Threads_CPP_API_Test.hpp ****     class WorkerD: public Thread {
 564              		.loc 3 49 11 is_stmt 1
 565              		.cfi_startproc
 566              	.LVL53:
 567 0000 130101FF 		addi	sp,sp,-16
 568              		.cfi_def_cfa_offset 16
 569 0004 23341100 		sd	ra,8(sp)
 570 0008 23308100 		sd	s0,0(sp)
 571              		.cfi_offset 1, -8
 572              		.cfi_offset 8, -16
GAS LISTING /tmp/ccBYUnRY.s 			page 14


 573 000c 13040101 		addi	s0,sp,16
 574              		.cfi_def_cfa 8, 0
 575              	.LBB143:
 576              		.loc 3 49 11 is_stmt 0
 577 0010 97070000 		lla	a5,_ZTVN14ThreadsTestCPP7WorkerDE+16
 577      93870700 
 578 0018 2330F500 		sd	a5,0(a0)
 579 001c 97000000 		call	_ZN6ThreadD2Ev@plt
 579      E7800000 
 580              	.LVL54:
 581              	.LBE143:
 582 0024 83308100 		ld	ra,8(sp)
 583              		.cfi_restore 1
 584 0028 03340100 		ld	s0,0(sp)
 585              		.cfi_restore 8
 586              		.cfi_def_cfa 2, 16
 587 002c 13010101 		addi	sp,sp,16
 588              		.cfi_def_cfa_offset 0
 589 0030 67800000 		jr	ra
 590              		.cfi_endproc
 591              	.LFE172:
 593              		.weak	_ZN14ThreadsTestCPP7WorkerDD1Ev
 594              		.set	_ZN14ThreadsTestCPP7WorkerDD1Ev,_ZN14ThreadsTestCPP7WorkerDD2Ev
 595              		.section	.text._ZN14ThreadsTestCPP7WorkerDD0Ev,"axG",@progbits,_ZN14ThreadsTestCPP7WorkerDD5Ev,com
 596              		.align	2
 597              		.weak	_ZN14ThreadsTestCPP7WorkerDD0Ev
 599              	_ZN14ThreadsTestCPP7WorkerDD0Ev:
 600              	.LFB174:
 601              		.loc 3 49 11 is_stmt 1
 602              		.cfi_startproc
 603              	.LVL55:
 604 0000 130101FE 		addi	sp,sp,-32
 605              		.cfi_def_cfa_offset 32
 606 0004 233C1100 		sd	ra,24(sp)
 607 0008 23388100 		sd	s0,16(sp)
 608 000c 23349100 		sd	s1,8(sp)
 609              		.cfi_offset 1, -8
 610              		.cfi_offset 8, -16
 611              		.cfi_offset 9, -24
 612 0010 13040102 		addi	s0,sp,32
 613              		.cfi_def_cfa 8, 0
 614 0014 93040500 		mv	s1,a0
 615              	.LVL56:
 616              	.LBB144:
 617              	.LBB145:
 618              		.loc 3 49 11 is_stmt 0
 619 0018 97070000 		lla	a5,_ZTVN14ThreadsTestCPP7WorkerDE+16
 619      93870700 
 620 0020 2330F500 		sd	a5,0(a0)
 621 0024 97000000 		call	_ZN6ThreadD2Ev@plt
 621      E7800000 
 622              	.LVL57:
 623              	.LBE145:
 624              	.LBE144:
 625 002c 13850400 		mv	a0,s1
 626 0030 97000000 		call	_ZdlPv@plt
 626      E7800000 
GAS LISTING /tmp/ccBYUnRY.s 			page 15


 627              	.LVL58:
 628 0038 83308101 		ld	ra,24(sp)
 629              		.cfi_restore 1
 630 003c 03340101 		ld	s0,16(sp)
 631              		.cfi_restore 8
 632              		.cfi_def_cfa 2, 32
 633 0040 83348100 		ld	s1,8(sp)
 634              		.cfi_restore 9
 635              	.LVL59:
 636 0044 13010102 		addi	sp,sp,32
 637              		.cfi_def_cfa_offset 0
 638 0048 67800000 		jr	ra
 639              		.cfi_endproc
 640              	.LFE174:
 642              		.section	.text._ZN23ConsumerProducerSyncCPP8ConsumerD2Ev,"axG",@progbits,_ZN23ConsumerProducerSync
 643              		.align	2
 644              		.weak	_ZN23ConsumerProducerSyncCPP8ConsumerD2Ev
 646              	_ZN23ConsumerProducerSyncCPP8ConsumerD2Ev:
 647              	.LFB160:
 648              		.file 4 "src/Code/../../h/Testing/Testing_OS1/Consumer_Producer_CPP_Sync_API_Test.hpp"
   1:src/Code/../../h/Testing/Testing_OS1/Consumer_Producer_CPP_Sync_API_Test.hpp **** #ifndef CONSUMER_PRODUCER_CPP_SYNC_API_TEST_HPP
   2:src/Code/../../h/Testing/Testing_OS1/Consumer_Producer_CPP_Sync_API_Test.hpp **** #define CONSUMER_PRODUCER_CPP_SYNC_API_TEST_HPP
   3:src/Code/../../h/Testing/Testing_OS1/Consumer_Producer_CPP_Sync_API_Test.hpp **** 
   4:src/Code/../../h/Testing/Testing_OS1/Consumer_Producer_CPP_Sync_API_Test.hpp **** #include "../../Code/SystemCalls/syscall_cpp.hpp"
   5:src/Code/../../h/Testing/Testing_OS1/Consumer_Producer_CPP_Sync_API_Test.hpp **** #include "Buffer_CPP_API.hpp"
   6:src/Code/../../h/Testing/Testing_OS1/Consumer_Producer_CPP_Sync_API_Test.hpp **** 
   7:src/Code/../../h/Testing/Testing_OS1/Consumer_Producer_CPP_Sync_API_Test.hpp **** namespace ConsumerProducerSyncCPP {
   8:src/Code/../../h/Testing/Testing_OS1/Consumer_Producer_CPP_Sync_API_Test.hpp ****     Semaphore* waitForAll;
   9:src/Code/../../h/Testing/Testing_OS1/Consumer_Producer_CPP_Sync_API_Test.hpp **** 
  10:src/Code/../../h/Testing/Testing_OS1/Consumer_Producer_CPP_Sync_API_Test.hpp ****     struct thread_data {
  11:src/Code/../../h/Testing/Testing_OS1/Consumer_Producer_CPP_Sync_API_Test.hpp ****         int id;
  12:src/Code/../../h/Testing/Testing_OS1/Consumer_Producer_CPP_Sync_API_Test.hpp ****         BufferTestCPP::BufferCPP *buffer;
  13:src/Code/../../h/Testing/Testing_OS1/Consumer_Producer_CPP_Sync_API_Test.hpp ****         Semaphore* wait;
  14:src/Code/../../h/Testing/Testing_OS1/Consumer_Producer_CPP_Sync_API_Test.hpp ****     };
  15:src/Code/../../h/Testing/Testing_OS1/Consumer_Producer_CPP_Sync_API_Test.hpp **** 
  16:src/Code/../../h/Testing/Testing_OS1/Consumer_Producer_CPP_Sync_API_Test.hpp ****     volatile int threadEnd = 0;
  17:src/Code/../../h/Testing/Testing_OS1/Consumer_Producer_CPP_Sync_API_Test.hpp **** 
  18:src/Code/../../h/Testing/Testing_OS1/Consumer_Producer_CPP_Sync_API_Test.hpp ****     class ProducerKeyboard:public Thread {
  19:src/Code/../../h/Testing/Testing_OS1/Consumer_Producer_CPP_Sync_API_Test.hpp ****         thread_data* td;
  20:src/Code/../../h/Testing/Testing_OS1/Consumer_Producer_CPP_Sync_API_Test.hpp ****         void producerKeyboard(void *arg);
  21:src/Code/../../h/Testing/Testing_OS1/Consumer_Producer_CPP_Sync_API_Test.hpp ****     public:
  22:src/Code/../../h/Testing/Testing_OS1/Consumer_Producer_CPP_Sync_API_Test.hpp ****         ProducerKeyboard(thread_data* _td):Thread(), td(_td) {}
  23:src/Code/../../h/Testing/Testing_OS1/Consumer_Producer_CPP_Sync_API_Test.hpp **** 
  24:src/Code/../../h/Testing/Testing_OS1/Consumer_Producer_CPP_Sync_API_Test.hpp ****         void run() override {
  25:src/Code/../../h/Testing/Testing_OS1/Consumer_Producer_CPP_Sync_API_Test.hpp ****             producerKeyboard(td);
  26:src/Code/../../h/Testing/Testing_OS1/Consumer_Producer_CPP_Sync_API_Test.hpp ****         }
  27:src/Code/../../h/Testing/Testing_OS1/Consumer_Producer_CPP_Sync_API_Test.hpp ****     };
  28:src/Code/../../h/Testing/Testing_OS1/Consumer_Producer_CPP_Sync_API_Test.hpp **** 
  29:src/Code/../../h/Testing/Testing_OS1/Consumer_Producer_CPP_Sync_API_Test.hpp ****     void ProducerKeyboard::producerKeyboard(void *arg) {
  30:src/Code/../../h/Testing/Testing_OS1/Consumer_Producer_CPP_Sync_API_Test.hpp ****         struct thread_data *data = (struct thread_data *) arg;
  31:src/Code/../../h/Testing/Testing_OS1/Consumer_Producer_CPP_Sync_API_Test.hpp **** 
  32:src/Code/../../h/Testing/Testing_OS1/Consumer_Producer_CPP_Sync_API_Test.hpp ****         int key;
  33:src/Code/../../h/Testing/Testing_OS1/Consumer_Producer_CPP_Sync_API_Test.hpp ****         int i = 0;
  34:src/Code/../../h/Testing/Testing_OS1/Consumer_Producer_CPP_Sync_API_Test.hpp ****         while ((key = getc()) != 0x1b) {
  35:src/Code/../../h/Testing/Testing_OS1/Consumer_Producer_CPP_Sync_API_Test.hpp ****             data->buffer->put(key);
  36:src/Code/../../h/Testing/Testing_OS1/Consumer_Producer_CPP_Sync_API_Test.hpp ****             i++;
  37:src/Code/../../h/Testing/Testing_OS1/Consumer_Producer_CPP_Sync_API_Test.hpp **** 
GAS LISTING /tmp/ccBYUnRY.s 			page 16


  38:src/Code/../../h/Testing/Testing_OS1/Consumer_Producer_CPP_Sync_API_Test.hpp ****             if (i % (10 * data->id) == 0) {
  39:src/Code/../../h/Testing/Testing_OS1/Consumer_Producer_CPP_Sync_API_Test.hpp ****                 Thread::dispatch();
  40:src/Code/../../h/Testing/Testing_OS1/Consumer_Producer_CPP_Sync_API_Test.hpp ****             }
  41:src/Code/../../h/Testing/Testing_OS1/Consumer_Producer_CPP_Sync_API_Test.hpp ****         }
  42:src/Code/../../h/Testing/Testing_OS1/Consumer_Producer_CPP_Sync_API_Test.hpp **** 
  43:src/Code/../../h/Testing/Testing_OS1/Consumer_Producer_CPP_Sync_API_Test.hpp ****         threadEnd = 1;
  44:src/Code/../../h/Testing/Testing_OS1/Consumer_Producer_CPP_Sync_API_Test.hpp ****         td->buffer->put('!');
  45:src/Code/../../h/Testing/Testing_OS1/Consumer_Producer_CPP_Sync_API_Test.hpp **** 
  46:src/Code/../../h/Testing/Testing_OS1/Consumer_Producer_CPP_Sync_API_Test.hpp ****         data->wait->signal();
  47:src/Code/../../h/Testing/Testing_OS1/Consumer_Producer_CPP_Sync_API_Test.hpp ****     }
  48:src/Code/../../h/Testing/Testing_OS1/Consumer_Producer_CPP_Sync_API_Test.hpp **** 
  49:src/Code/../../h/Testing/Testing_OS1/Consumer_Producer_CPP_Sync_API_Test.hpp ****     class Producer:public Thread {
  50:src/Code/../../h/Testing/Testing_OS1/Consumer_Producer_CPP_Sync_API_Test.hpp ****         thread_data* td;
  51:src/Code/../../h/Testing/Testing_OS1/Consumer_Producer_CPP_Sync_API_Test.hpp ****         void producer(void *arg);
  52:src/Code/../../h/Testing/Testing_OS1/Consumer_Producer_CPP_Sync_API_Test.hpp ****     public:
  53:src/Code/../../h/Testing/Testing_OS1/Consumer_Producer_CPP_Sync_API_Test.hpp ****         Producer(thread_data* _td):Thread(), td(_td) {}
  54:src/Code/../../h/Testing/Testing_OS1/Consumer_Producer_CPP_Sync_API_Test.hpp **** 
  55:src/Code/../../h/Testing/Testing_OS1/Consumer_Producer_CPP_Sync_API_Test.hpp ****         void run() override {
  56:src/Code/../../h/Testing/Testing_OS1/Consumer_Producer_CPP_Sync_API_Test.hpp ****             producer(td);
  57:src/Code/../../h/Testing/Testing_OS1/Consumer_Producer_CPP_Sync_API_Test.hpp ****         }
  58:src/Code/../../h/Testing/Testing_OS1/Consumer_Producer_CPP_Sync_API_Test.hpp ****     };
  59:src/Code/../../h/Testing/Testing_OS1/Consumer_Producer_CPP_Sync_API_Test.hpp **** 
  60:src/Code/../../h/Testing/Testing_OS1/Consumer_Producer_CPP_Sync_API_Test.hpp ****     void Producer::producer(void *arg) {
  61:src/Code/../../h/Testing/Testing_OS1/Consumer_Producer_CPP_Sync_API_Test.hpp ****         struct thread_data *data = (struct thread_data *) arg;
  62:src/Code/../../h/Testing/Testing_OS1/Consumer_Producer_CPP_Sync_API_Test.hpp **** 
  63:src/Code/../../h/Testing/Testing_OS1/Consumer_Producer_CPP_Sync_API_Test.hpp ****         int i = 0;
  64:src/Code/../../h/Testing/Testing_OS1/Consumer_Producer_CPP_Sync_API_Test.hpp ****         while (!threadEnd) {
  65:src/Code/../../h/Testing/Testing_OS1/Consumer_Producer_CPP_Sync_API_Test.hpp ****             data->buffer->put(data->id + '0');
  66:src/Code/../../h/Testing/Testing_OS1/Consumer_Producer_CPP_Sync_API_Test.hpp ****             i++;
  67:src/Code/../../h/Testing/Testing_OS1/Consumer_Producer_CPP_Sync_API_Test.hpp **** 
  68:src/Code/../../h/Testing/Testing_OS1/Consumer_Producer_CPP_Sync_API_Test.hpp ****             if (i % (10 * data->id) == 0) {
  69:src/Code/../../h/Testing/Testing_OS1/Consumer_Producer_CPP_Sync_API_Test.hpp ****                 Thread::dispatch();
  70:src/Code/../../h/Testing/Testing_OS1/Consumer_Producer_CPP_Sync_API_Test.hpp ****             }
  71:src/Code/../../h/Testing/Testing_OS1/Consumer_Producer_CPP_Sync_API_Test.hpp ****         }
  72:src/Code/../../h/Testing/Testing_OS1/Consumer_Producer_CPP_Sync_API_Test.hpp **** 
  73:src/Code/../../h/Testing/Testing_OS1/Consumer_Producer_CPP_Sync_API_Test.hpp ****         data->wait->signal();
  74:src/Code/../../h/Testing/Testing_OS1/Consumer_Producer_CPP_Sync_API_Test.hpp ****     }
  75:src/Code/../../h/Testing/Testing_OS1/Consumer_Producer_CPP_Sync_API_Test.hpp **** 
  76:src/Code/../../h/Testing/Testing_OS1/Consumer_Producer_CPP_Sync_API_Test.hpp ****     class Consumer:public Thread {
 649              		.loc 4 76 11 is_stmt 1
 650              		.cfi_startproc
 651              	.LVL60:
 652 0000 130101FF 		addi	sp,sp,-16
 653              		.cfi_def_cfa_offset 16
 654 0004 23341100 		sd	ra,8(sp)
 655 0008 23308100 		sd	s0,0(sp)
 656              		.cfi_offset 1, -8
 657              		.cfi_offset 8, -16
 658 000c 13040101 		addi	s0,sp,16
 659              		.cfi_def_cfa 8, 0
 660              	.LBB146:
 661              		.loc 4 76 11 is_stmt 0
 662 0010 97070000 		lla	a5,_ZTVN23ConsumerProducerSyncCPP8ConsumerE+16
 662      93870700 
 663 0018 2330F500 		sd	a5,0(a0)
 664 001c 97000000 		call	_ZN6ThreadD2Ev@plt
 664      E7800000 
GAS LISTING /tmp/ccBYUnRY.s 			page 17


 665              	.LVL61:
 666              	.LBE146:
 667 0024 83308100 		ld	ra,8(sp)
 668              		.cfi_restore 1
 669 0028 03340100 		ld	s0,0(sp)
 670              		.cfi_restore 8
 671              		.cfi_def_cfa 2, 16
 672 002c 13010101 		addi	sp,sp,16
 673              		.cfi_def_cfa_offset 0
 674 0030 67800000 		jr	ra
 675              		.cfi_endproc
 676              	.LFE160:
 678              		.weak	_ZN23ConsumerProducerSyncCPP8ConsumerD1Ev
 679              		.set	_ZN23ConsumerProducerSyncCPP8ConsumerD1Ev,_ZN23ConsumerProducerSyncCPP8ConsumerD2Ev
 680              		.section	.text._ZN23ConsumerProducerSyncCPP8ConsumerD0Ev,"axG",@progbits,_ZN23ConsumerProducerSync
 681              		.align	2
 682              		.weak	_ZN23ConsumerProducerSyncCPP8ConsumerD0Ev
 684              	_ZN23ConsumerProducerSyncCPP8ConsumerD0Ev:
 685              	.LFB162:
 686              		.loc 4 76 11 is_stmt 1
 687              		.cfi_startproc
 688              	.LVL62:
 689 0000 130101FE 		addi	sp,sp,-32
 690              		.cfi_def_cfa_offset 32
 691 0004 233C1100 		sd	ra,24(sp)
 692 0008 23388100 		sd	s0,16(sp)
 693 000c 23349100 		sd	s1,8(sp)
 694              		.cfi_offset 1, -8
 695              		.cfi_offset 8, -16
 696              		.cfi_offset 9, -24
 697 0010 13040102 		addi	s0,sp,32
 698              		.cfi_def_cfa 8, 0
 699 0014 93040500 		mv	s1,a0
 700              	.LVL63:
 701              	.LBB147:
 702              	.LBB148:
 703              		.loc 4 76 11 is_stmt 0
 704 0018 97070000 		lla	a5,_ZTVN23ConsumerProducerSyncCPP8ConsumerE+16
 704      93870700 
 705 0020 2330F500 		sd	a5,0(a0)
 706 0024 97000000 		call	_ZN6ThreadD2Ev@plt
 706      E7800000 
 707              	.LVL64:
 708              	.LBE148:
 709              	.LBE147:
 710 002c 13850400 		mv	a0,s1
 711 0030 97000000 		call	_ZdlPv@plt
 711      E7800000 
 712              	.LVL65:
 713 0038 83308101 		ld	ra,24(sp)
 714              		.cfi_restore 1
 715 003c 03340101 		ld	s0,16(sp)
 716              		.cfi_restore 8
 717              		.cfi_def_cfa 2, 32
 718 0040 83348100 		ld	s1,8(sp)
 719              		.cfi_restore 9
 720              	.LVL66:
GAS LISTING /tmp/ccBYUnRY.s 			page 18


 721 0044 13010102 		addi	sp,sp,32
 722              		.cfi_def_cfa_offset 0
 723 0048 67800000 		jr	ra
 724              		.cfi_endproc
 725              	.LFE162:
 727              		.section	.text._ZN23ConsumerProducerSyncCPP8ProducerD2Ev,"axG",@progbits,_ZN23ConsumerProducerSync
 728              		.align	2
 729              		.weak	_ZN23ConsumerProducerSyncCPP8ProducerD2Ev
 731              	_ZN23ConsumerProducerSyncCPP8ProducerD2Ev:
 732              	.LFB164:
  49:src/Code/../../h/Testing/Testing_OS1/Consumer_Producer_CPP_Sync_API_Test.hpp ****         thread_data* td;
 733              		.loc 4 49 11 is_stmt 1
 734              		.cfi_startproc
 735              	.LVL67:
 736 0000 130101FF 		addi	sp,sp,-16
 737              		.cfi_def_cfa_offset 16
 738 0004 23341100 		sd	ra,8(sp)
 739 0008 23308100 		sd	s0,0(sp)
 740              		.cfi_offset 1, -8
 741              		.cfi_offset 8, -16
 742 000c 13040101 		addi	s0,sp,16
 743              		.cfi_def_cfa 8, 0
 744              	.LBB149:
  49:src/Code/../../h/Testing/Testing_OS1/Consumer_Producer_CPP_Sync_API_Test.hpp ****         thread_data* td;
 745              		.loc 4 49 11 is_stmt 0
 746 0010 97070000 		lla	a5,_ZTVN23ConsumerProducerSyncCPP8ProducerE+16
 746      93870700 
 747 0018 2330F500 		sd	a5,0(a0)
 748 001c 97000000 		call	_ZN6ThreadD2Ev@plt
 748      E7800000 
 749              	.LVL68:
 750              	.LBE149:
 751 0024 83308100 		ld	ra,8(sp)
 752              		.cfi_restore 1
 753 0028 03340100 		ld	s0,0(sp)
 754              		.cfi_restore 8
 755              		.cfi_def_cfa 2, 16
 756 002c 13010101 		addi	sp,sp,16
 757              		.cfi_def_cfa_offset 0
 758 0030 67800000 		jr	ra
 759              		.cfi_endproc
 760              	.LFE164:
 762              		.weak	_ZN23ConsumerProducerSyncCPP8ProducerD1Ev
 763              		.set	_ZN23ConsumerProducerSyncCPP8ProducerD1Ev,_ZN23ConsumerProducerSyncCPP8ProducerD2Ev
 764              		.section	.text._ZN23ConsumerProducerSyncCPP8ProducerD0Ev,"axG",@progbits,_ZN23ConsumerProducerSync
 765              		.align	2
 766              		.weak	_ZN23ConsumerProducerSyncCPP8ProducerD0Ev
 768              	_ZN23ConsumerProducerSyncCPP8ProducerD0Ev:
 769              	.LFB166:
  49:src/Code/../../h/Testing/Testing_OS1/Consumer_Producer_CPP_Sync_API_Test.hpp ****         thread_data* td;
 770              		.loc 4 49 11 is_stmt 1
 771              		.cfi_startproc
 772              	.LVL69:
 773 0000 130101FE 		addi	sp,sp,-32
 774              		.cfi_def_cfa_offset 32
 775 0004 233C1100 		sd	ra,24(sp)
 776 0008 23388100 		sd	s0,16(sp)
GAS LISTING /tmp/ccBYUnRY.s 			page 19


 777 000c 23349100 		sd	s1,8(sp)
 778              		.cfi_offset 1, -8
 779              		.cfi_offset 8, -16
 780              		.cfi_offset 9, -24
 781 0010 13040102 		addi	s0,sp,32
 782              		.cfi_def_cfa 8, 0
 783 0014 93040500 		mv	s1,a0
 784              	.LVL70:
 785              	.LBB150:
 786              	.LBB151:
  49:src/Code/../../h/Testing/Testing_OS1/Consumer_Producer_CPP_Sync_API_Test.hpp ****         thread_data* td;
 787              		.loc 4 49 11 is_stmt 0
 788 0018 97070000 		lla	a5,_ZTVN23ConsumerProducerSyncCPP8ProducerE+16
 788      93870700 
 789 0020 2330F500 		sd	a5,0(a0)
 790 0024 97000000 		call	_ZN6ThreadD2Ev@plt
 790      E7800000 
 791              	.LVL71:
 792              	.LBE151:
 793              	.LBE150:
 794 002c 13850400 		mv	a0,s1
 795 0030 97000000 		call	_ZdlPv@plt
 795      E7800000 
 796              	.LVL72:
 797 0038 83308101 		ld	ra,24(sp)
 798              		.cfi_restore 1
 799 003c 03340101 		ld	s0,16(sp)
 800              		.cfi_restore 8
 801              		.cfi_def_cfa 2, 32
 802 0040 83348100 		ld	s1,8(sp)
 803              		.cfi_restore 9
 804              	.LVL73:
 805 0044 13010102 		addi	sp,sp,32
 806              		.cfi_def_cfa_offset 0
 807 0048 67800000 		jr	ra
 808              		.cfi_endproc
 809              	.LFE166:
 811              		.section	.text._ZN23ConsumerProducerSyncCPP16ProducerKeyboardD2Ev,"axG",@progbits,_ZN23ConsumerPro
 812              		.align	2
 813              		.weak	_ZN23ConsumerProducerSyncCPP16ProducerKeyboardD2Ev
 815              	_ZN23ConsumerProducerSyncCPP16ProducerKeyboardD2Ev:
 816              	.LFB168:
  18:src/Code/../../h/Testing/Testing_OS1/Consumer_Producer_CPP_Sync_API_Test.hpp ****         thread_data* td;
 817              		.loc 4 18 11 is_stmt 1
 818              		.cfi_startproc
 819              	.LVL74:
 820 0000 130101FF 		addi	sp,sp,-16
 821              		.cfi_def_cfa_offset 16
 822 0004 23341100 		sd	ra,8(sp)
 823 0008 23308100 		sd	s0,0(sp)
 824              		.cfi_offset 1, -8
 825              		.cfi_offset 8, -16
 826 000c 13040101 		addi	s0,sp,16
 827              		.cfi_def_cfa 8, 0
 828              	.LBB152:
  18:src/Code/../../h/Testing/Testing_OS1/Consumer_Producer_CPP_Sync_API_Test.hpp ****         thread_data* td;
 829              		.loc 4 18 11 is_stmt 0
GAS LISTING /tmp/ccBYUnRY.s 			page 20


 830 0010 97070000 		lla	a5,_ZTVN23ConsumerProducerSyncCPP16ProducerKeyboardE+16
 830      93870700 
 831 0018 2330F500 		sd	a5,0(a0)
 832 001c 97000000 		call	_ZN6ThreadD2Ev@plt
 832      E7800000 
 833              	.LVL75:
 834              	.LBE152:
 835 0024 83308100 		ld	ra,8(sp)
 836              		.cfi_restore 1
 837 0028 03340100 		ld	s0,0(sp)
 838              		.cfi_restore 8
 839              		.cfi_def_cfa 2, 16
 840 002c 13010101 		addi	sp,sp,16
 841              		.cfi_def_cfa_offset 0
 842 0030 67800000 		jr	ra
 843              		.cfi_endproc
 844              	.LFE168:
 846              		.weak	_ZN23ConsumerProducerSyncCPP16ProducerKeyboardD1Ev
 847              		.set	_ZN23ConsumerProducerSyncCPP16ProducerKeyboardD1Ev,_ZN23ConsumerProducerSyncCPP16ProducerKeyb
 848              		.section	.text._ZN23ConsumerProducerSyncCPP16ProducerKeyboardD0Ev,"axG",@progbits,_ZN23ConsumerPro
 849              		.align	2
 850              		.weak	_ZN23ConsumerProducerSyncCPP16ProducerKeyboardD0Ev
 852              	_ZN23ConsumerProducerSyncCPP16ProducerKeyboardD0Ev:
 853              	.LFB170:
  18:src/Code/../../h/Testing/Testing_OS1/Consumer_Producer_CPP_Sync_API_Test.hpp ****         thread_data* td;
 854              		.loc 4 18 11 is_stmt 1
 855              		.cfi_startproc
 856              	.LVL76:
 857 0000 130101FE 		addi	sp,sp,-32
 858              		.cfi_def_cfa_offset 32
 859 0004 233C1100 		sd	ra,24(sp)
 860 0008 23388100 		sd	s0,16(sp)
 861 000c 23349100 		sd	s1,8(sp)
 862              		.cfi_offset 1, -8
 863              		.cfi_offset 8, -16
 864              		.cfi_offset 9, -24
 865 0010 13040102 		addi	s0,sp,32
 866              		.cfi_def_cfa 8, 0
 867 0014 93040500 		mv	s1,a0
 868              	.LVL77:
 869              	.LBB153:
 870              	.LBB154:
  18:src/Code/../../h/Testing/Testing_OS1/Consumer_Producer_CPP_Sync_API_Test.hpp ****         thread_data* td;
 871              		.loc 4 18 11 is_stmt 0
 872 0018 97070000 		lla	a5,_ZTVN23ConsumerProducerSyncCPP16ProducerKeyboardE+16
 872      93870700 
 873 0020 2330F500 		sd	a5,0(a0)
 874 0024 97000000 		call	_ZN6ThreadD2Ev@plt
 874      E7800000 
 875              	.LVL78:
 876              	.LBE154:
 877              	.LBE153:
 878 002c 13850400 		mv	a0,s1
 879 0030 97000000 		call	_ZdlPv@plt
 879      E7800000 
 880              	.LVL79:
 881 0038 83308101 		ld	ra,24(sp)
GAS LISTING /tmp/ccBYUnRY.s 			page 21


 882              		.cfi_restore 1
 883 003c 03340101 		ld	s0,16(sp)
 884              		.cfi_restore 8
 885              		.cfi_def_cfa 2, 32
 886 0040 83348100 		ld	s1,8(sp)
 887              		.cfi_restore 9
 888              	.LVL80:
 889 0044 13010102 		addi	sp,sp,32
 890              		.cfi_def_cfa_offset 0
 891 0048 67800000 		jr	ra
 892              		.cfi_endproc
 893              	.LFE170:
 895              		.section	.text._ZN24ConsumerProducerAsyncCPP8ConsumerD2Ev,"axG",@progbits,_ZN24ConsumerProducerAsy
 896              		.align	2
 897              		.weak	_ZN24ConsumerProducerAsyncCPP8ConsumerD2Ev
 899              	_ZN24ConsumerProducerAsyncCPP8ConsumerD2Ev:
 900              	.LFB148:
 901              		.file 5 "src/Code/../../h/Testing/Testing_OS1/Consumer_Producer_CPP_API_Test.hpp"
   1:src/Code/../../h/Testing/Testing_OS1/Consumer_Producer_CPP_API_Test.hpp **** #ifndef CONSUMER_PRODUCER_CPP_API_TEST_HPP
   2:src/Code/../../h/Testing/Testing_OS1/Consumer_Producer_CPP_API_Test.hpp **** #define CONSUMER_PRODUCER_CPP_API_TEST_HPP
   3:src/Code/../../h/Testing/Testing_OS1/Consumer_Producer_CPP_API_Test.hpp **** 
   4:src/Code/../../h/Testing/Testing_OS1/Consumer_Producer_CPP_API_Test.hpp **** #include "../../Code/SystemCalls/syscall_cpp.hpp"
   5:src/Code/../../h/Testing/Testing_OS1/Consumer_Producer_CPP_API_Test.hpp **** #include "Buffer_CPP_API.hpp"
   6:src/Code/../../h/Testing/Testing_OS1/Consumer_Producer_CPP_API_Test.hpp **** #include "Printing.hpp"
   7:src/Code/../../h/Testing/Testing_OS1/Consumer_Producer_CPP_API_Test.hpp **** 
   8:src/Code/../../h/Testing/Testing_OS1/Consumer_Producer_CPP_API_Test.hpp **** namespace ConsumerProducerAsyncCPP {
   9:src/Code/../../h/Testing/Testing_OS1/Consumer_Producer_CPP_API_Test.hpp **** 
  10:src/Code/../../h/Testing/Testing_OS1/Consumer_Producer_CPP_API_Test.hpp ****     Semaphore *waitForAll;
  11:src/Code/../../h/Testing/Testing_OS1/Consumer_Producer_CPP_API_Test.hpp **** 
  12:src/Code/../../h/Testing/Testing_OS1/Consumer_Producer_CPP_API_Test.hpp ****     struct thread_data {
  13:src/Code/../../h/Testing/Testing_OS1/Consumer_Producer_CPP_API_Test.hpp ****         int id;
  14:src/Code/../../h/Testing/Testing_OS1/Consumer_Producer_CPP_API_Test.hpp ****         BufferTestCPP::BufferCPP *buffer;
  15:src/Code/../../h/Testing/Testing_OS1/Consumer_Producer_CPP_API_Test.hpp ****         Semaphore *sem;
  16:src/Code/../../h/Testing/Testing_OS1/Consumer_Producer_CPP_API_Test.hpp ****     };
  17:src/Code/../../h/Testing/Testing_OS1/Consumer_Producer_CPP_API_Test.hpp **** 
  18:src/Code/../../h/Testing/Testing_OS1/Consumer_Producer_CPP_API_Test.hpp ****     volatile int threadEnd = 0;
  19:src/Code/../../h/Testing/Testing_OS1/Consumer_Producer_CPP_API_Test.hpp **** 
  20:src/Code/../../h/Testing/Testing_OS1/Consumer_Producer_CPP_API_Test.hpp ****     class ProducerKeyborad : public Thread {
  21:src/Code/../../h/Testing/Testing_OS1/Consumer_Producer_CPP_API_Test.hpp ****         thread_data *td;
  22:src/Code/../../h/Testing/Testing_OS1/Consumer_Producer_CPP_API_Test.hpp ****     public:
  23:src/Code/../../h/Testing/Testing_OS1/Consumer_Producer_CPP_API_Test.hpp ****         ProducerKeyborad(thread_data *_td) : Thread(), td(_td) {}
  24:src/Code/../../h/Testing/Testing_OS1/Consumer_Producer_CPP_API_Test.hpp **** 
  25:src/Code/../../h/Testing/Testing_OS1/Consumer_Producer_CPP_API_Test.hpp ****         void run() override {
  26:src/Code/../../h/Testing/Testing_OS1/Consumer_Producer_CPP_API_Test.hpp ****             int key;
  27:src/Code/../../h/Testing/Testing_OS1/Consumer_Producer_CPP_API_Test.hpp ****             int i = 0;
  28:src/Code/../../h/Testing/Testing_OS1/Consumer_Producer_CPP_API_Test.hpp ****             while ((key = getc()) != 0x1b) {
  29:src/Code/../../h/Testing/Testing_OS1/Consumer_Producer_CPP_API_Test.hpp ****                 td->buffer->put(key);
  30:src/Code/../../h/Testing/Testing_OS1/Consumer_Producer_CPP_API_Test.hpp ****                 i++;
  31:src/Code/../../h/Testing/Testing_OS1/Consumer_Producer_CPP_API_Test.hpp ****             }
  32:src/Code/../../h/Testing/Testing_OS1/Consumer_Producer_CPP_API_Test.hpp **** 
  33:src/Code/../../h/Testing/Testing_OS1/Consumer_Producer_CPP_API_Test.hpp ****             threadEnd = 1;
  34:src/Code/../../h/Testing/Testing_OS1/Consumer_Producer_CPP_API_Test.hpp ****             td->buffer->put('!');
  35:src/Code/../../h/Testing/Testing_OS1/Consumer_Producer_CPP_API_Test.hpp **** 
  36:src/Code/../../h/Testing/Testing_OS1/Consumer_Producer_CPP_API_Test.hpp ****             td->sem->signal();
  37:src/Code/../../h/Testing/Testing_OS1/Consumer_Producer_CPP_API_Test.hpp ****         }
  38:src/Code/../../h/Testing/Testing_OS1/Consumer_Producer_CPP_API_Test.hpp ****     };
  39:src/Code/../../h/Testing/Testing_OS1/Consumer_Producer_CPP_API_Test.hpp **** 
GAS LISTING /tmp/ccBYUnRY.s 			page 22


  40:src/Code/../../h/Testing/Testing_OS1/Consumer_Producer_CPP_API_Test.hpp ****     class Producer : public Thread {
  41:src/Code/../../h/Testing/Testing_OS1/Consumer_Producer_CPP_API_Test.hpp ****         thread_data *td;
  42:src/Code/../../h/Testing/Testing_OS1/Consumer_Producer_CPP_API_Test.hpp ****     public:
  43:src/Code/../../h/Testing/Testing_OS1/Consumer_Producer_CPP_API_Test.hpp ****         Producer(thread_data *_td) : Thread(), td(_td) {}
  44:src/Code/../../h/Testing/Testing_OS1/Consumer_Producer_CPP_API_Test.hpp **** 
  45:src/Code/../../h/Testing/Testing_OS1/Consumer_Producer_CPP_API_Test.hpp ****         void run() override {
  46:src/Code/../../h/Testing/Testing_OS1/Consumer_Producer_CPP_API_Test.hpp ****             int i = 0;
  47:src/Code/../../h/Testing/Testing_OS1/Consumer_Producer_CPP_API_Test.hpp ****             while (!threadEnd) {
  48:src/Code/../../h/Testing/Testing_OS1/Consumer_Producer_CPP_API_Test.hpp ****                 td->buffer->put(td->id + '0');
  49:src/Code/../../h/Testing/Testing_OS1/Consumer_Producer_CPP_API_Test.hpp ****                 i++;
  50:src/Code/../../h/Testing/Testing_OS1/Consumer_Producer_CPP_API_Test.hpp ****                 Thread::sleep((i+td->id)%5);
  51:src/Code/../../h/Testing/Testing_OS1/Consumer_Producer_CPP_API_Test.hpp ****             }
  52:src/Code/../../h/Testing/Testing_OS1/Consumer_Producer_CPP_API_Test.hpp **** 
  53:src/Code/../../h/Testing/Testing_OS1/Consumer_Producer_CPP_API_Test.hpp ****             td->sem->signal();
  54:src/Code/../../h/Testing/Testing_OS1/Consumer_Producer_CPP_API_Test.hpp ****         }
  55:src/Code/../../h/Testing/Testing_OS1/Consumer_Producer_CPP_API_Test.hpp ****     };
  56:src/Code/../../h/Testing/Testing_OS1/Consumer_Producer_CPP_API_Test.hpp **** 
  57:src/Code/../../h/Testing/Testing_OS1/Consumer_Producer_CPP_API_Test.hpp ****     class Consumer : public Thread {
 902              		.loc 5 57 11 is_stmt 1
 903              		.cfi_startproc
 904              	.LVL81:
 905 0000 130101FF 		addi	sp,sp,-16
 906              		.cfi_def_cfa_offset 16
 907 0004 23341100 		sd	ra,8(sp)
 908 0008 23308100 		sd	s0,0(sp)
 909              		.cfi_offset 1, -8
 910              		.cfi_offset 8, -16
 911 000c 13040101 		addi	s0,sp,16
 912              		.cfi_def_cfa 8, 0
 913              	.LBB155:
 914              		.loc 5 57 11 is_stmt 0
 915 0010 97070000 		lla	a5,_ZTVN24ConsumerProducerAsyncCPP8ConsumerE+16
 915      93870700 
 916 0018 2330F500 		sd	a5,0(a0)
 917 001c 97000000 		call	_ZN6ThreadD2Ev@plt
 917      E7800000 
 918              	.LVL82:
 919              	.LBE155:
 920 0024 83308100 		ld	ra,8(sp)
 921              		.cfi_restore 1
 922 0028 03340100 		ld	s0,0(sp)
 923              		.cfi_restore 8
 924              		.cfi_def_cfa 2, 16
 925 002c 13010101 		addi	sp,sp,16
 926              		.cfi_def_cfa_offset 0
 927 0030 67800000 		jr	ra
 928              		.cfi_endproc
 929              	.LFE148:
 931              		.weak	_ZN24ConsumerProducerAsyncCPP8ConsumerD1Ev
 932              		.set	_ZN24ConsumerProducerAsyncCPP8ConsumerD1Ev,_ZN24ConsumerProducerAsyncCPP8ConsumerD2Ev
 933              		.section	.text._ZN24ConsumerProducerAsyncCPP8ConsumerD0Ev,"axG",@progbits,_ZN24ConsumerProducerAsy
 934              		.align	2
 935              		.weak	_ZN24ConsumerProducerAsyncCPP8ConsumerD0Ev
 937              	_ZN24ConsumerProducerAsyncCPP8ConsumerD0Ev:
 938              	.LFB150:
 939              		.loc 5 57 11 is_stmt 1
 940              		.cfi_startproc
GAS LISTING /tmp/ccBYUnRY.s 			page 23


 941              	.LVL83:
 942 0000 130101FE 		addi	sp,sp,-32
 943              		.cfi_def_cfa_offset 32
 944 0004 233C1100 		sd	ra,24(sp)
 945 0008 23388100 		sd	s0,16(sp)
 946 000c 23349100 		sd	s1,8(sp)
 947              		.cfi_offset 1, -8
 948              		.cfi_offset 8, -16
 949              		.cfi_offset 9, -24
 950 0010 13040102 		addi	s0,sp,32
 951              		.cfi_def_cfa 8, 0
 952 0014 93040500 		mv	s1,a0
 953              	.LVL84:
 954              	.LBB156:
 955              	.LBB157:
 956              		.loc 5 57 11 is_stmt 0
 957 0018 97070000 		lla	a5,_ZTVN24ConsumerProducerAsyncCPP8ConsumerE+16
 957      93870700 
 958 0020 2330F500 		sd	a5,0(a0)
 959 0024 97000000 		call	_ZN6ThreadD2Ev@plt
 959      E7800000 
 960              	.LVL85:
 961              	.LBE157:
 962              	.LBE156:
 963 002c 13850400 		mv	a0,s1
 964 0030 97000000 		call	_ZdlPv@plt
 964      E7800000 
 965              	.LVL86:
 966 0038 83308101 		ld	ra,24(sp)
 967              		.cfi_restore 1
 968 003c 03340101 		ld	s0,16(sp)
 969              		.cfi_restore 8
 970              		.cfi_def_cfa 2, 32
 971 0040 83348100 		ld	s1,8(sp)
 972              		.cfi_restore 9
 973              	.LVL87:
 974 0044 13010102 		addi	sp,sp,32
 975              		.cfi_def_cfa_offset 0
 976 0048 67800000 		jr	ra
 977              		.cfi_endproc
 978              	.LFE150:
 980              		.section	.text._ZN24ConsumerProducerAsyncCPP16ProducerKeyboradD2Ev,"axG",@progbits,_ZN24ConsumerPr
 981              		.align	2
 982              		.weak	_ZN24ConsumerProducerAsyncCPP16ProducerKeyboradD2Ev
 984              	_ZN24ConsumerProducerAsyncCPP16ProducerKeyboradD2Ev:
 985              	.LFB156:
  20:src/Code/../../h/Testing/Testing_OS1/Consumer_Producer_CPP_API_Test.hpp ****         thread_data *td;
 986              		.loc 5 20 11 is_stmt 1
 987              		.cfi_startproc
 988              	.LVL88:
 989 0000 130101FF 		addi	sp,sp,-16
 990              		.cfi_def_cfa_offset 16
 991 0004 23341100 		sd	ra,8(sp)
 992 0008 23308100 		sd	s0,0(sp)
 993              		.cfi_offset 1, -8
 994              		.cfi_offset 8, -16
 995 000c 13040101 		addi	s0,sp,16
GAS LISTING /tmp/ccBYUnRY.s 			page 24


 996              		.cfi_def_cfa 8, 0
 997              	.LBB158:
  20:src/Code/../../h/Testing/Testing_OS1/Consumer_Producer_CPP_API_Test.hpp ****         thread_data *td;
 998              		.loc 5 20 11 is_stmt 0
 999 0010 97070000 		lla	a5,_ZTVN24ConsumerProducerAsyncCPP16ProducerKeyboradE+16
 999      93870700 
 1000 0018 2330F500 		sd	a5,0(a0)
 1001 001c 97000000 		call	_ZN6ThreadD2Ev@plt
 1001      E7800000 
 1002              	.LVL89:
 1003              	.LBE158:
 1004 0024 83308100 		ld	ra,8(sp)
 1005              		.cfi_restore 1
 1006 0028 03340100 		ld	s0,0(sp)
 1007              		.cfi_restore 8
 1008              		.cfi_def_cfa 2, 16
 1009 002c 13010101 		addi	sp,sp,16
 1010              		.cfi_def_cfa_offset 0
 1011 0030 67800000 		jr	ra
 1012              		.cfi_endproc
 1013              	.LFE156:
 1015              		.weak	_ZN24ConsumerProducerAsyncCPP16ProducerKeyboradD1Ev
 1016              		.set	_ZN24ConsumerProducerAsyncCPP16ProducerKeyboradD1Ev,_ZN24ConsumerProducerAsyncCPP16ProducerKe
 1017              		.section	.text._ZN24ConsumerProducerAsyncCPP16ProducerKeyboradD0Ev,"axG",@progbits,_ZN24ConsumerPr
 1018              		.align	2
 1019              		.weak	_ZN24ConsumerProducerAsyncCPP16ProducerKeyboradD0Ev
 1021              	_ZN24ConsumerProducerAsyncCPP16ProducerKeyboradD0Ev:
 1022              	.LFB158:
  20:src/Code/../../h/Testing/Testing_OS1/Consumer_Producer_CPP_API_Test.hpp ****         thread_data *td;
 1023              		.loc 5 20 11 is_stmt 1
 1024              		.cfi_startproc
 1025              	.LVL90:
 1026 0000 130101FE 		addi	sp,sp,-32
 1027              		.cfi_def_cfa_offset 32
 1028 0004 233C1100 		sd	ra,24(sp)
 1029 0008 23388100 		sd	s0,16(sp)
 1030 000c 23349100 		sd	s1,8(sp)
 1031              		.cfi_offset 1, -8
 1032              		.cfi_offset 8, -16
 1033              		.cfi_offset 9, -24
 1034 0010 13040102 		addi	s0,sp,32
 1035              		.cfi_def_cfa 8, 0
 1036 0014 93040500 		mv	s1,a0
 1037              	.LVL91:
 1038              	.LBB159:
 1039              	.LBB160:
  20:src/Code/../../h/Testing/Testing_OS1/Consumer_Producer_CPP_API_Test.hpp ****         thread_data *td;
 1040              		.loc 5 20 11 is_stmt 0
 1041 0018 97070000 		lla	a5,_ZTVN24ConsumerProducerAsyncCPP16ProducerKeyboradE+16
 1041      93870700 
 1042 0020 2330F500 		sd	a5,0(a0)
 1043 0024 97000000 		call	_ZN6ThreadD2Ev@plt
 1043      E7800000 
 1044              	.LVL92:
 1045              	.LBE160:
 1046              	.LBE159:
 1047 002c 13850400 		mv	a0,s1
GAS LISTING /tmp/ccBYUnRY.s 			page 25


 1048 0030 97000000 		call	_ZdlPv@plt
 1048      E7800000 
 1049              	.LVL93:
 1050 0038 83308101 		ld	ra,24(sp)
 1051              		.cfi_restore 1
 1052 003c 03340101 		ld	s0,16(sp)
 1053              		.cfi_restore 8
 1054              		.cfi_def_cfa 2, 32
 1055 0040 83348100 		ld	s1,8(sp)
 1056              		.cfi_restore 9
 1057              	.LVL94:
 1058 0044 13010102 		addi	sp,sp,32
 1059              		.cfi_def_cfa_offset 0
 1060 0048 67800000 		jr	ra
 1061              		.cfi_endproc
 1062              	.LFE158:
 1064              		.section	.text._ZN24ConsumerProducerAsyncCPP8ProducerD2Ev,"axG",@progbits,_ZN24ConsumerProducerAsy
 1065              		.align	2
 1066              		.weak	_ZN24ConsumerProducerAsyncCPP8ProducerD2Ev
 1068              	_ZN24ConsumerProducerAsyncCPP8ProducerD2Ev:
 1069              	.LFB152:
  40:src/Code/../../h/Testing/Testing_OS1/Consumer_Producer_CPP_API_Test.hpp ****         thread_data *td;
 1070              		.loc 5 40 11 is_stmt 1
 1071              		.cfi_startproc
 1072              	.LVL95:
 1073 0000 130101FF 		addi	sp,sp,-16
 1074              		.cfi_def_cfa_offset 16
 1075 0004 23341100 		sd	ra,8(sp)
 1076 0008 23308100 		sd	s0,0(sp)
 1077              		.cfi_offset 1, -8
 1078              		.cfi_offset 8, -16
 1079 000c 13040101 		addi	s0,sp,16
 1080              		.cfi_def_cfa 8, 0
 1081              	.LBB161:
  40:src/Code/../../h/Testing/Testing_OS1/Consumer_Producer_CPP_API_Test.hpp ****         thread_data *td;
 1082              		.loc 5 40 11 is_stmt 0
 1083 0010 97070000 		lla	a5,_ZTVN24ConsumerProducerAsyncCPP8ProducerE+16
 1083      93870700 
 1084 0018 2330F500 		sd	a5,0(a0)
 1085 001c 97000000 		call	_ZN6ThreadD2Ev@plt
 1085      E7800000 
 1086              	.LVL96:
 1087              	.LBE161:
 1088 0024 83308100 		ld	ra,8(sp)
 1089              		.cfi_restore 1
 1090 0028 03340100 		ld	s0,0(sp)
 1091              		.cfi_restore 8
 1092              		.cfi_def_cfa 2, 16
 1093 002c 13010101 		addi	sp,sp,16
 1094              		.cfi_def_cfa_offset 0
 1095 0030 67800000 		jr	ra
 1096              		.cfi_endproc
 1097              	.LFE152:
 1099              		.weak	_ZN24ConsumerProducerAsyncCPP8ProducerD1Ev
 1100              		.set	_ZN24ConsumerProducerAsyncCPP8ProducerD1Ev,_ZN24ConsumerProducerAsyncCPP8ProducerD2Ev
 1101              		.section	.text._ZN24ConsumerProducerAsyncCPP8ProducerD0Ev,"axG",@progbits,_ZN24ConsumerProducerAsy
 1102              		.align	2
GAS LISTING /tmp/ccBYUnRY.s 			page 26


 1103              		.weak	_ZN24ConsumerProducerAsyncCPP8ProducerD0Ev
 1105              	_ZN24ConsumerProducerAsyncCPP8ProducerD0Ev:
 1106              	.LFB154:
  40:src/Code/../../h/Testing/Testing_OS1/Consumer_Producer_CPP_API_Test.hpp ****         thread_data *td;
 1107              		.loc 5 40 11 is_stmt 1
 1108              		.cfi_startproc
 1109              	.LVL97:
 1110 0000 130101FE 		addi	sp,sp,-32
 1111              		.cfi_def_cfa_offset 32
 1112 0004 233C1100 		sd	ra,24(sp)
 1113 0008 23388100 		sd	s0,16(sp)
 1114 000c 23349100 		sd	s1,8(sp)
 1115              		.cfi_offset 1, -8
 1116              		.cfi_offset 8, -16
 1117              		.cfi_offset 9, -24
 1118 0010 13040102 		addi	s0,sp,32
 1119              		.cfi_def_cfa 8, 0
 1120 0014 93040500 		mv	s1,a0
 1121              	.LVL98:
 1122              	.LBB162:
 1123              	.LBB163:
  40:src/Code/../../h/Testing/Testing_OS1/Consumer_Producer_CPP_API_Test.hpp ****         thread_data *td;
 1124              		.loc 5 40 11 is_stmt 0
 1125 0018 97070000 		lla	a5,_ZTVN24ConsumerProducerAsyncCPP8ProducerE+16
 1125      93870700 
 1126 0020 2330F500 		sd	a5,0(a0)
 1127 0024 97000000 		call	_ZN6ThreadD2Ev@plt
 1127      E7800000 
 1128              	.LVL99:
 1129              	.LBE163:
 1130              	.LBE162:
 1131 002c 13850400 		mv	a0,s1
 1132 0030 97000000 		call	_ZdlPv@plt
 1132      E7800000 
 1133              	.LVL100:
 1134 0038 83308101 		ld	ra,24(sp)
 1135              		.cfi_restore 1
 1136 003c 03340101 		ld	s0,16(sp)
 1137              		.cfi_restore 8
 1138              		.cfi_def_cfa 2, 32
 1139 0040 83348100 		ld	s1,8(sp)
 1140              		.cfi_restore 9
 1141              	.LVL101:
 1142 0044 13010102 		addi	sp,sp,32
 1143              		.cfi_def_cfa_offset 0
 1144 0048 67800000 		jr	ra
 1145              		.cfi_endproc
 1146              	.LFE154:
 1148              		.section	.text._ZN19PeriodicThreadsTest1AD2Ev,"axG",@progbits,_ZN19PeriodicThreadsTest1AD5Ev,comda
 1149              		.align	2
 1150              		.weak	_ZN19PeriodicThreadsTest1AD2Ev
 1152              	_ZN19PeriodicThreadsTest1AD2Ev:
 1153              	.LFB144:
 1154              		.file 6 "src/Code/../../h/Testing/Testing_OS1/Periodic_Threads_CPP_API_Test.hpp"
   1:src/Code/../../h/Testing/Testing_OS1/Periodic_Threads_CPP_API_Test.hpp **** #ifndef PERIODIC_THREADS_CPP_API_TEST_HPP
   2:src/Code/../../h/Testing/Testing_OS1/Periodic_Threads_CPP_API_Test.hpp **** #define PERIODIC_THREADS_CPP_API_TEST_HPP
   3:src/Code/../../h/Testing/Testing_OS1/Periodic_Threads_CPP_API_Test.hpp **** 
GAS LISTING /tmp/ccBYUnRY.s 			page 27


   4:src/Code/../../h/Testing/Testing_OS1/Periodic_Threads_CPP_API_Test.hpp **** #include "../../Code/SystemCalls/syscall_cpp.hpp"
   5:src/Code/../../h/Testing/Testing_OS1/Periodic_Threads_CPP_API_Test.hpp **** 
   6:src/Code/../../h/Testing/Testing_OS1/Periodic_Threads_CPP_API_Test.hpp **** namespace PeriodicThreadsTest {
   7:src/Code/../../h/Testing/Testing_OS1/Periodic_Threads_CPP_API_Test.hpp ****     Semaphore* myOwnMutex;
   8:src/Code/../../h/Testing/Testing_OS1/Periodic_Threads_CPP_API_Test.hpp ****     Semaphore* myOwnWaitForAll;
   9:src/Code/../../h/Testing/Testing_OS1/Periodic_Threads_CPP_API_Test.hpp **** 
  10:src/Code/../../h/Testing/Testing_OS1/Periodic_Threads_CPP_API_Test.hpp ****     class A : public PeriodicThread {
 1155              		.loc 6 10 11 is_stmt 1
 1156              		.cfi_startproc
 1157              	.LVL102:
 1158 0000 130101FF 		addi	sp,sp,-16
 1159              		.cfi_def_cfa_offset 16
 1160 0004 23341100 		sd	ra,8(sp)
 1161 0008 23308100 		sd	s0,0(sp)
 1162              		.cfi_offset 1, -8
 1163              		.cfi_offset 8, -16
 1164 000c 13040101 		addi	s0,sp,16
 1165              		.cfi_def_cfa 8, 0
 1166              	.LVL103:
 1167              	.LBB164:
 1168              	.LBB165:
 1169              		.file 7 "src/Code/../../h/Code/Console/../SystemCalls/syscall_cpp.hpp"
   1:src/Code/../../h/Code/Console/../SystemCalls/syscall_cpp.hpp **** #ifndef SYSCALL_CPP_H
   2:src/Code/../../h/Code/Console/../SystemCalls/syscall_cpp.hpp **** #define SYSCALL_CPP_H
   3:src/Code/../../h/Code/Console/../SystemCalls/syscall_cpp.hpp **** 
   4:src/Code/../../h/Code/Console/../SystemCalls/syscall_cpp.hpp **** #include "syscall_c.h"
   5:src/Code/../../h/Code/Console/../SystemCalls/syscall_cpp.hpp **** 
   6:src/Code/../../h/Code/Console/../SystemCalls/syscall_cpp.hpp **** void* operator new(size_t n);
   7:src/Code/../../h/Code/Console/../SystemCalls/syscall_cpp.hpp **** void* operator new[](size_t n);
   8:src/Code/../../h/Code/Console/../SystemCalls/syscall_cpp.hpp **** void operator delete(void* ptr);
   9:src/Code/../../h/Code/Console/../SystemCalls/syscall_cpp.hpp **** void operator delete[](void* ptr);
  10:src/Code/../../h/Code/Console/../SystemCalls/syscall_cpp.hpp **** 
  11:src/Code/../../h/Code/Console/../SystemCalls/syscall_cpp.hpp **** class Thread {
  12:src/Code/../../h/Code/Console/../SystemCalls/syscall_cpp.hpp **** public:
  13:src/Code/../../h/Code/Console/../SystemCalls/syscall_cpp.hpp ****     Thread(void (*body)(void*), void* arg);
  14:src/Code/../../h/Code/Console/../SystemCalls/syscall_cpp.hpp ****     virtual ~Thread();
  15:src/Code/../../h/Code/Console/../SystemCalls/syscall_cpp.hpp **** 
  16:src/Code/../../h/Code/Console/../SystemCalls/syscall_cpp.hpp ****     int start();
  17:src/Code/../../h/Code/Console/../SystemCalls/syscall_cpp.hpp **** 
  18:src/Code/../../h/Code/Console/../SystemCalls/syscall_cpp.hpp ****     static void dispatch();
  19:src/Code/../../h/Code/Console/../SystemCalls/syscall_cpp.hpp ****     static int sleep(time_t time);
  20:src/Code/../../h/Code/Console/../SystemCalls/syscall_cpp.hpp **** 
  21:src/Code/../../h/Code/Console/../SystemCalls/syscall_cpp.hpp ****     int getThreadId();
  22:src/Code/../../h/Code/Console/../SystemCalls/syscall_cpp.hpp **** 
  23:src/Code/../../h/Code/Console/../SystemCalls/syscall_cpp.hpp **** protected:
  24:src/Code/../../h/Code/Console/../SystemCalls/syscall_cpp.hpp ****     Thread();
  25:src/Code/../../h/Code/Console/../SystemCalls/syscall_cpp.hpp ****     virtual void run() {}
  26:src/Code/../../h/Code/Console/../SystemCalls/syscall_cpp.hpp **** 
  27:src/Code/../../h/Code/Console/../SystemCalls/syscall_cpp.hpp **** private:
  28:src/Code/../../h/Code/Console/../SystemCalls/syscall_cpp.hpp ****     static void callRunForThisThread(void* thisPointer);
  29:src/Code/../../h/Code/Console/../SystemCalls/syscall_cpp.hpp **** 
  30:src/Code/../../h/Code/Console/../SystemCalls/syscall_cpp.hpp ****     thread_t myHandle;
  31:src/Code/../../h/Code/Console/../SystemCalls/syscall_cpp.hpp **** };
  32:src/Code/../../h/Code/Console/../SystemCalls/syscall_cpp.hpp **** 
  33:src/Code/../../h/Code/Console/../SystemCalls/syscall_cpp.hpp **** class Semaphore {
  34:src/Code/../../h/Code/Console/../SystemCalls/syscall_cpp.hpp **** public:
  35:src/Code/../../h/Code/Console/../SystemCalls/syscall_cpp.hpp ****     explicit Semaphore(unsigned init = 1);
GAS LISTING /tmp/ccBYUnRY.s 			page 28


  36:src/Code/../../h/Code/Console/../SystemCalls/syscall_cpp.hpp ****     virtual ~Semaphore();
  37:src/Code/../../h/Code/Console/../SystemCalls/syscall_cpp.hpp **** 
  38:src/Code/../../h/Code/Console/../SystemCalls/syscall_cpp.hpp ****     int wait();
  39:src/Code/../../h/Code/Console/../SystemCalls/syscall_cpp.hpp ****     int signal();
  40:src/Code/../../h/Code/Console/../SystemCalls/syscall_cpp.hpp **** 
  41:src/Code/../../h/Code/Console/../SystemCalls/syscall_cpp.hpp **** private:
  42:src/Code/../../h/Code/Console/../SystemCalls/syscall_cpp.hpp ****     sem_t myHandle;
  43:src/Code/../../h/Code/Console/../SystemCalls/syscall_cpp.hpp **** };
  44:src/Code/../../h/Code/Console/../SystemCalls/syscall_cpp.hpp **** 
  45:src/Code/../../h/Code/Console/../SystemCalls/syscall_cpp.hpp **** class PeriodicThread : public Thread {
 1170              		.loc 7 45 7 is_stmt 0
 1171 0010 97070000 		la	a5,_ZTV14PeriodicThread
 1171      83B70700 
 1172 0018 93870701 		addi	a5,a5,16
 1173 001c 2330F500 		sd	a5,0(a0)
 1174 0020 97000000 		call	_ZN6ThreadD2Ev@plt
 1174      E7800000 
 1175              	.LVL104:
 1176              	.LBE165:
 1177              	.LBE164:
 1178              		.loc 6 10 11
 1179 0028 83308100 		ld	ra,8(sp)
 1180              		.cfi_restore 1
 1181 002c 03340100 		ld	s0,0(sp)
 1182              		.cfi_restore 8
 1183              		.cfi_def_cfa 2, 16
 1184 0030 13010101 		addi	sp,sp,16
 1185              		.cfi_def_cfa_offset 0
 1186 0034 67800000 		jr	ra
 1187              		.cfi_endproc
 1188              	.LFE144:
 1190              		.weak	_ZN19PeriodicThreadsTest1AD1Ev
 1191              		.set	_ZN19PeriodicThreadsTest1AD1Ev,_ZN19PeriodicThreadsTest1AD2Ev
 1192              		.section	.text._ZN19PeriodicThreadsTest1AD0Ev,"axG",@progbits,_ZN19PeriodicThreadsTest1AD5Ev,comda
 1193              		.align	2
 1194              		.weak	_ZN19PeriodicThreadsTest1AD0Ev
 1196              	_ZN19PeriodicThreadsTest1AD0Ev:
 1197              	.LFB146:
 1198              		.loc 6 10 11 is_stmt 1
 1199              		.cfi_startproc
 1200              	.LVL105:
 1201 0000 130101FE 		addi	sp,sp,-32
 1202              		.cfi_def_cfa_offset 32
 1203 0004 233C1100 		sd	ra,24(sp)
 1204 0008 23388100 		sd	s0,16(sp)
 1205 000c 23349100 		sd	s1,8(sp)
 1206              		.cfi_offset 1, -8
 1207              		.cfi_offset 8, -16
 1208              		.cfi_offset 9, -24
 1209 0010 13040102 		addi	s0,sp,32
 1210              		.cfi_def_cfa 8, 0
 1211 0014 93040500 		mv	s1,a0
 1212              	.LVL106:
 1213              	.LBB166:
 1214              	.LBB167:
 1215              	.LBB168:
 1216              		.loc 7 45 7 is_stmt 0
GAS LISTING /tmp/ccBYUnRY.s 			page 29


 1217 0018 97070000 		la	a5,_ZTV14PeriodicThread
 1217      83B70700 
 1218 0020 93870701 		addi	a5,a5,16
 1219 0024 2330F500 		sd	a5,0(a0)
 1220 0028 97000000 		call	_ZN6ThreadD2Ev@plt
 1220      E7800000 
 1221              	.LVL107:
 1222              	.LBE168:
 1223              	.LBE167:
 1224              	.LBE166:
 1225              		.loc 6 10 11
 1226 0030 13850400 		mv	a0,s1
 1227 0034 97000000 		call	_ZdlPv@plt
 1227      E7800000 
 1228              	.LVL108:
 1229 003c 83308101 		ld	ra,24(sp)
 1230              		.cfi_restore 1
 1231 0040 03340101 		ld	s0,16(sp)
 1232              		.cfi_restore 8
 1233              		.cfi_def_cfa 2, 32
 1234 0044 83348100 		ld	s1,8(sp)
 1235              		.cfi_restore 9
 1236              	.LVL109:
 1237 0048 13010102 		addi	sp,sp,32
 1238              		.cfi_def_cfa_offset 0
 1239 004c 67800000 		jr	ra
 1240              		.cfi_endproc
 1241              	.LFE146:
 1243              		.section	.text._ZN19PeriodicThreadsTest1BD2Ev,"axG",@progbits,_ZN19PeriodicThreadsTest1BD5Ev,comda
 1244              		.align	2
 1245              		.weak	_ZN19PeriodicThreadsTest1BD2Ev
 1247              	_ZN19PeriodicThreadsTest1BD2Ev:
 1248              	.LFB140:
  11:src/Code/../../h/Testing/Testing_OS1/Periodic_Threads_CPP_API_Test.hpp ****     public:
  12:src/Code/../../h/Testing/Testing_OS1/Periodic_Threads_CPP_API_Test.hpp ****         explicit A(time_t period) : PeriodicThread(period) {}
  13:src/Code/../../h/Testing/Testing_OS1/Periodic_Threads_CPP_API_Test.hpp **** 
  14:src/Code/../../h/Testing/Testing_OS1/Periodic_Threads_CPP_API_Test.hpp ****     protected:
  15:src/Code/../../h/Testing/Testing_OS1/Periodic_Threads_CPP_API_Test.hpp ****         void run() override {
  16:src/Code/../../h/Testing/Testing_OS1/Periodic_Threads_CPP_API_Test.hpp ****             while (!shouldThisThreadEnd) {
  17:src/Code/../../h/Testing/Testing_OS1/Periodic_Threads_CPP_API_Test.hpp ****                 periodicActivation();
  18:src/Code/../../h/Testing/Testing_OS1/Periodic_Threads_CPP_API_Test.hpp ****                 time_sleep(sleepTime);
  19:src/Code/../../h/Testing/Testing_OS1/Periodic_Threads_CPP_API_Test.hpp ****             }
  20:src/Code/../../h/Testing/Testing_OS1/Periodic_Threads_CPP_API_Test.hpp ****             myOwnWaitForAll->signal();
  21:src/Code/../../h/Testing/Testing_OS1/Periodic_Threads_CPP_API_Test.hpp ****         }
  22:src/Code/../../h/Testing/Testing_OS1/Periodic_Threads_CPP_API_Test.hpp **** 
  23:src/Code/../../h/Testing/Testing_OS1/Periodic_Threads_CPP_API_Test.hpp ****     private:
  24:src/Code/../../h/Testing/Testing_OS1/Periodic_Threads_CPP_API_Test.hpp ****         void periodicActivation() override {
  25:src/Code/../../h/Testing/Testing_OS1/Periodic_Threads_CPP_API_Test.hpp ****             myOwnMutex->wait();
  26:src/Code/../../h/Testing/Testing_OS1/Periodic_Threads_CPP_API_Test.hpp ****             putc('A');
  27:src/Code/../../h/Testing/Testing_OS1/Periodic_Threads_CPP_API_Test.hpp ****             putc('\n');
  28:src/Code/../../h/Testing/Testing_OS1/Periodic_Threads_CPP_API_Test.hpp ****             myOwnMutex->signal();
  29:src/Code/../../h/Testing/Testing_OS1/Periodic_Threads_CPP_API_Test.hpp ****         }
  30:src/Code/../../h/Testing/Testing_OS1/Periodic_Threads_CPP_API_Test.hpp ****     };
  31:src/Code/../../h/Testing/Testing_OS1/Periodic_Threads_CPP_API_Test.hpp **** 
  32:src/Code/../../h/Testing/Testing_OS1/Periodic_Threads_CPP_API_Test.hpp ****     class B : public PeriodicThread {
 1249              		.loc 6 32 11 is_stmt 1
 1250              		.cfi_startproc
GAS LISTING /tmp/ccBYUnRY.s 			page 30


 1251              	.LVL110:
 1252 0000 130101FF 		addi	sp,sp,-16
 1253              		.cfi_def_cfa_offset 16
 1254 0004 23341100 		sd	ra,8(sp)
 1255 0008 23308100 		sd	s0,0(sp)
 1256              		.cfi_offset 1, -8
 1257              		.cfi_offset 8, -16
 1258 000c 13040101 		addi	s0,sp,16
 1259              		.cfi_def_cfa 8, 0
 1260              	.LVL111:
 1261              	.LBB169:
 1262              	.LBB170:
 1263              		.loc 7 45 7 is_stmt 0
 1264 0010 97070000 		la	a5,_ZTV14PeriodicThread
 1264      83B70700 
 1265 0018 93870701 		addi	a5,a5,16
 1266 001c 2330F500 		sd	a5,0(a0)
 1267 0020 97000000 		call	_ZN6ThreadD2Ev@plt
 1267      E7800000 
 1268              	.LVL112:
 1269              	.LBE170:
 1270              	.LBE169:
 1271              		.loc 6 32 11
 1272 0028 83308100 		ld	ra,8(sp)
 1273              		.cfi_restore 1
 1274 002c 03340100 		ld	s0,0(sp)
 1275              		.cfi_restore 8
 1276              		.cfi_def_cfa 2, 16
 1277 0030 13010101 		addi	sp,sp,16
 1278              		.cfi_def_cfa_offset 0
 1279 0034 67800000 		jr	ra
 1280              		.cfi_endproc
 1281              	.LFE140:
 1283              		.weak	_ZN19PeriodicThreadsTest1BD1Ev
 1284              		.set	_ZN19PeriodicThreadsTest1BD1Ev,_ZN19PeriodicThreadsTest1BD2Ev
 1285              		.section	.text._ZN19PeriodicThreadsTest1BD0Ev,"axG",@progbits,_ZN19PeriodicThreadsTest1BD5Ev,comda
 1286              		.align	2
 1287              		.weak	_ZN19PeriodicThreadsTest1BD0Ev
 1289              	_ZN19PeriodicThreadsTest1BD0Ev:
 1290              	.LFB142:
 1291              		.loc 6 32 11 is_stmt 1
 1292              		.cfi_startproc
 1293              	.LVL113:
 1294 0000 130101FE 		addi	sp,sp,-32
 1295              		.cfi_def_cfa_offset 32
 1296 0004 233C1100 		sd	ra,24(sp)
 1297 0008 23388100 		sd	s0,16(sp)
 1298 000c 23349100 		sd	s1,8(sp)
 1299              		.cfi_offset 1, -8
 1300              		.cfi_offset 8, -16
 1301              		.cfi_offset 9, -24
 1302 0010 13040102 		addi	s0,sp,32
 1303              		.cfi_def_cfa 8, 0
 1304 0014 93040500 		mv	s1,a0
 1305              	.LVL114:
 1306              	.LBB171:
 1307              	.LBB172:
GAS LISTING /tmp/ccBYUnRY.s 			page 31


 1308              	.LBB173:
 1309              		.loc 7 45 7 is_stmt 0
 1310 0018 97070000 		la	a5,_ZTV14PeriodicThread
 1310      83B70700 
 1311 0020 93870701 		addi	a5,a5,16
 1312 0024 2330F500 		sd	a5,0(a0)
 1313 0028 97000000 		call	_ZN6ThreadD2Ev@plt
 1313      E7800000 
 1314              	.LVL115:
 1315              	.LBE173:
 1316              	.LBE172:
 1317              	.LBE171:
 1318              		.loc 6 32 11
 1319 0030 13850400 		mv	a0,s1
 1320 0034 97000000 		call	_ZdlPv@plt
 1320      E7800000 
 1321              	.LVL116:
 1322 003c 83308101 		ld	ra,24(sp)
 1323              		.cfi_restore 1
 1324 0040 03340101 		ld	s0,16(sp)
 1325              		.cfi_restore 8
 1326              		.cfi_def_cfa 2, 32
 1327 0044 83348100 		ld	s1,8(sp)
 1328              		.cfi_restore 9
 1329              	.LVL117:
 1330 0048 13010102 		addi	sp,sp,32
 1331              		.cfi_def_cfa_offset 0
 1332 004c 67800000 		jr	ra
 1333              		.cfi_endproc
 1334              	.LFE142:
 1336              		.section	.text._ZN19PeriodicThreadsTest1CD2Ev,"axG",@progbits,_ZN19PeriodicThreadsTest1CD5Ev,comda
 1337              		.align	2
 1338              		.weak	_ZN19PeriodicThreadsTest1CD2Ev
 1340              	_ZN19PeriodicThreadsTest1CD2Ev:
 1341              	.LFB136:
  33:src/Code/../../h/Testing/Testing_OS1/Periodic_Threads_CPP_API_Test.hpp ****     public:
  34:src/Code/../../h/Testing/Testing_OS1/Periodic_Threads_CPP_API_Test.hpp ****         explicit B(time_t period) : PeriodicThread(period) {}
  35:src/Code/../../h/Testing/Testing_OS1/Periodic_Threads_CPP_API_Test.hpp **** 
  36:src/Code/../../h/Testing/Testing_OS1/Periodic_Threads_CPP_API_Test.hpp ****     protected:
  37:src/Code/../../h/Testing/Testing_OS1/Periodic_Threads_CPP_API_Test.hpp ****         void run() override {
  38:src/Code/../../h/Testing/Testing_OS1/Periodic_Threads_CPP_API_Test.hpp ****             while (!shouldThisThreadEnd) {
  39:src/Code/../../h/Testing/Testing_OS1/Periodic_Threads_CPP_API_Test.hpp ****                 periodicActivation();
  40:src/Code/../../h/Testing/Testing_OS1/Periodic_Threads_CPP_API_Test.hpp ****                 time_sleep(sleepTime);
  41:src/Code/../../h/Testing/Testing_OS1/Periodic_Threads_CPP_API_Test.hpp ****             }
  42:src/Code/../../h/Testing/Testing_OS1/Periodic_Threads_CPP_API_Test.hpp ****             myOwnWaitForAll->signal();
  43:src/Code/../../h/Testing/Testing_OS1/Periodic_Threads_CPP_API_Test.hpp ****         }
  44:src/Code/../../h/Testing/Testing_OS1/Periodic_Threads_CPP_API_Test.hpp **** 
  45:src/Code/../../h/Testing/Testing_OS1/Periodic_Threads_CPP_API_Test.hpp ****     private:
  46:src/Code/../../h/Testing/Testing_OS1/Periodic_Threads_CPP_API_Test.hpp ****         void periodicActivation() override {
  47:src/Code/../../h/Testing/Testing_OS1/Periodic_Threads_CPP_API_Test.hpp ****             myOwnMutex->wait();
  48:src/Code/../../h/Testing/Testing_OS1/Periodic_Threads_CPP_API_Test.hpp ****             putc('B');
  49:src/Code/../../h/Testing/Testing_OS1/Periodic_Threads_CPP_API_Test.hpp ****             putc('\n');
  50:src/Code/../../h/Testing/Testing_OS1/Periodic_Threads_CPP_API_Test.hpp ****             myOwnMutex->signal();
  51:src/Code/../../h/Testing/Testing_OS1/Periodic_Threads_CPP_API_Test.hpp ****         }
  52:src/Code/../../h/Testing/Testing_OS1/Periodic_Threads_CPP_API_Test.hpp ****     };
  53:src/Code/../../h/Testing/Testing_OS1/Periodic_Threads_CPP_API_Test.hpp **** 
  54:src/Code/../../h/Testing/Testing_OS1/Periodic_Threads_CPP_API_Test.hpp ****     class C : public PeriodicThread {
GAS LISTING /tmp/ccBYUnRY.s 			page 32


 1342              		.loc 6 54 11 is_stmt 1
 1343              		.cfi_startproc
 1344              	.LVL118:
 1345 0000 130101FF 		addi	sp,sp,-16
 1346              		.cfi_def_cfa_offset 16
 1347 0004 23341100 		sd	ra,8(sp)
 1348 0008 23308100 		sd	s0,0(sp)
 1349              		.cfi_offset 1, -8
 1350              		.cfi_offset 8, -16
 1351 000c 13040101 		addi	s0,sp,16
 1352              		.cfi_def_cfa 8, 0
 1353              	.LVL119:
 1354              	.LBB174:
 1355              	.LBB175:
 1356              		.loc 7 45 7 is_stmt 0
 1357 0010 97070000 		la	a5,_ZTV14PeriodicThread
 1357      83B70700 
 1358 0018 93870701 		addi	a5,a5,16
 1359 001c 2330F500 		sd	a5,0(a0)
 1360 0020 97000000 		call	_ZN6ThreadD2Ev@plt
 1360      E7800000 
 1361              	.LVL120:
 1362              	.LBE175:
 1363              	.LBE174:
 1364              		.loc 6 54 11
 1365 0028 83308100 		ld	ra,8(sp)
 1366              		.cfi_restore 1
 1367 002c 03340100 		ld	s0,0(sp)
 1368              		.cfi_restore 8
 1369              		.cfi_def_cfa 2, 16
 1370 0030 13010101 		addi	sp,sp,16
 1371              		.cfi_def_cfa_offset 0
 1372 0034 67800000 		jr	ra
 1373              		.cfi_endproc
 1374              	.LFE136:
 1376              		.weak	_ZN19PeriodicThreadsTest1CD1Ev
 1377              		.set	_ZN19PeriodicThreadsTest1CD1Ev,_ZN19PeriodicThreadsTest1CD2Ev
 1378              		.section	.text._ZN19PeriodicThreadsTest1CD0Ev,"axG",@progbits,_ZN19PeriodicThreadsTest1CD5Ev,comda
 1379              		.align	2
 1380              		.weak	_ZN19PeriodicThreadsTest1CD0Ev
 1382              	_ZN19PeriodicThreadsTest1CD0Ev:
 1383              	.LFB138:
 1384              		.loc 6 54 11 is_stmt 1
 1385              		.cfi_startproc
 1386              	.LVL121:
 1387 0000 130101FE 		addi	sp,sp,-32
 1388              		.cfi_def_cfa_offset 32
 1389 0004 233C1100 		sd	ra,24(sp)
 1390 0008 23388100 		sd	s0,16(sp)
 1391 000c 23349100 		sd	s1,8(sp)
 1392              		.cfi_offset 1, -8
 1393              		.cfi_offset 8, -16
 1394              		.cfi_offset 9, -24
 1395 0010 13040102 		addi	s0,sp,32
 1396              		.cfi_def_cfa 8, 0
 1397 0014 93040500 		mv	s1,a0
 1398              	.LVL122:
GAS LISTING /tmp/ccBYUnRY.s 			page 33


 1399              	.LBB176:
 1400              	.LBB177:
 1401              	.LBB178:
 1402              		.loc 7 45 7 is_stmt 0
 1403 0018 97070000 		la	a5,_ZTV14PeriodicThread
 1403      83B70700 
 1404 0020 93870701 		addi	a5,a5,16
 1405 0024 2330F500 		sd	a5,0(a0)
 1406 0028 97000000 		call	_ZN6ThreadD2Ev@plt
 1406      E7800000 
 1407              	.LVL123:
 1408              	.LBE178:
 1409              	.LBE177:
 1410              	.LBE176:
 1411              		.loc 6 54 11
 1412 0030 13850400 		mv	a0,s1
 1413 0034 97000000 		call	_ZdlPv@plt
 1413      E7800000 
 1414              	.LVL124:
 1415 003c 83308101 		ld	ra,24(sp)
 1416              		.cfi_restore 1
 1417 0040 03340101 		ld	s0,16(sp)
 1418              		.cfi_restore 8
 1419              		.cfi_def_cfa 2, 32
 1420 0044 83348100 		ld	s1,8(sp)
 1421              		.cfi_restore 9
 1422              	.LVL125:
 1423 0048 13010102 		addi	sp,sp,32
 1424              		.cfi_def_cfa_offset 0
 1425 004c 67800000 		jr	ra
 1426              		.cfi_endproc
 1427              	.LFE138:
 1429              		.text
 1430              		.align	2
 1431              		.globl	_ZN21ConsumerProducerSyncC16producerKeyboardEPv
 1433              	_ZN21ConsumerProducerSyncC16producerKeyboardEPv:
 1434              	.LFB78:
 1435              		.file 8 "src/Code/../../h/Testing/Testing_OS1/Consumer_Producer_C_API_Test.hpp"
   1:src/Code/../../h/Testing/Testing_OS1/Consumer_Producer_C_API_Test.hpp **** #ifndef CONSUMER_PRODUCER_C_API_TEST_HPP
   2:src/Code/../../h/Testing/Testing_OS1/Consumer_Producer_C_API_Test.hpp **** #define CONSUMER_PRODUCER_C_API_TEST_HPP
   3:src/Code/../../h/Testing/Testing_OS1/Consumer_Producer_C_API_Test.hpp **** 
   4:src/Code/../../h/Testing/Testing_OS1/Consumer_Producer_C_API_Test.hpp **** #include "../../Code/SystemCalls/syscall_c.h"
   5:src/Code/../../h/Testing/Testing_OS1/Consumer_Producer_C_API_Test.hpp **** #include "Buffer.hpp"
   6:src/Code/../../h/Testing/Testing_OS1/Consumer_Producer_C_API_Test.hpp **** #include "Buffer_CPP_API.hpp"
   7:src/Code/../../h/Testing/Testing_OS1/Consumer_Producer_C_API_Test.hpp **** 
   8:src/Code/../../h/Testing/Testing_OS1/Consumer_Producer_C_API_Test.hpp **** namespace ConsumerProducerSyncC {
   9:src/Code/../../h/Testing/Testing_OS1/Consumer_Producer_C_API_Test.hpp ****     sem_t waitForAll;
  10:src/Code/../../h/Testing/Testing_OS1/Consumer_Producer_C_API_Test.hpp **** 
  11:src/Code/../../h/Testing/Testing_OS1/Consumer_Producer_C_API_Test.hpp ****     struct thread_data {
  12:src/Code/../../h/Testing/Testing_OS1/Consumer_Producer_C_API_Test.hpp ****         int id;
  13:src/Code/../../h/Testing/Testing_OS1/Consumer_Producer_C_API_Test.hpp ****         BufferTestCPP::BufferCPP *buffer;
  14:src/Code/../../h/Testing/Testing_OS1/Consumer_Producer_C_API_Test.hpp ****         sem_t wait;
  15:src/Code/../../h/Testing/Testing_OS1/Consumer_Producer_C_API_Test.hpp ****     };
  16:src/Code/../../h/Testing/Testing_OS1/Consumer_Producer_C_API_Test.hpp **** 
  17:src/Code/../../h/Testing/Testing_OS1/Consumer_Producer_C_API_Test.hpp ****     volatile int threadEnd = 0;
  18:src/Code/../../h/Testing/Testing_OS1/Consumer_Producer_C_API_Test.hpp **** 
  19:src/Code/../../h/Testing/Testing_OS1/Consumer_Producer_C_API_Test.hpp ****     void producerKeyboard(void *arg) {
GAS LISTING /tmp/ccBYUnRY.s 			page 34


 1436              		.loc 8 19 38 is_stmt 1
 1437              		.cfi_startproc
 1438              	.LVL126:
 1439 01b8 130101FE 		addi	sp,sp,-32
 1440              		.cfi_def_cfa_offset 32
 1441 01bc 233C1100 		sd	ra,24(sp)
 1442 01c0 23388100 		sd	s0,16(sp)
 1443 01c4 23349100 		sd	s1,8(sp)
 1444 01c8 23302101 		sd	s2,0(sp)
 1445              		.cfi_offset 1, -8
 1446              		.cfi_offset 8, -16
 1447              		.cfi_offset 9, -24
 1448              		.cfi_offset 18, -32
 1449 01cc 13040102 		addi	s0,sp,32
 1450              		.cfi_def_cfa 8, 0
 1451 01d0 93040500 		mv	s1,a0
  20:src/Code/../../h/Testing/Testing_OS1/Consumer_Producer_C_API_Test.hpp ****         struct thread_data *data = (struct thread_data *) arg;
 1452              		.loc 8 20 9
 1453              	.LVL127:
  21:src/Code/../../h/Testing/Testing_OS1/Consumer_Producer_C_API_Test.hpp **** 
  22:src/Code/../../h/Testing/Testing_OS1/Consumer_Producer_C_API_Test.hpp ****         int key;
 1454              		.loc 8 22 9
  23:src/Code/../../h/Testing/Testing_OS1/Consumer_Producer_C_API_Test.hpp ****         int i = 0;
 1455              		.loc 8 23 9
 1456              		.loc 8 23 13 is_stmt 0
 1457 01d4 13090000 		li	s2,0
 1458 01d8 6F00C000 		j	.L72
 1459              	.LVL128:
 1460              	.L76:
  24:src/Code/../../h/Testing/Testing_OS1/Consumer_Producer_C_API_Test.hpp ****         while ((key = getc()) != 0x1b) {
  25:src/Code/../../h/Testing/Testing_OS1/Consumer_Producer_C_API_Test.hpp ****             data->buffer->put(key);
  26:src/Code/../../h/Testing/Testing_OS1/Consumer_Producer_C_API_Test.hpp ****             i++;
  27:src/Code/../../h/Testing/Testing_OS1/Consumer_Producer_C_API_Test.hpp **** 
  28:src/Code/../../h/Testing/Testing_OS1/Consumer_Producer_C_API_Test.hpp ****             if (i % (10 * data->id) == 0) {
  29:src/Code/../../h/Testing/Testing_OS1/Consumer_Producer_C_API_Test.hpp ****                 thread_dispatch();
 1461              		.loc 8 29 17 is_stmt 1
 1462              		.loc 8 29 32 is_stmt 0
 1463 01dc 97000000 		call	_Z15thread_dispatchv@plt
 1463      E7800000 
 1464              	.LVL129:
 1465              	.L72:
  24:src/Code/../../h/Testing/Testing_OS1/Consumer_Producer_C_API_Test.hpp ****         while ((key = getc()) != 0x1b) {
 1466              		.loc 8 24 9 is_stmt 1
  24:src/Code/../../h/Testing/Testing_OS1/Consumer_Producer_C_API_Test.hpp ****         while ((key = getc()) != 0x1b) {
 1467              		.loc 8 24 31
  24:src/Code/../../h/Testing/Testing_OS1/Consumer_Producer_C_API_Test.hpp ****         while ((key = getc()) != 0x1b) {
 1468              		.loc 8 24 27 is_stmt 0
 1469 01e4 97000000 		call	_Z4getcv@plt
 1469      E7800000 
 1470              	.LVL130:
  24:src/Code/../../h/Testing/Testing_OS1/Consumer_Producer_C_API_Test.hpp ****         while ((key = getc()) != 0x1b) {
 1471              		.loc 8 24 21
 1472 01ec 9B050500 		sext.w	a1,a0
 1473              	.LVL131:
  24:src/Code/../../h/Testing/Testing_OS1/Consumer_Producer_C_API_Test.hpp ****         while ((key = getc()) != 0x1b) {
 1474              		.loc 8 24 31
 1475 01f0 9307B001 		li	a5,27
GAS LISTING /tmp/ccBYUnRY.s 			page 35


 1476 01f4 638AF502 		beq	a1,a5,.L73
  25:src/Code/../../h/Testing/Testing_OS1/Consumer_Producer_C_API_Test.hpp ****             i++;
 1477              		.loc 8 25 13 is_stmt 1
  25:src/Code/../../h/Testing/Testing_OS1/Consumer_Producer_C_API_Test.hpp ****             i++;
 1478              		.loc 8 25 30 is_stmt 0
 1479 01f8 03B58400 		ld	a0,8(s1)
 1480 01fc 97000000 		call	_ZN13BufferTestCPP9BufferCPP3putEi@plt
 1480      E7800000 
 1481              	.LVL132:
  26:src/Code/../../h/Testing/Testing_OS1/Consumer_Producer_C_API_Test.hpp **** 
 1482              		.loc 8 26 13 is_stmt 1
  26:src/Code/../../h/Testing/Testing_OS1/Consumer_Producer_C_API_Test.hpp **** 
 1483              		.loc 8 26 14 is_stmt 0
 1484 0204 1B071900 		addiw	a4,s2,1
 1485 0208 1B090700 		sext.w	s2,a4
 1486              	.LVL133:
  28:src/Code/../../h/Testing/Testing_OS1/Consumer_Producer_C_API_Test.hpp ****                 thread_dispatch();
 1487              		.loc 8 28 13 is_stmt 1
  28:src/Code/../../h/Testing/Testing_OS1/Consumer_Producer_C_API_Test.hpp ****                 thread_dispatch();
 1488              		.loc 8 28 33 is_stmt 0
 1489 020c 83A60400 		lw	a3,0(s1)
  28:src/Code/../../h/Testing/Testing_OS1/Consumer_Producer_C_API_Test.hpp ****                 thread_dispatch();
 1490              		.loc 8 28 25
 1491 0210 9B972600 		slliw	a5,a3,2
 1492 0214 BB87D700 		addw	a5,a5,a3
 1493 0218 9B971700 		slliw	a5,a5,1
  28:src/Code/../../h/Testing/Testing_OS1/Consumer_Producer_C_API_Test.hpp ****                 thread_dispatch();
 1494              		.loc 8 28 19
 1495 021c BB67F702 		remw	a5,a4,a5
  28:src/Code/../../h/Testing/Testing_OS1/Consumer_Producer_C_API_Test.hpp ****                 thread_dispatch();
 1496              		.loc 8 28 13
 1497 0220 E39207FC 		bnez	a5,.L72
 1498 0224 6FF09FFB 		j	.L76
 1499              	.LVL134:
 1500              	.L73:
  30:src/Code/../../h/Testing/Testing_OS1/Consumer_Producer_C_API_Test.hpp ****             }
  31:src/Code/../../h/Testing/Testing_OS1/Consumer_Producer_C_API_Test.hpp ****         }
  32:src/Code/../../h/Testing/Testing_OS1/Consumer_Producer_C_API_Test.hpp **** 
  33:src/Code/../../h/Testing/Testing_OS1/Consumer_Producer_C_API_Test.hpp ****         threadEnd = 1;
 1501              		.loc 8 33 9 is_stmt 1
 1502              		.loc 8 33 19 is_stmt 0
 1503 0228 93071000 		li	a5,1
 1504 022c 17070000 		sw	a5,.LANCHOR0+4,a4
 1504      2320F700 
  34:src/Code/../../h/Testing/Testing_OS1/Consumer_Producer_C_API_Test.hpp ****         data->buffer->put('!');
 1505              		.loc 8 34 9 is_stmt 1
 1506              		.loc 8 34 26 is_stmt 0
 1507 0234 93051002 		li	a1,33
 1508              	.LVL135:
 1509 0238 03B58400 		ld	a0,8(s1)
 1510              	.LVL136:
 1511 023c 97000000 		call	_ZN13BufferTestCPP9BufferCPP3putEi@plt
 1511      E7800000 
 1512              	.LVL137:
  35:src/Code/../../h/Testing/Testing_OS1/Consumer_Producer_C_API_Test.hpp **** 
  36:src/Code/../../h/Testing/Testing_OS1/Consumer_Producer_C_API_Test.hpp ****         sem_signal(data->wait);
 1513              		.loc 8 36 9 is_stmt 1
GAS LISTING /tmp/ccBYUnRY.s 			page 36


 1514              		.loc 8 36 19 is_stmt 0
 1515 0244 03B50401 		ld	a0,16(s1)
 1516 0248 97000000 		call	_Z10sem_signalP3sem@plt
 1516      E7800000 
 1517              	.LVL138:
  37:src/Code/../../h/Testing/Testing_OS1/Consumer_Producer_C_API_Test.hpp ****     }
 1518              		.loc 8 37 5
 1519 0250 83308101 		ld	ra,24(sp)
 1520              		.cfi_restore 1
 1521 0254 03340101 		ld	s0,16(sp)
 1522              		.cfi_restore 8
 1523              		.cfi_def_cfa 2, 32
 1524 0258 83348100 		ld	s1,8(sp)
 1525              		.cfi_restore 9
 1526              	.LVL139:
 1527 025c 03390100 		ld	s2,0(sp)
 1528              		.cfi_restore 18
 1529              	.LVL140:
 1530 0260 13010102 		addi	sp,sp,32
 1531              		.cfi_def_cfa_offset 0
 1532 0264 67800000 		jr	ra
 1533              		.cfi_endproc
 1534              	.LFE78:
 1536              		.align	2
 1537              		.globl	_ZN21ConsumerProducerSyncC8producerEPv
 1539              	_ZN21ConsumerProducerSyncC8producerEPv:
 1540              	.LFB79:
  38:src/Code/../../h/Testing/Testing_OS1/Consumer_Producer_C_API_Test.hpp **** 
  39:src/Code/../../h/Testing/Testing_OS1/Consumer_Producer_C_API_Test.hpp ****     void producer(void *arg) {
 1541              		.loc 8 39 30 is_stmt 1
 1542              		.cfi_startproc
 1543              	.LVL141:
 1544 0268 130101FE 		addi	sp,sp,-32
 1545              		.cfi_def_cfa_offset 32
 1546 026c 233C1100 		sd	ra,24(sp)
 1547 0270 23388100 		sd	s0,16(sp)
 1548 0274 23349100 		sd	s1,8(sp)
 1549 0278 23302101 		sd	s2,0(sp)
 1550              		.cfi_offset 1, -8
 1551              		.cfi_offset 8, -16
 1552              		.cfi_offset 9, -24
 1553              		.cfi_offset 18, -32
 1554 027c 13040102 		addi	s0,sp,32
 1555              		.cfi_def_cfa 8, 0
 1556 0280 93040500 		mv	s1,a0
  40:src/Code/../../h/Testing/Testing_OS1/Consumer_Producer_C_API_Test.hpp ****         struct thread_data *data = (struct thread_data *) arg;
 1557              		.loc 8 40 9
 1558              	.LVL142:
  41:src/Code/../../h/Testing/Testing_OS1/Consumer_Producer_C_API_Test.hpp **** 
  42:src/Code/../../h/Testing/Testing_OS1/Consumer_Producer_C_API_Test.hpp ****         int i = 0;
 1559              		.loc 8 42 9
 1560              		.loc 8 42 13 is_stmt 0
 1561 0284 13090000 		li	s2,0
 1562 0288 6F00C000 		j	.L78
 1563              	.LVL143:
 1564              	.L82:
  43:src/Code/../../h/Testing/Testing_OS1/Consumer_Producer_C_API_Test.hpp ****         while (!threadEnd) {
GAS LISTING /tmp/ccBYUnRY.s 			page 37


  44:src/Code/../../h/Testing/Testing_OS1/Consumer_Producer_C_API_Test.hpp ****             data->buffer->put(data->id + '0');
  45:src/Code/../../h/Testing/Testing_OS1/Consumer_Producer_C_API_Test.hpp ****             i++;
  46:src/Code/../../h/Testing/Testing_OS1/Consumer_Producer_C_API_Test.hpp **** 
  47:src/Code/../../h/Testing/Testing_OS1/Consumer_Producer_C_API_Test.hpp ****             if (i % (10 * data->id) == 0) {
  48:src/Code/../../h/Testing/Testing_OS1/Consumer_Producer_C_API_Test.hpp ****                 thread_dispatch();
 1565              		.loc 8 48 17 is_stmt 1
 1566              		.loc 8 48 32 is_stmt 0
 1567 028c 97000000 		call	_Z15thread_dispatchv@plt
 1567      E7800000 
 1568              	.LVL144:
 1569              	.L78:
  43:src/Code/../../h/Testing/Testing_OS1/Consumer_Producer_C_API_Test.hpp ****         while (!threadEnd) {
 1570              		.loc 8 43 9 is_stmt 1
  43:src/Code/../../h/Testing/Testing_OS1/Consumer_Producer_C_API_Test.hpp ****         while (!threadEnd) {
 1571              		.loc 8 43 16
 1572 0294 97070000 		lw	a5,.LANCHOR0+4
 1572      83A70700 
 1573 029c 639E0702 		bnez	a5,.L79
  44:src/Code/../../h/Testing/Testing_OS1/Consumer_Producer_C_API_Test.hpp ****             i++;
 1574              		.loc 8 44 13
  44:src/Code/../../h/Testing/Testing_OS1/Consumer_Producer_C_API_Test.hpp ****             i++;
 1575              		.loc 8 44 37 is_stmt 0
 1576 02a0 83A50400 		lw	a1,0(s1)
  44:src/Code/../../h/Testing/Testing_OS1/Consumer_Producer_C_API_Test.hpp ****             i++;
 1577              		.loc 8 44 30
 1578 02a4 9B850503 		addiw	a1,a1,48
 1579 02a8 03B58400 		ld	a0,8(s1)
 1580 02ac 97000000 		call	_ZN13BufferTestCPP9BufferCPP3putEi@plt
 1580      E7800000 
 1581              	.LVL145:
  45:src/Code/../../h/Testing/Testing_OS1/Consumer_Producer_C_API_Test.hpp **** 
 1582              		.loc 8 45 13 is_stmt 1
  45:src/Code/../../h/Testing/Testing_OS1/Consumer_Producer_C_API_Test.hpp **** 
 1583              		.loc 8 45 14 is_stmt 0
 1584 02b4 1B071900 		addiw	a4,s2,1
 1585 02b8 1B090700 		sext.w	s2,a4
 1586              	.LVL146:
  47:src/Code/../../h/Testing/Testing_OS1/Consumer_Producer_C_API_Test.hpp ****                 thread_dispatch();
 1587              		.loc 8 47 13 is_stmt 1
  47:src/Code/../../h/Testing/Testing_OS1/Consumer_Producer_C_API_Test.hpp ****                 thread_dispatch();
 1588              		.loc 8 47 33 is_stmt 0
 1589 02bc 83A60400 		lw	a3,0(s1)
  47:src/Code/../../h/Testing/Testing_OS1/Consumer_Producer_C_API_Test.hpp ****                 thread_dispatch();
 1590              		.loc 8 47 25
 1591 02c0 9B972600 		slliw	a5,a3,2
 1592 02c4 BB87D700 		addw	a5,a5,a3
 1593 02c8 9B971700 		slliw	a5,a5,1
  47:src/Code/../../h/Testing/Testing_OS1/Consumer_Producer_C_API_Test.hpp ****                 thread_dispatch();
 1594              		.loc 8 47 19
 1595 02cc BB67F702 		remw	a5,a4,a5
  47:src/Code/../../h/Testing/Testing_OS1/Consumer_Producer_C_API_Test.hpp ****                 thread_dispatch();
 1596              		.loc 8 47 13
 1597 02d0 E39207FC 		bnez	a5,.L78
 1598 02d4 6FF09FFB 		j	.L82
 1599              	.LVL147:
 1600              	.L79:
  49:src/Code/../../h/Testing/Testing_OS1/Consumer_Producer_C_API_Test.hpp ****             }
GAS LISTING /tmp/ccBYUnRY.s 			page 38


  50:src/Code/../../h/Testing/Testing_OS1/Consumer_Producer_C_API_Test.hpp ****         }
  51:src/Code/../../h/Testing/Testing_OS1/Consumer_Producer_C_API_Test.hpp **** 
  52:src/Code/../../h/Testing/Testing_OS1/Consumer_Producer_C_API_Test.hpp ****         sem_signal(data->wait);
 1601              		.loc 8 52 9 is_stmt 1
 1602              		.loc 8 52 19 is_stmt 0
 1603 02d8 03B50401 		ld	a0,16(s1)
 1604 02dc 97000000 		call	_Z10sem_signalP3sem@plt
 1604      E7800000 
 1605              	.LVL148:
  53:src/Code/../../h/Testing/Testing_OS1/Consumer_Producer_C_API_Test.hpp ****     }
 1606              		.loc 8 53 5
 1607 02e4 83308101 		ld	ra,24(sp)
 1608              		.cfi_restore 1
 1609 02e8 03340101 		ld	s0,16(sp)
 1610              		.cfi_restore 8
 1611              		.cfi_def_cfa 2, 32
 1612 02ec 83348100 		ld	s1,8(sp)
 1613              		.cfi_restore 9
 1614              	.LVL149:
 1615 02f0 03390100 		ld	s2,0(sp)
 1616              		.cfi_restore 18
 1617              	.LVL150:
 1618 02f4 13010102 		addi	sp,sp,32
 1619              		.cfi_def_cfa_offset 0
 1620 02f8 67800000 		jr	ra
 1621              		.cfi_endproc
 1622              	.LFE79:
 1624              		.align	2
 1625              		.globl	_ZN21ConsumerProducerSyncC8consumerEPv
 1627              	_ZN21ConsumerProducerSyncC8consumerEPv:
 1628              	.LFB80:
  54:src/Code/../../h/Testing/Testing_OS1/Consumer_Producer_C_API_Test.hpp **** 
  55:src/Code/../../h/Testing/Testing_OS1/Consumer_Producer_C_API_Test.hpp ****     void consumer(void *arg) {
 1629              		.loc 8 55 30 is_stmt 1
 1630              		.cfi_startproc
 1631              	.LVL151:
 1632 02fc 130101FD 		addi	sp,sp,-48
 1633              		.cfi_def_cfa_offset 48
 1634 0300 23341102 		sd	ra,40(sp)
 1635 0304 23308102 		sd	s0,32(sp)
 1636 0308 233C9100 		sd	s1,24(sp)
 1637 030c 23382101 		sd	s2,16(sp)
 1638 0310 23343101 		sd	s3,8(sp)
 1639              		.cfi_offset 1, -8
 1640              		.cfi_offset 8, -16
 1641              		.cfi_offset 9, -24
 1642              		.cfi_offset 18, -32
 1643              		.cfi_offset 19, -40
 1644 0314 13040103 		addi	s0,sp,48
 1645              		.cfi_def_cfa 8, 0
 1646 0318 13090500 		mv	s2,a0
  56:src/Code/../../h/Testing/Testing_OS1/Consumer_Producer_C_API_Test.hpp ****         struct thread_data *data = (struct thread_data *) arg;
 1647              		.loc 8 56 9
 1648              	.LVL152:
  57:src/Code/../../h/Testing/Testing_OS1/Consumer_Producer_C_API_Test.hpp **** 
  58:src/Code/../../h/Testing/Testing_OS1/Consumer_Producer_C_API_Test.hpp ****         int i = 0;
 1649              		.loc 8 58 9
GAS LISTING /tmp/ccBYUnRY.s 			page 39


 1650              		.loc 8 58 13 is_stmt 0
 1651 031c 93090000 		li	s3,0
 1652 0320 6F00C001 		j	.L84
 1653              	.LVL153:
 1654              	.L90:
 1655              	.LBB179:
  59:src/Code/../../h/Testing/Testing_OS1/Consumer_Producer_C_API_Test.hpp ****         while (!threadEnd) {
  60:src/Code/../../h/Testing/Testing_OS1/Consumer_Producer_C_API_Test.hpp ****             int key = data->buffer->get();
  61:src/Code/../../h/Testing/Testing_OS1/Consumer_Producer_C_API_Test.hpp ****             i++;
  62:src/Code/../../h/Testing/Testing_OS1/Consumer_Producer_C_API_Test.hpp **** 
  63:src/Code/../../h/Testing/Testing_OS1/Consumer_Producer_C_API_Test.hpp ****             putc(key);
  64:src/Code/../../h/Testing/Testing_OS1/Consumer_Producer_C_API_Test.hpp **** 
  65:src/Code/../../h/Testing/Testing_OS1/Consumer_Producer_C_API_Test.hpp ****             if (i % (5 * data->id) == 0) {
  66:src/Code/../../h/Testing/Testing_OS1/Consumer_Producer_C_API_Test.hpp ****                 thread_dispatch();
 1656              		.loc 8 66 17 is_stmt 1
 1657              		.loc 8 66 32 is_stmt 0
 1658 0324 97000000 		call	_Z15thread_dispatchv@plt
 1658      E7800000 
 1659              	.LVL154:
 1660 032c 6F000005 		j	.L86
 1661              	.LVL155:
 1662              	.L91:
  67:src/Code/../../h/Testing/Testing_OS1/Consumer_Producer_C_API_Test.hpp ****             }
  68:src/Code/../../h/Testing/Testing_OS1/Consumer_Producer_C_API_Test.hpp **** 
  69:src/Code/../../h/Testing/Testing_OS1/Consumer_Producer_C_API_Test.hpp ****             if (i % 80 == 0) {
  70:src/Code/../../h/Testing/Testing_OS1/Consumer_Producer_C_API_Test.hpp ****                 putc('\n');
 1663              		.loc 8 70 17 is_stmt 1
 1664              		.loc 8 70 21 is_stmt 0
 1665 0330 1305A000 		li	a0,10
 1666 0334 97000000 		call	_Z4putcc@plt
 1666      E7800000 
 1667              	.LVL156:
 1668              	.L84:
 1669              	.LBE179:
  59:src/Code/../../h/Testing/Testing_OS1/Consumer_Producer_C_API_Test.hpp ****         while (!threadEnd) {
 1670              		.loc 8 59 9 is_stmt 1
  59:src/Code/../../h/Testing/Testing_OS1/Consumer_Producer_C_API_Test.hpp ****         while (!threadEnd) {
 1671              		.loc 8 59 16
 1672 033c 97070000 		lw	a5,.LANCHOR0+4
 1672      83A70700 
 1673 0344 63900706 		bnez	a5,.L85
 1674              	.LBB180:
  60:src/Code/../../h/Testing/Testing_OS1/Consumer_Producer_C_API_Test.hpp ****             i++;
 1675              		.loc 8 60 13
  60:src/Code/../../h/Testing/Testing_OS1/Consumer_Producer_C_API_Test.hpp ****             i++;
 1676              		.loc 8 60 40 is_stmt 0
 1677 0348 03358900 		ld	a0,8(s2)
 1678 034c 97000000 		call	_ZN13BufferTestCPP9BufferCPP3getEv@plt
 1678      E7800000 
 1679              	.LVL157:
  61:src/Code/../../h/Testing/Testing_OS1/Consumer_Producer_C_API_Test.hpp **** 
 1680              		.loc 8 61 13 is_stmt 1
  61:src/Code/../../h/Testing/Testing_OS1/Consumer_Producer_C_API_Test.hpp **** 
 1681              		.loc 8 61 14 is_stmt 0
 1682 0354 9B841900 		addiw	s1,s3,1
 1683 0358 9B890400 		sext.w	s3,s1
 1684              	.LVL158:
GAS LISTING /tmp/ccBYUnRY.s 			page 40


  63:src/Code/../../h/Testing/Testing_OS1/Consumer_Producer_C_API_Test.hpp **** 
 1685              		.loc 8 63 13 is_stmt 1
  63:src/Code/../../h/Testing/Testing_OS1/Consumer_Producer_C_API_Test.hpp **** 
 1686              		.loc 8 63 17 is_stmt 0
 1687 035c 1375F50F 		andi	a0,a0,0xff
 1688              	.LVL159:
 1689 0360 97000000 		call	_Z4putcc@plt
 1689      E7800000 
 1690              	.LVL160:
  65:src/Code/../../h/Testing/Testing_OS1/Consumer_Producer_C_API_Test.hpp ****                 thread_dispatch();
 1691              		.loc 8 65 13 is_stmt 1
  65:src/Code/../../h/Testing/Testing_OS1/Consumer_Producer_C_API_Test.hpp ****                 thread_dispatch();
 1692              		.loc 8 65 32 is_stmt 0
 1693 0368 03270900 		lw	a4,0(s2)
  65:src/Code/../../h/Testing/Testing_OS1/Consumer_Producer_C_API_Test.hpp ****                 thread_dispatch();
 1694              		.loc 8 65 24
 1695 036c 9B172700 		slliw	a5,a4,2
 1696 0370 BB87E700 		addw	a5,a5,a4
  65:src/Code/../../h/Testing/Testing_OS1/Consumer_Producer_C_API_Test.hpp ****                 thread_dispatch();
 1697              		.loc 8 65 19
 1698 0374 BBE7F402 		remw	a5,s1,a5
  65:src/Code/../../h/Testing/Testing_OS1/Consumer_Producer_C_API_Test.hpp ****                 thread_dispatch();
 1699              		.loc 8 65 13
 1700 0378 E38607FA 		beqz	a5,.L90
 1701              	.L86:
  69:src/Code/../../h/Testing/Testing_OS1/Consumer_Producer_C_API_Test.hpp ****                 putc('\n');
 1702              		.loc 8 69 13 is_stmt 1
  69:src/Code/../../h/Testing/Testing_OS1/Consumer_Producer_C_API_Test.hpp ****                 putc('\n');
 1703              		.loc 8 69 19 is_stmt 0
 1704 037c 93070005 		li	a5,80
 1705 0380 BBE4F402 		remw	s1,s1,a5
 1706              	.LVL161:
  69:src/Code/../../h/Testing/Testing_OS1/Consumer_Producer_C_API_Test.hpp ****                 putc('\n');
 1707              		.loc 8 69 13
 1708 0384 E39C04FA 		bnez	s1,.L84
 1709 0388 6FF09FFA 		j	.L91
 1710              	.L92:
 1711              	.LBE180:
 1712              	.LBB181:
  71:src/Code/../../h/Testing/Testing_OS1/Consumer_Producer_C_API_Test.hpp ****             }
  72:src/Code/../../h/Testing/Testing_OS1/Consumer_Producer_C_API_Test.hpp ****         }
  73:src/Code/../../h/Testing/Testing_OS1/Consumer_Producer_C_API_Test.hpp **** 
  74:src/Code/../../h/Testing/Testing_OS1/Consumer_Producer_C_API_Test.hpp ****         while (data->buffer->getCnt() > 0) {
  75:src/Code/../../h/Testing/Testing_OS1/Consumer_Producer_C_API_Test.hpp ****             int key = data->buffer->get();
 1713              		.loc 8 75 13 is_stmt 1
 1714              		.loc 8 75 40 is_stmt 0
 1715 038c 03358900 		ld	a0,8(s2)
 1716 0390 97000000 		call	_ZN13BufferTestCPP9BufferCPP3getEv@plt
 1716      E7800000 
 1717              	.LVL162:
  76:src/Code/../../h/Testing/Testing_OS1/Consumer_Producer_C_API_Test.hpp ****             putc(key);
 1718              		.loc 8 76 13 is_stmt 1
 1719              		.loc 8 76 17 is_stmt 0
 1720 0398 1375F50F 		andi	a0,a0,0xff
 1721              	.LVL163:
 1722 039c 97000000 		call	_Z4putcc@plt
 1722      E7800000 
GAS LISTING /tmp/ccBYUnRY.s 			page 41


 1723              	.LVL164:
 1724              	.L85:
 1725              	.LBE181:
  74:src/Code/../../h/Testing/Testing_OS1/Consumer_Producer_C_API_Test.hpp ****             int key = data->buffer->get();
 1726              		.loc 8 74 9 is_stmt 1
  74:src/Code/../../h/Testing/Testing_OS1/Consumer_Producer_C_API_Test.hpp ****             int key = data->buffer->get();
 1727              		.loc 8 74 39
  74:src/Code/../../h/Testing/Testing_OS1/Consumer_Producer_C_API_Test.hpp ****             int key = data->buffer->get();
 1728              		.loc 8 74 36 is_stmt 0
 1729 03a4 03358900 		ld	a0,8(s2)
 1730 03a8 97000000 		call	_ZN13BufferTestCPP9BufferCPP6getCntEv@plt
 1730      E7800000 
 1731              	.LVL165:
  74:src/Code/../../h/Testing/Testing_OS1/Consumer_Producer_C_API_Test.hpp ****             int key = data->buffer->get();
 1732              		.loc 8 74 39
 1733 03b0 E34EA0FC 		bgtz	a0,.L92
  77:src/Code/../../h/Testing/Testing_OS1/Consumer_Producer_C_API_Test.hpp ****         }
  78:src/Code/../../h/Testing/Testing_OS1/Consumer_Producer_C_API_Test.hpp **** 
  79:src/Code/../../h/Testing/Testing_OS1/Consumer_Producer_C_API_Test.hpp ****         sem_signal(data->wait);
 1734              		.loc 8 79 9 is_stmt 1
 1735              		.loc 8 79 19 is_stmt 0
 1736 03b4 03350901 		ld	a0,16(s2)
 1737 03b8 97000000 		call	_Z10sem_signalP3sem@plt
 1737      E7800000 
 1738              	.LVL166:
  80:src/Code/../../h/Testing/Testing_OS1/Consumer_Producer_C_API_Test.hpp ****     }
 1739              		.loc 8 80 5
 1740 03c0 83308102 		ld	ra,40(sp)
 1741              		.cfi_restore 1
 1742 03c4 03340102 		ld	s0,32(sp)
 1743              		.cfi_restore 8
 1744              		.cfi_def_cfa 2, 48
 1745 03c8 83348101 		ld	s1,24(sp)
 1746              		.cfi_restore 9
 1747 03cc 03390101 		ld	s2,16(sp)
 1748              		.cfi_restore 18
 1749              	.LVL167:
 1750 03d0 83398100 		ld	s3,8(sp)
 1751              		.cfi_restore 19
 1752              	.LVL168:
 1753 03d4 13010103 		addi	sp,sp,48
 1754              		.cfi_def_cfa_offset 0
 1755 03d8 67800000 		jr	ra
 1756              		.cfi_endproc
 1757              	.LFE80:
 1759              		.section	.text._ZN24ConsumerProducerAsyncCPP16ProducerKeyborad3runEv,"axG",@progbits,_ZN24Consumer
 1760              		.align	2
 1761              		.weak	_ZN24ConsumerProducerAsyncCPP16ProducerKeyborad3runEv
 1763              	_ZN24ConsumerProducerAsyncCPP16ProducerKeyborad3runEv:
 1764              	.LFB103:
  25:src/Code/../../h/Testing/Testing_OS1/Consumer_Producer_CPP_API_Test.hpp ****             int key;
 1765              		.loc 5 25 14 is_stmt 1
 1766              		.cfi_startproc
 1767              	.LVL169:
 1768 0000 130101FE 		addi	sp,sp,-32
 1769              		.cfi_def_cfa_offset 32
 1770 0004 233C1100 		sd	ra,24(sp)
GAS LISTING /tmp/ccBYUnRY.s 			page 42


 1771 0008 23388100 		sd	s0,16(sp)
 1772 000c 23349100 		sd	s1,8(sp)
 1773              		.cfi_offset 1, -8
 1774              		.cfi_offset 8, -16
 1775              		.cfi_offset 9, -24
 1776 0010 13040102 		addi	s0,sp,32
 1777              		.cfi_def_cfa 8, 0
 1778 0014 93040500 		mv	s1,a0
  26:src/Code/../../h/Testing/Testing_OS1/Consumer_Producer_CPP_API_Test.hpp ****             int i = 0;
 1779              		.loc 5 26 13
  27:src/Code/../../h/Testing/Testing_OS1/Consumer_Producer_CPP_API_Test.hpp ****             while ((key = getc()) != 0x1b) {
 1780              		.loc 5 27 13
 1781              	.LVL170:
 1782              	.L95:
  28:src/Code/../../h/Testing/Testing_OS1/Consumer_Producer_CPP_API_Test.hpp ****                 td->buffer->put(key);
 1783              		.loc 5 28 13
  28:src/Code/../../h/Testing/Testing_OS1/Consumer_Producer_CPP_API_Test.hpp ****                 td->buffer->put(key);
 1784              		.loc 5 28 35
  28:src/Code/../../h/Testing/Testing_OS1/Consumer_Producer_CPP_API_Test.hpp ****                 td->buffer->put(key);
 1785              		.loc 5 28 31 is_stmt 0
 1786 0018 97000000 		call	_Z4getcv@plt
 1786      E7800000 
 1787              	.LVL171:
  28:src/Code/../../h/Testing/Testing_OS1/Consumer_Producer_CPP_API_Test.hpp ****                 td->buffer->put(key);
 1788              		.loc 5 28 25
 1789 0020 9B050500 		sext.w	a1,a0
 1790              	.LVL172:
  28:src/Code/../../h/Testing/Testing_OS1/Consumer_Producer_CPP_API_Test.hpp ****                 td->buffer->put(key);
 1791              		.loc 5 28 35
 1792 0024 9307B001 		li	a5,27
 1793 0028 638CF500 		beq	a1,a5,.L94
  29:src/Code/../../h/Testing/Testing_OS1/Consumer_Producer_CPP_API_Test.hpp ****                 i++;
 1794              		.loc 5 29 17 is_stmt 1
 1795 002c 83B70401 		ld	a5,16(s1)
  29:src/Code/../../h/Testing/Testing_OS1/Consumer_Producer_CPP_API_Test.hpp ****                 i++;
 1796              		.loc 5 29 32 is_stmt 0
 1797 0030 03B58700 		ld	a0,8(a5)
 1798 0034 97000000 		call	_ZN13BufferTestCPP9BufferCPP3putEi@plt
 1798      E7800000 
 1799              	.LVL173:
  30:src/Code/../../h/Testing/Testing_OS1/Consumer_Producer_CPP_API_Test.hpp ****             }
 1800              		.loc 5 30 17 is_stmt 1
  28:src/Code/../../h/Testing/Testing_OS1/Consumer_Producer_CPP_API_Test.hpp ****                 td->buffer->put(key);
 1801              		.loc 5 28 13 is_stmt 0
 1802 003c 6FF0DFFD 		j	.L95
 1803              	.LVL174:
 1804              	.L94:
  33:src/Code/../../h/Testing/Testing_OS1/Consumer_Producer_CPP_API_Test.hpp ****             td->buffer->put('!');
 1805              		.loc 5 33 13 is_stmt 1
  33:src/Code/../../h/Testing/Testing_OS1/Consumer_Producer_CPP_API_Test.hpp ****             td->buffer->put('!');
 1806              		.loc 5 33 23 is_stmt 0
 1807 0040 93071000 		li	a5,1
 1808 0044 17070000 		sw	a5,.LANCHOR0+8,a4
 1808      2320F700 
  34:src/Code/../../h/Testing/Testing_OS1/Consumer_Producer_CPP_API_Test.hpp **** 
 1809              		.loc 5 34 13 is_stmt 1
 1810 004c 83B70401 		ld	a5,16(s1)
GAS LISTING /tmp/ccBYUnRY.s 			page 43


  34:src/Code/../../h/Testing/Testing_OS1/Consumer_Producer_CPP_API_Test.hpp **** 
 1811              		.loc 5 34 28 is_stmt 0
 1812 0050 93051002 		li	a1,33
 1813              	.LVL175:
 1814 0054 03B58700 		ld	a0,8(a5)
 1815              	.LVL176:
 1816 0058 97000000 		call	_ZN13BufferTestCPP9BufferCPP3putEi@plt
 1816      E7800000 
 1817              	.LVL177:
  36:src/Code/../../h/Testing/Testing_OS1/Consumer_Producer_CPP_API_Test.hpp ****         }
 1818              		.loc 5 36 13 is_stmt 1
 1819 0060 83B70401 		ld	a5,16(s1)
  36:src/Code/../../h/Testing/Testing_OS1/Consumer_Producer_CPP_API_Test.hpp ****         }
 1820              		.loc 5 36 28 is_stmt 0
 1821 0064 03B50701 		ld	a0,16(a5)
 1822 0068 97000000 		call	_ZN9Semaphore6signalEv@plt
 1822      E7800000 
 1823              	.LVL178:
  37:src/Code/../../h/Testing/Testing_OS1/Consumer_Producer_CPP_API_Test.hpp ****     };
 1824              		.loc 5 37 9
 1825 0070 83308101 		ld	ra,24(sp)
 1826              		.cfi_restore 1
 1827 0074 03340101 		ld	s0,16(sp)
 1828              		.cfi_restore 8
 1829              		.cfi_def_cfa 2, 32
 1830 0078 83348100 		ld	s1,8(sp)
 1831              		.cfi_restore 9
 1832              	.LVL179:
 1833 007c 13010102 		addi	sp,sp,32
 1834              		.cfi_def_cfa_offset 0
 1835 0080 67800000 		jr	ra
 1836              		.cfi_endproc
 1837              	.LFE103:
 1839              		.section	.text._ZN24ConsumerProducerAsyncCPP8Consumer3runEv,"axG",@progbits,_ZN24ConsumerProducerA
 1840              		.align	2
 1841              		.weak	_ZN24ConsumerProducerAsyncCPP8Consumer3runEv
 1843              	_ZN24ConsumerProducerAsyncCPP8Consumer3runEv:
 1844              	.LFB111:
  58:src/Code/../../h/Testing/Testing_OS1/Consumer_Producer_CPP_API_Test.hpp ****         thread_data *td;
  59:src/Code/../../h/Testing/Testing_OS1/Consumer_Producer_CPP_API_Test.hpp ****     public:
  60:src/Code/../../h/Testing/Testing_OS1/Consumer_Producer_CPP_API_Test.hpp ****         Consumer(thread_data *_td) : Thread(), td(_td) {}
  61:src/Code/../../h/Testing/Testing_OS1/Consumer_Producer_CPP_API_Test.hpp **** 
  62:src/Code/../../h/Testing/Testing_OS1/Consumer_Producer_CPP_API_Test.hpp ****         void run() override {
 1845              		.loc 5 62 14 is_stmt 1
 1846              		.cfi_startproc
 1847              	.LVL180:
 1848 0000 130101FD 		addi	sp,sp,-48
 1849              		.cfi_def_cfa_offset 48
 1850 0004 23341102 		sd	ra,40(sp)
 1851 0008 23308102 		sd	s0,32(sp)
 1852 000c 233C9100 		sd	s1,24(sp)
 1853 0010 23382101 		sd	s2,16(sp)
 1854 0014 23343101 		sd	s3,8(sp)
 1855              		.cfi_offset 1, -8
 1856              		.cfi_offset 8, -16
 1857              		.cfi_offset 9, -24
 1858              		.cfi_offset 18, -32
GAS LISTING /tmp/ccBYUnRY.s 			page 44


 1859              		.cfi_offset 19, -40
 1860 0018 13040103 		addi	s0,sp,48
 1861              		.cfi_def_cfa 8, 0
 1862 001c 13090500 		mv	s2,a0
  63:src/Code/../../h/Testing/Testing_OS1/Consumer_Producer_CPP_API_Test.hpp ****             int i = 0;
 1863              		.loc 5 63 13
 1864              	.LVL181:
 1865              		.loc 5 63 17 is_stmt 0
 1866 0020 93090000 		li	s3,0
 1867 0024 6F000001 		j	.L98
 1868              	.LVL182:
 1869              	.L103:
 1870              	.LBB182:
  64:src/Code/../../h/Testing/Testing_OS1/Consumer_Producer_CPP_API_Test.hpp ****             while (!threadEnd) {
  65:src/Code/../../h/Testing/Testing_OS1/Consumer_Producer_CPP_API_Test.hpp ****                 int key = td->buffer->get();
  66:src/Code/../../h/Testing/Testing_OS1/Consumer_Producer_CPP_API_Test.hpp ****                 i++;
  67:src/Code/../../h/Testing/Testing_OS1/Consumer_Producer_CPP_API_Test.hpp **** 
  68:src/Code/../../h/Testing/Testing_OS1/Consumer_Producer_CPP_API_Test.hpp ****                 Console::putc(key);
  69:src/Code/../../h/Testing/Testing_OS1/Consumer_Producer_CPP_API_Test.hpp **** 
  70:src/Code/../../h/Testing/Testing_OS1/Consumer_Producer_CPP_API_Test.hpp ****                 if (i % 80 == 0) {
  71:src/Code/../../h/Testing/Testing_OS1/Consumer_Producer_CPP_API_Test.hpp ****                     Console::putc('\n');
 1871              		.loc 5 71 21 is_stmt 1
 1872              		.loc 5 71 34 is_stmt 0
 1873 0028 1305A000 		li	a0,10
 1874 002c 97000000 		call	_ZN7Console4putcEc@plt
 1874      E7800000 
 1875              	.LVL183:
 1876              	.L98:
 1877              	.LBE182:
  64:src/Code/../../h/Testing/Testing_OS1/Consumer_Producer_CPP_API_Test.hpp ****             while (!threadEnd) {
 1878              		.loc 5 64 13 is_stmt 1
  64:src/Code/../../h/Testing/Testing_OS1/Consumer_Producer_CPP_API_Test.hpp ****             while (!threadEnd) {
 1879              		.loc 5 64 20
 1880 0034 97070000 		lw	a5,.LANCHOR0+8
 1880      83A70700 
 1881 003c 639A0704 		bnez	a5,.L99
 1882              	.LBB183:
  65:src/Code/../../h/Testing/Testing_OS1/Consumer_Producer_CPP_API_Test.hpp ****                 i++;
 1883              		.loc 5 65 17
  65:src/Code/../../h/Testing/Testing_OS1/Consumer_Producer_CPP_API_Test.hpp ****                 i++;
 1884              		.loc 5 65 27 is_stmt 0
 1885 0040 83370901 		ld	a5,16(s2)
  65:src/Code/../../h/Testing/Testing_OS1/Consumer_Producer_CPP_API_Test.hpp ****                 i++;
 1886              		.loc 5 65 42
 1887 0044 03B58700 		ld	a0,8(a5)
 1888 0048 97000000 		call	_ZN13BufferTestCPP9BufferCPP3getEv@plt
 1888      E7800000 
 1889              	.LVL184:
  66:src/Code/../../h/Testing/Testing_OS1/Consumer_Producer_CPP_API_Test.hpp **** 
 1890              		.loc 5 66 17 is_stmt 1
  66:src/Code/../../h/Testing/Testing_OS1/Consumer_Producer_CPP_API_Test.hpp **** 
 1891              		.loc 5 66 18 is_stmt 0
 1892 0050 9B841900 		addiw	s1,s3,1
 1893 0054 9B890400 		sext.w	s3,s1
 1894              	.LVL185:
  68:src/Code/../../h/Testing/Testing_OS1/Consumer_Producer_CPP_API_Test.hpp **** 
 1895              		.loc 5 68 17 is_stmt 1
GAS LISTING /tmp/ccBYUnRY.s 			page 45


  68:src/Code/../../h/Testing/Testing_OS1/Consumer_Producer_CPP_API_Test.hpp **** 
 1896              		.loc 5 68 30 is_stmt 0
 1897 0058 1375F50F 		andi	a0,a0,0xff
 1898              	.LVL186:
 1899 005c 97000000 		call	_ZN7Console4putcEc@plt
 1899      E7800000 
 1900              	.LVL187:
  70:src/Code/../../h/Testing/Testing_OS1/Consumer_Producer_CPP_API_Test.hpp ****                     Console::putc('\n');
 1901              		.loc 5 70 17 is_stmt 1
  70:src/Code/../../h/Testing/Testing_OS1/Consumer_Producer_CPP_API_Test.hpp ****                     Console::putc('\n');
 1902              		.loc 5 70 23 is_stmt 0
 1903 0064 93070005 		li	a5,80
 1904 0068 BBE4F402 		remw	s1,s1,a5
 1905              	.LVL188:
  70:src/Code/../../h/Testing/Testing_OS1/Consumer_Producer_CPP_API_Test.hpp ****                     Console::putc('\n');
 1906              		.loc 5 70 17
 1907 006c E39404FC 		bnez	s1,.L98
 1908 0070 6FF09FFB 		j	.L103
 1909              	.L104:
 1910              	.LBE183:
 1911              	.LBB184:
  72:src/Code/../../h/Testing/Testing_OS1/Consumer_Producer_CPP_API_Test.hpp ****                 }
  73:src/Code/../../h/Testing/Testing_OS1/Consumer_Producer_CPP_API_Test.hpp ****             }
  74:src/Code/../../h/Testing/Testing_OS1/Consumer_Producer_CPP_API_Test.hpp **** 
  75:src/Code/../../h/Testing/Testing_OS1/Consumer_Producer_CPP_API_Test.hpp ****             while (td->buffer->getCnt() > 0) {
  76:src/Code/../../h/Testing/Testing_OS1/Consumer_Producer_CPP_API_Test.hpp ****                 int key = td->buffer->get();
 1912              		.loc 5 76 17 is_stmt 1
 1913              		.loc 5 76 27 is_stmt 0
 1914 0074 83370901 		ld	a5,16(s2)
 1915              		.loc 5 76 42
 1916 0078 03B58700 		ld	a0,8(a5)
 1917 007c 97000000 		call	_ZN13BufferTestCPP9BufferCPP3getEv@plt
 1917      E7800000 
 1918              	.LVL189:
  77:src/Code/../../h/Testing/Testing_OS1/Consumer_Producer_CPP_API_Test.hpp ****                 Console::putc(key);
 1919              		.loc 5 77 17 is_stmt 1
 1920              		.loc 5 77 30 is_stmt 0
 1921 0084 1375F50F 		andi	a0,a0,0xff
 1922              	.LVL190:
 1923 0088 97000000 		call	_ZN7Console4putcEc@plt
 1923      E7800000 
 1924              	.LVL191:
 1925              	.L99:
 1926              	.LBE184:
  75:src/Code/../../h/Testing/Testing_OS1/Consumer_Producer_CPP_API_Test.hpp ****                 int key = td->buffer->get();
 1927              		.loc 5 75 13 is_stmt 1
  75:src/Code/../../h/Testing/Testing_OS1/Consumer_Producer_CPP_API_Test.hpp ****                 int key = td->buffer->get();
 1928              		.loc 5 75 41
  75:src/Code/../../h/Testing/Testing_OS1/Consumer_Producer_CPP_API_Test.hpp ****                 int key = td->buffer->get();
 1929              		.loc 5 75 20 is_stmt 0
 1930 0090 83370901 		ld	a5,16(s2)
  75:src/Code/../../h/Testing/Testing_OS1/Consumer_Producer_CPP_API_Test.hpp ****                 int key = td->buffer->get();
 1931              		.loc 5 75 38
 1932 0094 03B58700 		ld	a0,8(a5)
 1933 0098 97000000 		call	_ZN13BufferTestCPP9BufferCPP6getCntEv@plt
 1933      E7800000 
 1934              	.LVL192:
GAS LISTING /tmp/ccBYUnRY.s 			page 46


  75:src/Code/../../h/Testing/Testing_OS1/Consumer_Producer_CPP_API_Test.hpp ****                 int key = td->buffer->get();
 1935              		.loc 5 75 41
 1936 00a0 E34AA0FC 		bgtz	a0,.L104
  78:src/Code/../../h/Testing/Testing_OS1/Consumer_Producer_CPP_API_Test.hpp ****             }
  79:src/Code/../../h/Testing/Testing_OS1/Consumer_Producer_CPP_API_Test.hpp **** 
  80:src/Code/../../h/Testing/Testing_OS1/Consumer_Producer_CPP_API_Test.hpp ****             td->sem->signal();
 1937              		.loc 5 80 13 is_stmt 1
 1938 00a4 83370901 		ld	a5,16(s2)
 1939              		.loc 5 80 28 is_stmt 0
 1940 00a8 03B50701 		ld	a0,16(a5)
 1941 00ac 97000000 		call	_ZN9Semaphore6signalEv@plt
 1941      E7800000 
 1942              	.LVL193:
  81:src/Code/../../h/Testing/Testing_OS1/Consumer_Producer_CPP_API_Test.hpp ****         }
 1943              		.loc 5 81 9
 1944 00b4 83308102 		ld	ra,40(sp)
 1945              		.cfi_restore 1
 1946 00b8 03340102 		ld	s0,32(sp)
 1947              		.cfi_restore 8
 1948              		.cfi_def_cfa 2, 48
 1949 00bc 83348101 		ld	s1,24(sp)
 1950              		.cfi_restore 9
 1951 00c0 03390101 		ld	s2,16(sp)
 1952              		.cfi_restore 18
 1953              	.LVL194:
 1954 00c4 83398100 		ld	s3,8(sp)
 1955              		.cfi_restore 19
 1956              	.LVL195:
 1957 00c8 13010103 		addi	sp,sp,48
 1958              		.cfi_def_cfa_offset 0
 1959 00cc 67800000 		jr	ra
 1960              		.cfi_endproc
 1961              	.LFE111:
 1963              		.section	.text._ZN19PeriodicThreadsTest1A18periodicActivationEv,"axG",@progbits,_ZN19PeriodicThrea
 1964              		.align	2
 1965              		.weak	_ZN19PeriodicThreadsTest1A18periodicActivationEv
 1967              	_ZN19PeriodicThreadsTest1A18periodicActivationEv:
 1968              	.LFB121:
  24:src/Code/../../h/Testing/Testing_OS1/Periodic_Threads_CPP_API_Test.hpp ****             myOwnMutex->wait();
 1969              		.loc 6 24 14 is_stmt 1
 1970              		.cfi_startproc
 1971              	.LVL196:
 1972 0000 130101FE 		addi	sp,sp,-32
 1973              		.cfi_def_cfa_offset 32
 1974 0004 233C1100 		sd	ra,24(sp)
 1975 0008 23388100 		sd	s0,16(sp)
 1976 000c 23349100 		sd	s1,8(sp)
 1977              		.cfi_offset 1, -8
 1978              		.cfi_offset 8, -16
 1979              		.cfi_offset 9, -24
 1980 0010 13040102 		addi	s0,sp,32
 1981              		.cfi_def_cfa 8, 0
  25:src/Code/../../h/Testing/Testing_OS1/Periodic_Threads_CPP_API_Test.hpp ****             putc('A');
 1982              		.loc 6 25 13
  25:src/Code/../../h/Testing/Testing_OS1/Periodic_Threads_CPP_API_Test.hpp ****             putc('A');
 1983              		.loc 6 25 29 is_stmt 0
 1984 0014 97040000 		lla	s1,.LANCHOR0
GAS LISTING /tmp/ccBYUnRY.s 			page 47


 1984      93840400 
 1985 001c 03B50401 		ld	a0,16(s1)
 1986              	.LVL197:
 1987 0020 97000000 		call	_ZN9Semaphore4waitEv@plt
 1987      E7800000 
 1988              	.LVL198:
  26:src/Code/../../h/Testing/Testing_OS1/Periodic_Threads_CPP_API_Test.hpp ****             putc('\n');
 1989              		.loc 6 26 13 is_stmt 1
  26:src/Code/../../h/Testing/Testing_OS1/Periodic_Threads_CPP_API_Test.hpp ****             putc('\n');
 1990              		.loc 6 26 17 is_stmt 0
 1991 0028 13051004 		li	a0,65
 1992 002c 97000000 		call	_Z4putcc@plt
 1992      E7800000 
 1993              	.LVL199:
  27:src/Code/../../h/Testing/Testing_OS1/Periodic_Threads_CPP_API_Test.hpp ****             myOwnMutex->signal();
 1994              		.loc 6 27 13 is_stmt 1
  27:src/Code/../../h/Testing/Testing_OS1/Periodic_Threads_CPP_API_Test.hpp ****             myOwnMutex->signal();
 1995              		.loc 6 27 17 is_stmt 0
 1996 0034 1305A000 		li	a0,10
 1997 0038 97000000 		call	_Z4putcc@plt
 1997      E7800000 
 1998              	.LVL200:
  28:src/Code/../../h/Testing/Testing_OS1/Periodic_Threads_CPP_API_Test.hpp ****         }
 1999              		.loc 6 28 13 is_stmt 1
  28:src/Code/../../h/Testing/Testing_OS1/Periodic_Threads_CPP_API_Test.hpp ****         }
 2000              		.loc 6 28 31 is_stmt 0
 2001 0040 03B50401 		ld	a0,16(s1)
 2002 0044 97000000 		call	_ZN9Semaphore6signalEv@plt
 2002      E7800000 
 2003              	.LVL201:
  29:src/Code/../../h/Testing/Testing_OS1/Periodic_Threads_CPP_API_Test.hpp ****     };
 2004              		.loc 6 29 9
 2005 004c 83308101 		ld	ra,24(sp)
 2006              		.cfi_restore 1
 2007 0050 03340101 		ld	s0,16(sp)
 2008              		.cfi_restore 8
 2009              		.cfi_def_cfa 2, 32
 2010 0054 83348100 		ld	s1,8(sp)
 2011              		.cfi_restore 9
 2012 0058 13010102 		addi	sp,sp,32
 2013              		.cfi_def_cfa_offset 0
 2014 005c 67800000 		jr	ra
 2015              		.cfi_endproc
 2016              	.LFE121:
 2018              		.section	.text._ZN19PeriodicThreadsTest1B18periodicActivationEv,"axG",@progbits,_ZN19PeriodicThrea
 2019              		.align	2
 2020              		.weak	_ZN19PeriodicThreadsTest1B18periodicActivationEv
 2022              	_ZN19PeriodicThreadsTest1B18periodicActivationEv:
 2023              	.LFB126:
  46:src/Code/../../h/Testing/Testing_OS1/Periodic_Threads_CPP_API_Test.hpp ****             myOwnMutex->wait();
 2024              		.loc 6 46 14 is_stmt 1
 2025              		.cfi_startproc
 2026              	.LVL202:
 2027 0000 130101FE 		addi	sp,sp,-32
 2028              		.cfi_def_cfa_offset 32
 2029 0004 233C1100 		sd	ra,24(sp)
 2030 0008 23388100 		sd	s0,16(sp)
GAS LISTING /tmp/ccBYUnRY.s 			page 48


 2031 000c 23349100 		sd	s1,8(sp)
 2032              		.cfi_offset 1, -8
 2033              		.cfi_offset 8, -16
 2034              		.cfi_offset 9, -24
 2035 0010 13040102 		addi	s0,sp,32
 2036              		.cfi_def_cfa 8, 0
  47:src/Code/../../h/Testing/Testing_OS1/Periodic_Threads_CPP_API_Test.hpp ****             putc('B');
 2037              		.loc 6 47 13
  47:src/Code/../../h/Testing/Testing_OS1/Periodic_Threads_CPP_API_Test.hpp ****             putc('B');
 2038              		.loc 6 47 29 is_stmt 0
 2039 0014 97040000 		lla	s1,.LANCHOR0
 2039      93840400 
 2040 001c 03B50401 		ld	a0,16(s1)
 2041              	.LVL203:
 2042 0020 97000000 		call	_ZN9Semaphore4waitEv@plt
 2042      E7800000 
 2043              	.LVL204:
  48:src/Code/../../h/Testing/Testing_OS1/Periodic_Threads_CPP_API_Test.hpp ****             putc('\n');
 2044              		.loc 6 48 13 is_stmt 1
  48:src/Code/../../h/Testing/Testing_OS1/Periodic_Threads_CPP_API_Test.hpp ****             putc('\n');
 2045              		.loc 6 48 17 is_stmt 0
 2046 0028 13052004 		li	a0,66
 2047 002c 97000000 		call	_Z4putcc@plt
 2047      E7800000 
 2048              	.LVL205:
  49:src/Code/../../h/Testing/Testing_OS1/Periodic_Threads_CPP_API_Test.hpp ****             myOwnMutex->signal();
 2049              		.loc 6 49 13 is_stmt 1
  49:src/Code/../../h/Testing/Testing_OS1/Periodic_Threads_CPP_API_Test.hpp ****             myOwnMutex->signal();
 2050              		.loc 6 49 17 is_stmt 0
 2051 0034 1305A000 		li	a0,10
 2052 0038 97000000 		call	_Z4putcc@plt
 2052      E7800000 
 2053              	.LVL206:
  50:src/Code/../../h/Testing/Testing_OS1/Periodic_Threads_CPP_API_Test.hpp ****         }
 2054              		.loc 6 50 13 is_stmt 1
  50:src/Code/../../h/Testing/Testing_OS1/Periodic_Threads_CPP_API_Test.hpp ****         }
 2055              		.loc 6 50 31 is_stmt 0
 2056 0040 03B50401 		ld	a0,16(s1)
 2057 0044 97000000 		call	_ZN9Semaphore6signalEv@plt
 2057      E7800000 
 2058              	.LVL207:
  51:src/Code/../../h/Testing/Testing_OS1/Periodic_Threads_CPP_API_Test.hpp ****     };
 2059              		.loc 6 51 9
 2060 004c 83308101 		ld	ra,24(sp)
 2061              		.cfi_restore 1
 2062 0050 03340101 		ld	s0,16(sp)
 2063              		.cfi_restore 8
 2064              		.cfi_def_cfa 2, 32
 2065 0054 83348100 		ld	s1,8(sp)
 2066              		.cfi_restore 9
 2067 0058 13010102 		addi	sp,sp,32
 2068              		.cfi_def_cfa_offset 0
 2069 005c 67800000 		jr	ra
 2070              		.cfi_endproc
 2071              	.LFE126:
 2073              		.section	.text._ZN19PeriodicThreadsTest1C18periodicActivationEv,"axG",@progbits,_ZN19PeriodicThrea
 2074              		.align	2
GAS LISTING /tmp/ccBYUnRY.s 			page 49


 2075              		.weak	_ZN19PeriodicThreadsTest1C18periodicActivationEv
 2077              	_ZN19PeriodicThreadsTest1C18periodicActivationEv:
 2078              	.LFB131:
  55:src/Code/../../h/Testing/Testing_OS1/Periodic_Threads_CPP_API_Test.hpp ****     public:
  56:src/Code/../../h/Testing/Testing_OS1/Periodic_Threads_CPP_API_Test.hpp ****         explicit C(time_t period) : PeriodicThread(period) {}
  57:src/Code/../../h/Testing/Testing_OS1/Periodic_Threads_CPP_API_Test.hpp **** 
  58:src/Code/../../h/Testing/Testing_OS1/Periodic_Threads_CPP_API_Test.hpp ****     protected:
  59:src/Code/../../h/Testing/Testing_OS1/Periodic_Threads_CPP_API_Test.hpp ****         void run() override {
  60:src/Code/../../h/Testing/Testing_OS1/Periodic_Threads_CPP_API_Test.hpp ****             while (!shouldThisThreadEnd) {
  61:src/Code/../../h/Testing/Testing_OS1/Periodic_Threads_CPP_API_Test.hpp ****                 periodicActivation();
  62:src/Code/../../h/Testing/Testing_OS1/Periodic_Threads_CPP_API_Test.hpp ****                 time_sleep(sleepTime);
  63:src/Code/../../h/Testing/Testing_OS1/Periodic_Threads_CPP_API_Test.hpp ****             }
  64:src/Code/../../h/Testing/Testing_OS1/Periodic_Threads_CPP_API_Test.hpp ****             myOwnWaitForAll->signal();
  65:src/Code/../../h/Testing/Testing_OS1/Periodic_Threads_CPP_API_Test.hpp ****         }
  66:src/Code/../../h/Testing/Testing_OS1/Periodic_Threads_CPP_API_Test.hpp **** 
  67:src/Code/../../h/Testing/Testing_OS1/Periodic_Threads_CPP_API_Test.hpp ****     private:
  68:src/Code/../../h/Testing/Testing_OS1/Periodic_Threads_CPP_API_Test.hpp ****         void periodicActivation() override {
 2079              		.loc 6 68 14 is_stmt 1
 2080              		.cfi_startproc
 2081              	.LVL208:
 2082 0000 130101FE 		addi	sp,sp,-32
 2083              		.cfi_def_cfa_offset 32
 2084 0004 233C1100 		sd	ra,24(sp)
 2085 0008 23388100 		sd	s0,16(sp)
 2086 000c 23349100 		sd	s1,8(sp)
 2087              		.cfi_offset 1, -8
 2088              		.cfi_offset 8, -16
 2089              		.cfi_offset 9, -24
 2090 0010 13040102 		addi	s0,sp,32
 2091              		.cfi_def_cfa 8, 0
  69:src/Code/../../h/Testing/Testing_OS1/Periodic_Threads_CPP_API_Test.hpp ****             myOwnMutex->wait();
 2092              		.loc 6 69 13
 2093              		.loc 6 69 29 is_stmt 0
 2094 0014 97040000 		lla	s1,.LANCHOR0
 2094      93840400 
 2095 001c 03B50401 		ld	a0,16(s1)
 2096              	.LVL209:
 2097 0020 97000000 		call	_ZN9Semaphore4waitEv@plt
 2097      E7800000 
 2098              	.LVL210:
  70:src/Code/../../h/Testing/Testing_OS1/Periodic_Threads_CPP_API_Test.hpp ****             putc('C');
 2099              		.loc 6 70 13 is_stmt 1
 2100              		.loc 6 70 17 is_stmt 0
 2101 0028 13053004 		li	a0,67
 2102 002c 97000000 		call	_Z4putcc@plt
 2102      E7800000 
 2103              	.LVL211:
  71:src/Code/../../h/Testing/Testing_OS1/Periodic_Threads_CPP_API_Test.hpp ****             putc('\n');
 2104              		.loc 6 71 13 is_stmt 1
 2105              		.loc 6 71 17 is_stmt 0
 2106 0034 1305A000 		li	a0,10
 2107 0038 97000000 		call	_Z4putcc@plt
 2107      E7800000 
 2108              	.LVL212:
  72:src/Code/../../h/Testing/Testing_OS1/Periodic_Threads_CPP_API_Test.hpp ****             myOwnMutex->signal();
 2109              		.loc 6 72 13 is_stmt 1
 2110              		.loc 6 72 31 is_stmt 0
GAS LISTING /tmp/ccBYUnRY.s 			page 50


 2111 0040 03B50401 		ld	a0,16(s1)
 2112 0044 97000000 		call	_ZN9Semaphore6signalEv@plt
 2112      E7800000 
 2113              	.LVL213:
  73:src/Code/../../h/Testing/Testing_OS1/Periodic_Threads_CPP_API_Test.hpp ****         }
 2114              		.loc 6 73 9
 2115 004c 83308101 		ld	ra,24(sp)
 2116              		.cfi_restore 1
 2117 0050 03340101 		ld	s0,16(sp)
 2118              		.cfi_restore 8
 2119              		.cfi_def_cfa 2, 32
 2120 0054 83348100 		ld	s1,8(sp)
 2121              		.cfi_restore 9
 2122 0058 13010102 		addi	sp,sp,32
 2123              		.cfi_def_cfa_offset 0
 2124 005c 67800000 		jr	ra
 2125              		.cfi_endproc
 2126              	.LFE131:
 2128              		.section	.rodata.str1.8
 2129 0035 000000   		.align	3
 2130              	.LC5:
 2131 0038 48656C6C 		.string	"Hello "
 2131      6F2000
 2132 003f 00       		.align	3
 2133              	.LC6:
 2134 0040 20210A00 		.string	" !\n"
 2135              		.text
 2136              		.align	2
 2137              		.globl	_ZN15ThreadSleepTest9sleepyRunEPv
 2139              	_ZN15ThreadSleepTest9sleepyRunEPv:
 2140              	.LFB98:
 2141              		.file 9 "src/Code/../../h/Testing/Testing_OS1/ThreadSleep_C_API_Test.hpp"
   1:src/Code/../../h/Testing/Testing_OS1/ThreadSleep_C_API_Test.hpp **** #ifndef THREADSLEEP_C_API_TEST_HPP
   2:src/Code/../../h/Testing/Testing_OS1/ThreadSleep_C_API_Test.hpp **** #define THREADSLEEP_C_API_TEST_HPP
   3:src/Code/../../h/Testing/Testing_OS1/ThreadSleep_C_API_Test.hpp **** 
   4:src/Code/../../h/Testing/Testing_OS1/ThreadSleep_C_API_Test.hpp **** #include "../../Code/SystemCalls/syscall_c.h"
   5:src/Code/../../h/Testing/Testing_OS1/ThreadSleep_C_API_Test.hpp **** #include "Printing.hpp"
   6:src/Code/../../h/Testing/Testing_OS1/ThreadSleep_C_API_Test.hpp **** 
   7:src/Code/../../h/Testing/Testing_OS1/ThreadSleep_C_API_Test.hpp **** namespace ThreadSleepTest {
   8:src/Code/../../h/Testing/Testing_OS1/ThreadSleep_C_API_Test.hpp ****     bool finished[2];
   9:src/Code/../../h/Testing/Testing_OS1/ThreadSleep_C_API_Test.hpp **** 
  10:src/Code/../../h/Testing/Testing_OS1/ThreadSleep_C_API_Test.hpp ****     void sleepyRun(void *arg) {
 2142              		.loc 9 10 31 is_stmt 1
 2143              		.cfi_startproc
 2144              	.LVL214:
 2145 03dc 130101FE 		addi	sp,sp,-32
 2146              		.cfi_def_cfa_offset 32
 2147 03e0 233C1100 		sd	ra,24(sp)
 2148 03e4 23388100 		sd	s0,16(sp)
 2149 03e8 23349100 		sd	s1,8(sp)
 2150 03ec 23302101 		sd	s2,0(sp)
 2151              		.cfi_offset 1, -8
 2152              		.cfi_offset 8, -16
 2153              		.cfi_offset 9, -24
 2154              		.cfi_offset 18, -32
 2155 03f0 13040102 		addi	s0,sp,32
 2156              		.cfi_def_cfa 8, 0
GAS LISTING /tmp/ccBYUnRY.s 			page 51


  11:src/Code/../../h/Testing/Testing_OS1/ThreadSleep_C_API_Test.hpp ****         time_t sleep_time = *((time_t *) arg);
 2157              		.loc 9 11 9
 2158              		.loc 9 11 16 is_stmt 0
 2159 03f4 03390500 		ld	s2,0(a0)
 2160              	.LVL215:
  12:src/Code/../../h/Testing/Testing_OS1/ThreadSleep_C_API_Test.hpp ****         int i = 6;
 2161              		.loc 9 12 9 is_stmt 1
 2162              		.loc 9 12 13 is_stmt 0
 2163 03f8 93046000 		li	s1,6
 2164              	.LVL216:
 2165              	.L113:
  13:src/Code/../../h/Testing/Testing_OS1/ThreadSleep_C_API_Test.hpp ****         while (--i > 0) {
 2166              		.loc 9 13 9 is_stmt 1
 2167              		.loc 9 13 20
 2168 03fc 9B84F4FF 		addiw	s1,s1,-1
 2169              	.LVL217:
 2170 0400 63549004 		blez	s1,.L112
  14:src/Code/../../h/Testing/Testing_OS1/ThreadSleep_C_API_Test.hpp **** 
  15:src/Code/../../h/Testing/Testing_OS1/ThreadSleep_C_API_Test.hpp ****             printString("Hello ");
 2171              		.loc 9 15 13
 2172              		.loc 9 15 24 is_stmt 0
 2173 0404 17050000 		lla	a0,.LC5
 2173      13050500 
 2174 040c 97000000 		call	_Z11printStringPKc@plt
 2174      E7800000 
 2175              	.LVL218:
  16:src/Code/../../h/Testing/Testing_OS1/ThreadSleep_C_API_Test.hpp ****             printInt(sleep_time);
 2176              		.loc 9 16 13 is_stmt 1
 2177              		.loc 9 16 21 is_stmt 0
 2178 0414 13060000 		li	a2,0
 2179 0418 9305A000 		li	a1,10
 2180 041c 1B050900 		sext.w	a0,s2
 2181 0420 97000000 		call	_Z8printIntiii@plt
 2181      E7800000 
 2182              	.LVL219:
  17:src/Code/../../h/Testing/Testing_OS1/ThreadSleep_C_API_Test.hpp ****             printString(" !\n");
 2183              		.loc 9 17 13 is_stmt 1
 2184              		.loc 9 17 24 is_stmt 0
 2185 0428 17050000 		lla	a0,.LC6
 2185      13050500 
 2186 0430 97000000 		call	_Z11printStringPKc@plt
 2186      E7800000 
 2187              	.LVL220:
  18:src/Code/../../h/Testing/Testing_OS1/ThreadSleep_C_API_Test.hpp ****             time_sleep(sleep_time);
 2188              		.loc 9 18 13 is_stmt 1
 2189              		.loc 9 18 23 is_stmt 0
 2190 0438 13050900 		mv	a0,s2
 2191 043c 97000000 		call	_Z10time_sleepm@plt
 2191      E7800000 
 2192              	.LVL221:
  13:src/Code/../../h/Testing/Testing_OS1/ThreadSleep_C_API_Test.hpp **** 
 2193              		.loc 9 13 9
 2194 0444 6FF09FFB 		j	.L113
 2195              	.L112:
  19:src/Code/../../h/Testing/Testing_OS1/ThreadSleep_C_API_Test.hpp ****         }
  20:src/Code/../../h/Testing/Testing_OS1/ThreadSleep_C_API_Test.hpp ****         finished[sleep_time/10-1] = true;
 2196              		.loc 9 20 9 is_stmt 1
GAS LISTING /tmp/ccBYUnRY.s 			page 52


 2197              		.loc 9 20 28 is_stmt 0
 2198 0448 9307A000 		li	a5,10
 2199 044c 3359F902 		divu	s2,s2,a5
 2200              	.LVL222:
 2201              		.loc 9 20 31
 2202 0450 1309F9FF 		addi	s2,s2,-1
 2203              		.loc 9 20 35
 2204 0454 97070000 		lla	a5,.LANCHOR0
 2204      93870700 
 2205 045c 33892701 		add	s2,a5,s2
 2206 0460 93071000 		li	a5,1
 2207 0464 230CF900 		sb	a5,24(s2)
  21:src/Code/../../h/Testing/Testing_OS1/ThreadSleep_C_API_Test.hpp ****     }
 2208              		.loc 9 21 5
 2209 0468 83308101 		ld	ra,24(sp)
 2210              		.cfi_restore 1
 2211 046c 03340101 		ld	s0,16(sp)
 2212              		.cfi_restore 8
 2213              		.cfi_def_cfa 2, 32
 2214 0470 83348100 		ld	s1,8(sp)
 2215              		.cfi_restore 9
 2216 0474 03390100 		ld	s2,0(sp)
 2217              		.cfi_restore 18
 2218 0478 13010102 		addi	sp,sp,32
 2219              		.cfi_def_cfa_offset 0
 2220 047c 67800000 		jr	ra
 2221              		.cfi_endproc
 2222              	.LFE98:
 2224              		.section	.text._ZN19PeriodicThreadsTest1A3runEv,"axG",@progbits,_ZN19PeriodicThreadsTest1A3runEv,c
 2225              		.align	2
 2226              		.weak	_ZN19PeriodicThreadsTest1A3runEv
 2228              	_ZN19PeriodicThreadsTest1A3runEv:
 2229              	.LFB120:
  15:src/Code/../../h/Testing/Testing_OS1/Periodic_Threads_CPP_API_Test.hpp ****             while (!shouldThisThreadEnd) {
 2230              		.loc 6 15 14 is_stmt 1
 2231              		.cfi_startproc
 2232              	.LVL223:
 2233 0000 130101FE 		addi	sp,sp,-32
 2234              		.cfi_def_cfa_offset 32
 2235 0004 233C1100 		sd	ra,24(sp)
 2236 0008 23388100 		sd	s0,16(sp)
 2237 000c 23349100 		sd	s1,8(sp)
 2238              		.cfi_offset 1, -8
 2239              		.cfi_offset 8, -16
 2240              		.cfi_offset 9, -24
 2241 0010 13040102 		addi	s0,sp,32
 2242              		.cfi_def_cfa 8, 0
 2243 0014 93040500 		mv	s1,a0
 2244              	.LVL224:
 2245              	.L117:
  16:src/Code/../../h/Testing/Testing_OS1/Periodic_Threads_CPP_API_Test.hpp ****                 periodicActivation();
 2246              		.loc 6 16 13
  16:src/Code/../../h/Testing/Testing_OS1/Periodic_Threads_CPP_API_Test.hpp ****                 periodicActivation();
 2247              		.loc 6 16 20
  16:src/Code/../../h/Testing/Testing_OS1/Periodic_Threads_CPP_API_Test.hpp ****                 periodicActivation();
 2248              		.loc 6 16 21 is_stmt 0
 2249 0018 83C78401 		lbu	a5,24(s1)
GAS LISTING /tmp/ccBYUnRY.s 			page 53


  16:src/Code/../../h/Testing/Testing_OS1/Periodic_Threads_CPP_API_Test.hpp ****                 periodicActivation();
 2250              		.loc 6 16 20
 2251 001c 63920702 		bnez	a5,.L116
  17:src/Code/../../h/Testing/Testing_OS1/Periodic_Threads_CPP_API_Test.hpp ****                 time_sleep(sleepTime);
 2252              		.loc 6 17 17 is_stmt 1
  17:src/Code/../../h/Testing/Testing_OS1/Periodic_Threads_CPP_API_Test.hpp ****                 time_sleep(sleepTime);
 2253              		.loc 6 17 36 is_stmt 0
 2254 0020 83B70400 		ld	a5,0(s1)
 2255 0024 83B78701 		ld	a5,24(a5)
  17:src/Code/../../h/Testing/Testing_OS1/Periodic_Threads_CPP_API_Test.hpp ****                 time_sleep(sleepTime);
 2256              		.loc 6 17 35
 2257 0028 13850400 		mv	a0,s1
 2258 002c E7800700 		jalr	a5
 2259              	.LVL225:
  18:src/Code/../../h/Testing/Testing_OS1/Periodic_Threads_CPP_API_Test.hpp ****             }
 2260              		.loc 6 18 17 is_stmt 1
  18:src/Code/../../h/Testing/Testing_OS1/Periodic_Threads_CPP_API_Test.hpp ****             }
 2261              		.loc 6 18 27 is_stmt 0
 2262 0030 03B50401 		ld	a0,16(s1)
 2263 0034 97000000 		call	_Z10time_sleepm@plt
 2263      E7800000 
 2264              	.LVL226:
  16:src/Code/../../h/Testing/Testing_OS1/Periodic_Threads_CPP_API_Test.hpp ****                 periodicActivation();
 2265              		.loc 6 16 13
 2266 003c 6FF0DFFD 		j	.L117
 2267              	.L116:
  20:src/Code/../../h/Testing/Testing_OS1/Periodic_Threads_CPP_API_Test.hpp ****         }
 2268              		.loc 6 20 13 is_stmt 1
  20:src/Code/../../h/Testing/Testing_OS1/Periodic_Threads_CPP_API_Test.hpp ****         }
 2269              		.loc 6 20 36 is_stmt 0
 2270 0040 17050000 		ld	a0,.LANCHOR0+32
 2270      03350500 
 2271 0048 97000000 		call	_ZN9Semaphore6signalEv@plt
 2271      E7800000 
 2272              	.LVL227:
  21:src/Code/../../h/Testing/Testing_OS1/Periodic_Threads_CPP_API_Test.hpp **** 
 2273              		.loc 6 21 9
 2274 0050 83308101 		ld	ra,24(sp)
 2275              		.cfi_restore 1
 2276 0054 03340101 		ld	s0,16(sp)
 2277              		.cfi_restore 8
 2278              		.cfi_def_cfa 2, 32
 2279 0058 83348100 		ld	s1,8(sp)
 2280              		.cfi_restore 9
 2281              	.LVL228:
 2282 005c 13010102 		addi	sp,sp,32
 2283              		.cfi_def_cfa_offset 0
 2284 0060 67800000 		jr	ra
 2285              		.cfi_endproc
 2286              	.LFE120:
 2288              		.section	.text._ZN19PeriodicThreadsTest1B3runEv,"axG",@progbits,_ZN19PeriodicThreadsTest1B3runEv,c
 2289              		.align	2
 2290              		.weak	_ZN19PeriodicThreadsTest1B3runEv
 2292              	_ZN19PeriodicThreadsTest1B3runEv:
 2293              	.LFB125:
  37:src/Code/../../h/Testing/Testing_OS1/Periodic_Threads_CPP_API_Test.hpp ****             while (!shouldThisThreadEnd) {
 2294              		.loc 6 37 14 is_stmt 1
GAS LISTING /tmp/ccBYUnRY.s 			page 54


 2295              		.cfi_startproc
 2296              	.LVL229:
 2297 0000 130101FE 		addi	sp,sp,-32
 2298              		.cfi_def_cfa_offset 32
 2299 0004 233C1100 		sd	ra,24(sp)
 2300 0008 23388100 		sd	s0,16(sp)
 2301 000c 23349100 		sd	s1,8(sp)
 2302              		.cfi_offset 1, -8
 2303              		.cfi_offset 8, -16
 2304              		.cfi_offset 9, -24
 2305 0010 13040102 		addi	s0,sp,32
 2306              		.cfi_def_cfa 8, 0
 2307 0014 93040500 		mv	s1,a0
 2308              	.LVL230:
 2309              	.L121:
  38:src/Code/../../h/Testing/Testing_OS1/Periodic_Threads_CPP_API_Test.hpp ****                 periodicActivation();
 2310              		.loc 6 38 13
  38:src/Code/../../h/Testing/Testing_OS1/Periodic_Threads_CPP_API_Test.hpp ****                 periodicActivation();
 2311              		.loc 6 38 20
  38:src/Code/../../h/Testing/Testing_OS1/Periodic_Threads_CPP_API_Test.hpp ****                 periodicActivation();
 2312              		.loc 6 38 21 is_stmt 0
 2313 0018 83C78401 		lbu	a5,24(s1)
  38:src/Code/../../h/Testing/Testing_OS1/Periodic_Threads_CPP_API_Test.hpp ****                 periodicActivation();
 2314              		.loc 6 38 20
 2315 001c 63920702 		bnez	a5,.L120
  39:src/Code/../../h/Testing/Testing_OS1/Periodic_Threads_CPP_API_Test.hpp ****                 time_sleep(sleepTime);
 2316              		.loc 6 39 17 is_stmt 1
  39:src/Code/../../h/Testing/Testing_OS1/Periodic_Threads_CPP_API_Test.hpp ****                 time_sleep(sleepTime);
 2317              		.loc 6 39 36 is_stmt 0
 2318 0020 83B70400 		ld	a5,0(s1)
 2319 0024 83B78701 		ld	a5,24(a5)
  39:src/Code/../../h/Testing/Testing_OS1/Periodic_Threads_CPP_API_Test.hpp ****                 time_sleep(sleepTime);
 2320              		.loc 6 39 35
 2321 0028 13850400 		mv	a0,s1
 2322 002c E7800700 		jalr	a5
 2323              	.LVL231:
  40:src/Code/../../h/Testing/Testing_OS1/Periodic_Threads_CPP_API_Test.hpp ****             }
 2324              		.loc 6 40 17 is_stmt 1
  40:src/Code/../../h/Testing/Testing_OS1/Periodic_Threads_CPP_API_Test.hpp ****             }
 2325              		.loc 6 40 27 is_stmt 0
 2326 0030 03B50401 		ld	a0,16(s1)
 2327 0034 97000000 		call	_Z10time_sleepm@plt
 2327      E7800000 
 2328              	.LVL232:
  38:src/Code/../../h/Testing/Testing_OS1/Periodic_Threads_CPP_API_Test.hpp ****                 periodicActivation();
 2329              		.loc 6 38 13
 2330 003c 6FF0DFFD 		j	.L121
 2331              	.L120:
  42:src/Code/../../h/Testing/Testing_OS1/Periodic_Threads_CPP_API_Test.hpp ****         }
 2332              		.loc 6 42 13 is_stmt 1
  42:src/Code/../../h/Testing/Testing_OS1/Periodic_Threads_CPP_API_Test.hpp ****         }
 2333              		.loc 6 42 36 is_stmt 0
 2334 0040 17050000 		ld	a0,.LANCHOR0+32
 2334      03350500 
 2335 0048 97000000 		call	_ZN9Semaphore6signalEv@plt
 2335      E7800000 
 2336              	.LVL233:
GAS LISTING /tmp/ccBYUnRY.s 			page 55


  43:src/Code/../../h/Testing/Testing_OS1/Periodic_Threads_CPP_API_Test.hpp **** 
 2337              		.loc 6 43 9
 2338 0050 83308101 		ld	ra,24(sp)
 2339              		.cfi_restore 1
 2340 0054 03340101 		ld	s0,16(sp)
 2341              		.cfi_restore 8
 2342              		.cfi_def_cfa 2, 32
 2343 0058 83348100 		ld	s1,8(sp)
 2344              		.cfi_restore 9
 2345              	.LVL234:
 2346 005c 13010102 		addi	sp,sp,32
 2347              		.cfi_def_cfa_offset 0
 2348 0060 67800000 		jr	ra
 2349              		.cfi_endproc
 2350              	.LFE125:
 2352              		.section	.text._ZN19PeriodicThreadsTest1C3runEv,"axG",@progbits,_ZN19PeriodicThreadsTest1C3runEv,c
 2353              		.align	2
 2354              		.weak	_ZN19PeriodicThreadsTest1C3runEv
 2356              	_ZN19PeriodicThreadsTest1C3runEv:
 2357              	.LFB130:
  59:src/Code/../../h/Testing/Testing_OS1/Periodic_Threads_CPP_API_Test.hpp ****             while (!shouldThisThreadEnd) {
 2358              		.loc 6 59 14 is_stmt 1
 2359              		.cfi_startproc
 2360              	.LVL235:
 2361 0000 130101FE 		addi	sp,sp,-32
 2362              		.cfi_def_cfa_offset 32
 2363 0004 233C1100 		sd	ra,24(sp)
 2364 0008 23388100 		sd	s0,16(sp)
 2365 000c 23349100 		sd	s1,8(sp)
 2366              		.cfi_offset 1, -8
 2367              		.cfi_offset 8, -16
 2368              		.cfi_offset 9, -24
 2369 0010 13040102 		addi	s0,sp,32
 2370              		.cfi_def_cfa 8, 0
 2371 0014 93040500 		mv	s1,a0
 2372              	.LVL236:
 2373              	.L125:
  60:src/Code/../../h/Testing/Testing_OS1/Periodic_Threads_CPP_API_Test.hpp ****                 periodicActivation();
 2374              		.loc 6 60 13
  60:src/Code/../../h/Testing/Testing_OS1/Periodic_Threads_CPP_API_Test.hpp ****                 periodicActivation();
 2375              		.loc 6 60 20
  60:src/Code/../../h/Testing/Testing_OS1/Periodic_Threads_CPP_API_Test.hpp ****                 periodicActivation();
 2376              		.loc 6 60 21 is_stmt 0
 2377 0018 83C78401 		lbu	a5,24(s1)
  60:src/Code/../../h/Testing/Testing_OS1/Periodic_Threads_CPP_API_Test.hpp ****                 periodicActivation();
 2378              		.loc 6 60 20
 2379 001c 63920702 		bnez	a5,.L124
  61:src/Code/../../h/Testing/Testing_OS1/Periodic_Threads_CPP_API_Test.hpp ****                 time_sleep(sleepTime);
 2380              		.loc 6 61 17 is_stmt 1
  61:src/Code/../../h/Testing/Testing_OS1/Periodic_Threads_CPP_API_Test.hpp ****                 time_sleep(sleepTime);
 2381              		.loc 6 61 36 is_stmt 0
 2382 0020 83B70400 		ld	a5,0(s1)
 2383 0024 83B78701 		ld	a5,24(a5)
  61:src/Code/../../h/Testing/Testing_OS1/Periodic_Threads_CPP_API_Test.hpp ****                 time_sleep(sleepTime);
 2384              		.loc 6 61 35
 2385 0028 13850400 		mv	a0,s1
 2386 002c E7800700 		jalr	a5
GAS LISTING /tmp/ccBYUnRY.s 			page 56


 2387              	.LVL237:
  62:src/Code/../../h/Testing/Testing_OS1/Periodic_Threads_CPP_API_Test.hpp ****             }
 2388              		.loc 6 62 17 is_stmt 1
  62:src/Code/../../h/Testing/Testing_OS1/Periodic_Threads_CPP_API_Test.hpp ****             }
 2389              		.loc 6 62 27 is_stmt 0
 2390 0030 03B50401 		ld	a0,16(s1)
 2391 0034 97000000 		call	_Z10time_sleepm@plt
 2391      E7800000 
 2392              	.LVL238:
  60:src/Code/../../h/Testing/Testing_OS1/Periodic_Threads_CPP_API_Test.hpp ****                 periodicActivation();
 2393              		.loc 6 60 13
 2394 003c 6FF0DFFD 		j	.L125
 2395              	.L124:
  64:src/Code/../../h/Testing/Testing_OS1/Periodic_Threads_CPP_API_Test.hpp ****         }
 2396              		.loc 6 64 13 is_stmt 1
  64:src/Code/../../h/Testing/Testing_OS1/Periodic_Threads_CPP_API_Test.hpp ****         }
 2397              		.loc 6 64 36 is_stmt 0
 2398 0040 17050000 		ld	a0,.LANCHOR0+32
 2398      03350500 
 2399 0048 97000000 		call	_ZN9Semaphore6signalEv@plt
 2399      E7800000 
 2400              	.LVL239:
  65:src/Code/../../h/Testing/Testing_OS1/Periodic_Threads_CPP_API_Test.hpp **** 
 2401              		.loc 6 65 9
 2402 0050 83308101 		ld	ra,24(sp)
 2403              		.cfi_restore 1
 2404 0054 03340101 		ld	s0,16(sp)
 2405              		.cfi_restore 8
 2406              		.cfi_def_cfa 2, 32
 2407 0058 83348100 		ld	s1,8(sp)
 2408              		.cfi_restore 9
 2409              	.LVL240:
 2410 005c 13010102 		addi	sp,sp,32
 2411              		.cfi_def_cfa_offset 0
 2412 0060 67800000 		jr	ra
 2413              		.cfi_endproc
 2414              	.LFE130:
 2416              		.section	.text._ZN24ConsumerProducerAsyncCPP8Producer3runEv,"axG",@progbits,_ZN24ConsumerProducerA
 2417              		.align	2
 2418              		.weak	_ZN24ConsumerProducerAsyncCPP8Producer3runEv
 2420              	_ZN24ConsumerProducerAsyncCPP8Producer3runEv:
 2421              	.LFB107:
  45:src/Code/../../h/Testing/Testing_OS1/Consumer_Producer_CPP_API_Test.hpp ****             int i = 0;
 2422              		.loc 5 45 14 is_stmt 1
 2423              		.cfi_startproc
 2424              	.LVL241:
 2425 0000 130101FE 		addi	sp,sp,-32
 2426              		.cfi_def_cfa_offset 32
 2427 0004 233C1100 		sd	ra,24(sp)
 2428 0008 23388100 		sd	s0,16(sp)
 2429 000c 23349100 		sd	s1,8(sp)
 2430 0010 23302101 		sd	s2,0(sp)
 2431              		.cfi_offset 1, -8
 2432              		.cfi_offset 8, -16
 2433              		.cfi_offset 9, -24
 2434              		.cfi_offset 18, -32
 2435 0014 13040102 		addi	s0,sp,32
GAS LISTING /tmp/ccBYUnRY.s 			page 57


 2436              		.cfi_def_cfa 8, 0
 2437 0018 93040500 		mv	s1,a0
  46:src/Code/../../h/Testing/Testing_OS1/Consumer_Producer_CPP_API_Test.hpp ****             while (!threadEnd) {
 2438              		.loc 5 46 13
 2439              	.LVL242:
  46:src/Code/../../h/Testing/Testing_OS1/Consumer_Producer_CPP_API_Test.hpp ****             while (!threadEnd) {
 2440              		.loc 5 46 17 is_stmt 0
 2441 001c 13090000 		li	s2,0
 2442              	.LVL243:
 2443              	.L129:
  47:src/Code/../../h/Testing/Testing_OS1/Consumer_Producer_CPP_API_Test.hpp ****                 td->buffer->put(td->id + '0');
 2444              		.loc 5 47 13 is_stmt 1
  47:src/Code/../../h/Testing/Testing_OS1/Consumer_Producer_CPP_API_Test.hpp ****                 td->buffer->put(td->id + '0');
 2445              		.loc 5 47 20
 2446 0020 97070000 		lw	a5,.LANCHOR0+8
 2446      83A70700 
 2447 0028 63920704 		bnez	a5,.L128
  48:src/Code/../../h/Testing/Testing_OS1/Consumer_Producer_CPP_API_Test.hpp ****                 i++;
 2448              		.loc 5 48 17
 2449 002c 83B70401 		ld	a5,16(s1)
  48:src/Code/../../h/Testing/Testing_OS1/Consumer_Producer_CPP_API_Test.hpp ****                 i++;
 2450              		.loc 5 48 37 is_stmt 0
 2451 0030 83A50700 		lw	a1,0(a5)
  48:src/Code/../../h/Testing/Testing_OS1/Consumer_Producer_CPP_API_Test.hpp ****                 i++;
 2452              		.loc 5 48 32
 2453 0034 9B850503 		addiw	a1,a1,48
 2454 0038 03B58700 		ld	a0,8(a5)
 2455 003c 97000000 		call	_ZN13BufferTestCPP9BufferCPP3putEi@plt
 2455      E7800000 
 2456              	.LVL244:
  49:src/Code/../../h/Testing/Testing_OS1/Consumer_Producer_CPP_API_Test.hpp ****                 Thread::sleep((i+td->id)%5);
 2457              		.loc 5 49 17 is_stmt 1
  49:src/Code/../../h/Testing/Testing_OS1/Consumer_Producer_CPP_API_Test.hpp ****                 Thread::sleep((i+td->id)%5);
 2458              		.loc 5 49 18 is_stmt 0
 2459 0044 1B071900 		addiw	a4,s2,1
 2460 0048 1B090700 		sext.w	s2,a4
 2461              	.LVL245:
  50:src/Code/../../h/Testing/Testing_OS1/Consumer_Producer_CPP_API_Test.hpp ****             }
 2462              		.loc 5 50 17 is_stmt 1
  50:src/Code/../../h/Testing/Testing_OS1/Consumer_Producer_CPP_API_Test.hpp ****             }
 2463              		.loc 5 50 34 is_stmt 0
 2464 004c 83B70401 		ld	a5,16(s1)
  50:src/Code/../../h/Testing/Testing_OS1/Consumer_Producer_CPP_API_Test.hpp ****             }
 2465              		.loc 5 50 38
 2466 0050 83A70700 		lw	a5,0(a5)
  50:src/Code/../../h/Testing/Testing_OS1/Consumer_Producer_CPP_API_Test.hpp ****             }
 2467              		.loc 5 50 33
 2468 0054 BB87E700 		addw	a5,a5,a4
  50:src/Code/../../h/Testing/Testing_OS1/Consumer_Producer_CPP_API_Test.hpp ****             }
 2469              		.loc 5 50 30
 2470 0058 13055000 		li	a0,5
 2471 005c 3BE5A702 		remw	a0,a5,a0
 2472 0060 97000000 		call	_ZN6Thread5sleepEm@plt
 2472      E7800000 
 2473              	.LVL246:
  47:src/Code/../../h/Testing/Testing_OS1/Consumer_Producer_CPP_API_Test.hpp ****                 td->buffer->put(td->id + '0');
 2474              		.loc 5 47 13
GAS LISTING /tmp/ccBYUnRY.s 			page 58


 2475 0068 6FF09FFB 		j	.L129
 2476              	.L128:
  53:src/Code/../../h/Testing/Testing_OS1/Consumer_Producer_CPP_API_Test.hpp ****         }
 2477              		.loc 5 53 13 is_stmt 1
 2478 006c 83B70401 		ld	a5,16(s1)
  53:src/Code/../../h/Testing/Testing_OS1/Consumer_Producer_CPP_API_Test.hpp ****         }
 2479              		.loc 5 53 28 is_stmt 0
 2480 0070 03B50701 		ld	a0,16(a5)
 2481 0074 97000000 		call	_ZN9Semaphore6signalEv@plt
 2481      E7800000 
 2482              	.LVL247:
  54:src/Code/../../h/Testing/Testing_OS1/Consumer_Producer_CPP_API_Test.hpp ****     };
 2483              		.loc 5 54 9
 2484 007c 83308101 		ld	ra,24(sp)
 2485              		.cfi_restore 1
 2486 0080 03340101 		ld	s0,16(sp)
 2487              		.cfi_restore 8
 2488              		.cfi_def_cfa 2, 32
 2489 0084 83348100 		ld	s1,8(sp)
 2490              		.cfi_restore 9
 2491              	.LVL248:
 2492 0088 03390100 		ld	s2,0(sp)
 2493              		.cfi_restore 18
 2494              	.LVL249:
 2495 008c 13010102 		addi	sp,sp,32
 2496              		.cfi_def_cfa_offset 0
 2497 0090 67800000 		jr	ra
 2498              		.cfi_endproc
 2499              	.LFE107:
 2501              		.text
 2502              		.align	2
 2503              		.globl	_ZN12ThreadsTestC9fibonacciEm
 2505              	_ZN12ThreadsTestC9fibonacciEm:
 2506              	.LFB50:
  13:src/Code/../../h/Testing/Testing_OS1/Threads_C_API_Test.hpp ****         if (n == 0 || n == 1) { return n; }
 2507              		.loc 2 13 32 is_stmt 1
 2508              		.cfi_startproc
 2509              	.LVL250:
 2510 0480 130101FE 		addi	sp,sp,-32
 2511              		.cfi_def_cfa_offset 32
 2512 0484 233C1100 		sd	ra,24(sp)
 2513 0488 23388100 		sd	s0,16(sp)
 2514 048c 23349100 		sd	s1,8(sp)
 2515 0490 23302101 		sd	s2,0(sp)
 2516              		.cfi_offset 1, -8
 2517              		.cfi_offset 8, -16
 2518              		.cfi_offset 9, -24
 2519              		.cfi_offset 18, -32
 2520 0494 13040102 		addi	s0,sp,32
 2521              		.cfi_def_cfa 8, 0
 2522 0498 93040500 		mv	s1,a0
  14:src/Code/../../h/Testing/Testing_OS1/Threads_C_API_Test.hpp ****         if (n % 10 == 0) { thread_dispatch(); }
 2523              		.loc 2 14 9
 2524 049c 93071000 		li	a5,1
 2525 04a0 63F8A702 		bleu	a0,a5,.L131
  15:src/Code/../../h/Testing/Testing_OS1/Threads_C_API_Test.hpp ****         return fibonacci(n - 1) + fibonacci(n - 2);
 2526              		.loc 2 15 9
GAS LISTING /tmp/ccBYUnRY.s 			page 59


  15:src/Code/../../h/Testing/Testing_OS1/Threads_C_API_Test.hpp ****         return fibonacci(n - 1) + fibonacci(n - 2);
 2527              		.loc 2 15 15 is_stmt 0
 2528 04a4 9307A000 		li	a5,10
 2529 04a8 B377F502 		remu	a5,a0,a5
  15:src/Code/../../h/Testing/Testing_OS1/Threads_C_API_Test.hpp ****         return fibonacci(n - 1) + fibonacci(n - 2);
 2530              		.loc 2 15 9
 2531 04ac 638E0702 		beqz	a5,.L136
 2532              	.LVL251:
 2533              	.L133:
  16:src/Code/../../h/Testing/Testing_OS1/Threads_C_API_Test.hpp ****     }
 2534              		.loc 2 16 9 is_stmt 1
  16:src/Code/../../h/Testing/Testing_OS1/Threads_C_API_Test.hpp ****     }
 2535              		.loc 2 16 25 is_stmt 0
 2536 04b0 1385F4FF 		addi	a0,s1,-1
 2537 04b4 97000000 		call	_ZN12ThreadsTestC9fibonacciEm
 2537      E7800000 
 2538              	.LVL252:
 2539 04bc 13090500 		mv	s2,a0
  16:src/Code/../../h/Testing/Testing_OS1/Threads_C_API_Test.hpp ****     }
 2540              		.loc 2 16 44
 2541 04c0 1385E4FF 		addi	a0,s1,-2
 2542 04c4 97000000 		call	_ZN12ThreadsTestC9fibonacciEm
 2542      E7800000 
 2543              	.LVL253:
  16:src/Code/../../h/Testing/Testing_OS1/Threads_C_API_Test.hpp ****     }
 2544              		.loc 2 16 50
 2545 04cc 3305A900 		add	a0,s2,a0
 2546              	.L131:
  17:src/Code/../../h/Testing/Testing_OS1/Threads_C_API_Test.hpp **** 
 2547              		.loc 2 17 5
 2548 04d0 83308101 		ld	ra,24(sp)
 2549              		.cfi_remember_state
 2550              		.cfi_restore 1
 2551 04d4 03340101 		ld	s0,16(sp)
 2552              		.cfi_restore 8
 2553              		.cfi_def_cfa 2, 32
 2554 04d8 83348100 		ld	s1,8(sp)
 2555              		.cfi_restore 9
 2556              	.LVL254:
 2557 04dc 03390100 		ld	s2,0(sp)
 2558              		.cfi_restore 18
 2559 04e0 13010102 		addi	sp,sp,32
 2560              		.cfi_def_cfa_offset 0
 2561 04e4 67800000 		jr	ra
 2562              	.LVL255:
 2563              	.L136:
 2564              		.cfi_restore_state
  15:src/Code/../../h/Testing/Testing_OS1/Threads_C_API_Test.hpp ****         return fibonacci(n - 1) + fibonacci(n - 2);
 2565              		.loc 2 15 28 is_stmt 1 discriminator 1
  15:src/Code/../../h/Testing/Testing_OS1/Threads_C_API_Test.hpp ****         return fibonacci(n - 1) + fibonacci(n - 2);
 2566              		.loc 2 15 43 is_stmt 0 discriminator 1
 2567 04e8 97000000 		call	_Z15thread_dispatchv@plt
 2567      E7800000 
 2568              	.LVL256:
 2569 04f0 6FF01FFC 		j	.L133
 2570              		.cfi_endproc
 2571              	.LFE50:
GAS LISTING /tmp/ccBYUnRY.s 			page 60


 2573              		.section	.rodata.str1.8
 2574 0044 00000000 		.align	3
 2575              	.LC7:
 2576 0048 433A2069 		.string	"C: i="
 2576      3D00
 2577 004e 0000     		.align	3
 2578              	.LC8:
 2579 0050 433A2064 		.string	"C: dispatch\n"
 2579      69737061 
 2579      7463680A 
 2579      00
 2580 005d 000000   		.align	3
 2581              	.LC9:
 2582 0060 433A2074 		.string	"C: t1="
 2582      313D00
 2583 0067 00       		.align	3
 2584              	.LC10:
 2585 0068 433A2066 		.string	"C: fibonaci="
 2585      69626F6E 
 2585      6163693D 
 2585      00
 2586 0075 000000   		.align	3
 2587              	.LC11:
 2588 0078 43206669 		.string	"C finished!\n"
 2588      6E697368 
 2588      6564210A 
 2588      00
 2589              		.text
 2590              		.align	2
 2591              		.globl	_ZN12ThreadsTestC11workerBodyCEPv
 2593              	_ZN12ThreadsTestC11workerBodyCEPv:
 2594              	.LFB53:
  43:src/Code/../../h/Testing/Testing_OS1/Threads_C_API_Test.hpp **** 
  44:src/Code/../../h/Testing/Testing_OS1/Threads_C_API_Test.hpp ****     void workerBodyC(void* arg) {
 2595              		.loc 2 44 33 is_stmt 1
 2596              		.cfi_startproc
 2597              	.LVL257:
 2598 04f4 130101FE 		addi	sp,sp,-32
 2599              		.cfi_def_cfa_offset 32
 2600 04f8 233C1100 		sd	ra,24(sp)
 2601 04fc 23388100 		sd	s0,16(sp)
 2602 0500 23349100 		sd	s1,8(sp)
 2603 0504 23302101 		sd	s2,0(sp)
 2604              		.cfi_offset 1, -8
 2605              		.cfi_offset 8, -16
 2606              		.cfi_offset 9, -24
 2607              		.cfi_offset 18, -32
 2608 0508 13040102 		addi	s0,sp,32
 2609              		.cfi_def_cfa 8, 0
  45:src/Code/../../h/Testing/Testing_OS1/Threads_C_API_Test.hpp ****         uint8 i = 0;
 2610              		.loc 2 45 9
 2611              	.LVL258:
 2612              		.loc 2 45 15 is_stmt 0
 2613 050c 93040000 		li	s1,0
 2614 0510 6F000004 		j	.L139
 2615              	.LVL259:
 2616              	.L143:
GAS LISTING /tmp/ccBYUnRY.s 			page 61


  46:src/Code/../../h/Testing/Testing_OS1/Threads_C_API_Test.hpp ****         for (; i < 3; i++) {
  47:src/Code/../../h/Testing/Testing_OS1/Threads_C_API_Test.hpp ****             printString("C: i="); printInt(i); printString("\n");
 2617              		.loc 2 47 13 is_stmt 1 discriminator 1
 2618              		.loc 2 47 24 is_stmt 0 discriminator 1
 2619 0514 17050000 		lla	a0,.LC7
 2619      13050500 
 2620 051c 97000000 		call	_Z11printStringPKc@plt
 2620      E7800000 
 2621              	.LVL260:
 2622              		.loc 2 47 35 is_stmt 1 discriminator 1
 2623              		.loc 2 47 43 is_stmt 0 discriminator 1
 2624 0524 13060000 		li	a2,0
 2625 0528 9305A000 		li	a1,10
 2626 052c 13850400 		mv	a0,s1
 2627 0530 97000000 		call	_Z8printIntiii@plt
 2627      E7800000 
 2628              	.LVL261:
 2629              		.loc 2 47 48 is_stmt 1 discriminator 1
 2630              		.loc 2 47 59 is_stmt 0 discriminator 1
 2631 0538 17050000 		lla	a0,.LC1
 2631      13050500 
 2632 0540 97000000 		call	_Z11printStringPKc@plt
 2632      E7800000 
 2633              	.LVL262:
  46:src/Code/../../h/Testing/Testing_OS1/Threads_C_API_Test.hpp ****         for (; i < 3; i++) {
 2634              		.loc 2 46 9 is_stmt 1 discriminator 1
 2635 0548 9B841400 		addiw	s1,s1,1
 2636              	.LVL263:
 2637 054c 93F4F40F 		andi	s1,s1,0xff
 2638              	.LVL264:
 2639              	.L139:
  46:src/Code/../../h/Testing/Testing_OS1/Threads_C_API_Test.hpp ****         for (; i < 3; i++) {
 2640              		.loc 2 46 9 discriminator 2
  46:src/Code/../../h/Testing/Testing_OS1/Threads_C_API_Test.hpp ****         for (; i < 3; i++) {
 2641              		.loc 2 46 18 discriminator 2
 2642 0550 93072000 		li	a5,2
 2643 0554 E3F097FC 		bleu	s1,a5,.L143
  48:src/Code/../../h/Testing/Testing_OS1/Threads_C_API_Test.hpp ****         }
  49:src/Code/../../h/Testing/Testing_OS1/Threads_C_API_Test.hpp **** 
  50:src/Code/../../h/Testing/Testing_OS1/Threads_C_API_Test.hpp ****         printString("C: dispatch\n");
 2644              		.loc 2 50 9
 2645              		.loc 2 50 20 is_stmt 0
 2646 0558 17050000 		lla	a0,.LC8
 2646      13050500 
 2647 0560 97000000 		call	_Z11printStringPKc@plt
 2647      E7800000 
 2648              	.LVL265:
  51:src/Code/../../h/Testing/Testing_OS1/Threads_C_API_Test.hpp ****         __asm__ ("li t1, 7");
 2649              		.loc 2 51 9 is_stmt 1
 2650              		.loc 2 51 29 is_stmt 0
 2651              	#APP
 2652              	# 51 "src/Code/../../h/Testing/Testing_OS1/Threads_C_API_Test.hpp" 1
  52              	        thread_dispatch();
 2653              		li t1, 7
 2654              	# 0 "" 2
 2655              		.loc 2 52 9 is_stmt 1
 2656              		.loc 2 52 24 is_stmt 0
GAS LISTING /tmp/ccBYUnRY.s 			page 62


 2657              	#NO_APP
 2658 056c 97000000 		call	_Z15thread_dispatchv@plt
 2658      E7800000 
 2659              	.LVL266:
  53:src/Code/../../h/Testing/Testing_OS1/Threads_C_API_Test.hpp **** 
  54:src/Code/../../h/Testing/Testing_OS1/Threads_C_API_Test.hpp ****         uint64 t1 = 0;
 2660              		.loc 2 54 9 is_stmt 1
  55:src/Code/../../h/Testing/Testing_OS1/Threads_C_API_Test.hpp ****         __asm__ ("mv %[t1], t1" : [t1] "=r"(t1));
 2661              		.loc 2 55 9
 2662              		.loc 2 55 49 is_stmt 0
 2663              	#APP
 2664              	# 55 "src/Code/../../h/Testing/Testing_OS1/Threads_C_API_Test.hpp" 1
  56              	
 2665              		mv s2, t1
 2666              	# 0 "" 2
 2667              	.LVL267:
  57:src/Code/../../h/Testing/Testing_OS1/Threads_C_API_Test.hpp ****         printString("C: t1="); printInt(t1); printString("\n");
 2668              		.loc 2 57 9 is_stmt 1
 2669              		.loc 2 57 20 is_stmt 0
 2670              	#NO_APP
 2671 0578 17050000 		lla	a0,.LC9
 2671      13050500 
 2672 0580 97000000 		call	_Z11printStringPKc@plt
 2672      E7800000 
 2673              	.LVL268:
 2674              		.loc 2 57 32 is_stmt 1
 2675              		.loc 2 57 40 is_stmt 0
 2676 0588 13060000 		li	a2,0
 2677 058c 9305A000 		li	a1,10
 2678 0590 1B050900 		sext.w	a0,s2
 2679 0594 97000000 		call	_Z8printIntiii@plt
 2679      E7800000 
 2680              	.LVL269:
 2681              		.loc 2 57 46 is_stmt 1
 2682              		.loc 2 57 57 is_stmt 0
 2683 059c 17050000 		lla	a0,.LC1
 2683      13050500 
 2684 05a4 97000000 		call	_Z11printStringPKc@plt
 2684      E7800000 
 2685              	.LVL270:
  58:src/Code/../../h/Testing/Testing_OS1/Threads_C_API_Test.hpp **** 
  59:src/Code/../../h/Testing/Testing_OS1/Threads_C_API_Test.hpp ****         uint64 result = fibonacci(12);
 2686              		.loc 2 59 9 is_stmt 1
 2687              		.loc 2 59 34 is_stmt 0
 2688 05ac 1305C000 		li	a0,12
 2689 05b0 97000000 		call	_ZN12ThreadsTestC9fibonacciEm
 2689      E7800000 
 2690              	.LVL271:
 2691 05b8 13090500 		mv	s2,a0
 2692              	.LVL272:
  60:src/Code/../../h/Testing/Testing_OS1/Threads_C_API_Test.hpp ****         printString("C: fibonaci="); printInt(result); printString("\n");
 2693              		.loc 2 60 9 is_stmt 1
 2694              		.loc 2 60 20 is_stmt 0
 2695 05bc 17050000 		lla	a0,.LC10
 2695      13050500 
 2696              	.LVL273:
 2697 05c4 97000000 		call	_Z11printStringPKc@plt
GAS LISTING /tmp/ccBYUnRY.s 			page 63


 2697      E7800000 
 2698              	.LVL274:
 2699              		.loc 2 60 38 is_stmt 1
 2700              		.loc 2 60 46 is_stmt 0
 2701 05cc 13060000 		li	a2,0
 2702 05d0 9305A000 		li	a1,10
 2703 05d4 1B050900 		sext.w	a0,s2
 2704 05d8 97000000 		call	_Z8printIntiii@plt
 2704      E7800000 
 2705              	.LVL275:
 2706              		.loc 2 60 56 is_stmt 1
 2707              		.loc 2 60 67 is_stmt 0
 2708 05e0 17050000 		lla	a0,.LC1
 2708      13050500 
 2709 05e8 97000000 		call	_Z11printStringPKc@plt
 2709      E7800000 
 2710              	.LVL276:
 2711 05f0 6F000004 		j	.L141
 2712              	.L144:
  61:src/Code/../../h/Testing/Testing_OS1/Threads_C_API_Test.hpp **** 
  62:src/Code/../../h/Testing/Testing_OS1/Threads_C_API_Test.hpp ****         for (; i < 6; i++) {
  63:src/Code/../../h/Testing/Testing_OS1/Threads_C_API_Test.hpp ****             printString("C: i="); printInt(i); printString("\n");
 2713              		.loc 2 63 13 is_stmt 1 discriminator 1
 2714              		.loc 2 63 24 is_stmt 0 discriminator 1
 2715 05f4 17050000 		lla	a0,.LC7
 2715      13050500 
 2716 05fc 97000000 		call	_Z11printStringPKc@plt
 2716      E7800000 
 2717              	.LVL277:
 2718              		.loc 2 63 35 is_stmt 1 discriminator 1
 2719              		.loc 2 63 43 is_stmt 0 discriminator 1
 2720 0604 13060000 		li	a2,0
 2721 0608 9305A000 		li	a1,10
 2722 060c 13850400 		mv	a0,s1
 2723 0610 97000000 		call	_Z8printIntiii@plt
 2723      E7800000 
 2724              	.LVL278:
 2725              		.loc 2 63 48 is_stmt 1 discriminator 1
 2726              		.loc 2 63 59 is_stmt 0 discriminator 1
 2727 0618 17050000 		lla	a0,.LC1
 2727      13050500 
 2728 0620 97000000 		call	_Z11printStringPKc@plt
 2728      E7800000 
 2729              	.LVL279:
  62:src/Code/../../h/Testing/Testing_OS1/Threads_C_API_Test.hpp ****             printString("C: i="); printInt(i); printString("\n");
 2730              		.loc 2 62 9 is_stmt 1 discriminator 1
 2731 0628 9B841400 		addiw	s1,s1,1
 2732              	.LVL280:
 2733 062c 93F4F40F 		andi	s1,s1,0xff
 2734              	.LVL281:
 2735              	.L141:
  62:src/Code/../../h/Testing/Testing_OS1/Threads_C_API_Test.hpp ****             printString("C: i="); printInt(i); printString("\n");
 2736              		.loc 2 62 9 discriminator 2
  62:src/Code/../../h/Testing/Testing_OS1/Threads_C_API_Test.hpp ****             printString("C: i="); printInt(i); printString("\n");
 2737              		.loc 2 62 18 discriminator 2
 2738 0630 93075000 		li	a5,5
 2739 0634 E3F097FC 		bleu	s1,a5,.L144
GAS LISTING /tmp/ccBYUnRY.s 			page 64


  64:src/Code/../../h/Testing/Testing_OS1/Threads_C_API_Test.hpp ****         }
  65:src/Code/../../h/Testing/Testing_OS1/Threads_C_API_Test.hpp **** 
  66:src/Code/../../h/Testing/Testing_OS1/Threads_C_API_Test.hpp ****         printString("C finished!\n");
 2740              		.loc 2 66 9
 2741              		.loc 2 66 20 is_stmt 0
 2742 0638 17050000 		lla	a0,.LC11
 2742      13050500 
 2743 0640 97000000 		call	_Z11printStringPKc@plt
 2743      E7800000 
 2744              	.LVL282:
  67:src/Code/../../h/Testing/Testing_OS1/Threads_C_API_Test.hpp ****         finishedC = true;
 2745              		.loc 2 67 9 is_stmt 1
 2746              		.loc 2 67 19 is_stmt 0
 2747 0648 93071000 		li	a5,1
 2748 064c 17070000 		sb	a5,.LANCHOR0+40,a4
 2748      2300F700 
  68:src/Code/../../h/Testing/Testing_OS1/Threads_C_API_Test.hpp ****         thread_dispatch();
 2749              		.loc 2 68 9 is_stmt 1
 2750              		.loc 2 68 24 is_stmt 0
 2751 0654 97000000 		call	_Z15thread_dispatchv@plt
 2751      E7800000 
 2752              	.LVL283:
  69:src/Code/../../h/Testing/Testing_OS1/Threads_C_API_Test.hpp ****     }
 2753              		.loc 2 69 5
 2754 065c 83308101 		ld	ra,24(sp)
 2755              		.cfi_restore 1
 2756 0660 03340101 		ld	s0,16(sp)
 2757              		.cfi_restore 8
 2758              		.cfi_def_cfa 2, 32
 2759 0664 83348100 		ld	s1,8(sp)
 2760              		.cfi_restore 9
 2761              	.LVL284:
 2762 0668 03390100 		ld	s2,0(sp)
 2763              		.cfi_restore 18
 2764              	.LVL285:
 2765 066c 13010102 		addi	sp,sp,32
 2766              		.cfi_def_cfa_offset 0
 2767 0670 67800000 		jr	ra
 2768              		.cfi_endproc
 2769              	.LFE53:
 2771              		.section	.rodata.str1.8
 2772 0085 000000   		.align	3
 2773              	.LC12:
 2774 0088 443A2069 		.string	"D: i="
 2774      3D00
 2775 008e 0000     		.align	3
 2776              	.LC13:
 2777 0090 443A2064 		.string	"D: dispatch\n"
 2777      69737061 
 2777      7463680A 
 2777      00
 2778 009d 000000   		.align	3
 2779              	.LC14:
 2780 00a0 443A2066 		.string	"D: fibonaci="
 2780      69626F6E 
 2780      6163693D 
 2780      00
GAS LISTING /tmp/ccBYUnRY.s 			page 65


 2781 00ad 000000   		.align	3
 2782              	.LC15:
 2783 00b0 44206669 		.string	"D finished!\n"
 2783      6E697368 
 2783      6564210A 
 2783      00
 2784              		.text
 2785              		.align	2
 2786              		.globl	_ZN12ThreadsTestC11workerBodyDEPv
 2788              	_ZN12ThreadsTestC11workerBodyDEPv:
 2789              	.LFB54:
  70:src/Code/../../h/Testing/Testing_OS1/Threads_C_API_Test.hpp **** 
  71:src/Code/../../h/Testing/Testing_OS1/Threads_C_API_Test.hpp ****     void workerBodyD(void* arg) {
 2790              		.loc 2 71 33 is_stmt 1
 2791              		.cfi_startproc
 2792              	.LVL286:
 2793 0674 130101FE 		addi	sp,sp,-32
 2794              		.cfi_def_cfa_offset 32
 2795 0678 233C1100 		sd	ra,24(sp)
 2796 067c 23388100 		sd	s0,16(sp)
 2797 0680 23349100 		sd	s1,8(sp)
 2798 0684 23302101 		sd	s2,0(sp)
 2799              		.cfi_offset 1, -8
 2800              		.cfi_offset 8, -16
 2801              		.cfi_offset 9, -24
 2802              		.cfi_offset 18, -32
 2803 0688 13040102 		addi	s0,sp,32
 2804              		.cfi_def_cfa 8, 0
  72:src/Code/../../h/Testing/Testing_OS1/Threads_C_API_Test.hpp ****         uint8 i = 10;
 2805              		.loc 2 72 9
 2806              	.LVL287:
 2807              		.loc 2 72 15 is_stmt 0
 2808 068c 9304A000 		li	s1,10
 2809 0690 6F000004 		j	.L147
 2810              	.LVL288:
 2811              	.L151:
  73:src/Code/../../h/Testing/Testing_OS1/Threads_C_API_Test.hpp ****         for (; i < 13; i++) {
  74:src/Code/../../h/Testing/Testing_OS1/Threads_C_API_Test.hpp ****             printString("D: i="); printInt(i); printString("\n");
 2812              		.loc 2 74 13 is_stmt 1 discriminator 1
 2813              		.loc 2 74 24 is_stmt 0 discriminator 1
 2814 0694 17050000 		lla	a0,.LC12
 2814      13050500 
 2815 069c 97000000 		call	_Z11printStringPKc@plt
 2815      E7800000 
 2816              	.LVL289:
 2817              		.loc 2 74 35 is_stmt 1 discriminator 1
 2818              		.loc 2 74 43 is_stmt 0 discriminator 1
 2819 06a4 13060000 		li	a2,0
 2820 06a8 9305A000 		li	a1,10
 2821 06ac 13850400 		mv	a0,s1
 2822 06b0 97000000 		call	_Z8printIntiii@plt
 2822      E7800000 
 2823              	.LVL290:
 2824              		.loc 2 74 48 is_stmt 1 discriminator 1
 2825              		.loc 2 74 59 is_stmt 0 discriminator 1
 2826 06b8 17050000 		lla	a0,.LC1
 2826      13050500 
GAS LISTING /tmp/ccBYUnRY.s 			page 66


 2827 06c0 97000000 		call	_Z11printStringPKc@plt
 2827      E7800000 
 2828              	.LVL291:
  73:src/Code/../../h/Testing/Testing_OS1/Threads_C_API_Test.hpp ****         for (; i < 13; i++) {
 2829              		.loc 2 73 9 is_stmt 1 discriminator 1
 2830 06c8 9B841400 		addiw	s1,s1,1
 2831              	.LVL292:
 2832 06cc 93F4F40F 		andi	s1,s1,0xff
 2833              	.LVL293:
 2834              	.L147:
  73:src/Code/../../h/Testing/Testing_OS1/Threads_C_API_Test.hpp ****         for (; i < 13; i++) {
 2835              		.loc 2 73 9 discriminator 2
  73:src/Code/../../h/Testing/Testing_OS1/Threads_C_API_Test.hpp ****         for (; i < 13; i++) {
 2836              		.loc 2 73 18 discriminator 2
 2837 06d0 9307C000 		li	a5,12
 2838 06d4 E3F097FC 		bleu	s1,a5,.L151
  75:src/Code/../../h/Testing/Testing_OS1/Threads_C_API_Test.hpp ****         }
  76:src/Code/../../h/Testing/Testing_OS1/Threads_C_API_Test.hpp **** 
  77:src/Code/../../h/Testing/Testing_OS1/Threads_C_API_Test.hpp ****         printString("D: dispatch\n");
 2839              		.loc 2 77 9
 2840              		.loc 2 77 20 is_stmt 0
 2841 06d8 17050000 		lla	a0,.LC13
 2841      13050500 
 2842 06e0 97000000 		call	_Z11printStringPKc@plt
 2842      E7800000 
 2843              	.LVL294:
  78:src/Code/../../h/Testing/Testing_OS1/Threads_C_API_Test.hpp ****         __asm__ ("li t1, 5");
 2844              		.loc 2 78 9 is_stmt 1
 2845              		.loc 2 78 29 is_stmt 0
 2846              	#APP
 2847              	# 78 "src/Code/../../h/Testing/Testing_OS1/Threads_C_API_Test.hpp" 1
  79              	        thread_dispatch();
 2848              		li t1, 5
 2849              	# 0 "" 2
 2850              		.loc 2 79 9 is_stmt 1
 2851              		.loc 2 79 24 is_stmt 0
 2852              	#NO_APP
 2853 06ec 97000000 		call	_Z15thread_dispatchv@plt
 2853      E7800000 
 2854              	.LVL295:
  80:src/Code/../../h/Testing/Testing_OS1/Threads_C_API_Test.hpp **** 
  81:src/Code/../../h/Testing/Testing_OS1/Threads_C_API_Test.hpp ****         uint64 result = fibonacci(16);
 2855              		.loc 2 81 9 is_stmt 1
 2856              		.loc 2 81 34 is_stmt 0
 2857 06f4 13050001 		li	a0,16
 2858 06f8 97000000 		call	_ZN12ThreadsTestC9fibonacciEm
 2858      E7800000 
 2859              	.LVL296:
 2860 0700 13090500 		mv	s2,a0
 2861              	.LVL297:
  82:src/Code/../../h/Testing/Testing_OS1/Threads_C_API_Test.hpp ****         printString("D: fibonaci="); printInt(result); printString("\n");
 2862              		.loc 2 82 9 is_stmt 1
 2863              		.loc 2 82 20 is_stmt 0
 2864 0704 17050000 		lla	a0,.LC14
 2864      13050500 
 2865              	.LVL298:
 2866 070c 97000000 		call	_Z11printStringPKc@plt
GAS LISTING /tmp/ccBYUnRY.s 			page 67


 2866      E7800000 
 2867              	.LVL299:
 2868              		.loc 2 82 38 is_stmt 1
 2869              		.loc 2 82 46 is_stmt 0
 2870 0714 13060000 		li	a2,0
 2871 0718 9305A000 		li	a1,10
 2872 071c 1B050900 		sext.w	a0,s2
 2873 0720 97000000 		call	_Z8printIntiii@plt
 2873      E7800000 
 2874              	.LVL300:
 2875              		.loc 2 82 56 is_stmt 1
 2876              		.loc 2 82 67 is_stmt 0
 2877 0728 17050000 		lla	a0,.LC1
 2877      13050500 
 2878 0730 97000000 		call	_Z11printStringPKc@plt
 2878      E7800000 
 2879              	.LVL301:
 2880 0738 6F000004 		j	.L149
 2881              	.L152:
  83:src/Code/../../h/Testing/Testing_OS1/Threads_C_API_Test.hpp **** 
  84:src/Code/../../h/Testing/Testing_OS1/Threads_C_API_Test.hpp ****         for (; i < 16; i++) {
  85:src/Code/../../h/Testing/Testing_OS1/Threads_C_API_Test.hpp ****             printString("D: i="); printInt(i); printString("\n");
 2882              		.loc 2 85 13 is_stmt 1 discriminator 1
 2883              		.loc 2 85 24 is_stmt 0 discriminator 1
 2884 073c 17050000 		lla	a0,.LC12
 2884      13050500 
 2885 0744 97000000 		call	_Z11printStringPKc@plt
 2885      E7800000 
 2886              	.LVL302:
 2887              		.loc 2 85 35 is_stmt 1 discriminator 1
 2888              		.loc 2 85 43 is_stmt 0 discriminator 1
 2889 074c 13060000 		li	a2,0
 2890 0750 9305A000 		li	a1,10
 2891 0754 13850400 		mv	a0,s1
 2892 0758 97000000 		call	_Z8printIntiii@plt
 2892      E7800000 
 2893              	.LVL303:
 2894              		.loc 2 85 48 is_stmt 1 discriminator 1
 2895              		.loc 2 85 59 is_stmt 0 discriminator 1
 2896 0760 17050000 		lla	a0,.LC1
 2896      13050500 
 2897 0768 97000000 		call	_Z11printStringPKc@plt
 2897      E7800000 
 2898              	.LVL304:
  84:src/Code/../../h/Testing/Testing_OS1/Threads_C_API_Test.hpp ****             printString("D: i="); printInt(i); printString("\n");
 2899              		.loc 2 84 9 is_stmt 1 discriminator 1
 2900 0770 9B841400 		addiw	s1,s1,1
 2901              	.LVL305:
 2902 0774 93F4F40F 		andi	s1,s1,0xff
 2903              	.LVL306:
 2904              	.L149:
  84:src/Code/../../h/Testing/Testing_OS1/Threads_C_API_Test.hpp ****             printString("D: i="); printInt(i); printString("\n");
 2905              		.loc 2 84 9 discriminator 2
  84:src/Code/../../h/Testing/Testing_OS1/Threads_C_API_Test.hpp ****             printString("D: i="); printInt(i); printString("\n");
 2906              		.loc 2 84 18 discriminator 2
 2907 0778 9307F000 		li	a5,15
 2908 077c E3F097FC 		bleu	s1,a5,.L152
GAS LISTING /tmp/ccBYUnRY.s 			page 68


  86:src/Code/../../h/Testing/Testing_OS1/Threads_C_API_Test.hpp ****         }
  87:src/Code/../../h/Testing/Testing_OS1/Threads_C_API_Test.hpp **** 
  88:src/Code/../../h/Testing/Testing_OS1/Threads_C_API_Test.hpp ****         printString("D finished!\n");
 2909              		.loc 2 88 9
 2910              		.loc 2 88 20 is_stmt 0
 2911 0780 17050000 		lla	a0,.LC15
 2911      13050500 
 2912 0788 97000000 		call	_Z11printStringPKc@plt
 2912      E7800000 
 2913              	.LVL307:
  89:src/Code/../../h/Testing/Testing_OS1/Threads_C_API_Test.hpp ****         finishedD = true;
 2914              		.loc 2 89 9 is_stmt 1
 2915              		.loc 2 89 19 is_stmt 0
 2916 0790 93071000 		li	a5,1
 2917 0794 17070000 		sb	a5,.LANCHOR0+41,a4
 2917      2300F700 
  90:src/Code/../../h/Testing/Testing_OS1/Threads_C_API_Test.hpp ****         thread_dispatch();
 2918              		.loc 2 90 9 is_stmt 1
 2919              		.loc 2 90 24 is_stmt 0
 2920 079c 97000000 		call	_Z15thread_dispatchv@plt
 2920      E7800000 
 2921              	.LVL308:
  91:src/Code/../../h/Testing/Testing_OS1/Threads_C_API_Test.hpp ****     }
 2922              		.loc 2 91 5
 2923 07a4 83308101 		ld	ra,24(sp)
 2924              		.cfi_restore 1
 2925 07a8 03340101 		ld	s0,16(sp)
 2926              		.cfi_restore 8
 2927              		.cfi_def_cfa 2, 32
 2928 07ac 83348100 		ld	s1,8(sp)
 2929              		.cfi_restore 9
 2930              	.LVL309:
 2931 07b0 03390100 		ld	s2,0(sp)
 2932              		.cfi_restore 18
 2933              	.LVL310:
 2934 07b4 13010102 		addi	sp,sp,32
 2935              		.cfi_def_cfa_offset 0
 2936 07b8 67800000 		jr	ra
 2937              		.cfi_endproc
 2938              	.LFE54:
 2940              		.section	.rodata.str1.8
 2941 00bd 000000   		.align	3
 2942              	.LC16:
 2943 00c0 54687265 		.string	"ThreadA created\n"
 2943      61644120 
 2943      63726561 
 2943      7465640A 
 2943      00
 2944 00d1 00000000 		.align	3
 2944      000000
 2945              	.LC17:
 2946 00d8 54687265 		.string	"ThreadB created\n"
 2946      61644220 
 2946      63726561 
 2946      7465640A 
 2946      00
 2947 00e9 00000000 		.align	3
GAS LISTING /tmp/ccBYUnRY.s 			page 69


 2947      000000
 2948              	.LC18:
 2949 00f0 54687265 		.string	"ThreadC created\n"
 2949      61644320 
 2949      63726561 
 2949      7465640A 
 2949      00
 2950 0101 00000000 		.align	3
 2950      000000
 2951              	.LC19:
 2952 0108 54687265 		.string	"ThreadD created\n"
 2952      61644420 
 2952      63726561 
 2952      7465640A 
 2952      00
 2953              		.text
 2954              		.align	2
 2955              		.globl	_ZN12ThreadsTestC18Threads_C_API_testEv
 2957              	_ZN12ThreadsTestC18Threads_C_API_testEv:
 2958              	.LFB55:
  92:src/Code/../../h/Testing/Testing_OS1/Threads_C_API_Test.hpp **** 
  93:src/Code/../../h/Testing/Testing_OS1/Threads_C_API_Test.hpp **** 
  94:src/Code/../../h/Testing/Testing_OS1/Threads_C_API_Test.hpp ****     void Threads_C_API_test() {
 2959              		.loc 2 94 31 is_stmt 1
 2960              		.cfi_startproc
 2961 07bc 130101FD 		addi	sp,sp,-48
 2962              		.cfi_def_cfa_offset 48
 2963 07c0 23341102 		sd	ra,40(sp)
 2964 07c4 23308102 		sd	s0,32(sp)
 2965              		.cfi_offset 1, -8
 2966              		.cfi_offset 8, -16
 2967 07c8 13040103 		addi	s0,sp,48
 2968              		.cfi_def_cfa 8, 0
  95:src/Code/../../h/Testing/Testing_OS1/Threads_C_API_Test.hpp ****         thread_t threads[4];
 2969              		.loc 2 95 9
  96:src/Code/../../h/Testing/Testing_OS1/Threads_C_API_Test.hpp ****         thread_create(&threads[0], workerBodyA, nullptr);
 2970              		.loc 2 96 9
 2971              		.loc 2 96 22 is_stmt 0
 2972 07cc 13060000 		li	a2,0
 2973 07d0 97050000 		lla	a1,_ZN12ThreadsTestC11workerBodyAEPv
 2973      93850500 
 2974 07d8 130504FD 		addi	a0,s0,-48
 2975 07dc 97000000 		call	_Z13thread_createPP6threadPFvPvES2_@plt
 2975      E7800000 
 2976              	.LVL311:
  97:src/Code/../../h/Testing/Testing_OS1/Threads_C_API_Test.hpp ****         printString("ThreadA created\n");
 2977              		.loc 2 97 9 is_stmt 1
 2978              		.loc 2 97 20 is_stmt 0
 2979 07e4 17050000 		lla	a0,.LC16
 2979      13050500 
 2980 07ec 97000000 		call	_Z11printStringPKc@plt
 2980      E7800000 
 2981              	.LVL312:
  98:src/Code/../../h/Testing/Testing_OS1/Threads_C_API_Test.hpp **** 
  99:src/Code/../../h/Testing/Testing_OS1/Threads_C_API_Test.hpp ****         thread_create(&threads[1], workerBodyB, nullptr);
 2982              		.loc 2 99 9 is_stmt 1
 2983              		.loc 2 99 22 is_stmt 0
GAS LISTING /tmp/ccBYUnRY.s 			page 70


 2984 07f4 13060000 		li	a2,0
 2985 07f8 97050000 		lla	a1,_ZN12ThreadsTestC11workerBodyBEPv
 2985      93850500 
 2986 0800 130584FD 		addi	a0,s0,-40
 2987 0804 97000000 		call	_Z13thread_createPP6threadPFvPvES2_@plt
 2987      E7800000 
 2988              	.LVL313:
 100:src/Code/../../h/Testing/Testing_OS1/Threads_C_API_Test.hpp ****         printString("ThreadB created\n");
 2989              		.loc 2 100 9 is_stmt 1
 2990              		.loc 2 100 20 is_stmt 0
 2991 080c 17050000 		lla	a0,.LC17
 2991      13050500 
 2992 0814 97000000 		call	_Z11printStringPKc@plt
 2992      E7800000 
 2993              	.LVL314:
 101:src/Code/../../h/Testing/Testing_OS1/Threads_C_API_Test.hpp **** 
 102:src/Code/../../h/Testing/Testing_OS1/Threads_C_API_Test.hpp ****         thread_create(&threads[2], workerBodyC, nullptr);
 2994              		.loc 2 102 9 is_stmt 1
 2995              		.loc 2 102 22 is_stmt 0
 2996 081c 13060000 		li	a2,0
 2997 0820 97050000 		lla	a1,_ZN12ThreadsTestC11workerBodyCEPv
 2997      93850500 
 2998 0828 130504FE 		addi	a0,s0,-32
 2999 082c 97000000 		call	_Z13thread_createPP6threadPFvPvES2_@plt
 2999      E7800000 
 3000              	.LVL315:
 103:src/Code/../../h/Testing/Testing_OS1/Threads_C_API_Test.hpp ****         printString("ThreadC created\n");
 3001              		.loc 2 103 9 is_stmt 1
 3002              		.loc 2 103 20 is_stmt 0
 3003 0834 17050000 		lla	a0,.LC18
 3003      13050500 
 3004 083c 97000000 		call	_Z11printStringPKc@plt
 3004      E7800000 
 3005              	.LVL316:
 104:src/Code/../../h/Testing/Testing_OS1/Threads_C_API_Test.hpp **** 
 105:src/Code/../../h/Testing/Testing_OS1/Threads_C_API_Test.hpp ****         thread_create(&threads[3], workerBodyD, nullptr);
 3006              		.loc 2 105 9 is_stmt 1
 3007              		.loc 2 105 22 is_stmt 0
 3008 0844 13060000 		li	a2,0
 3009 0848 97050000 		lla	a1,_ZN12ThreadsTestC11workerBodyDEPv
 3009      93850500 
 3010 0850 130584FE 		addi	a0,s0,-24
 3011 0854 97000000 		call	_Z13thread_createPP6threadPFvPvES2_@plt
 3011      E7800000 
 3012              	.LVL317:
 106:src/Code/../../h/Testing/Testing_OS1/Threads_C_API_Test.hpp ****         printString("ThreadD created\n");
 3013              		.loc 2 106 9 is_stmt 1
 3014              		.loc 2 106 20 is_stmt 0
 3015 085c 17050000 		lla	a0,.LC19
 3015      13050500 
 3016 0864 97000000 		call	_Z11printStringPKc@plt
 3016      E7800000 
 3017              	.LVL318:
 3018 086c 6F00C000 		j	.L156
 3019              	.L154:
 107:src/Code/../../h/Testing/Testing_OS1/Threads_C_API_Test.hpp **** 
 108:src/Code/../../h/Testing/Testing_OS1/Threads_C_API_Test.hpp ****         while (!(finishedA && finishedB && finishedC && finishedD)) {
GAS LISTING /tmp/ccBYUnRY.s 			page 71


 109:src/Code/../../h/Testing/Testing_OS1/Threads_C_API_Test.hpp ****             thread_dispatch();
 3020              		.loc 2 109 13 is_stmt 1
 3021              		.loc 2 109 28 is_stmt 0
 3022 0870 97000000 		call	_Z15thread_dispatchv@plt
 3022      E7800000 
 3023              	.LVL319:
 3024              	.L156:
 108:src/Code/../../h/Testing/Testing_OS1/Threads_C_API_Test.hpp ****             thread_dispatch();
 3025              		.loc 2 108 9 is_stmt 1
 108:src/Code/../../h/Testing/Testing_OS1/Threads_C_API_Test.hpp ****             thread_dispatch();
 3026              		.loc 2 108 16
 3027 0878 97070000 		lbu	a5,.LANCHOR0
 3027      83C70700 
 3028 0880 E38807FE 		beqz	a5,.L154
 108:src/Code/../../h/Testing/Testing_OS1/Threads_C_API_Test.hpp ****             thread_dispatch();
 3029              		.loc 2 108 28 is_stmt 0 discriminator 1
 3030 0884 97070000 		lbu	a5,.LANCHOR0+1
 3030      83C70700 
 3031 088c E38207FE 		beqz	a5,.L154
 108:src/Code/../../h/Testing/Testing_OS1/Threads_C_API_Test.hpp ****             thread_dispatch();
 3032              		.loc 2 108 41 discriminator 2
 3033 0890 97070000 		lbu	a5,.LANCHOR0+40
 3033      83C70700 
 3034 0898 E38C07FC 		beqz	a5,.L154
 108:src/Code/../../h/Testing/Testing_OS1/Threads_C_API_Test.hpp ****             thread_dispatch();
 3035              		.loc 2 108 16 discriminator 3
 3036 089c 97070000 		lbu	a5,.LANCHOR0+41
 3036      83C70700 
 3037 08a4 E38607FC 		beqz	a5,.L154
 110:src/Code/../../h/Testing/Testing_OS1/Threads_C_API_Test.hpp ****         }
 111:src/Code/../../h/Testing/Testing_OS1/Threads_C_API_Test.hpp **** 
 112:src/Code/../../h/Testing/Testing_OS1/Threads_C_API_Test.hpp ****     }
 3038              		.loc 2 112 5
 3039 08a8 83308102 		ld	ra,40(sp)
 3040              		.cfi_restore 1
 3041 08ac 03340102 		ld	s0,32(sp)
 3042              		.cfi_restore 8
 3043              		.cfi_def_cfa 2, 48
 3044 08b0 13010103 		addi	sp,sp,48
 3045              		.cfi_def_cfa_offset 0
 3046 08b4 67800000 		jr	ra
 3047              		.cfi_endproc
 3048              	.LFE55:
 3050              		.align	2
 3051              		.globl	_ZN14ThreadsTestCPP9fibonacciEm
 3053              	_ZN14ThreadsTestCPP9fibonacciEm:
 3054              	.LFB56:
  13:src/Code/../../h/Testing/Testing_OS1/Threads_CPP_API_Test.hpp ****         if (n == 0 || n == 1) { return n; }
 3055              		.loc 3 13 32 is_stmt 1
 3056              		.cfi_startproc
 3057              	.LVL320:
 3058 08b8 130101FE 		addi	sp,sp,-32
 3059              		.cfi_def_cfa_offset 32
 3060 08bc 233C1100 		sd	ra,24(sp)
 3061 08c0 23388100 		sd	s0,16(sp)
 3062 08c4 23349100 		sd	s1,8(sp)
 3063 08c8 23302101 		sd	s2,0(sp)
GAS LISTING /tmp/ccBYUnRY.s 			page 72


 3064              		.cfi_offset 1, -8
 3065              		.cfi_offset 8, -16
 3066              		.cfi_offset 9, -24
 3067              		.cfi_offset 18, -32
 3068 08cc 13040102 		addi	s0,sp,32
 3069              		.cfi_def_cfa 8, 0
 3070 08d0 93040500 		mv	s1,a0
  14:src/Code/../../h/Testing/Testing_OS1/Threads_CPP_API_Test.hpp ****         if (n % 10 == 0) { thread_dispatch(); }
 3071              		.loc 3 14 9
 3072 08d4 93071000 		li	a5,1
 3073 08d8 63F8A702 		bleu	a0,a5,.L158
  15:src/Code/../../h/Testing/Testing_OS1/Threads_CPP_API_Test.hpp ****         return fibonacci(n - 1) + fibonacci(n - 2);
 3074              		.loc 3 15 9
  15:src/Code/../../h/Testing/Testing_OS1/Threads_CPP_API_Test.hpp ****         return fibonacci(n - 1) + fibonacci(n - 2);
 3075              		.loc 3 15 15 is_stmt 0
 3076 08dc 9307A000 		li	a5,10
 3077 08e0 B377F502 		remu	a5,a0,a5
  15:src/Code/../../h/Testing/Testing_OS1/Threads_CPP_API_Test.hpp ****         return fibonacci(n - 1) + fibonacci(n - 2);
 3078              		.loc 3 15 9
 3079 08e4 638E0702 		beqz	a5,.L163
 3080              	.LVL321:
 3081              	.L160:
  16:src/Code/../../h/Testing/Testing_OS1/Threads_CPP_API_Test.hpp ****     }
 3082              		.loc 3 16 9 is_stmt 1
  16:src/Code/../../h/Testing/Testing_OS1/Threads_CPP_API_Test.hpp ****     }
 3083              		.loc 3 16 25 is_stmt 0
 3084 08e8 1385F4FF 		addi	a0,s1,-1
 3085 08ec 97000000 		call	_ZN14ThreadsTestCPP9fibonacciEm
 3085      E7800000 
 3086              	.LVL322:
 3087 08f4 13090500 		mv	s2,a0
  16:src/Code/../../h/Testing/Testing_OS1/Threads_CPP_API_Test.hpp ****     }
 3088              		.loc 3 16 44
 3089 08f8 1385E4FF 		addi	a0,s1,-2
 3090 08fc 97000000 		call	_ZN14ThreadsTestCPP9fibonacciEm
 3090      E7800000 
 3091              	.LVL323:
  16:src/Code/../../h/Testing/Testing_OS1/Threads_CPP_API_Test.hpp ****     }
 3092              		.loc 3 16 50
 3093 0904 3305A900 		add	a0,s2,a0
 3094              	.L158:
  17:src/Code/../../h/Testing/Testing_OS1/Threads_CPP_API_Test.hpp **** 
 3095              		.loc 3 17 5
 3096 0908 83308101 		ld	ra,24(sp)
 3097              		.cfi_remember_state
 3098              		.cfi_restore 1
 3099 090c 03340101 		ld	s0,16(sp)
 3100              		.cfi_restore 8
 3101              		.cfi_def_cfa 2, 32
 3102 0910 83348100 		ld	s1,8(sp)
 3103              		.cfi_restore 9
 3104              	.LVL324:
 3105 0914 03390100 		ld	s2,0(sp)
 3106              		.cfi_restore 18
 3107 0918 13010102 		addi	sp,sp,32
 3108              		.cfi_def_cfa_offset 0
 3109 091c 67800000 		jr	ra
GAS LISTING /tmp/ccBYUnRY.s 			page 73


 3110              	.LVL325:
 3111              	.L163:
 3112              		.cfi_restore_state
  15:src/Code/../../h/Testing/Testing_OS1/Threads_CPP_API_Test.hpp ****         return fibonacci(n - 1) + fibonacci(n - 2);
 3113              		.loc 3 15 28 is_stmt 1 discriminator 1
  15:src/Code/../../h/Testing/Testing_OS1/Threads_CPP_API_Test.hpp ****         return fibonacci(n - 1) + fibonacci(n - 2);
 3114              		.loc 3 15 43 is_stmt 0 discriminator 1
 3115 0920 97000000 		call	_Z15thread_dispatchv@plt
 3115      E7800000 
 3116              	.LVL326:
 3117 0928 6FF01FFC 		j	.L160
 3118              		.cfi_endproc
 3119              	.LFE56:
 3121              		.align	2
 3122              		.globl	_ZN14ThreadsTestCPP7WorkerA11workerBodyAEPv
 3124              	_ZN14ThreadsTestCPP7WorkerA11workerBodyAEPv:
 3125              	.LFB73:
  50:src/Code/../../h/Testing/Testing_OS1/Threads_CPP_API_Test.hpp ****         void workerBodyD(void* arg);
  51:src/Code/../../h/Testing/Testing_OS1/Threads_CPP_API_Test.hpp ****     public:
  52:src/Code/../../h/Testing/Testing_OS1/Threads_CPP_API_Test.hpp ****         WorkerD():Thread() {}
  53:src/Code/../../h/Testing/Testing_OS1/Threads_CPP_API_Test.hpp **** 
  54:src/Code/../../h/Testing/Testing_OS1/Threads_CPP_API_Test.hpp ****         void run() override {
  55:src/Code/../../h/Testing/Testing_OS1/Threads_CPP_API_Test.hpp ****             workerBodyD(nullptr);
  56:src/Code/../../h/Testing/Testing_OS1/Threads_CPP_API_Test.hpp ****         }
  57:src/Code/../../h/Testing/Testing_OS1/Threads_CPP_API_Test.hpp ****     };
  58:src/Code/../../h/Testing/Testing_OS1/Threads_CPP_API_Test.hpp ****     void WorkerA::workerBodyA(void *arg) {
 3126              		.loc 3 58 42 is_stmt 1
 3127              		.cfi_startproc
 3128              	.LVL327:
 3129 092c 130101FE 		addi	sp,sp,-32
 3130              		.cfi_def_cfa_offset 32
 3131 0930 233C1100 		sd	ra,24(sp)
 3132 0934 23388100 		sd	s0,16(sp)
 3133 0938 23349100 		sd	s1,8(sp)
 3134 093c 23302101 		sd	s2,0(sp)
 3135              		.cfi_offset 1, -8
 3136              		.cfi_offset 8, -16
 3137              		.cfi_offset 9, -24
 3138              		.cfi_offset 18, -32
 3139 0940 13040102 		addi	s0,sp,32
 3140              		.cfi_def_cfa 8, 0
  59:src/Code/../../h/Testing/Testing_OS1/Threads_CPP_API_Test.hpp ****         for (uint64 i = 0; i < 10; i++) {
 3141              		.loc 3 59 9
 3142              	.LVL328:
 3143              	.LBB185:
 3144              		.loc 3 59 21 is_stmt 0
 3145 0944 13090000 		li	s2,0
 3146 0948 6F008003 		j	.L170
 3147              	.LVL329:
 3148              	.L167:
 3149              	.LBB186:
 3150              	.LBB187:
 3151              	.LBB188:
  60:src/Code/../../h/Testing/Testing_OS1/Threads_CPP_API_Test.hpp ****             printString("A: i="); printInt(i); printString("\n");
  61:src/Code/../../h/Testing/Testing_OS1/Threads_CPP_API_Test.hpp ****             for (uint64 j = 0; j < 10000; j++) {
  62:src/Code/../../h/Testing/Testing_OS1/Threads_CPP_API_Test.hpp ****                 for (uint64 k = 0; k < 30000; k++) { }
  63:src/Code/../../h/Testing/Testing_OS1/Threads_CPP_API_Test.hpp ****                 thread_dispatch();
GAS LISTING /tmp/ccBYUnRY.s 			page 74


 3152              		.loc 3 63 17 is_stmt 1 discriminator 2
 3153              		.loc 3 63 32 is_stmt 0 discriminator 2
 3154 094c 97000000 		call	_Z15thread_dispatchv@plt
 3154      E7800000 
 3155              	.LVL330:
 3156              	.LBE188:
  61:src/Code/../../h/Testing/Testing_OS1/Threads_CPP_API_Test.hpp ****                 for (uint64 k = 0; k < 30000; k++) { }
 3157              		.loc 3 61 13 is_stmt 1 discriminator 2
 3158 0954 93841400 		addi	s1,s1,1
 3159              	.LVL331:
 3160              	.L169:
  61:src/Code/../../h/Testing/Testing_OS1/Threads_CPP_API_Test.hpp ****                 for (uint64 k = 0; k < 30000; k++) { }
 3161              		.loc 3 61 34 discriminator 1
 3162 0958 B7270000 		li	a5,8192
 3163 095c 9387F770 		addi	a5,a5,1807
 3164 0960 63EE9700 		bgtu	s1,a5,.L166
 3165              	.LBB190:
 3166              	.LBB189:
  62:src/Code/../../h/Testing/Testing_OS1/Threads_CPP_API_Test.hpp ****                 thread_dispatch();
 3167              		.loc 3 62 29 is_stmt 0
 3168 0964 13070000 		li	a4,0
 3169              	.L168:
 3170              	.LVL332:
  62:src/Code/../../h/Testing/Testing_OS1/Threads_CPP_API_Test.hpp ****                 thread_dispatch();
 3171              		.loc 3 62 38 is_stmt 1 discriminator 3
 3172 0968 B7770000 		li	a5,28672
 3173 096c 9387F752 		addi	a5,a5,1327
 3174 0970 E3EEE7FC 		bgtu	a4,a5,.L167
  62:src/Code/../../h/Testing/Testing_OS1/Threads_CPP_API_Test.hpp ****                 thread_dispatch();
 3175              		.loc 3 62 17 discriminator 2
 3176 0974 13071700 		addi	a4,a4,1
 3177              	.LVL333:
 3178 0978 6FF01FFF 		j	.L168
 3179              	.LVL334:
 3180              	.L166:
 3181              	.LBE189:
 3182              	.LBE190:
 3183              	.LBE187:
 3184              	.LBE186:
  59:src/Code/../../h/Testing/Testing_OS1/Threads_CPP_API_Test.hpp ****             printString("A: i="); printInt(i); printString("\n");
 3185              		.loc 3 59 9 discriminator 2
 3186 097c 13091900 		addi	s2,s2,1
 3187              	.LVL335:
 3188              	.L170:
  59:src/Code/../../h/Testing/Testing_OS1/Threads_CPP_API_Test.hpp ****             printString("A: i="); printInt(i); printString("\n");
 3189              		.loc 3 59 30 discriminator 1
 3190 0980 93079000 		li	a5,9
 3191 0984 63E02705 		bgtu	s2,a5,.L165
 3192              	.LBB192:
  60:src/Code/../../h/Testing/Testing_OS1/Threads_CPP_API_Test.hpp ****             for (uint64 j = 0; j < 10000; j++) {
 3193              		.loc 3 60 13
  60:src/Code/../../h/Testing/Testing_OS1/Threads_CPP_API_Test.hpp ****             for (uint64 j = 0; j < 10000; j++) {
 3194              		.loc 3 60 24 is_stmt 0
 3195 0988 17050000 		lla	a0,.LC0
 3195      13050500 
 3196 0990 97000000 		call	_Z11printStringPKc@plt
 3196      E7800000 
GAS LISTING /tmp/ccBYUnRY.s 			page 75


 3197              	.LVL336:
  60:src/Code/../../h/Testing/Testing_OS1/Threads_CPP_API_Test.hpp ****             for (uint64 j = 0; j < 10000; j++) {
 3198              		.loc 3 60 35 is_stmt 1
  60:src/Code/../../h/Testing/Testing_OS1/Threads_CPP_API_Test.hpp ****             for (uint64 j = 0; j < 10000; j++) {
 3199              		.loc 3 60 43 is_stmt 0
 3200 0998 13060000 		li	a2,0
 3201 099c 9305A000 		li	a1,10
 3202 09a0 1B050900 		sext.w	a0,s2
 3203 09a4 97000000 		call	_Z8printIntiii@plt
 3203      E7800000 
 3204              	.LVL337:
  60:src/Code/../../h/Testing/Testing_OS1/Threads_CPP_API_Test.hpp ****             for (uint64 j = 0; j < 10000; j++) {
 3205              		.loc 3 60 48 is_stmt 1
  60:src/Code/../../h/Testing/Testing_OS1/Threads_CPP_API_Test.hpp ****             for (uint64 j = 0; j < 10000; j++) {
 3206              		.loc 3 60 59 is_stmt 0
 3207 09ac 17050000 		lla	a0,.LC1
 3207      13050500 
 3208 09b4 97000000 		call	_Z11printStringPKc@plt
 3208      E7800000 
 3209              	.LVL338:
  61:src/Code/../../h/Testing/Testing_OS1/Threads_CPP_API_Test.hpp ****                 for (uint64 k = 0; k < 30000; k++) { }
 3210              		.loc 3 61 13 is_stmt 1
 3211              	.LBB191:
  61:src/Code/../../h/Testing/Testing_OS1/Threads_CPP_API_Test.hpp ****                 for (uint64 k = 0; k < 30000; k++) { }
 3212              		.loc 3 61 25 is_stmt 0
 3213 09bc 93040000 		li	s1,0
 3214 09c0 6FF09FF9 		j	.L169
 3215              	.LVL339:
 3216              	.L165:
 3217              	.LBE191:
 3218              	.LBE192:
 3219              	.LBE185:
  64:src/Code/../../h/Testing/Testing_OS1/Threads_CPP_API_Test.hpp ****             }
  65:src/Code/../../h/Testing/Testing_OS1/Threads_CPP_API_Test.hpp ****         }
  66:src/Code/../../h/Testing/Testing_OS1/Threads_CPP_API_Test.hpp ****         printString("A finished!\n");
 3220              		.loc 3 66 9 is_stmt 1
 3221              		.loc 3 66 20 is_stmt 0
 3222 09c4 17050000 		lla	a0,.LC2
 3222      13050500 
 3223 09cc 97000000 		call	_Z11printStringPKc@plt
 3223      E7800000 
 3224              	.LVL340:
  67:src/Code/../../h/Testing/Testing_OS1/Threads_CPP_API_Test.hpp ****         finishedA = true;
 3225              		.loc 3 67 9 is_stmt 1
 3226              		.loc 3 67 19 is_stmt 0
 3227 09d4 93071000 		li	a5,1
 3228 09d8 17070000 		sb	a5,.LANCHOR0+42,a4
 3228      2300F700 
  68:src/Code/../../h/Testing/Testing_OS1/Threads_CPP_API_Test.hpp ****     }
 3229              		.loc 3 68 5
 3230 09e0 83308101 		ld	ra,24(sp)
 3231              		.cfi_restore 1
 3232 09e4 03340101 		ld	s0,16(sp)
 3233              		.cfi_restore 8
 3234              		.cfi_def_cfa 2, 32
 3235 09e8 83348100 		ld	s1,8(sp)
 3236              		.cfi_restore 9
GAS LISTING /tmp/ccBYUnRY.s 			page 76


 3237 09ec 03390100 		ld	s2,0(sp)
 3238              		.cfi_restore 18
 3239              	.LVL341:
 3240 09f0 13010102 		addi	sp,sp,32
 3241              		.cfi_def_cfa_offset 0
 3242 09f4 67800000 		jr	ra
 3243              		.cfi_endproc
 3244              	.LFE73:
 3246              		.section	.text._ZN14ThreadsTestCPP7WorkerA3runEv,"axG",@progbits,_ZN14ThreadsTestCPP7WorkerA3runEv
 3247              		.align	2
 3248              		.weak	_ZN14ThreadsTestCPP7WorkerA3runEv
 3250              	_ZN14ThreadsTestCPP7WorkerA3runEv:
 3251              	.LFB60:
  24:src/Code/../../h/Testing/Testing_OS1/Threads_CPP_API_Test.hpp ****             workerBodyA(nullptr);
 3252              		.loc 3 24 14 is_stmt 1
 3253              		.cfi_startproc
 3254              	.LVL342:
 3255 0000 130101FF 		addi	sp,sp,-16
 3256              		.cfi_def_cfa_offset 16
 3257 0004 23341100 		sd	ra,8(sp)
 3258 0008 23308100 		sd	s0,0(sp)
 3259              		.cfi_offset 1, -8
 3260              		.cfi_offset 8, -16
 3261 000c 13040101 		addi	s0,sp,16
 3262              		.cfi_def_cfa 8, 0
  25:src/Code/../../h/Testing/Testing_OS1/Threads_CPP_API_Test.hpp ****         }
 3263              		.loc 3 25 13
  25:src/Code/../../h/Testing/Testing_OS1/Threads_CPP_API_Test.hpp ****         }
 3264              		.loc 3 25 24 is_stmt 0
 3265 0010 93050000 		li	a1,0
 3266 0014 97000000 		call	_ZN14ThreadsTestCPP7WorkerA11workerBodyAEPv
 3266      E7800000 
 3267              	.LVL343:
  26:src/Code/../../h/Testing/Testing_OS1/Threads_CPP_API_Test.hpp ****     };
 3268              		.loc 3 26 9
 3269 001c 83308100 		ld	ra,8(sp)
 3270              		.cfi_restore 1
 3271 0020 03340100 		ld	s0,0(sp)
 3272              		.cfi_restore 8
 3273              		.cfi_def_cfa 2, 16
 3274 0024 13010101 		addi	sp,sp,16
 3275              		.cfi_def_cfa_offset 0
 3276 0028 67800000 		jr	ra
 3277              		.cfi_endproc
 3278              	.LFE60:
 3280              		.text
 3281              		.align	2
 3282              		.globl	_ZN14ThreadsTestCPP7WorkerB11workerBodyBEPv
 3284              	_ZN14ThreadsTestCPP7WorkerB11workerBodyBEPv:
 3285              	.LFB74:
  69:src/Code/../../h/Testing/Testing_OS1/Threads_CPP_API_Test.hpp **** 
  70:src/Code/../../h/Testing/Testing_OS1/Threads_CPP_API_Test.hpp ****     void WorkerB::workerBodyB(void *arg) {
 3286              		.loc 3 70 42 is_stmt 1
 3287              		.cfi_startproc
 3288              	.LVL344:
 3289 09f8 130101FE 		addi	sp,sp,-32
 3290              		.cfi_def_cfa_offset 32
GAS LISTING /tmp/ccBYUnRY.s 			page 77


 3291 09fc 233C1100 		sd	ra,24(sp)
 3292 0a00 23388100 		sd	s0,16(sp)
 3293 0a04 23349100 		sd	s1,8(sp)
 3294 0a08 23302101 		sd	s2,0(sp)
 3295              		.cfi_offset 1, -8
 3296              		.cfi_offset 8, -16
 3297              		.cfi_offset 9, -24
 3298              		.cfi_offset 18, -32
 3299 0a0c 13040102 		addi	s0,sp,32
 3300              		.cfi_def_cfa 8, 0
  71:src/Code/../../h/Testing/Testing_OS1/Threads_CPP_API_Test.hpp ****         for (uint64 i = 0; i < 16; i++) {
 3301              		.loc 3 71 9
 3302              	.LVL345:
 3303              	.LBB193:
 3304              		.loc 3 71 21 is_stmt 0
 3305 0a10 13090000 		li	s2,0
 3306 0a14 6F008003 		j	.L180
 3307              	.LVL346:
 3308              	.L177:
 3309              	.LBB194:
 3310              	.LBB195:
 3311              	.LBB196:
  72:src/Code/../../h/Testing/Testing_OS1/Threads_CPP_API_Test.hpp ****             printString("B: i="); printInt(i); printString("\n");
  73:src/Code/../../h/Testing/Testing_OS1/Threads_CPP_API_Test.hpp ****             for (uint64 j = 0; j < 10000; j++) {
  74:src/Code/../../h/Testing/Testing_OS1/Threads_CPP_API_Test.hpp ****                 for (uint64 k = 0; k < 30000; k++) {  }
  75:src/Code/../../h/Testing/Testing_OS1/Threads_CPP_API_Test.hpp ****                 thread_dispatch();
 3312              		.loc 3 75 17 is_stmt 1 discriminator 2
 3313              		.loc 3 75 32 is_stmt 0 discriminator 2
 3314 0a18 97000000 		call	_Z15thread_dispatchv@plt
 3314      E7800000 
 3315              	.LVL347:
 3316              	.LBE196:
  73:src/Code/../../h/Testing/Testing_OS1/Threads_CPP_API_Test.hpp ****                 for (uint64 k = 0; k < 30000; k++) {  }
 3317              		.loc 3 73 13 is_stmt 1 discriminator 2
 3318 0a20 93841400 		addi	s1,s1,1
 3319              	.LVL348:
 3320              	.L179:
  73:src/Code/../../h/Testing/Testing_OS1/Threads_CPP_API_Test.hpp ****                 for (uint64 k = 0; k < 30000; k++) {  }
 3321              		.loc 3 73 34 discriminator 1
 3322 0a24 B7270000 		li	a5,8192
 3323 0a28 9387F770 		addi	a5,a5,1807
 3324 0a2c 63EE9700 		bgtu	s1,a5,.L176
 3325              	.LBB198:
 3326              	.LBB197:
  74:src/Code/../../h/Testing/Testing_OS1/Threads_CPP_API_Test.hpp ****                 thread_dispatch();
 3327              		.loc 3 74 29 is_stmt 0
 3328 0a30 13070000 		li	a4,0
 3329              	.L178:
 3330              	.LVL349:
  74:src/Code/../../h/Testing/Testing_OS1/Threads_CPP_API_Test.hpp ****                 thread_dispatch();
 3331              		.loc 3 74 38 is_stmt 1 discriminator 3
 3332 0a34 B7770000 		li	a5,28672
 3333 0a38 9387F752 		addi	a5,a5,1327
 3334 0a3c E3EEE7FC 		bgtu	a4,a5,.L177
  74:src/Code/../../h/Testing/Testing_OS1/Threads_CPP_API_Test.hpp ****                 thread_dispatch();
 3335              		.loc 3 74 17 discriminator 2
 3336 0a40 13071700 		addi	a4,a4,1
GAS LISTING /tmp/ccBYUnRY.s 			page 78


 3337              	.LVL350:
 3338 0a44 6FF01FFF 		j	.L178
 3339              	.LVL351:
 3340              	.L176:
 3341              	.LBE197:
 3342              	.LBE198:
 3343              	.LBE195:
 3344              	.LBE194:
  71:src/Code/../../h/Testing/Testing_OS1/Threads_CPP_API_Test.hpp ****             printString("B: i="); printInt(i); printString("\n");
 3345              		.loc 3 71 9 discriminator 2
 3346 0a48 13091900 		addi	s2,s2,1
 3347              	.LVL352:
 3348              	.L180:
  71:src/Code/../../h/Testing/Testing_OS1/Threads_CPP_API_Test.hpp ****             printString("B: i="); printInt(i); printString("\n");
 3349              		.loc 3 71 30 discriminator 1
 3350 0a4c 9307F000 		li	a5,15
 3351 0a50 63E02705 		bgtu	s2,a5,.L175
 3352              	.LBB200:
  72:src/Code/../../h/Testing/Testing_OS1/Threads_CPP_API_Test.hpp ****             for (uint64 j = 0; j < 10000; j++) {
 3353              		.loc 3 72 13
  72:src/Code/../../h/Testing/Testing_OS1/Threads_CPP_API_Test.hpp ****             for (uint64 j = 0; j < 10000; j++) {
 3354              		.loc 3 72 24 is_stmt 0
 3355 0a54 17050000 		lla	a0,.LC3
 3355      13050500 
 3356 0a5c 97000000 		call	_Z11printStringPKc@plt
 3356      E7800000 
 3357              	.LVL353:
  72:src/Code/../../h/Testing/Testing_OS1/Threads_CPP_API_Test.hpp ****             for (uint64 j = 0; j < 10000; j++) {
 3358              		.loc 3 72 35 is_stmt 1
  72:src/Code/../../h/Testing/Testing_OS1/Threads_CPP_API_Test.hpp ****             for (uint64 j = 0; j < 10000; j++) {
 3359              		.loc 3 72 43 is_stmt 0
 3360 0a64 13060000 		li	a2,0
 3361 0a68 9305A000 		li	a1,10
 3362 0a6c 1B050900 		sext.w	a0,s2
 3363 0a70 97000000 		call	_Z8printIntiii@plt
 3363      E7800000 
 3364              	.LVL354:
  72:src/Code/../../h/Testing/Testing_OS1/Threads_CPP_API_Test.hpp ****             for (uint64 j = 0; j < 10000; j++) {
 3365              		.loc 3 72 48 is_stmt 1
  72:src/Code/../../h/Testing/Testing_OS1/Threads_CPP_API_Test.hpp ****             for (uint64 j = 0; j < 10000; j++) {
 3366              		.loc 3 72 59 is_stmt 0
 3367 0a78 17050000 		lla	a0,.LC1
 3367      13050500 
 3368 0a80 97000000 		call	_Z11printStringPKc@plt
 3368      E7800000 
 3369              	.LVL355:
  73:src/Code/../../h/Testing/Testing_OS1/Threads_CPP_API_Test.hpp ****                 for (uint64 k = 0; k < 30000; k++) {  }
 3370              		.loc 3 73 13 is_stmt 1
 3371              	.LBB199:
  73:src/Code/../../h/Testing/Testing_OS1/Threads_CPP_API_Test.hpp ****                 for (uint64 k = 0; k < 30000; k++) {  }
 3372              		.loc 3 73 25 is_stmt 0
 3373 0a88 93040000 		li	s1,0
 3374 0a8c 6FF09FF9 		j	.L179
 3375              	.LVL356:
 3376              	.L175:
 3377              	.LBE199:
 3378              	.LBE200:
GAS LISTING /tmp/ccBYUnRY.s 			page 79


 3379              	.LBE193:
  76:src/Code/../../h/Testing/Testing_OS1/Threads_CPP_API_Test.hpp ****             }
  77:src/Code/../../h/Testing/Testing_OS1/Threads_CPP_API_Test.hpp ****         }
  78:src/Code/../../h/Testing/Testing_OS1/Threads_CPP_API_Test.hpp ****         printString("B finished!\n");
 3380              		.loc 3 78 9 is_stmt 1
 3381              		.loc 3 78 20 is_stmt 0
 3382 0a90 17050000 		lla	a0,.LC4
 3382      13050500 
 3383 0a98 97000000 		call	_Z11printStringPKc@plt
 3383      E7800000 
 3384              	.LVL357:
  79:src/Code/../../h/Testing/Testing_OS1/Threads_CPP_API_Test.hpp ****         finishedB = true;
 3385              		.loc 3 79 9 is_stmt 1
 3386              		.loc 3 79 19 is_stmt 0
 3387 0aa0 93071000 		li	a5,1
 3388 0aa4 17070000 		sb	a5,.LANCHOR0+43,a4
 3388      2300F700 
  80:src/Code/../../h/Testing/Testing_OS1/Threads_CPP_API_Test.hpp ****         thread_dispatch();
 3389              		.loc 3 80 9 is_stmt 1
 3390              		.loc 3 80 24 is_stmt 0
 3391 0aac 97000000 		call	_Z15thread_dispatchv@plt
 3391      E7800000 
 3392              	.LVL358:
  81:src/Code/../../h/Testing/Testing_OS1/Threads_CPP_API_Test.hpp ****     }
 3393              		.loc 3 81 5
 3394 0ab4 83308101 		ld	ra,24(sp)
 3395              		.cfi_restore 1
 3396 0ab8 03340101 		ld	s0,16(sp)
 3397              		.cfi_restore 8
 3398              		.cfi_def_cfa 2, 32
 3399 0abc 83348100 		ld	s1,8(sp)
 3400              		.cfi_restore 9
 3401 0ac0 03390100 		ld	s2,0(sp)
 3402              		.cfi_restore 18
 3403              	.LVL359:
 3404 0ac4 13010102 		addi	sp,sp,32
 3405              		.cfi_def_cfa_offset 0
 3406 0ac8 67800000 		jr	ra
 3407              		.cfi_endproc
 3408              	.LFE74:
 3410              		.section	.text._ZN14ThreadsTestCPP7WorkerB3runEv,"axG",@progbits,_ZN14ThreadsTestCPP7WorkerB3runEv
 3411              		.align	2
 3412              		.weak	_ZN14ThreadsTestCPP7WorkerB3runEv
 3414              	_ZN14ThreadsTestCPP7WorkerB3runEv:
 3415              	.LFB64:
  34:src/Code/../../h/Testing/Testing_OS1/Threads_CPP_API_Test.hpp ****             workerBodyB(nullptr);
 3416              		.loc 3 34 14 is_stmt 1
 3417              		.cfi_startproc
 3418              	.LVL360:
 3419 0000 130101FF 		addi	sp,sp,-16
 3420              		.cfi_def_cfa_offset 16
 3421 0004 23341100 		sd	ra,8(sp)
 3422 0008 23308100 		sd	s0,0(sp)
 3423              		.cfi_offset 1, -8
 3424              		.cfi_offset 8, -16
 3425 000c 13040101 		addi	s0,sp,16
 3426              		.cfi_def_cfa 8, 0
GAS LISTING /tmp/ccBYUnRY.s 			page 80


  35:src/Code/../../h/Testing/Testing_OS1/Threads_CPP_API_Test.hpp ****         }
 3427              		.loc 3 35 13
  35:src/Code/../../h/Testing/Testing_OS1/Threads_CPP_API_Test.hpp ****         }
 3428              		.loc 3 35 24 is_stmt 0
 3429 0010 93050000 		li	a1,0
 3430 0014 97000000 		call	_ZN14ThreadsTestCPP7WorkerB11workerBodyBEPv
 3430      E7800000 
 3431              	.LVL361:
  36:src/Code/../../h/Testing/Testing_OS1/Threads_CPP_API_Test.hpp ****     };
 3432              		.loc 3 36 9
 3433 001c 83308100 		ld	ra,8(sp)
 3434              		.cfi_restore 1
 3435 0020 03340100 		ld	s0,0(sp)
 3436              		.cfi_restore 8
 3437              		.cfi_def_cfa 2, 16
 3438 0024 13010101 		addi	sp,sp,16
 3439              		.cfi_def_cfa_offset 0
 3440 0028 67800000 		jr	ra
 3441              		.cfi_endproc
 3442              	.LFE64:
 3444              		.text
 3445              		.align	2
 3446              		.globl	_ZN14ThreadsTestCPP7WorkerC11workerBodyCEPv
 3448              	_ZN14ThreadsTestCPP7WorkerC11workerBodyCEPv:
 3449              	.LFB75:
  82:src/Code/../../h/Testing/Testing_OS1/Threads_CPP_API_Test.hpp **** 
  83:src/Code/../../h/Testing/Testing_OS1/Threads_CPP_API_Test.hpp ****     void WorkerC::workerBodyC(void *arg) {
 3450              		.loc 3 83 42 is_stmt 1
 3451              		.cfi_startproc
 3452              	.LVL362:
 3453 0acc 130101FE 		addi	sp,sp,-32
 3454              		.cfi_def_cfa_offset 32
 3455 0ad0 233C1100 		sd	ra,24(sp)
 3456 0ad4 23388100 		sd	s0,16(sp)
 3457 0ad8 23349100 		sd	s1,8(sp)
 3458 0adc 23302101 		sd	s2,0(sp)
 3459              		.cfi_offset 1, -8
 3460              		.cfi_offset 8, -16
 3461              		.cfi_offset 9, -24
 3462              		.cfi_offset 18, -32
 3463 0ae0 13040102 		addi	s0,sp,32
 3464              		.cfi_def_cfa 8, 0
  84:src/Code/../../h/Testing/Testing_OS1/Threads_CPP_API_Test.hpp ****         uint8 i = 0;
 3465              		.loc 3 84 9
 3466              	.LVL363:
 3467              		.loc 3 84 15 is_stmt 0
 3468 0ae4 93040000 		li	s1,0
 3469 0ae8 6F000004 		j	.L186
 3470              	.LVL364:
 3471              	.L190:
  85:src/Code/../../h/Testing/Testing_OS1/Threads_CPP_API_Test.hpp ****         for (; i < 3; i++) {
  86:src/Code/../../h/Testing/Testing_OS1/Threads_CPP_API_Test.hpp ****             printString("C: i="); printInt(i); printString("\n");
 3472              		.loc 3 86 13 is_stmt 1 discriminator 1
 3473              		.loc 3 86 24 is_stmt 0 discriminator 1
 3474 0aec 17050000 		lla	a0,.LC7
 3474      13050500 
 3475 0af4 97000000 		call	_Z11printStringPKc@plt
GAS LISTING /tmp/ccBYUnRY.s 			page 81


 3475      E7800000 
 3476              	.LVL365:
 3477              		.loc 3 86 35 is_stmt 1 discriminator 1
 3478              		.loc 3 86 43 is_stmt 0 discriminator 1
 3479 0afc 13060000 		li	a2,0
 3480 0b00 9305A000 		li	a1,10
 3481 0b04 13850400 		mv	a0,s1
 3482 0b08 97000000 		call	_Z8printIntiii@plt
 3482      E7800000 
 3483              	.LVL366:
 3484              		.loc 3 86 48 is_stmt 1 discriminator 1
 3485              		.loc 3 86 59 is_stmt 0 discriminator 1
 3486 0b10 17050000 		lla	a0,.LC1
 3486      13050500 
 3487 0b18 97000000 		call	_Z11printStringPKc@plt
 3487      E7800000 
 3488              	.LVL367:
  85:src/Code/../../h/Testing/Testing_OS1/Threads_CPP_API_Test.hpp ****         for (; i < 3; i++) {
 3489              		.loc 3 85 9 is_stmt 1 discriminator 1
 3490 0b20 9B841400 		addiw	s1,s1,1
 3491              	.LVL368:
 3492 0b24 93F4F40F 		andi	s1,s1,0xff
 3493              	.LVL369:
 3494              	.L186:
  85:src/Code/../../h/Testing/Testing_OS1/Threads_CPP_API_Test.hpp ****         for (; i < 3; i++) {
 3495              		.loc 3 85 9 discriminator 2
  85:src/Code/../../h/Testing/Testing_OS1/Threads_CPP_API_Test.hpp ****         for (; i < 3; i++) {
 3496              		.loc 3 85 18 discriminator 2
 3497 0b28 93072000 		li	a5,2
 3498 0b2c E3F097FC 		bleu	s1,a5,.L190
  87:src/Code/../../h/Testing/Testing_OS1/Threads_CPP_API_Test.hpp ****         }
  88:src/Code/../../h/Testing/Testing_OS1/Threads_CPP_API_Test.hpp **** 
  89:src/Code/../../h/Testing/Testing_OS1/Threads_CPP_API_Test.hpp ****         printString("C: dispatch\n");
 3499              		.loc 3 89 9
 3500              		.loc 3 89 20 is_stmt 0
 3501 0b30 17050000 		lla	a0,.LC8
 3501      13050500 
 3502 0b38 97000000 		call	_Z11printStringPKc@plt
 3502      E7800000 
 3503              	.LVL370:
  90:src/Code/../../h/Testing/Testing_OS1/Threads_CPP_API_Test.hpp ****         __asm__ ("li t1, 7");
 3504              		.loc 3 90 9 is_stmt 1
 3505              		.loc 3 90 29 is_stmt 0
 3506              	#APP
 3507              	# 90 "src/Code/../../h/Testing/Testing_OS1/Threads_CPP_API_Test.hpp" 1
  91              	        thread_dispatch();
 3508              		li t1, 7
 3509              	# 0 "" 2
 3510              		.loc 3 91 9 is_stmt 1
 3511              		.loc 3 91 24 is_stmt 0
 3512              	#NO_APP
 3513 0b44 97000000 		call	_Z15thread_dispatchv@plt
 3513      E7800000 
 3514              	.LVL371:
  92:src/Code/../../h/Testing/Testing_OS1/Threads_CPP_API_Test.hpp **** 
  93:src/Code/../../h/Testing/Testing_OS1/Threads_CPP_API_Test.hpp ****         uint64 t1 = 0;
 3515              		.loc 3 93 9 is_stmt 1
GAS LISTING /tmp/ccBYUnRY.s 			page 82


  94:src/Code/../../h/Testing/Testing_OS1/Threads_CPP_API_Test.hpp ****         __asm__ ("mv %[t1], t1" : [t1] "=r"(t1));
 3516              		.loc 3 94 9
 3517              		.loc 3 94 49 is_stmt 0
 3518              	#APP
 3519              	# 94 "src/Code/../../h/Testing/Testing_OS1/Threads_CPP_API_Test.hpp" 1
  95              	
 3520              		mv s2, t1
 3521              	# 0 "" 2
 3522              	.LVL372:
  96:src/Code/../../h/Testing/Testing_OS1/Threads_CPP_API_Test.hpp ****         printString("C: t1="); printInt(t1); printString("\n");
 3523              		.loc 3 96 9 is_stmt 1
 3524              		.loc 3 96 20 is_stmt 0
 3525              	#NO_APP
 3526 0b50 17050000 		lla	a0,.LC9
 3526      13050500 
 3527 0b58 97000000 		call	_Z11printStringPKc@plt
 3527      E7800000 
 3528              	.LVL373:
 3529              		.loc 3 96 32 is_stmt 1
 3530              		.loc 3 96 40 is_stmt 0
 3531 0b60 13060000 		li	a2,0
 3532 0b64 9305A000 		li	a1,10
 3533 0b68 1B050900 		sext.w	a0,s2
 3534 0b6c 97000000 		call	_Z8printIntiii@plt
 3534      E7800000 
 3535              	.LVL374:
 3536              		.loc 3 96 46 is_stmt 1
 3537              		.loc 3 96 57 is_stmt 0
 3538 0b74 17050000 		lla	a0,.LC1
 3538      13050500 
 3539 0b7c 97000000 		call	_Z11printStringPKc@plt
 3539      E7800000 
 3540              	.LVL375:
  97:src/Code/../../h/Testing/Testing_OS1/Threads_CPP_API_Test.hpp **** 
  98:src/Code/../../h/Testing/Testing_OS1/Threads_CPP_API_Test.hpp ****         uint64 result = fibonacci(12);
 3541              		.loc 3 98 9 is_stmt 1
 3542              		.loc 3 98 34 is_stmt 0
 3543 0b84 1305C000 		li	a0,12
 3544 0b88 97000000 		call	_ZN14ThreadsTestCPP9fibonacciEm
 3544      E7800000 
 3545              	.LVL376:
 3546 0b90 13090500 		mv	s2,a0
 3547              	.LVL377:
  99:src/Code/../../h/Testing/Testing_OS1/Threads_CPP_API_Test.hpp ****         printString("C: fibonaci="); printInt(result); printString("\n");
 3548              		.loc 3 99 9 is_stmt 1
 3549              		.loc 3 99 20 is_stmt 0
 3550 0b94 17050000 		lla	a0,.LC10
 3550      13050500 
 3551              	.LVL378:
 3552 0b9c 97000000 		call	_Z11printStringPKc@plt
 3552      E7800000 
 3553              	.LVL379:
 3554              		.loc 3 99 38 is_stmt 1
 3555              		.loc 3 99 46 is_stmt 0
 3556 0ba4 13060000 		li	a2,0
 3557 0ba8 9305A000 		li	a1,10
 3558 0bac 1B050900 		sext.w	a0,s2
GAS LISTING /tmp/ccBYUnRY.s 			page 83


 3559 0bb0 97000000 		call	_Z8printIntiii@plt
 3559      E7800000 
 3560              	.LVL380:
 3561              		.loc 3 99 56 is_stmt 1
 3562              		.loc 3 99 67 is_stmt 0
 3563 0bb8 17050000 		lla	a0,.LC1
 3563      13050500 
 3564 0bc0 97000000 		call	_Z11printStringPKc@plt
 3564      E7800000 
 3565              	.LVL381:
 3566 0bc8 6F000004 		j	.L188
 3567              	.L191:
 100:src/Code/../../h/Testing/Testing_OS1/Threads_CPP_API_Test.hpp **** 
 101:src/Code/../../h/Testing/Testing_OS1/Threads_CPP_API_Test.hpp ****         for (; i < 6; i++) {
 102:src/Code/../../h/Testing/Testing_OS1/Threads_CPP_API_Test.hpp ****             printString("C: i="); printInt(i); printString("\n");
 3568              		.loc 3 102 13 is_stmt 1 discriminator 1
 3569              		.loc 3 102 24 is_stmt 0 discriminator 1
 3570 0bcc 17050000 		lla	a0,.LC7
 3570      13050500 
 3571 0bd4 97000000 		call	_Z11printStringPKc@plt
 3571      E7800000 
 3572              	.LVL382:
 3573              		.loc 3 102 35 is_stmt 1 discriminator 1
 3574              		.loc 3 102 43 is_stmt 0 discriminator 1
 3575 0bdc 13060000 		li	a2,0
 3576 0be0 9305A000 		li	a1,10
 3577 0be4 13850400 		mv	a0,s1
 3578 0be8 97000000 		call	_Z8printIntiii@plt
 3578      E7800000 
 3579              	.LVL383:
 3580              		.loc 3 102 48 is_stmt 1 discriminator 1
 3581              		.loc 3 102 59 is_stmt 0 discriminator 1
 3582 0bf0 17050000 		lla	a0,.LC1
 3582      13050500 
 3583 0bf8 97000000 		call	_Z11printStringPKc@plt
 3583      E7800000 
 3584              	.LVL384:
 101:src/Code/../../h/Testing/Testing_OS1/Threads_CPP_API_Test.hpp ****             printString("C: i="); printInt(i); printString("\n");
 3585              		.loc 3 101 9 is_stmt 1 discriminator 1
 3586 0c00 9B841400 		addiw	s1,s1,1
 3587              	.LVL385:
 3588 0c04 93F4F40F 		andi	s1,s1,0xff
 3589              	.LVL386:
 3590              	.L188:
 101:src/Code/../../h/Testing/Testing_OS1/Threads_CPP_API_Test.hpp ****             printString("C: i="); printInt(i); printString("\n");
 3591              		.loc 3 101 9 discriminator 2
 101:src/Code/../../h/Testing/Testing_OS1/Threads_CPP_API_Test.hpp ****             printString("C: i="); printInt(i); printString("\n");
 3592              		.loc 3 101 18 discriminator 2
 3593 0c08 93075000 		li	a5,5
 3594 0c0c E3F097FC 		bleu	s1,a5,.L191
 103:src/Code/../../h/Testing/Testing_OS1/Threads_CPP_API_Test.hpp ****         }
 104:src/Code/../../h/Testing/Testing_OS1/Threads_CPP_API_Test.hpp **** 
 105:src/Code/../../h/Testing/Testing_OS1/Threads_CPP_API_Test.hpp ****         printString("C finished!\n");
 3595              		.loc 3 105 9
 3596              		.loc 3 105 20 is_stmt 0
 3597 0c10 17050000 		lla	a0,.LC11
 3597      13050500 
GAS LISTING /tmp/ccBYUnRY.s 			page 84


 3598 0c18 97000000 		call	_Z11printStringPKc@plt
 3598      E7800000 
 3599              	.LVL387:
 106:src/Code/../../h/Testing/Testing_OS1/Threads_CPP_API_Test.hpp ****         finishedC = true;
 3600              		.loc 3 106 9 is_stmt 1
 3601              		.loc 3 106 19 is_stmt 0
 3602 0c20 93071000 		li	a5,1
 3603 0c24 17070000 		sb	a5,.LANCHOR0+44,a4
 3603      2300F700 
 107:src/Code/../../h/Testing/Testing_OS1/Threads_CPP_API_Test.hpp ****         thread_dispatch();
 3604              		.loc 3 107 9 is_stmt 1
 3605              		.loc 3 107 24 is_stmt 0
 3606 0c2c 97000000 		call	_Z15thread_dispatchv@plt
 3606      E7800000 
 3607              	.LVL388:
 108:src/Code/../../h/Testing/Testing_OS1/Threads_CPP_API_Test.hpp ****     }
 3608              		.loc 3 108 5
 3609 0c34 83308101 		ld	ra,24(sp)
 3610              		.cfi_restore 1
 3611 0c38 03340101 		ld	s0,16(sp)
 3612              		.cfi_restore 8
 3613              		.cfi_def_cfa 2, 32
 3614 0c3c 83348100 		ld	s1,8(sp)
 3615              		.cfi_restore 9
 3616              	.LVL389:
 3617 0c40 03390100 		ld	s2,0(sp)
 3618              		.cfi_restore 18
 3619              	.LVL390:
 3620 0c44 13010102 		addi	sp,sp,32
 3621              		.cfi_def_cfa_offset 0
 3622 0c48 67800000 		jr	ra
 3623              		.cfi_endproc
 3624              	.LFE75:
 3626              		.section	.text._ZN14ThreadsTestCPP7WorkerC3runEv,"axG",@progbits,_ZN14ThreadsTestCPP7WorkerC3runEv
 3627              		.align	2
 3628              		.weak	_ZN14ThreadsTestCPP7WorkerC3runEv
 3630              	_ZN14ThreadsTestCPP7WorkerC3runEv:
 3631              	.LFB68:
  44:src/Code/../../h/Testing/Testing_OS1/Threads_CPP_API_Test.hpp ****             workerBodyC(nullptr);
 3632              		.loc 3 44 14 is_stmt 1
 3633              		.cfi_startproc
 3634              	.LVL391:
 3635 0000 130101FF 		addi	sp,sp,-16
 3636              		.cfi_def_cfa_offset 16
 3637 0004 23341100 		sd	ra,8(sp)
 3638 0008 23308100 		sd	s0,0(sp)
 3639              		.cfi_offset 1, -8
 3640              		.cfi_offset 8, -16
 3641 000c 13040101 		addi	s0,sp,16
 3642              		.cfi_def_cfa 8, 0
  45:src/Code/../../h/Testing/Testing_OS1/Threads_CPP_API_Test.hpp ****         }
 3643              		.loc 3 45 13
  45:src/Code/../../h/Testing/Testing_OS1/Threads_CPP_API_Test.hpp ****         }
 3644              		.loc 3 45 24 is_stmt 0
 3645 0010 93050000 		li	a1,0
 3646 0014 97000000 		call	_ZN14ThreadsTestCPP7WorkerC11workerBodyCEPv
 3646      E7800000 
GAS LISTING /tmp/ccBYUnRY.s 			page 85


 3647              	.LVL392:
  46:src/Code/../../h/Testing/Testing_OS1/Threads_CPP_API_Test.hpp ****     };
 3648              		.loc 3 46 9
 3649 001c 83308100 		ld	ra,8(sp)
 3650              		.cfi_restore 1
 3651 0020 03340100 		ld	s0,0(sp)
 3652              		.cfi_restore 8
 3653              		.cfi_def_cfa 2, 16
 3654 0024 13010101 		addi	sp,sp,16
 3655              		.cfi_def_cfa_offset 0
 3656 0028 67800000 		jr	ra
 3657              		.cfi_endproc
 3658              	.LFE68:
 3660              		.text
 3661              		.align	2
 3662              		.globl	_ZN14ThreadsTestCPP7WorkerD11workerBodyDEPv
 3664              	_ZN14ThreadsTestCPP7WorkerD11workerBodyDEPv:
 3665              	.LFB76:
 109:src/Code/../../h/Testing/Testing_OS1/Threads_CPP_API_Test.hpp **** 
 110:src/Code/../../h/Testing/Testing_OS1/Threads_CPP_API_Test.hpp ****     void WorkerD::workerBodyD(void* arg) {
 3666              		.loc 3 110 42 is_stmt 1
 3667              		.cfi_startproc
 3668              	.LVL393:
 3669 0c4c 130101FE 		addi	sp,sp,-32
 3670              		.cfi_def_cfa_offset 32
 3671 0c50 233C1100 		sd	ra,24(sp)
 3672 0c54 23388100 		sd	s0,16(sp)
 3673 0c58 23349100 		sd	s1,8(sp)
 3674 0c5c 23302101 		sd	s2,0(sp)
 3675              		.cfi_offset 1, -8
 3676              		.cfi_offset 8, -16
 3677              		.cfi_offset 9, -24
 3678              		.cfi_offset 18, -32
 3679 0c60 13040102 		addi	s0,sp,32
 3680              		.cfi_def_cfa 8, 0
 111:src/Code/../../h/Testing/Testing_OS1/Threads_CPP_API_Test.hpp ****         uint8 i = 10;
 3681              		.loc 3 111 9
 3682              	.LVL394:
 3683              		.loc 3 111 15 is_stmt 0
 3684 0c64 9304A000 		li	s1,10
 3685 0c68 6F000004 		j	.L196
 3686              	.LVL395:
 3687              	.L200:
 112:src/Code/../../h/Testing/Testing_OS1/Threads_CPP_API_Test.hpp ****         for (; i < 13; i++) {
 113:src/Code/../../h/Testing/Testing_OS1/Threads_CPP_API_Test.hpp ****             printString("D: i="); printInt(i); printString("\n");
 3688              		.loc 3 113 13 is_stmt 1 discriminator 1
 3689              		.loc 3 113 24 is_stmt 0 discriminator 1
 3690 0c6c 17050000 		lla	a0,.LC12
 3690      13050500 
 3691 0c74 97000000 		call	_Z11printStringPKc@plt
 3691      E7800000 
 3692              	.LVL396:
 3693              		.loc 3 113 35 is_stmt 1 discriminator 1
 3694              		.loc 3 113 43 is_stmt 0 discriminator 1
 3695 0c7c 13060000 		li	a2,0
 3696 0c80 9305A000 		li	a1,10
 3697 0c84 13850400 		mv	a0,s1
GAS LISTING /tmp/ccBYUnRY.s 			page 86


 3698 0c88 97000000 		call	_Z8printIntiii@plt
 3698      E7800000 
 3699              	.LVL397:
 3700              		.loc 3 113 48 is_stmt 1 discriminator 1
 3701              		.loc 3 113 59 is_stmt 0 discriminator 1
 3702 0c90 17050000 		lla	a0,.LC1
 3702      13050500 
 3703 0c98 97000000 		call	_Z11printStringPKc@plt
 3703      E7800000 
 3704              	.LVL398:
 112:src/Code/../../h/Testing/Testing_OS1/Threads_CPP_API_Test.hpp ****         for (; i < 13; i++) {
 3705              		.loc 3 112 9 is_stmt 1 discriminator 1
 3706 0ca0 9B841400 		addiw	s1,s1,1
 3707              	.LVL399:
 3708 0ca4 93F4F40F 		andi	s1,s1,0xff
 3709              	.LVL400:
 3710              	.L196:
 112:src/Code/../../h/Testing/Testing_OS1/Threads_CPP_API_Test.hpp ****         for (; i < 13; i++) {
 3711              		.loc 3 112 9 discriminator 2
 112:src/Code/../../h/Testing/Testing_OS1/Threads_CPP_API_Test.hpp ****         for (; i < 13; i++) {
 3712              		.loc 3 112 18 discriminator 2
 3713 0ca8 9307C000 		li	a5,12
 3714 0cac E3F097FC 		bleu	s1,a5,.L200
 114:src/Code/../../h/Testing/Testing_OS1/Threads_CPP_API_Test.hpp ****         }
 115:src/Code/../../h/Testing/Testing_OS1/Threads_CPP_API_Test.hpp **** 
 116:src/Code/../../h/Testing/Testing_OS1/Threads_CPP_API_Test.hpp ****         printString("D: dispatch\n");
 3715              		.loc 3 116 9
 3716              		.loc 3 116 20 is_stmt 0
 3717 0cb0 17050000 		lla	a0,.LC13
 3717      13050500 
 3718 0cb8 97000000 		call	_Z11printStringPKc@plt
 3718      E7800000 
 3719              	.LVL401:
 117:src/Code/../../h/Testing/Testing_OS1/Threads_CPP_API_Test.hpp ****         __asm__ ("li t1, 5");
 3720              		.loc 3 117 9 is_stmt 1
 3721              		.loc 3 117 29 is_stmt 0
 3722              	#APP
 3723              	# 117 "src/Code/../../h/Testing/Testing_OS1/Threads_CPP_API_Test.hpp" 1
 118              	        thread_dispatch();
 3724              		li t1, 5
 3725              	# 0 "" 2
 3726              		.loc 3 118 9 is_stmt 1
 3727              		.loc 3 118 24 is_stmt 0
 3728              	#NO_APP
 3729 0cc4 97000000 		call	_Z15thread_dispatchv@plt
 3729      E7800000 
 3730              	.LVL402:
 119:src/Code/../../h/Testing/Testing_OS1/Threads_CPP_API_Test.hpp **** 
 120:src/Code/../../h/Testing/Testing_OS1/Threads_CPP_API_Test.hpp ****         uint64 result = fibonacci(16);
 3731              		.loc 3 120 9 is_stmt 1
 3732              		.loc 3 120 34 is_stmt 0
 3733 0ccc 13050001 		li	a0,16
 3734 0cd0 97000000 		call	_ZN14ThreadsTestCPP9fibonacciEm
 3734      E7800000 
 3735              	.LVL403:
 3736 0cd8 13090500 		mv	s2,a0
 3737              	.LVL404:
GAS LISTING /tmp/ccBYUnRY.s 			page 87


 121:src/Code/../../h/Testing/Testing_OS1/Threads_CPP_API_Test.hpp ****         printString("D: fibonaci="); printInt(result); printString("\n");
 3738              		.loc 3 121 9 is_stmt 1
 3739              		.loc 3 121 20 is_stmt 0
 3740 0cdc 17050000 		lla	a0,.LC14
 3740      13050500 
 3741              	.LVL405:
 3742 0ce4 97000000 		call	_Z11printStringPKc@plt
 3742      E7800000 
 3743              	.LVL406:
 3744              		.loc 3 121 38 is_stmt 1
 3745              		.loc 3 121 46 is_stmt 0
 3746 0cec 13060000 		li	a2,0
 3747 0cf0 9305A000 		li	a1,10
 3748 0cf4 1B050900 		sext.w	a0,s2
 3749 0cf8 97000000 		call	_Z8printIntiii@plt
 3749      E7800000 
 3750              	.LVL407:
 3751              		.loc 3 121 56 is_stmt 1
 3752              		.loc 3 121 67 is_stmt 0
 3753 0d00 17050000 		lla	a0,.LC1
 3753      13050500 
 3754 0d08 97000000 		call	_Z11printStringPKc@plt
 3754      E7800000 
 3755              	.LVL408:
 3756 0d10 6F000004 		j	.L198
 3757              	.L201:
 122:src/Code/../../h/Testing/Testing_OS1/Threads_CPP_API_Test.hpp **** 
 123:src/Code/../../h/Testing/Testing_OS1/Threads_CPP_API_Test.hpp ****         for (; i < 16; i++) {
 124:src/Code/../../h/Testing/Testing_OS1/Threads_CPP_API_Test.hpp ****             printString("D: i="); printInt(i); printString("\n");
 3758              		.loc 3 124 13 is_stmt 1 discriminator 1
 3759              		.loc 3 124 24 is_stmt 0 discriminator 1
 3760 0d14 17050000 		lla	a0,.LC12
 3760      13050500 
 3761 0d1c 97000000 		call	_Z11printStringPKc@plt
 3761      E7800000 
 3762              	.LVL409:
 3763              		.loc 3 124 35 is_stmt 1 discriminator 1
 3764              		.loc 3 124 43 is_stmt 0 discriminator 1
 3765 0d24 13060000 		li	a2,0
 3766 0d28 9305A000 		li	a1,10
 3767 0d2c 13850400 		mv	a0,s1
 3768 0d30 97000000 		call	_Z8printIntiii@plt
 3768      E7800000 
 3769              	.LVL410:
 3770              		.loc 3 124 48 is_stmt 1 discriminator 1
 3771              		.loc 3 124 59 is_stmt 0 discriminator 1
 3772 0d38 17050000 		lla	a0,.LC1
 3772      13050500 
 3773 0d40 97000000 		call	_Z11printStringPKc@plt
 3773      E7800000 
 3774              	.LVL411:
 123:src/Code/../../h/Testing/Testing_OS1/Threads_CPP_API_Test.hpp ****             printString("D: i="); printInt(i); printString("\n");
 3775              		.loc 3 123 9 is_stmt 1 discriminator 1
 3776 0d48 9B841400 		addiw	s1,s1,1
 3777              	.LVL412:
 3778 0d4c 93F4F40F 		andi	s1,s1,0xff
 3779              	.LVL413:
GAS LISTING /tmp/ccBYUnRY.s 			page 88


 3780              	.L198:
 123:src/Code/../../h/Testing/Testing_OS1/Threads_CPP_API_Test.hpp ****             printString("D: i="); printInt(i); printString("\n");
 3781              		.loc 3 123 9 discriminator 2
 123:src/Code/../../h/Testing/Testing_OS1/Threads_CPP_API_Test.hpp ****             printString("D: i="); printInt(i); printString("\n");
 3782              		.loc 3 123 18 discriminator 2
 3783 0d50 9307F000 		li	a5,15
 3784 0d54 E3F097FC 		bleu	s1,a5,.L201
 125:src/Code/../../h/Testing/Testing_OS1/Threads_CPP_API_Test.hpp ****         }
 126:src/Code/../../h/Testing/Testing_OS1/Threads_CPP_API_Test.hpp **** 
 127:src/Code/../../h/Testing/Testing_OS1/Threads_CPP_API_Test.hpp ****         printString("D finished!\n");
 3785              		.loc 3 127 9
 3786              		.loc 3 127 20 is_stmt 0
 3787 0d58 17050000 		lla	a0,.LC15
 3787      13050500 
 3788 0d60 97000000 		call	_Z11printStringPKc@plt
 3788      E7800000 
 3789              	.LVL414:
 128:src/Code/../../h/Testing/Testing_OS1/Threads_CPP_API_Test.hpp ****         finishedD = true;
 3790              		.loc 3 128 9 is_stmt 1
 3791              		.loc 3 128 19 is_stmt 0
 3792 0d68 93071000 		li	a5,1
 3793 0d6c 17070000 		sb	a5,.LANCHOR0+45,a4
 3793      2300F700 
 129:src/Code/../../h/Testing/Testing_OS1/Threads_CPP_API_Test.hpp ****         thread_dispatch();
 3794              		.loc 3 129 9 is_stmt 1
 3795              		.loc 3 129 24 is_stmt 0
 3796 0d74 97000000 		call	_Z15thread_dispatchv@plt
 3796      E7800000 
 3797              	.LVL415:
 130:src/Code/../../h/Testing/Testing_OS1/Threads_CPP_API_Test.hpp ****     }
 3798              		.loc 3 130 5
 3799 0d7c 83308101 		ld	ra,24(sp)
 3800              		.cfi_restore 1
 3801 0d80 03340101 		ld	s0,16(sp)
 3802              		.cfi_restore 8
 3803              		.cfi_def_cfa 2, 32
 3804 0d84 83348100 		ld	s1,8(sp)
 3805              		.cfi_restore 9
 3806              	.LVL416:
 3807 0d88 03390100 		ld	s2,0(sp)
 3808              		.cfi_restore 18
 3809              	.LVL417:
 3810 0d8c 13010102 		addi	sp,sp,32
 3811              		.cfi_def_cfa_offset 0
 3812 0d90 67800000 		jr	ra
 3813              		.cfi_endproc
 3814              	.LFE76:
 3816              		.section	.text._ZN14ThreadsTestCPP7WorkerD3runEv,"axG",@progbits,_ZN14ThreadsTestCPP7WorkerD3runEv
 3817              		.align	2
 3818              		.weak	_ZN14ThreadsTestCPP7WorkerD3runEv
 3820              	_ZN14ThreadsTestCPP7WorkerD3runEv:
 3821              	.LFB72:
  54:src/Code/../../h/Testing/Testing_OS1/Threads_CPP_API_Test.hpp ****             workerBodyD(nullptr);
 3822              		.loc 3 54 14 is_stmt 1
 3823              		.cfi_startproc
 3824              	.LVL418:
 3825 0000 130101FF 		addi	sp,sp,-16
GAS LISTING /tmp/ccBYUnRY.s 			page 89


 3826              		.cfi_def_cfa_offset 16
 3827 0004 23341100 		sd	ra,8(sp)
 3828 0008 23308100 		sd	s0,0(sp)
 3829              		.cfi_offset 1, -8
 3830              		.cfi_offset 8, -16
 3831 000c 13040101 		addi	s0,sp,16
 3832              		.cfi_def_cfa 8, 0
  55:src/Code/../../h/Testing/Testing_OS1/Threads_CPP_API_Test.hpp ****         }
 3833              		.loc 3 55 13
  55:src/Code/../../h/Testing/Testing_OS1/Threads_CPP_API_Test.hpp ****         }
 3834              		.loc 3 55 24 is_stmt 0
 3835 0010 93050000 		li	a1,0
 3836 0014 97000000 		call	_ZN14ThreadsTestCPP7WorkerD11workerBodyDEPv
 3836      E7800000 
 3837              	.LVL419:
  56:src/Code/../../h/Testing/Testing_OS1/Threads_CPP_API_Test.hpp ****     };
 3838              		.loc 3 56 9
 3839 001c 83308100 		ld	ra,8(sp)
 3840              		.cfi_restore 1
 3841 0020 03340100 		ld	s0,0(sp)
 3842              		.cfi_restore 8
 3843              		.cfi_def_cfa 2, 16
 3844 0024 13010101 		addi	sp,sp,16
 3845              		.cfi_def_cfa_offset 0
 3846 0028 67800000 		jr	ra
 3847              		.cfi_endproc
 3848              	.LFE72:
 3850              		.text
 3851              		.align	2
 3852              		.globl	_ZN14ThreadsTestCPP20Threads_CPP_API_testEv
 3854              	_ZN14ThreadsTestCPP20Threads_CPP_API_testEv:
 3855              	.LFB77:
 131:src/Code/../../h/Testing/Testing_OS1/Threads_CPP_API_Test.hpp **** 
 132:src/Code/../../h/Testing/Testing_OS1/Threads_CPP_API_Test.hpp **** 
 133:src/Code/../../h/Testing/Testing_OS1/Threads_CPP_API_Test.hpp ****     void Threads_CPP_API_test() {
 3856              		.loc 3 133 33 is_stmt 1
 3857              		.cfi_startproc
 3858              		.cfi_personality 0x9b,DW.ref.__gxx_personality_v0
 3859              		.cfi_lsda 0x1b,.LLSDA77
 3860 0d94 130101FC 		addi	sp,sp,-64
 3861              		.cfi_def_cfa_offset 64
 3862 0d98 233C1102 		sd	ra,56(sp)
 3863 0d9c 23388102 		sd	s0,48(sp)
 3864 0da0 23349102 		sd	s1,40(sp)
 3865 0da4 23302103 		sd	s2,32(sp)
 3866              		.cfi_offset 1, -8
 3867              		.cfi_offset 8, -16
 3868              		.cfi_offset 9, -24
 3869              		.cfi_offset 18, -32
 3870 0da8 13040104 		addi	s0,sp,64
 3871              		.cfi_def_cfa 8, 0
 134:src/Code/../../h/Testing/Testing_OS1/Threads_CPP_API_Test.hpp ****         Thread* threads[4];
 3872              		.loc 3 134 9
 135:src/Code/../../h/Testing/Testing_OS1/Threads_CPP_API_Test.hpp **** 
 136:src/Code/../../h/Testing/Testing_OS1/Threads_CPP_API_Test.hpp ****         threads[0] = new WorkerA();
 3873              		.loc 3 136 9
 3874              		.loc 3 136 34 is_stmt 0
GAS LISTING /tmp/ccBYUnRY.s 			page 90


 3875 0dac 13050001 		li	a0,16
 3876              	.LEHB0:
 3877 0db0 97000000 		call	_Znwm@plt
 3877      E7800000 
 3878              	.LVL420:
 3879              	.LEHE0:
 3880 0db8 93040500 		mv	s1,a0
 3881              	.LVL421:
 3882              	.LEHB1:
 3883              	.LBB201:
 3884              	.LBB202:
  22:src/Code/../../h/Testing/Testing_OS1/Threads_CPP_API_Test.hpp **** 
 3885              		.loc 3 22 26
 3886 0dbc 97000000 		call	_ZN6ThreadC2Ev@plt
 3886      E7800000 
 3887              	.LVL422:
 3888              	.LEHE1:
 3889 0dc4 97070000 		lla	a5,_ZTVN14ThreadsTestCPP7WorkerAE+16
 3889      93870700 
 3890 0dcc 23B0F400 		sd	a5,0(s1)
 3891              	.LVL423:
 3892              	.LBE202:
 3893              	.LBE201:
 3894              		.loc 3 136 20
 3895 0dd0 233094FC 		sd	s1,-64(s0)
 137:src/Code/../../h/Testing/Testing_OS1/Threads_CPP_API_Test.hpp ****         printString("ThreadA created\n");
 3896              		.loc 3 137 9 is_stmt 1
 3897              		.loc 3 137 20 is_stmt 0
 3898 0dd4 17050000 		lla	a0,.LC16
 3898      13050500 
 3899              	.LEHB2:
 3900 0ddc 97000000 		call	_Z11printStringPKc@plt
 3900      E7800000 
 3901              	.LVL424:
 138:src/Code/../../h/Testing/Testing_OS1/Threads_CPP_API_Test.hpp **** 
 139:src/Code/../../h/Testing/Testing_OS1/Threads_CPP_API_Test.hpp ****         threads[1] = new WorkerB();
 3902              		.loc 3 139 9 is_stmt 1
 3903              		.loc 3 139 34 is_stmt 0
 3904 0de4 13050001 		li	a0,16
 3905 0de8 97000000 		call	_Znwm@plt
 3905      E7800000 
 3906              	.LVL425:
 3907              	.LEHE2:
 3908 0df0 93040500 		mv	s1,a0
 3909              	.LVL426:
 3910              	.LEHB3:
 3911              	.LBB203:
 3912              	.LBB204:
  32:src/Code/../../h/Testing/Testing_OS1/Threads_CPP_API_Test.hpp **** 
 3913              		.loc 3 32 26
 3914 0df4 97000000 		call	_ZN6ThreadC2Ev@plt
 3914      E7800000 
 3915              	.LVL427:
 3916              	.LEHE3:
 3917 0dfc 97070000 		lla	a5,_ZTVN14ThreadsTestCPP7WorkerBE+16
 3917      93870700 
 3918 0e04 23B0F400 		sd	a5,0(s1)
GAS LISTING /tmp/ccBYUnRY.s 			page 91


 3919              	.LVL428:
 3920              	.LBE204:
 3921              	.LBE203:
 3922              		.loc 3 139 20
 3923 0e08 233494FC 		sd	s1,-56(s0)
 140:src/Code/../../h/Testing/Testing_OS1/Threads_CPP_API_Test.hpp ****         printString("ThreadB created\n");
 3924              		.loc 3 140 9 is_stmt 1
 3925              		.loc 3 140 20 is_stmt 0
 3926 0e0c 17050000 		lla	a0,.LC17
 3926      13050500 
 3927              	.LEHB4:
 3928 0e14 97000000 		call	_Z11printStringPKc@plt
 3928      E7800000 
 3929              	.LVL429:
 141:src/Code/../../h/Testing/Testing_OS1/Threads_CPP_API_Test.hpp **** 
 142:src/Code/../../h/Testing/Testing_OS1/Threads_CPP_API_Test.hpp ****         threads[2] = new WorkerC();
 3930              		.loc 3 142 9 is_stmt 1
 3931              		.loc 3 142 34 is_stmt 0
 3932 0e1c 13050001 		li	a0,16
 3933 0e20 97000000 		call	_Znwm@plt
 3933      E7800000 
 3934              	.LVL430:
 3935              	.LEHE4:
 3936 0e28 93040500 		mv	s1,a0
 3937              	.LVL431:
 3938              	.LEHB5:
 3939              	.LBB205:
 3940              	.LBB206:
  42:src/Code/../../h/Testing/Testing_OS1/Threads_CPP_API_Test.hpp **** 
 3941              		.loc 3 42 26
 3942 0e2c 97000000 		call	_ZN6ThreadC2Ev@plt
 3942      E7800000 
 3943              	.LVL432:
 3944              	.LEHE5:
 3945 0e34 97070000 		lla	a5,_ZTVN14ThreadsTestCPP7WorkerCE+16
 3945      93870700 
 3946 0e3c 23B0F400 		sd	a5,0(s1)
 3947              	.LVL433:
 3948              	.LBE206:
 3949              	.LBE205:
 3950              		.loc 3 142 20
 3951 0e40 233894FC 		sd	s1,-48(s0)
 143:src/Code/../../h/Testing/Testing_OS1/Threads_CPP_API_Test.hpp ****         printString("ThreadC created\n");
 3952              		.loc 3 143 9 is_stmt 1
 3953              		.loc 3 143 20 is_stmt 0
 3954 0e44 17050000 		lla	a0,.LC18
 3954      13050500 
 3955              	.LEHB6:
 3956 0e4c 97000000 		call	_Z11printStringPKc@plt
 3956      E7800000 
 3957              	.LVL434:
 144:src/Code/../../h/Testing/Testing_OS1/Threads_CPP_API_Test.hpp **** 
 145:src/Code/../../h/Testing/Testing_OS1/Threads_CPP_API_Test.hpp ****         threads[3] = new WorkerD();
 3958              		.loc 3 145 9 is_stmt 1
 3959              		.loc 3 145 34 is_stmt 0
 3960 0e54 13050001 		li	a0,16
 3961 0e58 97000000 		call	_Znwm@plt
GAS LISTING /tmp/ccBYUnRY.s 			page 92


 3961      E7800000 
 3962              	.LVL435:
 3963              	.LEHE6:
 3964 0e60 93040500 		mv	s1,a0
 3965              	.LVL436:
 3966              	.LEHB7:
 3967              	.LBB207:
 3968              	.LBB208:
  52:src/Code/../../h/Testing/Testing_OS1/Threads_CPP_API_Test.hpp **** 
 3969              		.loc 3 52 26
 3970 0e64 97000000 		call	_ZN6ThreadC2Ev@plt
 3970      E7800000 
 3971              	.LVL437:
 3972              	.LEHE7:
 3973 0e6c 97070000 		lla	a5,_ZTVN14ThreadsTestCPP7WorkerDE+16
 3973      93870700 
 3974 0e74 23B0F400 		sd	a5,0(s1)
 3975              	.LVL438:
 3976              	.LBE208:
 3977              	.LBE207:
 3978              		.loc 3 145 20
 3979 0e78 233C94FC 		sd	s1,-40(s0)
 146:src/Code/../../h/Testing/Testing_OS1/Threads_CPP_API_Test.hpp ****         printString("ThreadD created\n");
 3980              		.loc 3 146 9 is_stmt 1
 3981              		.loc 3 146 20 is_stmt 0
 3982 0e7c 17050000 		lla	a0,.LC19
 3982      13050500 
 3983              	.LEHB8:
 3984 0e84 97000000 		call	_Z11printStringPKc@plt
 3984      E7800000 
 3985              	.LVL439:
 3986              	.LBB209:
 147:src/Code/../../h/Testing/Testing_OS1/Threads_CPP_API_Test.hpp **** 
 148:src/Code/../../h/Testing/Testing_OS1/Threads_CPP_API_Test.hpp ****         for(int i=0; i<4; i++) {
 3987              		.loc 3 148 17
 3988 0e8c 93040000 		li	s1,0
 3989              	.L206:
 3990              	.LVL440:
 3991              		.loc 3 148 23 is_stmt 1 discriminator 1
 3992 0e90 93073000 		li	a5,3
 3993 0e94 63C69702 		bgt	s1,a5,.L205
 149:src/Code/../../h/Testing/Testing_OS1/Threads_CPP_API_Test.hpp ****             threads[i]->start();
 3994              		.loc 3 149 13
 3995              		.loc 3 149 22 is_stmt 0
 3996 0e98 93973400 		slli	a5,s1,3
 3997 0e9c 130704FE 		addi	a4,s0,-32
 3998 0ea0 B307F700 		add	a5,a4,a5
 3999              		.loc 3 149 30
 4000 0ea4 03B507FE 		ld	a0,-32(a5)
 4001 0ea8 97000000 		call	_ZN6Thread5startEv@plt
 4001      E7800000 
 4002              	.LVL441:
 148:src/Code/../../h/Testing/Testing_OS1/Threads_CPP_API_Test.hpp ****             threads[i]->start();
 4003              		.loc 3 148 9 is_stmt 1
 4004 0eb0 9B841400 		addiw	s1,s1,1
 4005              	.LVL442:
 4006 0eb4 6FF0DFFD 		j	.L206
GAS LISTING /tmp/ccBYUnRY.s 			page 93


 4007              	.LVL443:
 4008              	.L207:
 4009              	.LBE209:
 150:src/Code/../../h/Testing/Testing_OS1/Threads_CPP_API_Test.hpp ****         }
 151:src/Code/../../h/Testing/Testing_OS1/Threads_CPP_API_Test.hpp **** 
 152:src/Code/../../h/Testing/Testing_OS1/Threads_CPP_API_Test.hpp ****         while (!(finishedA && finishedB && finishedC && finishedD)) {
 153:src/Code/../../h/Testing/Testing_OS1/Threads_CPP_API_Test.hpp ****             Thread::dispatch();
 4010              		.loc 3 153 13
 4011              		.loc 3 153 29 is_stmt 0
 4012 0eb8 97000000 		call	_ZN6Thread8dispatchEv@plt
 4012      E7800000 
 4013              	.LVL444:
 4014              	.LEHE8:
 4015              	.L205:
 152:src/Code/../../h/Testing/Testing_OS1/Threads_CPP_API_Test.hpp ****             Thread::dispatch();
 4016              		.loc 3 152 9 is_stmt 1
 152:src/Code/../../h/Testing/Testing_OS1/Threads_CPP_API_Test.hpp ****             Thread::dispatch();
 4017              		.loc 3 152 16
 4018 0ec0 97070000 		lbu	a5,.LANCHOR0+42
 4018      83C70700 
 4019 0ec8 E38807FE 		beqz	a5,.L207
 152:src/Code/../../h/Testing/Testing_OS1/Threads_CPP_API_Test.hpp ****             Thread::dispatch();
 4020              		.loc 3 152 28 is_stmt 0 discriminator 1
 4021 0ecc 97070000 		lbu	a5,.LANCHOR0+43
 4021      83C70700 
 4022 0ed4 E38207FE 		beqz	a5,.L207
 152:src/Code/../../h/Testing/Testing_OS1/Threads_CPP_API_Test.hpp ****             Thread::dispatch();
 4023              		.loc 3 152 41 discriminator 2
 4024 0ed8 97070000 		lbu	a5,.LANCHOR0+44
 4024      83C70700 
 4025 0ee0 E38C07FC 		beqz	a5,.L207
 152:src/Code/../../h/Testing/Testing_OS1/Threads_CPP_API_Test.hpp ****             Thread::dispatch();
 4026              		.loc 3 152 16 discriminator 3
 4027 0ee4 97070000 		lbu	a5,.LANCHOR0+45
 4027      83C70700 
 4028 0eec E38607FC 		beqz	a5,.L207
 4029              	.LBB210:
 154:src/Code/../../h/Testing/Testing_OS1/Threads_CPP_API_Test.hpp ****         }
 155:src/Code/../../h/Testing/Testing_OS1/Threads_CPP_API_Test.hpp **** 
 156:src/Code/../../h/Testing/Testing_OS1/Threads_CPP_API_Test.hpp ****         for (auto thread: threads) { delete thread; }
 4030              		.loc 3 156 27
 4031 0ef0 930404FC 		addi	s1,s0,-64
 4032              	.LVL445:
 4033 0ef4 6F008000 		j	.L208
 4034              	.LVL446:
 4035              	.L210:
 4036              		.loc 3 156 9 is_stmt 1 discriminator 5
 4037 0ef8 93848400 		addi	s1,s1,8
 4038              	.LVL447:
 4039              	.L208:
 4040              		.loc 3 156 27 discriminator 6
 4041 0efc 930704FE 		addi	a5,s0,-32
 4042 0f00 6386F408 		beq	s1,a5,.L204
 4043              		.loc 3 156 19 is_stmt 0 discriminator 2
 4044 0f04 03B50400 		ld	a0,0(s1)
 4045              	.LVL448:
 4046              		.loc 3 156 38 is_stmt 1 discriminator 2
GAS LISTING /tmp/ccBYUnRY.s 			page 94


 4047              		.loc 3 156 51 is_stmt 0 discriminator 2
 4048 0f08 E30805FE 		beqz	a0,.L210
 4049              		.loc 3 156 45 discriminator 3
 4050 0f0c 83370500 		ld	a5,0(a0)
 4051 0f10 83B78700 		ld	a5,8(a5)
 4052 0f14 E7800700 		jalr	a5
 4053              	.LVL449:
 4054 0f18 6FF01FFE 		j	.L210
 4055              	.LVL450:
 4056              	.L216:
 4057 0f1c 13090500 		mv	s2,a0
 4058              	.LBE210:
 136:src/Code/../../h/Testing/Testing_OS1/Threads_CPP_API_Test.hpp ****         printString("ThreadA created\n");
 4059              		.loc 3 136 34
 4060 0f20 13850400 		mv	a0,s1
 4061 0f24 97000000 		call	_ZdlPv@plt
 4061      E7800000 
 4062              	.LVL451:
 4063 0f2c 13050900 		mv	a0,s2
 4064              	.LEHB9:
 4065 0f30 97000000 		call	_Unwind_Resume@plt
 4065      E7800000 
 4066              	.LVL452:
 4067              	.LEHE9:
 4068              	.L217:
 4069 0f38 13090500 		mv	s2,a0
 139:src/Code/../../h/Testing/Testing_OS1/Threads_CPP_API_Test.hpp ****         printString("ThreadB created\n");
 4070              		.loc 3 139 34
 4071 0f3c 13850400 		mv	a0,s1
 4072 0f40 97000000 		call	_ZdlPv@plt
 4072      E7800000 
 4073              	.LVL453:
 4074 0f48 13050900 		mv	a0,s2
 4075              	.LEHB10:
 4076 0f4c 97000000 		call	_Unwind_Resume@plt
 4076      E7800000 
 4077              	.LVL454:
 4078              	.LEHE10:
 4079              	.L218:
 4080 0f54 13090500 		mv	s2,a0
 142:src/Code/../../h/Testing/Testing_OS1/Threads_CPP_API_Test.hpp ****         printString("ThreadC created\n");
 4081              		.loc 3 142 34
 4082 0f58 13850400 		mv	a0,s1
 4083 0f5c 97000000 		call	_ZdlPv@plt
 4083      E7800000 
 4084              	.LVL455:
 4085 0f64 13050900 		mv	a0,s2
 4086              	.LEHB11:
 4087 0f68 97000000 		call	_Unwind_Resume@plt
 4087      E7800000 
 4088              	.LVL456:
 4089              	.LEHE11:
 4090              	.L219:
 4091 0f70 13090500 		mv	s2,a0
 145:src/Code/../../h/Testing/Testing_OS1/Threads_CPP_API_Test.hpp ****         printString("ThreadD created\n");
 4092              		.loc 3 145 34
 4093 0f74 13850400 		mv	a0,s1
GAS LISTING /tmp/ccBYUnRY.s 			page 95


 4094 0f78 97000000 		call	_ZdlPv@plt
 4094      E7800000 
 4095              	.LVL457:
 4096 0f80 13050900 		mv	a0,s2
 4097              	.LEHB12:
 4098 0f84 97000000 		call	_Unwind_Resume@plt
 4098      E7800000 
 4099              	.LVL458:
 4100              	.LEHE12:
 4101              	.L204:
 157:src/Code/../../h/Testing/Testing_OS1/Threads_CPP_API_Test.hpp ****     }
 4102              		.loc 3 157 5
 4103 0f8c 83308103 		ld	ra,56(sp)
 4104              		.cfi_restore 1
 4105 0f90 03340103 		ld	s0,48(sp)
 4106              		.cfi_restore 8
 4107              		.cfi_def_cfa 2, 64
 4108 0f94 83348102 		ld	s1,40(sp)
 4109              		.cfi_restore 9
 4110              	.LVL459:
 4111 0f98 03390102 		ld	s2,32(sp)
 4112              		.cfi_restore 18
 4113 0f9c 13010104 		addi	sp,sp,64
 4114              		.cfi_def_cfa_offset 0
 4115 0fa0 67800000 		jr	ra
 4116              		.cfi_endproc
 4117              	.LFE77:
 4118              		.globl	__gxx_personality_v0
 4119              		.section	.gcc_except_table,"a",@progbits
 4120              	.LLSDA77:
 4121 0000 FF       		.byte	0xff
 4122 0001 FF       		.byte	0xff
 4123 0002 03       		.byte	0x3
 4124 0003 A901     		.byte	0xa9,0x1
 4125 0005 00000000 		.4byte	.LEHB0-.LFB77
 4126 0009 00000000 		.4byte	.LEHE0-.LEHB0
 4127 000d 00000000 		.4byte	0
 4128 0011 00       		.byte	0
 4129 0012 00000000 		.4byte	.LEHB1-.LFB77
 4130 0016 00000000 		.4byte	.LEHE1-.LEHB1
 4131 001a 00000000 		.4byte	.L216-.LFB77
 4132 001e 00       		.byte	0
 4133 001f 00000000 		.4byte	.LEHB2-.LFB77
 4134 0023 00000000 		.4byte	.LEHE2-.LEHB2
 4135 0027 00000000 		.4byte	0
 4136 002b 00       		.byte	0
 4137 002c 00000000 		.4byte	.LEHB3-.LFB77
 4138 0030 00000000 		.4byte	.LEHE3-.LEHB3
 4139 0034 00000000 		.4byte	.L217-.LFB77
 4140 0038 00       		.byte	0
 4141 0039 00000000 		.4byte	.LEHB4-.LFB77
 4142 003d 00000000 		.4byte	.LEHE4-.LEHB4
 4143 0041 00000000 		.4byte	0
 4144 0045 00       		.byte	0
 4145 0046 00000000 		.4byte	.LEHB5-.LFB77
 4146 004a 00000000 		.4byte	.LEHE5-.LEHB5
 4147 004e 00000000 		.4byte	.L218-.LFB77
GAS LISTING /tmp/ccBYUnRY.s 			page 96


 4148 0052 00       		.byte	0
 4149 0053 00000000 		.4byte	.LEHB6-.LFB77
 4150 0057 00000000 		.4byte	.LEHE6-.LEHB6
 4151 005b 00000000 		.4byte	0
 4152 005f 00       		.byte	0
 4153 0060 00000000 		.4byte	.LEHB7-.LFB77
 4154 0064 00000000 		.4byte	.LEHE7-.LEHB7
 4155 0068 00000000 		.4byte	.L219-.LFB77
 4156 006c 00       		.byte	0
 4157 006d 00000000 		.4byte	.LEHB8-.LFB77
 4158 0071 00000000 		.4byte	.LEHE8-.LEHB8
 4159 0075 00000000 		.4byte	0
 4160 0079 00       		.byte	0
 4161 007a 00000000 		.4byte	.LEHB9-.LFB77
 4162 007e 00000000 		.4byte	.LEHE9-.LEHB9
 4163 0082 00000000 		.4byte	0
 4164 0086 00       		.byte	0
 4165 0087 00000000 		.4byte	.LEHB10-.LFB77
 4166 008b 00000000 		.4byte	.LEHE10-.LEHB10
 4167 008f 00000000 		.4byte	0
 4168 0093 00       		.byte	0
 4169 0094 00000000 		.4byte	.LEHB11-.LFB77
 4170 0098 00000000 		.4byte	.LEHE11-.LEHB11
 4171 009c 00000000 		.4byte	0
 4172 00a0 00       		.byte	0
 4173 00a1 00000000 		.4byte	.LEHB12-.LFB77
 4174 00a5 00000000 		.4byte	.LEHE12-.LEHB12
 4175 00a9 00000000 		.4byte	0
 4176 00ad 00       		.byte	0
 4177              		.text
 4179              		.section	.rodata.str1.8
 4180 0119 00000000 		.align	3
 4180      000000
 4181              	.LC20:
 4182 0120 556E6573 		.string	"Unesite broj proizvodjaca?\n"
 4182      69746520 
 4182      62726F6A 
 4182      2070726F 
 4182      697A766F 
 4183 013c 00000000 		.align	3
 4184              	.LC21:
 4185 0140 556E6573 		.string	"Unesite velicinu bafera?\n"
 4185      69746520 
 4185      76656C69 
 4185      63696E75 
 4185      20626166 
 4186 015a 00000000 		.align	3
 4186      0000
 4187              	.LC22:
 4188 0160 42726F6A 		.string	"Broj proizvodjaca "
 4188      2070726F 
 4188      697A766F 
 4188      646A6163 
 4188      612000
 4189 0173 00000000 		.align	3
 4189      00
 4190              	.LC23:
GAS LISTING /tmp/ccBYUnRY.s 			page 97


 4191 0178 20692076 		.string	" i velicina bafera "
 4191      656C6963 
 4191      696E6120 
 4191      62616665 
 4191      72612000 
 4192 018c 00000000 		.align	3
 4193              	.LC24:
 4194 0190 2E0A00   		.string	".\n"
 4195 0193 00000000 		.align	3
 4195      00
 4196              	.LC25:
 4197 0198 42726F6A 		.string	"Broj proizvodjaca ne sme biti veci od velicine bafera!\n"
 4197      2070726F 
 4197      697A766F 
 4197      646A6163 
 4197      61206E65 
 4198              		.align	3
 4199              	.LC26:
 4200 01d0 42726F6A 		.string	"Broj proizvodjaca mora biti veci od nula!\n"
 4200      2070726F 
 4200      697A766F 
 4200      646A6163 
 4200      61206D6F 
 4201              		.text
 4202              		.align	2
 4203              		.globl	_ZN21ConsumerProducerSyncC33Consumer_Producer_Sync_C_API_TestEv
 4205              	_ZN21ConsumerProducerSyncC33Consumer_Producer_Sync_C_API_TestEv:
 4206              	.LFB81:
  81:src/Code/../../h/Testing/Testing_OS1/Consumer_Producer_C_API_Test.hpp **** 
  82:src/Code/../../h/Testing/Testing_OS1/Consumer_Producer_C_API_Test.hpp ****     void Consumer_Producer_Sync_C_API_Test() {
 4207              		.loc 8 82 46 is_stmt 1
 4208              		.cfi_startproc
 4209              		.cfi_personality 0x9b,DW.ref.__gxx_personality_v0
 4210              		.cfi_lsda 0x1b,.LLSDA81
 4211 0fa4 130101F9 		addi	sp,sp,-112
 4212              		.cfi_def_cfa_offset 112
 4213 0fa8 23341106 		sd	ra,104(sp)
 4214 0fac 23308106 		sd	s0,96(sp)
 4215 0fb0 233C9104 		sd	s1,88(sp)
 4216 0fb4 23382105 		sd	s2,80(sp)
 4217 0fb8 23343105 		sd	s3,72(sp)
 4218 0fbc 23304105 		sd	s4,64(sp)
 4219 0fc0 233C5103 		sd	s5,56(sp)
 4220 0fc4 23386103 		sd	s6,48(sp)
 4221              		.cfi_offset 1, -8
 4222              		.cfi_offset 8, -16
 4223              		.cfi_offset 9, -24
 4224              		.cfi_offset 18, -32
 4225              		.cfi_offset 19, -40
 4226              		.cfi_offset 20, -48
 4227              		.cfi_offset 21, -56
 4228              		.cfi_offset 22, -64
 4229 0fc8 13040107 		addi	s0,sp,112
 4230              		.cfi_def_cfa 8, 0
  83:src/Code/../../h/Testing/Testing_OS1/Consumer_Producer_C_API_Test.hpp ****         char input[30];
  84:src/Code/../../h/Testing/Testing_OS1/Consumer_Producer_C_API_Test.hpp ****         int n, threadNum;
  85:src/Code/../../h/Testing/Testing_OS1/Consumer_Producer_C_API_Test.hpp **** 
GAS LISTING /tmp/ccBYUnRY.s 			page 98


  86:src/Code/../../h/Testing/Testing_OS1/Consumer_Producer_C_API_Test.hpp ****         printString("Unesite broj proizvodjaca?\n");
  87:src/Code/../../h/Testing/Testing_OS1/Consumer_Producer_C_API_Test.hpp ****         getString(input, 30);
  88:src/Code/../../h/Testing/Testing_OS1/Consumer_Producer_C_API_Test.hpp ****         threadNum = stringToInt(input);
  89:src/Code/../../h/Testing/Testing_OS1/Consumer_Producer_C_API_Test.hpp **** 
  90:src/Code/../../h/Testing/Testing_OS1/Consumer_Producer_C_API_Test.hpp ****         printString("Unesite velicinu bafera?\n");
  91:src/Code/../../h/Testing/Testing_OS1/Consumer_Producer_C_API_Test.hpp ****         getString(input, 30);
  92:src/Code/../../h/Testing/Testing_OS1/Consumer_Producer_C_API_Test.hpp ****         n = stringToInt(input);
  93:src/Code/../../h/Testing/Testing_OS1/Consumer_Producer_C_API_Test.hpp **** 
  94:src/Code/../../h/Testing/Testing_OS1/Consumer_Producer_C_API_Test.hpp ****         printString("Broj proizvodjaca "); printInt(threadNum);
  95:src/Code/../../h/Testing/Testing_OS1/Consumer_Producer_C_API_Test.hpp ****         printString(" i velicina bafera "); printInt(n);
  96:src/Code/../../h/Testing/Testing_OS1/Consumer_Producer_C_API_Test.hpp ****         printString(".\n");
  97:src/Code/../../h/Testing/Testing_OS1/Consumer_Producer_C_API_Test.hpp **** 
  98:src/Code/../../h/Testing/Testing_OS1/Consumer_Producer_C_API_Test.hpp ****         if(threadNum > n) {
  99:src/Code/../../h/Testing/Testing_OS1/Consumer_Producer_C_API_Test.hpp ****             printString("Broj proizvodjaca ne sme biti veci od velicine bafera!\n");
 100:src/Code/../../h/Testing/Testing_OS1/Consumer_Producer_C_API_Test.hpp ****             return;
 101:src/Code/../../h/Testing/Testing_OS1/Consumer_Producer_C_API_Test.hpp ****         } else if (threadNum < 1) {
 102:src/Code/../../h/Testing/Testing_OS1/Consumer_Producer_C_API_Test.hpp ****             printString("Broj proizvodjaca mora biti veci od nula!\n");
 103:src/Code/../../h/Testing/Testing_OS1/Consumer_Producer_C_API_Test.hpp ****             return;
 104:src/Code/../../h/Testing/Testing_OS1/Consumer_Producer_C_API_Test.hpp ****         }
 105:src/Code/../../h/Testing/Testing_OS1/Consumer_Producer_C_API_Test.hpp **** 
 106:src/Code/../../h/Testing/Testing_OS1/Consumer_Producer_C_API_Test.hpp ****         BufferTestCPP::BufferCPP *buffer = new BufferTestCPP::BufferCPP(n);
 107:src/Code/../../h/Testing/Testing_OS1/Consumer_Producer_C_API_Test.hpp **** 
 108:src/Code/../../h/Testing/Testing_OS1/Consumer_Producer_C_API_Test.hpp ****         sem_open(&waitForAll, 0);
 109:src/Code/../../h/Testing/Testing_OS1/Consumer_Producer_C_API_Test.hpp **** 
 110:src/Code/../../h/Testing/Testing_OS1/Consumer_Producer_C_API_Test.hpp ****         thread_t threads[threadNum];
 111:src/Code/../../h/Testing/Testing_OS1/Consumer_Producer_C_API_Test.hpp ****         thread_t consumerThread;
 112:src/Code/../../h/Testing/Testing_OS1/Consumer_Producer_C_API_Test.hpp **** 
 113:src/Code/../../h/Testing/Testing_OS1/Consumer_Producer_C_API_Test.hpp ****         struct thread_data data[threadNum + 1];
 114:src/Code/../../h/Testing/Testing_OS1/Consumer_Producer_C_API_Test.hpp **** 
 115:src/Code/../../h/Testing/Testing_OS1/Consumer_Producer_C_API_Test.hpp ****         data[threadNum].id = threadNum;
 116:src/Code/../../h/Testing/Testing_OS1/Consumer_Producer_C_API_Test.hpp ****         data[threadNum].buffer = buffer;
 117:src/Code/../../h/Testing/Testing_OS1/Consumer_Producer_C_API_Test.hpp ****         data[threadNum].wait = waitForAll;
 118:src/Code/../../h/Testing/Testing_OS1/Consumer_Producer_C_API_Test.hpp ****         thread_create(&consumerThread, consumer, data + threadNum);
 119:src/Code/../../h/Testing/Testing_OS1/Consumer_Producer_C_API_Test.hpp **** 
 120:src/Code/../../h/Testing/Testing_OS1/Consumer_Producer_C_API_Test.hpp ****         for (int i = 0; i < threadNum; i++) {
 121:src/Code/../../h/Testing/Testing_OS1/Consumer_Producer_C_API_Test.hpp ****             data[i].id = i;
 122:src/Code/../../h/Testing/Testing_OS1/Consumer_Producer_C_API_Test.hpp ****             data[i].buffer = buffer;
 123:src/Code/../../h/Testing/Testing_OS1/Consumer_Producer_C_API_Test.hpp ****             data[i].wait = waitForAll;
 124:src/Code/../../h/Testing/Testing_OS1/Consumer_Producer_C_API_Test.hpp **** 
 125:src/Code/../../h/Testing/Testing_OS1/Consumer_Producer_C_API_Test.hpp ****             thread_create(threads + i,
 126:src/Code/../../h/Testing/Testing_OS1/Consumer_Producer_C_API_Test.hpp ****                           i > 0 ? producer : producerKeyboard,
 127:src/Code/../../h/Testing/Testing_OS1/Consumer_Producer_C_API_Test.hpp ****                           data + i);
 128:src/Code/../../h/Testing/Testing_OS1/Consumer_Producer_C_API_Test.hpp ****         }
 129:src/Code/../../h/Testing/Testing_OS1/Consumer_Producer_C_API_Test.hpp **** 
 130:src/Code/../../h/Testing/Testing_OS1/Consumer_Producer_C_API_Test.hpp ****         thread_dispatch();
 131:src/Code/../../h/Testing/Testing_OS1/Consumer_Producer_C_API_Test.hpp **** 
 132:src/Code/../../h/Testing/Testing_OS1/Consumer_Producer_C_API_Test.hpp ****         for (int i = 0; i <= threadNum; i++) {
 133:src/Code/../../h/Testing/Testing_OS1/Consumer_Producer_C_API_Test.hpp ****             sem_wait(waitForAll);
 134:src/Code/../../h/Testing/Testing_OS1/Consumer_Producer_C_API_Test.hpp ****         }
 135:src/Code/../../h/Testing/Testing_OS1/Consumer_Producer_C_API_Test.hpp **** 
 136:src/Code/../../h/Testing/Testing_OS1/Consumer_Producer_C_API_Test.hpp ****         sem_close(waitForAll);
 137:src/Code/../../h/Testing/Testing_OS1/Consumer_Producer_C_API_Test.hpp **** 
 138:src/Code/../../h/Testing/Testing_OS1/Consumer_Producer_C_API_Test.hpp ****         delete buffer;
 4231              		.loc 8 138 22 is_stmt 0
 4232 0fcc 130B0100 		mv	s6,sp
  83:src/Code/../../h/Testing/Testing_OS1/Consumer_Producer_C_API_Test.hpp ****         char input[30];
 4233              		.loc 8 83 9 is_stmt 1
GAS LISTING /tmp/ccBYUnRY.s 			page 99


  84:src/Code/../../h/Testing/Testing_OS1/Consumer_Producer_C_API_Test.hpp **** 
 4234              		.loc 8 84 9
  86:src/Code/../../h/Testing/Testing_OS1/Consumer_Producer_C_API_Test.hpp ****         getString(input, 30);
 4235              		.loc 8 86 9
  86:src/Code/../../h/Testing/Testing_OS1/Consumer_Producer_C_API_Test.hpp ****         getString(input, 30);
 4236              		.loc 8 86 20 is_stmt 0
 4237 0fd0 17050000 		lla	a0,.LC20
 4237      13050500 
 4238              	.LEHB13:
 4239 0fd8 97000000 		call	_Z11printStringPKc@plt
 4239      E7800000 
 4240              	.LVL460:
  87:src/Code/../../h/Testing/Testing_OS1/Consumer_Producer_C_API_Test.hpp ****         threadNum = stringToInt(input);
 4241              		.loc 8 87 9 is_stmt 1
  87:src/Code/../../h/Testing/Testing_OS1/Consumer_Producer_C_API_Test.hpp ****         threadNum = stringToInt(input);
 4242              		.loc 8 87 18 is_stmt 0
 4243 0fe0 9305E001 		li	a1,30
 4244 0fe4 930404FA 		addi	s1,s0,-96
 4245 0fe8 13850400 		mv	a0,s1
 4246 0fec 97000000 		call	_Z9getStringPci@plt
 4246      E7800000 
 4247              	.LVL461:
  88:src/Code/../../h/Testing/Testing_OS1/Consumer_Producer_C_API_Test.hpp **** 
 4248              		.loc 8 88 9 is_stmt 1
  88:src/Code/../../h/Testing/Testing_OS1/Consumer_Producer_C_API_Test.hpp **** 
 4249              		.loc 8 88 32 is_stmt 0
 4250 0ff4 13850400 		mv	a0,s1
 4251 0ff8 97000000 		call	_Z11stringToIntPKc@plt
 4251      E7800000 
 4252              	.LVL462:
 4253 1000 13090500 		mv	s2,a0
 4254              	.LVL463:
  90:src/Code/../../h/Testing/Testing_OS1/Consumer_Producer_C_API_Test.hpp ****         getString(input, 30);
 4255              		.loc 8 90 9 is_stmt 1
  90:src/Code/../../h/Testing/Testing_OS1/Consumer_Producer_C_API_Test.hpp ****         getString(input, 30);
 4256              		.loc 8 90 20 is_stmt 0
 4257 1004 17050000 		lla	a0,.LC21
 4257      13050500 
 4258 100c 97000000 		call	_Z11printStringPKc@plt
 4258      E7800000 
 4259              	.LVL464:
  91:src/Code/../../h/Testing/Testing_OS1/Consumer_Producer_C_API_Test.hpp ****         n = stringToInt(input);
 4260              		.loc 8 91 9 is_stmt 1
  91:src/Code/../../h/Testing/Testing_OS1/Consumer_Producer_C_API_Test.hpp ****         n = stringToInt(input);
 4261              		.loc 8 91 18 is_stmt 0
 4262 1014 9305E001 		li	a1,30
 4263 1018 13850400 		mv	a0,s1
 4264 101c 97000000 		call	_Z9getStringPci@plt
 4264      E7800000 
 4265              	.LVL465:
  92:src/Code/../../h/Testing/Testing_OS1/Consumer_Producer_C_API_Test.hpp **** 
 4266              		.loc 8 92 9 is_stmt 1
  92:src/Code/../../h/Testing/Testing_OS1/Consumer_Producer_C_API_Test.hpp **** 
 4267              		.loc 8 92 24 is_stmt 0
 4268 1024 13850400 		mv	a0,s1
 4269 1028 97000000 		call	_Z11stringToIntPKc@plt
 4269      E7800000 
GAS LISTING /tmp/ccBYUnRY.s 			page 100


 4270              	.LVL466:
 4271 1030 93040500 		mv	s1,a0
 4272              	.LVL467:
  94:src/Code/../../h/Testing/Testing_OS1/Consumer_Producer_C_API_Test.hpp ****         printString(" i velicina bafera "); printInt(n);
 4273              		.loc 8 94 9 is_stmt 1
  94:src/Code/../../h/Testing/Testing_OS1/Consumer_Producer_C_API_Test.hpp ****         printString(" i velicina bafera "); printInt(n);
 4274              		.loc 8 94 20 is_stmt 0
 4275 1034 17050000 		lla	a0,.LC22
 4275      13050500 
 4276 103c 97000000 		call	_Z11printStringPKc@plt
 4276      E7800000 
 4277              	.LVL468:
  94:src/Code/../../h/Testing/Testing_OS1/Consumer_Producer_C_API_Test.hpp ****         printString(" i velicina bafera "); printInt(n);
 4278              		.loc 8 94 44 is_stmt 1
  94:src/Code/../../h/Testing/Testing_OS1/Consumer_Producer_C_API_Test.hpp ****         printString(" i velicina bafera "); printInt(n);
 4279              		.loc 8 94 52 is_stmt 0
 4280 1044 13060000 		li	a2,0
 4281 1048 9305A000 		li	a1,10
 4282 104c 13050900 		mv	a0,s2
 4283 1050 97000000 		call	_Z8printIntiii@plt
 4283      E7800000 
 4284              	.LVL469:
  95:src/Code/../../h/Testing/Testing_OS1/Consumer_Producer_C_API_Test.hpp ****         printString(".\n");
 4285              		.loc 8 95 9 is_stmt 1
  95:src/Code/../../h/Testing/Testing_OS1/Consumer_Producer_C_API_Test.hpp ****         printString(".\n");
 4286              		.loc 8 95 20 is_stmt 0
 4287 1058 17050000 		lla	a0,.LC23
 4287      13050500 
 4288 1060 97000000 		call	_Z11printStringPKc@plt
 4288      E7800000 
 4289              	.LVL470:
  95:src/Code/../../h/Testing/Testing_OS1/Consumer_Producer_C_API_Test.hpp ****         printString(".\n");
 4290              		.loc 8 95 45 is_stmt 1
  95:src/Code/../../h/Testing/Testing_OS1/Consumer_Producer_C_API_Test.hpp ****         printString(".\n");
 4291              		.loc 8 95 53 is_stmt 0
 4292 1068 13060000 		li	a2,0
 4293 106c 9305A000 		li	a1,10
 4294 1070 13850400 		mv	a0,s1
 4295 1074 97000000 		call	_Z8printIntiii@plt
 4295      E7800000 
 4296              	.LVL471:
  96:src/Code/../../h/Testing/Testing_OS1/Consumer_Producer_C_API_Test.hpp **** 
 4297              		.loc 8 96 9 is_stmt 1
  96:src/Code/../../h/Testing/Testing_OS1/Consumer_Producer_C_API_Test.hpp **** 
 4298              		.loc 8 96 20 is_stmt 0
 4299 107c 17050000 		lla	a0,.LC24
 4299      13050500 
 4300 1084 97000000 		call	_Z11printStringPKc@plt
 4300      E7800000 
 4301              	.LVL472:
  98:src/Code/../../h/Testing/Testing_OS1/Consumer_Producer_C_API_Test.hpp ****             printString("Broj proizvodjaca ne sme biti veci od velicine bafera!\n");
 4302              		.loc 8 98 9 is_stmt 1
 4303 108c 63C42403 		bgt	s2,s1,.L236
 101:src/Code/../../h/Testing/Testing_OS1/Consumer_Producer_C_API_Test.hpp ****             printString("Broj proizvodjaca mora biti veci od nula!\n");
 4304              		.loc 8 101 16
 4305 1090 635C2003 		blez	s2,.L237
 106:src/Code/../../h/Testing/Testing_OS1/Consumer_Producer_C_API_Test.hpp **** 
GAS LISTING /tmp/ccBYUnRY.s 			page 101


 4306              		.loc 8 106 9
 106:src/Code/../../h/Testing/Testing_OS1/Consumer_Producer_C_API_Test.hpp **** 
 4307              		.loc 8 106 74 is_stmt 0
 4308 1094 13058003 		li	a0,56
 4309 1098 97000000 		call	_Znwm@plt
 4309      E7800000 
 4310              	.LVL473:
 4311              	.LEHE13:
 4312 10a0 130A0500 		mv	s4,a0
 4313 10a4 93850400 		mv	a1,s1
 4314              	.LEHB14:
 4315 10a8 97000000 		call	_ZN13BufferTestCPP9BufferCPPC1Ei@plt
 4315      E7800000 
 4316              	.LVL474:
 4317              	.LEHE14:
 4318 10b0 6F000003 		j	.L238
 4319              	.L236:
  99:src/Code/../../h/Testing/Testing_OS1/Consumer_Producer_C_API_Test.hpp ****             return;
 4320              		.loc 8 99 13 is_stmt 1
  99:src/Code/../../h/Testing/Testing_OS1/Consumer_Producer_C_API_Test.hpp ****             return;
 4321              		.loc 8 99 24 is_stmt 0
 4322 10b4 17050000 		lla	a0,.LC25
 4322      13050500 
 4323              	.LEHB15:
 4324 10bc 97000000 		call	_Z11printStringPKc@plt
 4324      E7800000 
 4325              	.LVL475:
 100:src/Code/../../h/Testing/Testing_OS1/Consumer_Producer_C_API_Test.hpp ****         } else if (threadNum < 1) {
 4326              		.loc 8 100 13 is_stmt 1
 4327 10c4 6F004001 		j	.L223
 4328              	.L237:
 102:src/Code/../../h/Testing/Testing_OS1/Consumer_Producer_C_API_Test.hpp ****             return;
 4329              		.loc 8 102 13
 102:src/Code/../../h/Testing/Testing_OS1/Consumer_Producer_C_API_Test.hpp ****             return;
 4330              		.loc 8 102 24 is_stmt 0
 4331 10c8 17050000 		lla	a0,.LC26
 4331      13050500 
 4332 10d0 97000000 		call	_Z11printStringPKc@plt
 4332      E7800000 
 4333              	.LVL476:
 103:src/Code/../../h/Testing/Testing_OS1/Consumer_Producer_C_API_Test.hpp ****         }
 4334              		.loc 8 103 13 is_stmt 1
 4335              	.L223:
 4336 10d8 13010B00 		mv	sp,s6
 4337 10dc 6F000015 		j	.L221
 4338              	.L238:
 4339              	.LVL477:
 108:src/Code/../../h/Testing/Testing_OS1/Consumer_Producer_C_API_Test.hpp **** 
 4340              		.loc 8 108 9 discriminator 3
 108:src/Code/../../h/Testing/Testing_OS1/Consumer_Producer_C_API_Test.hpp **** 
 4341              		.loc 8 108 17 is_stmt 0 discriminator 3
 4342 10e0 93050000 		li	a1,0
 4343 10e4 17050000 		lla	a0,.LANCHOR0+48
 4343      13050500 
 4344 10ec 97000000 		call	_Z8sem_openPP3semj@plt
 4344      E7800000 
 4345              	.LVL478:
GAS LISTING /tmp/ccBYUnRY.s 			page 102


 110:src/Code/../../h/Testing/Testing_OS1/Consumer_Producer_C_API_Test.hpp ****         thread_t consumerThread;
 4346              		.loc 8 110 9 is_stmt 1 discriminator 3
 110:src/Code/../../h/Testing/Testing_OS1/Consumer_Producer_C_API_Test.hpp ****         thread_t consumerThread;
 4347              		.loc 8 110 18 is_stmt 0 discriminator 3
 4348 10f4 93173900 		slli	a5,s2,3
 4349 10f8 9387F700 		addi	a5,a5,15
 4350 10fc 93F707FF 		andi	a5,a5,-16
 4351 1100 3301F140 		sub	sp,sp,a5
 4352 1104 930A0100 		mv	s5,sp
 4353              	.LVL479:
 111:src/Code/../../h/Testing/Testing_OS1/Consumer_Producer_C_API_Test.hpp **** 
 4354              		.loc 8 111 9 is_stmt 1 discriminator 3
 113:src/Code/../../h/Testing/Testing_OS1/Consumer_Producer_C_API_Test.hpp **** 
 4355              		.loc 8 113 9 discriminator 3
 113:src/Code/../../h/Testing/Testing_OS1/Consumer_Producer_C_API_Test.hpp **** 
 4356              		.loc 8 113 43 is_stmt 0 discriminator 3
 4357 1108 1B071900 		addiw	a4,s2,1
 4358              	.LVL480:
 113:src/Code/../../h/Testing/Testing_OS1/Consumer_Producer_C_API_Test.hpp **** 
 4359              		.loc 8 113 28 discriminator 3
 4360 110c 93171700 		slli	a5,a4,1
 4361 1110 B387E700 		add	a5,a5,a4
 4362 1114 93973700 		slli	a5,a5,3
 4363 1118 9387F700 		addi	a5,a5,15
 4364 111c 93F707FF 		andi	a5,a5,-16
 4365 1120 3301F140 		sub	sp,sp,a5
 4366              	.LVL481:
 4367 1124 93090100 		mv	s3,sp
 4368              	.LVL482:
 115:src/Code/../../h/Testing/Testing_OS1/Consumer_Producer_C_API_Test.hpp ****         data[threadNum].buffer = buffer;
 4369              		.loc 8 115 9 is_stmt 1 discriminator 3
 115:src/Code/../../h/Testing/Testing_OS1/Consumer_Producer_C_API_Test.hpp ****         data[threadNum].buffer = buffer;
 4370              		.loc 8 115 28 is_stmt 0 discriminator 3
 4371 1128 13161900 		slli	a2,s2,1
 4372 112c B3072601 		add	a5,a2,s2
 4373 1130 93973700 		slli	a5,a5,3
 4374 1134 B387F900 		add	a5,s3,a5
 4375 1138 23A02701 		sw	s2,0(a5)
 116:src/Code/../../h/Testing/Testing_OS1/Consumer_Producer_C_API_Test.hpp ****         data[threadNum].wait = waitForAll;
 4376              		.loc 8 116 9 is_stmt 1 discriminator 3
 116:src/Code/../../h/Testing/Testing_OS1/Consumer_Producer_C_API_Test.hpp ****         data[threadNum].wait = waitForAll;
 4377              		.loc 8 116 32 is_stmt 0 discriminator 3
 4378 113c 23B44701 		sd	s4,8(a5)
 117:src/Code/../../h/Testing/Testing_OS1/Consumer_Producer_C_API_Test.hpp ****         thread_create(&consumerThread, consumer, data + threadNum);
 4379              		.loc 8 117 9 is_stmt 1 discriminator 3
 117:src/Code/../../h/Testing/Testing_OS1/Consumer_Producer_C_API_Test.hpp ****         thread_create(&consumerThread, consumer, data + threadNum);
 4380              		.loc 8 117 30 is_stmt 0 discriminator 3
 4381 1140 17070000 		ld	a4,.LANCHOR0+48
 4381      03370700 
 4382 1148 23B8E700 		sd	a4,16(a5)
 118:src/Code/../../h/Testing/Testing_OS1/Consumer_Producer_C_API_Test.hpp **** 
 4383              		.loc 8 118 9 is_stmt 1 discriminator 3
 118:src/Code/../../h/Testing/Testing_OS1/Consumer_Producer_C_API_Test.hpp **** 
 4384              		.loc 8 118 22 is_stmt 0 discriminator 3
 4385 114c 13860700 		mv	a2,a5
 4386 1150 97050000 		lla	a1,_ZN21ConsumerProducerSyncC8consumerEPv
 4386      93850500 
GAS LISTING /tmp/ccBYUnRY.s 			page 103


 4387 1158 130584F9 		addi	a0,s0,-104
 4388 115c 97000000 		call	_Z13thread_createPP6threadPFvPvES2_@plt
 4388      E7800000 
 4389              	.LVL483:
 4390              	.LBB211:
 120:src/Code/../../h/Testing/Testing_OS1/Consumer_Producer_C_API_Test.hpp ****             data[i].id = i;
 4391              		.loc 8 120 18 discriminator 3
 4392 1164 93040000 		li	s1,0
 4393              	.LVL484:
 4394 1168 6F008002 		j	.L227
 4395              	.LVL485:
 4396              	.L233:
 125:src/Code/../../h/Testing/Testing_OS1/Consumer_Producer_C_API_Test.hpp ****                           i > 0 ? producer : producerKeyboard,
 4397              		.loc 8 125 26
 4398 116c 97050000 		lla	a1,_ZN21ConsumerProducerSyncC16producerKeyboardEPv
 4398      93850500 
 4399              	.L226:
 127:src/Code/../../h/Testing/Testing_OS1/Consumer_Producer_C_API_Test.hpp ****         }
 4400              		.loc 8 127 32 discriminator 4
 4401 1174 13961700 		slli	a2,a5,1
 4402 1178 3306F600 		add	a2,a2,a5
 4403 117c 13163600 		slli	a2,a2,3
 125:src/Code/../../h/Testing/Testing_OS1/Consumer_Producer_C_API_Test.hpp ****                           i > 0 ? producer : producerKeyboard,
 4404              		.loc 8 125 26 discriminator 4
 4405 1180 3386C900 		add	a2,s3,a2
 4406 1184 97000000 		call	_Z13thread_createPP6threadPFvPvES2_@plt
 4406      E7800000 
 4407              	.LVL486:
 120:src/Code/../../h/Testing/Testing_OS1/Consumer_Producer_C_API_Test.hpp ****             data[i].id = i;
 4408              		.loc 8 120 9 is_stmt 1 discriminator 4
 4409 118c 9B841400 		addiw	s1,s1,1
 4410              	.LVL487:
 4411              	.L227:
 120:src/Code/../../h/Testing/Testing_OS1/Consumer_Producer_C_API_Test.hpp ****             data[i].id = i;
 4412              		.loc 8 120 27 discriminator 1
 4413 1190 63D22405 		bge	s1,s2,.L225
 121:src/Code/../../h/Testing/Testing_OS1/Consumer_Producer_C_API_Test.hpp ****             data[i].buffer = buffer;
 4414              		.loc 8 121 13
 121:src/Code/../../h/Testing/Testing_OS1/Consumer_Producer_C_API_Test.hpp ****             data[i].buffer = buffer;
 4415              		.loc 8 121 24 is_stmt 0
 4416 1194 93971400 		slli	a5,s1,1
 4417 1198 B3879700 		add	a5,a5,s1
 4418 119c 93973700 		slli	a5,a5,3
 4419 11a0 B387F900 		add	a5,s3,a5
 4420 11a4 23A09700 		sw	s1,0(a5)
 122:src/Code/../../h/Testing/Testing_OS1/Consumer_Producer_C_API_Test.hpp ****             data[i].wait = waitForAll;
 4421              		.loc 8 122 13 is_stmt 1
 122:src/Code/../../h/Testing/Testing_OS1/Consumer_Producer_C_API_Test.hpp ****             data[i].wait = waitForAll;
 4422              		.loc 8 122 28 is_stmt 0
 4423 11a8 23B44701 		sd	s4,8(a5)
 123:src/Code/../../h/Testing/Testing_OS1/Consumer_Producer_C_API_Test.hpp **** 
 4424              		.loc 8 123 13 is_stmt 1
 123:src/Code/../../h/Testing/Testing_OS1/Consumer_Producer_C_API_Test.hpp **** 
 4425              		.loc 8 123 26 is_stmt 0
 4426 11ac 17070000 		ld	a4,.LANCHOR0+48
 4426      03370700 
 4427 11b4 23B8E700 		sd	a4,16(a5)
GAS LISTING /tmp/ccBYUnRY.s 			page 104


 125:src/Code/../../h/Testing/Testing_OS1/Consumer_Producer_C_API_Test.hpp ****                           i > 0 ? producer : producerKeyboard,
 4428              		.loc 8 125 13 is_stmt 1
 125:src/Code/../../h/Testing/Testing_OS1/Consumer_Producer_C_API_Test.hpp ****                           i > 0 ? producer : producerKeyboard,
 4429              		.loc 8 125 37 is_stmt 0
 4430 11b8 93870400 		mv	a5,s1
 125:src/Code/../../h/Testing/Testing_OS1/Consumer_Producer_C_API_Test.hpp ****                           i > 0 ? producer : producerKeyboard,
 4431              		.loc 8 125 35
 4432 11bc 13953400 		slli	a0,s1,3
 125:src/Code/../../h/Testing/Testing_OS1/Consumer_Producer_C_API_Test.hpp ****                           i > 0 ? producer : producerKeyboard,
 4433              		.loc 8 125 26
 4434 11c0 3385AA00 		add	a0,s5,a0
 4435 11c4 E35490FA 		blez	s1,.L233
 4436 11c8 97050000 		lla	a1,_ZN21ConsumerProducerSyncC8producerEPv
 4436      93850500 
 4437 11d0 6FF05FFA 		j	.L226
 4438              	.L225:
 4439              	.LBE211:
 130:src/Code/../../h/Testing/Testing_OS1/Consumer_Producer_C_API_Test.hpp **** 
 4440              		.loc 8 130 9 is_stmt 1
 130:src/Code/../../h/Testing/Testing_OS1/Consumer_Producer_C_API_Test.hpp **** 
 4441              		.loc 8 130 24 is_stmt 0
 4442 11d4 97000000 		call	_Z15thread_dispatchv@plt
 4442      E7800000 
 4443              	.LVL488:
 4444              	.LBB212:
 132:src/Code/../../h/Testing/Testing_OS1/Consumer_Producer_C_API_Test.hpp ****             sem_wait(waitForAll);
 4445              		.loc 8 132 18
 4446 11dc 93040000 		li	s1,0
 4447              	.LVL489:
 4448              	.L229:
 132:src/Code/../../h/Testing/Testing_OS1/Consumer_Producer_C_API_Test.hpp ****             sem_wait(waitForAll);
 4449              		.loc 8 132 27 is_stmt 1 discriminator 1
 4450 11e0 634E9900 		bgt	s1,s2,.L228
 133:src/Code/../../h/Testing/Testing_OS1/Consumer_Producer_C_API_Test.hpp ****         }
 4451              		.loc 8 133 13
 133:src/Code/../../h/Testing/Testing_OS1/Consumer_Producer_C_API_Test.hpp ****         }
 4452              		.loc 8 133 21 is_stmt 0
 4453 11e4 17050000 		ld	a0,.LANCHOR0+48
 4453      03350500 
 4454 11ec 97000000 		call	_Z8sem_waitP3sem@plt
 4454      E7800000 
 4455              	.LVL490:
 132:src/Code/../../h/Testing/Testing_OS1/Consumer_Producer_C_API_Test.hpp ****             sem_wait(waitForAll);
 4456              		.loc 8 132 9 is_stmt 1
 4457 11f4 9B841400 		addiw	s1,s1,1
 4458              	.LVL491:
 4459 11f8 6FF09FFE 		j	.L229
 4460              	.LVL492:
 4461              	.L228:
 4462              	.LBE212:
 136:src/Code/../../h/Testing/Testing_OS1/Consumer_Producer_C_API_Test.hpp **** 
 4463              		.loc 8 136 9
 136:src/Code/../../h/Testing/Testing_OS1/Consumer_Producer_C_API_Test.hpp **** 
 4464              		.loc 8 136 18 is_stmt 0
 4465 11fc 17050000 		ld	a0,.LANCHOR0+48
 4465      03350500 
 4466 1204 97000000 		call	_Z9sem_closeP3sem@plt
GAS LISTING /tmp/ccBYUnRY.s 			page 105


 4466      E7800000 
 4467              	.LVL493:
 4468              		.loc 8 138 9 is_stmt 1
 4469              		.loc 8 138 22 is_stmt 0
 4470 120c 630E0A00 		beqz	s4,.L230
 4471              		.loc 8 138 16 discriminator 1
 4472 1210 13050A00 		mv	a0,s4
 4473 1214 97000000 		call	_ZN13BufferTestCPP9BufferCPPD1Ev@plt
 4473      E7800000 
 4474              	.LVL494:
 4475 121c 13050A00 		mv	a0,s4
 4476 1220 97000000 		call	_ZdlPv@plt
 4476      E7800000 
 4477              	.LVL495:
 4478              	.LEHE15:
 4479              	.L230:
 4480 1228 13010B00 		mv	sp,s6
 4481              	.LVL496:
 4482              	.L221:
 139:src/Code/../../h/Testing/Testing_OS1/Consumer_Producer_C_API_Test.hpp **** 
 140:src/Code/../../h/Testing/Testing_OS1/Consumer_Producer_C_API_Test.hpp ****     }
 4483              		.loc 8 140 5
 4484 122c 130104F9 		addi	sp,s0,-112
 4485              		.cfi_remember_state
 4486              		.cfi_def_cfa 2, 112
 4487 1230 83308106 		ld	ra,104(sp)
 4488              		.cfi_restore 1
 4489 1234 03340106 		ld	s0,96(sp)
 4490              		.cfi_restore 8
 4491 1238 83348105 		ld	s1,88(sp)
 4492              		.cfi_restore 9
 4493 123c 03390105 		ld	s2,80(sp)
 4494              		.cfi_restore 18
 4495              	.LVL497:
 4496 1240 83398104 		ld	s3,72(sp)
 4497              		.cfi_restore 19
 4498 1244 033A0104 		ld	s4,64(sp)
 4499              		.cfi_restore 20
 4500 1248 833A8103 		ld	s5,56(sp)
 4501              		.cfi_restore 21
 4502 124c 033B0103 		ld	s6,48(sp)
 4503              		.cfi_restore 22
 4504 1250 13010107 		addi	sp,sp,112
 4505              		.cfi_def_cfa_offset 0
 4506 1254 67800000 		jr	ra
 4507              	.LVL498:
 4508              	.L234:
 4509              		.cfi_restore_state
 4510 1258 93040500 		mv	s1,a0
 4511              	.LVL499:
 106:src/Code/../../h/Testing/Testing_OS1/Consumer_Producer_C_API_Test.hpp **** 
 4512              		.loc 8 106 74
 4513 125c 13050A00 		mv	a0,s4
 4514 1260 97000000 		call	_ZdlPv@plt
 4514      E7800000 
 4515              	.LVL500:
 4516 1268 13850400 		mv	a0,s1
GAS LISTING /tmp/ccBYUnRY.s 			page 106


 4517              	.LEHB16:
 4518 126c 97000000 		call	_Unwind_Resume@plt
 4518      E7800000 
 4519              	.LVL501:
 4520              	.LEHE16:
 4521              		.cfi_endproc
 4522              	.LFE81:
 4523              		.section	.gcc_except_table
 4524              	.LLSDA81:
 4525 00ae FF       		.byte	0xff
 4526 00af FF       		.byte	0xff
 4527 00b0 03       		.byte	0x3
 4528 00b1 34       		.byte	0x34
 4529 00b2 00000000 		.4byte	.LEHB13-.LFB81
 4530 00b6 00000000 		.4byte	.LEHE13-.LEHB13
 4531 00ba 00000000 		.4byte	0
 4532 00be 00       		.byte	0
 4533 00bf 00000000 		.4byte	.LEHB14-.LFB81
 4534 00c3 00000000 		.4byte	.LEHE14-.LEHB14
 4535 00c7 00000000 		.4byte	.L234-.LFB81
 4536 00cb 00       		.byte	0
 4537 00cc 00000000 		.4byte	.LEHB15-.LFB81
 4538 00d0 00000000 		.4byte	.LEHE15-.LEHB15
 4539 00d4 00000000 		.4byte	0
 4540 00d8 00       		.byte	0
 4541 00d9 00000000 		.4byte	.LEHB16-.LFB81
 4542 00dd 00000000 		.4byte	.LEHE16-.LEHB16
 4543 00e1 00000000 		.4byte	0
 4544 00e5 00       		.byte	0
 4545              		.text
 4547              		.align	2
 4548              		.globl	_ZN23ConsumerProducerSyncCPP16ProducerKeyboard16producerKeyboardEPv
 4550              	_ZN23ConsumerProducerSyncCPP16ProducerKeyboard16producerKeyboardEPv:
 4551              	.LFB86:
  29:src/Code/../../h/Testing/Testing_OS1/Consumer_Producer_CPP_Sync_API_Test.hpp ****         struct thread_data *data = (struct thread_data *) arg;
 4552              		.loc 4 29 56 is_stmt 1
 4553              		.cfi_startproc
 4554              	.LVL502:
 4555 1274 130101FD 		addi	sp,sp,-48
 4556              		.cfi_def_cfa_offset 48
 4557 1278 23341102 		sd	ra,40(sp)
 4558 127c 23308102 		sd	s0,32(sp)
 4559 1280 233C9100 		sd	s1,24(sp)
 4560 1284 23382101 		sd	s2,16(sp)
 4561 1288 23343101 		sd	s3,8(sp)
 4562              		.cfi_offset 1, -8
 4563              		.cfi_offset 8, -16
 4564              		.cfi_offset 9, -24
 4565              		.cfi_offset 18, -32
 4566              		.cfi_offset 19, -40
 4567 128c 13040103 		addi	s0,sp,48
 4568              		.cfi_def_cfa 8, 0
 4569 1290 93090500 		mv	s3,a0
 4570 1294 93840500 		mv	s1,a1
  30:src/Code/../../h/Testing/Testing_OS1/Consumer_Producer_CPP_Sync_API_Test.hpp **** 
 4571              		.loc 4 30 9
 4572              	.LVL503:
GAS LISTING /tmp/ccBYUnRY.s 			page 107


  32:src/Code/../../h/Testing/Testing_OS1/Consumer_Producer_CPP_Sync_API_Test.hpp ****         int i = 0;
 4573              		.loc 4 32 9
  33:src/Code/../../h/Testing/Testing_OS1/Consumer_Producer_CPP_Sync_API_Test.hpp ****         while ((key = getc()) != 0x1b) {
 4574              		.loc 4 33 9
  33:src/Code/../../h/Testing/Testing_OS1/Consumer_Producer_CPP_Sync_API_Test.hpp ****         while ((key = getc()) != 0x1b) {
 4575              		.loc 4 33 13 is_stmt 0
 4576 1298 13090000 		li	s2,0
 4577 129c 6F00C000 		j	.L240
 4578              	.LVL504:
 4579              	.L244:
  39:src/Code/../../h/Testing/Testing_OS1/Consumer_Producer_CPP_Sync_API_Test.hpp ****             }
 4580              		.loc 4 39 17 is_stmt 1
  39:src/Code/../../h/Testing/Testing_OS1/Consumer_Producer_CPP_Sync_API_Test.hpp ****             }
 4581              		.loc 4 39 33 is_stmt 0
 4582 12a0 97000000 		call	_ZN6Thread8dispatchEv@plt
 4582      E7800000 
 4583              	.LVL505:
 4584              	.L240:
  34:src/Code/../../h/Testing/Testing_OS1/Consumer_Producer_CPP_Sync_API_Test.hpp ****             data->buffer->put(key);
 4585              		.loc 4 34 9 is_stmt 1
  34:src/Code/../../h/Testing/Testing_OS1/Consumer_Producer_CPP_Sync_API_Test.hpp ****             data->buffer->put(key);
 4586              		.loc 4 34 31
  34:src/Code/../../h/Testing/Testing_OS1/Consumer_Producer_CPP_Sync_API_Test.hpp ****             data->buffer->put(key);
 4587              		.loc 4 34 27 is_stmt 0
 4588 12a8 97000000 		call	_Z4getcv@plt
 4588      E7800000 
 4589              	.LVL506:
  34:src/Code/../../h/Testing/Testing_OS1/Consumer_Producer_CPP_Sync_API_Test.hpp ****             data->buffer->put(key);
 4590              		.loc 4 34 21
 4591 12b0 9B050500 		sext.w	a1,a0
 4592              	.LVL507:
  34:src/Code/../../h/Testing/Testing_OS1/Consumer_Producer_CPP_Sync_API_Test.hpp ****             data->buffer->put(key);
 4593              		.loc 4 34 31
 4594 12b4 9307B001 		li	a5,27
 4595 12b8 638AF502 		beq	a1,a5,.L241
  35:src/Code/../../h/Testing/Testing_OS1/Consumer_Producer_CPP_Sync_API_Test.hpp ****             i++;
 4596              		.loc 4 35 13 is_stmt 1
  35:src/Code/../../h/Testing/Testing_OS1/Consumer_Producer_CPP_Sync_API_Test.hpp ****             i++;
 4597              		.loc 4 35 30 is_stmt 0
 4598 12bc 03B58400 		ld	a0,8(s1)
 4599 12c0 97000000 		call	_ZN13BufferTestCPP9BufferCPP3putEi@plt
 4599      E7800000 
 4600              	.LVL508:
  36:src/Code/../../h/Testing/Testing_OS1/Consumer_Producer_CPP_Sync_API_Test.hpp **** 
 4601              		.loc 4 36 13 is_stmt 1
  36:src/Code/../../h/Testing/Testing_OS1/Consumer_Producer_CPP_Sync_API_Test.hpp **** 
 4602              		.loc 4 36 14 is_stmt 0
 4603 12c8 1B071900 		addiw	a4,s2,1
 4604 12cc 1B090700 		sext.w	s2,a4
 4605              	.LVL509:
  38:src/Code/../../h/Testing/Testing_OS1/Consumer_Producer_CPP_Sync_API_Test.hpp ****                 Thread::dispatch();
 4606              		.loc 4 38 13 is_stmt 1
  38:src/Code/../../h/Testing/Testing_OS1/Consumer_Producer_CPP_Sync_API_Test.hpp ****                 Thread::dispatch();
 4607              		.loc 4 38 33 is_stmt 0
 4608 12d0 83A60400 		lw	a3,0(s1)
  38:src/Code/../../h/Testing/Testing_OS1/Consumer_Producer_CPP_Sync_API_Test.hpp ****                 Thread::dispatch();
 4609              		.loc 4 38 25
GAS LISTING /tmp/ccBYUnRY.s 			page 108


 4610 12d4 9B972600 		slliw	a5,a3,2
 4611 12d8 BB87D700 		addw	a5,a5,a3
 4612 12dc 9B971700 		slliw	a5,a5,1
  38:src/Code/../../h/Testing/Testing_OS1/Consumer_Producer_CPP_Sync_API_Test.hpp ****                 Thread::dispatch();
 4613              		.loc 4 38 19
 4614 12e0 BB67F702 		remw	a5,a4,a5
  38:src/Code/../../h/Testing/Testing_OS1/Consumer_Producer_CPP_Sync_API_Test.hpp ****                 Thread::dispatch();
 4615              		.loc 4 38 13
 4616 12e4 E39207FC 		bnez	a5,.L240
 4617 12e8 6FF09FFB 		j	.L244
 4618              	.LVL510:
 4619              	.L241:
  43:src/Code/../../h/Testing/Testing_OS1/Consumer_Producer_CPP_Sync_API_Test.hpp ****         td->buffer->put('!');
 4620              		.loc 4 43 9 is_stmt 1
  43:src/Code/../../h/Testing/Testing_OS1/Consumer_Producer_CPP_Sync_API_Test.hpp ****         td->buffer->put('!');
 4621              		.loc 4 43 19 is_stmt 0
 4622 12ec 93071000 		li	a5,1
 4623 12f0 17070000 		sw	a5,.LANCHOR0+56,a4
 4623      2320F700 
  44:src/Code/../../h/Testing/Testing_OS1/Consumer_Producer_CPP_Sync_API_Test.hpp **** 
 4624              		.loc 4 44 9 is_stmt 1
 4625 12f8 83B70901 		ld	a5,16(s3)
  44:src/Code/../../h/Testing/Testing_OS1/Consumer_Producer_CPP_Sync_API_Test.hpp **** 
 4626              		.loc 4 44 24 is_stmt 0
 4627 12fc 93051002 		li	a1,33
 4628              	.LVL511:
 4629 1300 03B58700 		ld	a0,8(a5)
 4630              	.LVL512:
 4631 1304 97000000 		call	_ZN13BufferTestCPP9BufferCPP3putEi@plt
 4631      E7800000 
 4632              	.LVL513:
  46:src/Code/../../h/Testing/Testing_OS1/Consumer_Producer_CPP_Sync_API_Test.hpp ****     }
 4633              		.loc 4 46 9 is_stmt 1
  46:src/Code/../../h/Testing/Testing_OS1/Consumer_Producer_CPP_Sync_API_Test.hpp ****     }
 4634              		.loc 4 46 27 is_stmt 0
 4635 130c 03B50401 		ld	a0,16(s1)
 4636 1310 97000000 		call	_ZN9Semaphore6signalEv@plt
 4636      E7800000 
 4637              	.LVL514:
  47:src/Code/../../h/Testing/Testing_OS1/Consumer_Producer_CPP_Sync_API_Test.hpp **** 
 4638              		.loc 4 47 5
 4639 1318 83308102 		ld	ra,40(sp)
 4640              		.cfi_restore 1
 4641 131c 03340102 		ld	s0,32(sp)
 4642              		.cfi_restore 8
 4643              		.cfi_def_cfa 2, 48
 4644 1320 83348101 		ld	s1,24(sp)
 4645              		.cfi_restore 9
 4646              	.LVL515:
 4647 1324 03390101 		ld	s2,16(sp)
 4648              		.cfi_restore 18
 4649              	.LVL516:
 4650 1328 83398100 		ld	s3,8(sp)
 4651              		.cfi_restore 19
 4652              	.LVL517:
 4653 132c 13010103 		addi	sp,sp,48
 4654              		.cfi_def_cfa_offset 0
GAS LISTING /tmp/ccBYUnRY.s 			page 109


 4655 1330 67800000 		jr	ra
 4656              		.cfi_endproc
 4657              	.LFE86:
 4659              		.section	.text._ZN23ConsumerProducerSyncCPP16ProducerKeyboard3runEv,"axG",@progbits,_ZN23ConsumerP
 4660              		.align	2
 4661              		.weak	_ZN23ConsumerProducerSyncCPP16ProducerKeyboard3runEv
 4663              	_ZN23ConsumerProducerSyncCPP16ProducerKeyboard3runEv:
 4664              	.LFB85:
  24:src/Code/../../h/Testing/Testing_OS1/Consumer_Producer_CPP_Sync_API_Test.hpp ****             producerKeyboard(td);
 4665              		.loc 4 24 14 is_stmt 1
 4666              		.cfi_startproc
 4667              	.LVL518:
 4668 0000 130101FF 		addi	sp,sp,-16
 4669              		.cfi_def_cfa_offset 16
 4670 0004 23341100 		sd	ra,8(sp)
 4671 0008 23308100 		sd	s0,0(sp)
 4672              		.cfi_offset 1, -8
 4673              		.cfi_offset 8, -16
 4674 000c 13040101 		addi	s0,sp,16
 4675              		.cfi_def_cfa 8, 0
  25:src/Code/../../h/Testing/Testing_OS1/Consumer_Producer_CPP_Sync_API_Test.hpp ****         }
 4676              		.loc 4 25 13
  25:src/Code/../../h/Testing/Testing_OS1/Consumer_Producer_CPP_Sync_API_Test.hpp ****         }
 4677              		.loc 4 25 29 is_stmt 0
 4678 0010 83350501 		ld	a1,16(a0)
 4679 0014 97000000 		call	_ZN23ConsumerProducerSyncCPP16ProducerKeyboard16producerKeyboardEPv
 4679      E7800000 
 4680              	.LVL519:
  26:src/Code/../../h/Testing/Testing_OS1/Consumer_Producer_CPP_Sync_API_Test.hpp ****     };
 4681              		.loc 4 26 9
 4682 001c 83308100 		ld	ra,8(sp)
 4683              		.cfi_restore 1
 4684 0020 03340100 		ld	s0,0(sp)
 4685              		.cfi_restore 8
 4686              		.cfi_def_cfa 2, 16
 4687 0024 13010101 		addi	sp,sp,16
 4688              		.cfi_def_cfa_offset 0
 4689 0028 67800000 		jr	ra
 4690              		.cfi_endproc
 4691              	.LFE85:
 4693              		.text
 4694              		.align	2
 4695              		.globl	_ZN23ConsumerProducerSyncCPP8Producer8producerEPv
 4697              	_ZN23ConsumerProducerSyncCPP8Producer8producerEPv:
 4698              	.LFB91:
  60:src/Code/../../h/Testing/Testing_OS1/Consumer_Producer_CPP_Sync_API_Test.hpp ****         struct thread_data *data = (struct thread_data *) arg;
 4699              		.loc 4 60 40 is_stmt 1
 4700              		.cfi_startproc
 4701              	.LVL520:
 4702 1334 130101FE 		addi	sp,sp,-32
 4703              		.cfi_def_cfa_offset 32
 4704 1338 233C1100 		sd	ra,24(sp)
 4705 133c 23388100 		sd	s0,16(sp)
 4706 1340 23349100 		sd	s1,8(sp)
 4707 1344 23302101 		sd	s2,0(sp)
 4708              		.cfi_offset 1, -8
 4709              		.cfi_offset 8, -16
GAS LISTING /tmp/ccBYUnRY.s 			page 110


 4710              		.cfi_offset 9, -24
 4711              		.cfi_offset 18, -32
 4712 1348 13040102 		addi	s0,sp,32
 4713              		.cfi_def_cfa 8, 0
 4714 134c 93840500 		mv	s1,a1
  61:src/Code/../../h/Testing/Testing_OS1/Consumer_Producer_CPP_Sync_API_Test.hpp **** 
 4715              		.loc 4 61 9
 4716              	.LVL521:
  63:src/Code/../../h/Testing/Testing_OS1/Consumer_Producer_CPP_Sync_API_Test.hpp ****         while (!threadEnd) {
 4717              		.loc 4 63 9
  63:src/Code/../../h/Testing/Testing_OS1/Consumer_Producer_CPP_Sync_API_Test.hpp ****         while (!threadEnd) {
 4718              		.loc 4 63 13 is_stmt 0
 4719 1350 13090000 		li	s2,0
 4720 1354 6F00C000 		j	.L248
 4721              	.LVL522:
 4722              	.L252:
  69:src/Code/../../h/Testing/Testing_OS1/Consumer_Producer_CPP_Sync_API_Test.hpp ****             }
 4723              		.loc 4 69 17 is_stmt 1
  69:src/Code/../../h/Testing/Testing_OS1/Consumer_Producer_CPP_Sync_API_Test.hpp ****             }
 4724              		.loc 4 69 33 is_stmt 0
 4725 1358 97000000 		call	_ZN6Thread8dispatchEv@plt
 4725      E7800000 
 4726              	.LVL523:
 4727              	.L248:
  64:src/Code/../../h/Testing/Testing_OS1/Consumer_Producer_CPP_Sync_API_Test.hpp ****             data->buffer->put(data->id + '0');
 4728              		.loc 4 64 9 is_stmt 1
  64:src/Code/../../h/Testing/Testing_OS1/Consumer_Producer_CPP_Sync_API_Test.hpp ****             data->buffer->put(data->id + '0');
 4729              		.loc 4 64 16
 4730 1360 97070000 		lw	a5,.LANCHOR0+56
 4730      83A70700 
 4731 1368 639E0702 		bnez	a5,.L249
  65:src/Code/../../h/Testing/Testing_OS1/Consumer_Producer_CPP_Sync_API_Test.hpp ****             i++;
 4732              		.loc 4 65 13
  65:src/Code/../../h/Testing/Testing_OS1/Consumer_Producer_CPP_Sync_API_Test.hpp ****             i++;
 4733              		.loc 4 65 37 is_stmt 0
 4734 136c 83A50400 		lw	a1,0(s1)
  65:src/Code/../../h/Testing/Testing_OS1/Consumer_Producer_CPP_Sync_API_Test.hpp ****             i++;
 4735              		.loc 4 65 30
 4736 1370 9B850503 		addiw	a1,a1,48
 4737 1374 03B58400 		ld	a0,8(s1)
 4738 1378 97000000 		call	_ZN13BufferTestCPP9BufferCPP3putEi@plt
 4738      E7800000 
 4739              	.LVL524:
  66:src/Code/../../h/Testing/Testing_OS1/Consumer_Producer_CPP_Sync_API_Test.hpp **** 
 4740              		.loc 4 66 13 is_stmt 1
  66:src/Code/../../h/Testing/Testing_OS1/Consumer_Producer_CPP_Sync_API_Test.hpp **** 
 4741              		.loc 4 66 14 is_stmt 0
 4742 1380 1B071900 		addiw	a4,s2,1
 4743 1384 1B090700 		sext.w	s2,a4
 4744              	.LVL525:
  68:src/Code/../../h/Testing/Testing_OS1/Consumer_Producer_CPP_Sync_API_Test.hpp ****                 Thread::dispatch();
 4745              		.loc 4 68 13 is_stmt 1
  68:src/Code/../../h/Testing/Testing_OS1/Consumer_Producer_CPP_Sync_API_Test.hpp ****                 Thread::dispatch();
 4746              		.loc 4 68 33 is_stmt 0
 4747 1388 83A60400 		lw	a3,0(s1)
  68:src/Code/../../h/Testing/Testing_OS1/Consumer_Producer_CPP_Sync_API_Test.hpp ****                 Thread::dispatch();
 4748              		.loc 4 68 25
GAS LISTING /tmp/ccBYUnRY.s 			page 111


 4749 138c 9B972600 		slliw	a5,a3,2
 4750 1390 BB87D700 		addw	a5,a5,a3
 4751 1394 9B971700 		slliw	a5,a5,1
  68:src/Code/../../h/Testing/Testing_OS1/Consumer_Producer_CPP_Sync_API_Test.hpp ****                 Thread::dispatch();
 4752              		.loc 4 68 19
 4753 1398 BB67F702 		remw	a5,a4,a5
  68:src/Code/../../h/Testing/Testing_OS1/Consumer_Producer_CPP_Sync_API_Test.hpp ****                 Thread::dispatch();
 4754              		.loc 4 68 13
 4755 139c E39207FC 		bnez	a5,.L248
 4756 13a0 6FF09FFB 		j	.L252
 4757              	.LVL526:
 4758              	.L249:
  73:src/Code/../../h/Testing/Testing_OS1/Consumer_Producer_CPP_Sync_API_Test.hpp ****     }
 4759              		.loc 4 73 9 is_stmt 1
  73:src/Code/../../h/Testing/Testing_OS1/Consumer_Producer_CPP_Sync_API_Test.hpp ****     }
 4760              		.loc 4 73 27 is_stmt 0
 4761 13a4 03B50401 		ld	a0,16(s1)
 4762 13a8 97000000 		call	_ZN9Semaphore6signalEv@plt
 4762      E7800000 
 4763              	.LVL527:
  74:src/Code/../../h/Testing/Testing_OS1/Consumer_Producer_CPP_Sync_API_Test.hpp **** 
 4764              		.loc 4 74 5
 4765 13b0 83308101 		ld	ra,24(sp)
 4766              		.cfi_restore 1
 4767 13b4 03340101 		ld	s0,16(sp)
 4768              		.cfi_restore 8
 4769              		.cfi_def_cfa 2, 32
 4770 13b8 83348100 		ld	s1,8(sp)
 4771              		.cfi_restore 9
 4772              	.LVL528:
 4773 13bc 03390100 		ld	s2,0(sp)
 4774              		.cfi_restore 18
 4775              	.LVL529:
 4776 13c0 13010102 		addi	sp,sp,32
 4777              		.cfi_def_cfa_offset 0
 4778 13c4 67800000 		jr	ra
 4779              		.cfi_endproc
 4780              	.LFE91:
 4782              		.section	.text._ZN23ConsumerProducerSyncCPP8Producer3runEv,"axG",@progbits,_ZN23ConsumerProducerSy
 4783              		.align	2
 4784              		.weak	_ZN23ConsumerProducerSyncCPP8Producer3runEv
 4786              	_ZN23ConsumerProducerSyncCPP8Producer3runEv:
 4787              	.LFB90:
  55:src/Code/../../h/Testing/Testing_OS1/Consumer_Producer_CPP_Sync_API_Test.hpp ****             producer(td);
 4788              		.loc 4 55 14 is_stmt 1
 4789              		.cfi_startproc
 4790              	.LVL530:
 4791 0000 130101FF 		addi	sp,sp,-16
 4792              		.cfi_def_cfa_offset 16
 4793 0004 23341100 		sd	ra,8(sp)
 4794 0008 23308100 		sd	s0,0(sp)
 4795              		.cfi_offset 1, -8
 4796              		.cfi_offset 8, -16
 4797 000c 13040101 		addi	s0,sp,16
 4798              		.cfi_def_cfa 8, 0
  56:src/Code/../../h/Testing/Testing_OS1/Consumer_Producer_CPP_Sync_API_Test.hpp ****         }
 4799              		.loc 4 56 13
GAS LISTING /tmp/ccBYUnRY.s 			page 112


  56:src/Code/../../h/Testing/Testing_OS1/Consumer_Producer_CPP_Sync_API_Test.hpp ****         }
 4800              		.loc 4 56 21 is_stmt 0
 4801 0010 83350501 		ld	a1,16(a0)
 4802 0014 97000000 		call	_ZN23ConsumerProducerSyncCPP8Producer8producerEPv
 4802      E7800000 
 4803              	.LVL531:
  57:src/Code/../../h/Testing/Testing_OS1/Consumer_Producer_CPP_Sync_API_Test.hpp ****     };
 4804              		.loc 4 57 9
 4805 001c 83308100 		ld	ra,8(sp)
 4806              		.cfi_restore 1
 4807 0020 03340100 		ld	s0,0(sp)
 4808              		.cfi_restore 8
 4809              		.cfi_def_cfa 2, 16
 4810 0024 13010101 		addi	sp,sp,16
 4811              		.cfi_def_cfa_offset 0
 4812 0028 67800000 		jr	ra
 4813              		.cfi_endproc
 4814              	.LFE90:
 4816              		.text
 4817              		.align	2
 4818              		.globl	_ZN23ConsumerProducerSyncCPP8Consumer8consumerEPv
 4820              	_ZN23ConsumerProducerSyncCPP8Consumer8consumerEPv:
 4821              	.LFB96:
  77:src/Code/../../h/Testing/Testing_OS1/Consumer_Producer_CPP_Sync_API_Test.hpp ****         thread_data* td;
  78:src/Code/../../h/Testing/Testing_OS1/Consumer_Producer_CPP_Sync_API_Test.hpp ****         void consumer(void *arg);
  79:src/Code/../../h/Testing/Testing_OS1/Consumer_Producer_CPP_Sync_API_Test.hpp ****     public:
  80:src/Code/../../h/Testing/Testing_OS1/Consumer_Producer_CPP_Sync_API_Test.hpp ****         Consumer(thread_data* _td):Thread(), td(_td) {}
  81:src/Code/../../h/Testing/Testing_OS1/Consumer_Producer_CPP_Sync_API_Test.hpp **** 
  82:src/Code/../../h/Testing/Testing_OS1/Consumer_Producer_CPP_Sync_API_Test.hpp ****         void run() override {
  83:src/Code/../../h/Testing/Testing_OS1/Consumer_Producer_CPP_Sync_API_Test.hpp ****             consumer(td);
  84:src/Code/../../h/Testing/Testing_OS1/Consumer_Producer_CPP_Sync_API_Test.hpp ****         }
  85:src/Code/../../h/Testing/Testing_OS1/Consumer_Producer_CPP_Sync_API_Test.hpp ****     };
  86:src/Code/../../h/Testing/Testing_OS1/Consumer_Producer_CPP_Sync_API_Test.hpp **** 
  87:src/Code/../../h/Testing/Testing_OS1/Consumer_Producer_CPP_Sync_API_Test.hpp ****     void Consumer::consumer(void *arg) {
 4822              		.loc 4 87 40 is_stmt 1
 4823              		.cfi_startproc
 4824              	.LVL532:
 4825 13c8 130101FD 		addi	sp,sp,-48
 4826              		.cfi_def_cfa_offset 48
 4827 13cc 23341102 		sd	ra,40(sp)
 4828 13d0 23308102 		sd	s0,32(sp)
 4829 13d4 233C9100 		sd	s1,24(sp)
 4830 13d8 23382101 		sd	s2,16(sp)
 4831 13dc 23343101 		sd	s3,8(sp)
 4832 13e0 23304101 		sd	s4,0(sp)
 4833              		.cfi_offset 1, -8
 4834              		.cfi_offset 8, -16
 4835              		.cfi_offset 9, -24
 4836              		.cfi_offset 18, -32
 4837              		.cfi_offset 19, -40
 4838              		.cfi_offset 20, -48
 4839 13e4 13040103 		addi	s0,sp,48
 4840              		.cfi_def_cfa 8, 0
 4841 13e8 93090500 		mv	s3,a0
 4842 13ec 13890500 		mv	s2,a1
  88:src/Code/../../h/Testing/Testing_OS1/Consumer_Producer_CPP_Sync_API_Test.hpp ****         struct thread_data *data = (struct thread_data *) arg;
 4843              		.loc 4 88 9
GAS LISTING /tmp/ccBYUnRY.s 			page 113


 4844              	.LVL533:
  89:src/Code/../../h/Testing/Testing_OS1/Consumer_Producer_CPP_Sync_API_Test.hpp **** 
  90:src/Code/../../h/Testing/Testing_OS1/Consumer_Producer_CPP_Sync_API_Test.hpp ****         int i = 0;
 4845              		.loc 4 90 9
 4846              		.loc 4 90 13 is_stmt 0
 4847 13f0 130A0000 		li	s4,0
 4848 13f4 6F00C001 		j	.L256
 4849              	.LVL534:
 4850              	.L262:
 4851              	.LBB213:
  91:src/Code/../../h/Testing/Testing_OS1/Consumer_Producer_CPP_Sync_API_Test.hpp ****         while (!threadEnd) {
  92:src/Code/../../h/Testing/Testing_OS1/Consumer_Producer_CPP_Sync_API_Test.hpp ****             int key = data->buffer->get();
  93:src/Code/../../h/Testing/Testing_OS1/Consumer_Producer_CPP_Sync_API_Test.hpp ****             i++;
  94:src/Code/../../h/Testing/Testing_OS1/Consumer_Producer_CPP_Sync_API_Test.hpp **** 
  95:src/Code/../../h/Testing/Testing_OS1/Consumer_Producer_CPP_Sync_API_Test.hpp ****             putc(key);
  96:src/Code/../../h/Testing/Testing_OS1/Consumer_Producer_CPP_Sync_API_Test.hpp **** 
  97:src/Code/../../h/Testing/Testing_OS1/Consumer_Producer_CPP_Sync_API_Test.hpp ****             if (i % (5 * data->id) == 0) {
  98:src/Code/../../h/Testing/Testing_OS1/Consumer_Producer_CPP_Sync_API_Test.hpp ****                 Thread::dispatch();
 4852              		.loc 4 98 17 is_stmt 1
 4853              		.loc 4 98 33 is_stmt 0
 4854 13f8 97000000 		call	_ZN6Thread8dispatchEv@plt
 4854      E7800000 
 4855              	.LVL535:
 4856 1400 6F000005 		j	.L258
 4857              	.LVL536:
 4858              	.L263:
  99:src/Code/../../h/Testing/Testing_OS1/Consumer_Producer_CPP_Sync_API_Test.hpp ****             }
 100:src/Code/../../h/Testing/Testing_OS1/Consumer_Producer_CPP_Sync_API_Test.hpp **** 
 101:src/Code/../../h/Testing/Testing_OS1/Consumer_Producer_CPP_Sync_API_Test.hpp ****             if (i % 80 == 0) {
 102:src/Code/../../h/Testing/Testing_OS1/Consumer_Producer_CPP_Sync_API_Test.hpp ****                 putc('\n');
 4859              		.loc 4 102 17 is_stmt 1
 4860              		.loc 4 102 21 is_stmt 0
 4861 1404 1305A000 		li	a0,10
 4862 1408 97000000 		call	_Z4putcc@plt
 4862      E7800000 
 4863              	.LVL537:
 4864              	.L256:
 4865              	.LBE213:
  91:src/Code/../../h/Testing/Testing_OS1/Consumer_Producer_CPP_Sync_API_Test.hpp ****         while (!threadEnd) {
 4866              		.loc 4 91 9 is_stmt 1
  91:src/Code/../../h/Testing/Testing_OS1/Consumer_Producer_CPP_Sync_API_Test.hpp ****         while (!threadEnd) {
 4867              		.loc 4 91 16
 4868 1410 97070000 		lw	a5,.LANCHOR0+56
 4868      83A70700 
 4869 1418 63920706 		bnez	a5,.L257
 4870              	.LBB214:
  92:src/Code/../../h/Testing/Testing_OS1/Consumer_Producer_CPP_Sync_API_Test.hpp ****             i++;
 4871              		.loc 4 92 13
  92:src/Code/../../h/Testing/Testing_OS1/Consumer_Producer_CPP_Sync_API_Test.hpp ****             i++;
 4872              		.loc 4 92 40 is_stmt 0
 4873 141c 03358900 		ld	a0,8(s2)
 4874 1420 97000000 		call	_ZN13BufferTestCPP9BufferCPP3getEv@plt
 4874      E7800000 
 4875              	.LVL538:
  93:src/Code/../../h/Testing/Testing_OS1/Consumer_Producer_CPP_Sync_API_Test.hpp **** 
 4876              		.loc 4 93 13 is_stmt 1
  93:src/Code/../../h/Testing/Testing_OS1/Consumer_Producer_CPP_Sync_API_Test.hpp **** 
GAS LISTING /tmp/ccBYUnRY.s 			page 114


 4877              		.loc 4 93 14 is_stmt 0
 4878 1428 9B041A00 		addiw	s1,s4,1
 4879 142c 1B8A0400 		sext.w	s4,s1
 4880              	.LVL539:
  95:src/Code/../../h/Testing/Testing_OS1/Consumer_Producer_CPP_Sync_API_Test.hpp **** 
 4881              		.loc 4 95 13 is_stmt 1
  95:src/Code/../../h/Testing/Testing_OS1/Consumer_Producer_CPP_Sync_API_Test.hpp **** 
 4882              		.loc 4 95 17 is_stmt 0
 4883 1430 1375F50F 		andi	a0,a0,0xff
 4884              	.LVL540:
 4885 1434 97000000 		call	_Z4putcc@plt
 4885      E7800000 
 4886              	.LVL541:
  97:src/Code/../../h/Testing/Testing_OS1/Consumer_Producer_CPP_Sync_API_Test.hpp ****                 Thread::dispatch();
 4887              		.loc 4 97 13 is_stmt 1
  97:src/Code/../../h/Testing/Testing_OS1/Consumer_Producer_CPP_Sync_API_Test.hpp ****                 Thread::dispatch();
 4888              		.loc 4 97 32 is_stmt 0
 4889 143c 03270900 		lw	a4,0(s2)
  97:src/Code/../../h/Testing/Testing_OS1/Consumer_Producer_CPP_Sync_API_Test.hpp ****                 Thread::dispatch();
 4890              		.loc 4 97 24
 4891 1440 9B172700 		slliw	a5,a4,2
 4892 1444 BB87E700 		addw	a5,a5,a4
  97:src/Code/../../h/Testing/Testing_OS1/Consumer_Producer_CPP_Sync_API_Test.hpp ****                 Thread::dispatch();
 4893              		.loc 4 97 19
 4894 1448 BBE7F402 		remw	a5,s1,a5
  97:src/Code/../../h/Testing/Testing_OS1/Consumer_Producer_CPP_Sync_API_Test.hpp ****                 Thread::dispatch();
 4895              		.loc 4 97 13
 4896 144c E38607FA 		beqz	a5,.L262
 4897              	.L258:
 101:src/Code/../../h/Testing/Testing_OS1/Consumer_Producer_CPP_Sync_API_Test.hpp ****                 putc('\n');
 4898              		.loc 4 101 13 is_stmt 1
 101:src/Code/../../h/Testing/Testing_OS1/Consumer_Producer_CPP_Sync_API_Test.hpp ****                 putc('\n');
 4899              		.loc 4 101 19 is_stmt 0
 4900 1450 93070005 		li	a5,80
 4901 1454 BBE4F402 		remw	s1,s1,a5
 4902              	.LVL542:
 101:src/Code/../../h/Testing/Testing_OS1/Consumer_Producer_CPP_Sync_API_Test.hpp ****                 putc('\n');
 4903              		.loc 4 101 13
 4904 1458 E39C04FA 		bnez	s1,.L256
 4905 145c 6FF09FFA 		j	.L263
 4906              	.L264:
 4907              	.LBE214:
 4908              	.LBB215:
 103:src/Code/../../h/Testing/Testing_OS1/Consumer_Producer_CPP_Sync_API_Test.hpp ****             }
 104:src/Code/../../h/Testing/Testing_OS1/Consumer_Producer_CPP_Sync_API_Test.hpp ****         }
 105:src/Code/../../h/Testing/Testing_OS1/Consumer_Producer_CPP_Sync_API_Test.hpp **** 
 106:src/Code/../../h/Testing/Testing_OS1/Consumer_Producer_CPP_Sync_API_Test.hpp **** 
 107:src/Code/../../h/Testing/Testing_OS1/Consumer_Producer_CPP_Sync_API_Test.hpp ****         while (td->buffer->getCnt() > 0) {
 108:src/Code/../../h/Testing/Testing_OS1/Consumer_Producer_CPP_Sync_API_Test.hpp ****             int key = td->buffer->get();
 4909              		.loc 4 108 13 is_stmt 1
 4910              		.loc 4 108 23 is_stmt 0
 4911 1460 83B70901 		ld	a5,16(s3)
 4912              		.loc 4 108 38
 4913 1464 03B58700 		ld	a0,8(a5)
 4914 1468 97000000 		call	_ZN13BufferTestCPP9BufferCPP3getEv@plt
 4914      E7800000 
 4915              	.LVL543:
GAS LISTING /tmp/ccBYUnRY.s 			page 115


 109:src/Code/../../h/Testing/Testing_OS1/Consumer_Producer_CPP_Sync_API_Test.hpp ****             Console::putc(key);
 4916              		.loc 4 109 13 is_stmt 1
 4917              		.loc 4 109 26 is_stmt 0
 4918 1470 1375F50F 		andi	a0,a0,0xff
 4919              	.LVL544:
 4920 1474 97000000 		call	_ZN7Console4putcEc@plt
 4920      E7800000 
 4921              	.LVL545:
 4922              	.L257:
 4923              	.LBE215:
 107:src/Code/../../h/Testing/Testing_OS1/Consumer_Producer_CPP_Sync_API_Test.hpp ****             int key = td->buffer->get();
 4924              		.loc 4 107 9 is_stmt 1
 107:src/Code/../../h/Testing/Testing_OS1/Consumer_Producer_CPP_Sync_API_Test.hpp ****             int key = td->buffer->get();
 4925              		.loc 4 107 37
 107:src/Code/../../h/Testing/Testing_OS1/Consumer_Producer_CPP_Sync_API_Test.hpp ****             int key = td->buffer->get();
 4926              		.loc 4 107 16 is_stmt 0
 4927 147c 83B70901 		ld	a5,16(s3)
 107:src/Code/../../h/Testing/Testing_OS1/Consumer_Producer_CPP_Sync_API_Test.hpp ****             int key = td->buffer->get();
 4928              		.loc 4 107 34
 4929 1480 03B58700 		ld	a0,8(a5)
 4930 1484 97000000 		call	_ZN13BufferTestCPP9BufferCPP6getCntEv@plt
 4930      E7800000 
 4931              	.LVL546:
 107:src/Code/../../h/Testing/Testing_OS1/Consumer_Producer_CPP_Sync_API_Test.hpp ****             int key = td->buffer->get();
 4932              		.loc 4 107 37
 4933 148c E34AA0FC 		bgtz	a0,.L264
 110:src/Code/../../h/Testing/Testing_OS1/Consumer_Producer_CPP_Sync_API_Test.hpp ****         }
 111:src/Code/../../h/Testing/Testing_OS1/Consumer_Producer_CPP_Sync_API_Test.hpp **** 
 112:src/Code/../../h/Testing/Testing_OS1/Consumer_Producer_CPP_Sync_API_Test.hpp ****         data->wait->signal();
 4934              		.loc 4 112 9 is_stmt 1
 4935              		.loc 4 112 27 is_stmt 0
 4936 1490 03350901 		ld	a0,16(s2)
 4937 1494 97000000 		call	_ZN9Semaphore6signalEv@plt
 4937      E7800000 
 4938              	.LVL547:
 113:src/Code/../../h/Testing/Testing_OS1/Consumer_Producer_CPP_Sync_API_Test.hpp ****     }
 4939              		.loc 4 113 5
 4940 149c 83308102 		ld	ra,40(sp)
 4941              		.cfi_restore 1
 4942 14a0 03340102 		ld	s0,32(sp)
 4943              		.cfi_restore 8
 4944              		.cfi_def_cfa 2, 48
 4945 14a4 83348101 		ld	s1,24(sp)
 4946              		.cfi_restore 9
 4947 14a8 03390101 		ld	s2,16(sp)
 4948              		.cfi_restore 18
 4949              	.LVL548:
 4950 14ac 83398100 		ld	s3,8(sp)
 4951              		.cfi_restore 19
 4952              	.LVL549:
 4953 14b0 033A0100 		ld	s4,0(sp)
 4954              		.cfi_restore 20
 4955              	.LVL550:
 4956 14b4 13010103 		addi	sp,sp,48
 4957              		.cfi_def_cfa_offset 0
 4958 14b8 67800000 		jr	ra
 4959              		.cfi_endproc
GAS LISTING /tmp/ccBYUnRY.s 			page 116


 4960              	.LFE96:
 4962              		.section	.text._ZN23ConsumerProducerSyncCPP8Consumer3runEv,"axG",@progbits,_ZN23ConsumerProducerSy
 4963              		.align	2
 4964              		.weak	_ZN23ConsumerProducerSyncCPP8Consumer3runEv
 4966              	_ZN23ConsumerProducerSyncCPP8Consumer3runEv:
 4967              	.LFB95:
  82:src/Code/../../h/Testing/Testing_OS1/Consumer_Producer_CPP_Sync_API_Test.hpp ****             consumer(td);
 4968              		.loc 4 82 14 is_stmt 1
 4969              		.cfi_startproc
 4970              	.LVL551:
 4971 0000 130101FF 		addi	sp,sp,-16
 4972              		.cfi_def_cfa_offset 16
 4973 0004 23341100 		sd	ra,8(sp)
 4974 0008 23308100 		sd	s0,0(sp)
 4975              		.cfi_offset 1, -8
 4976              		.cfi_offset 8, -16
 4977 000c 13040101 		addi	s0,sp,16
 4978              		.cfi_def_cfa 8, 0
  83:src/Code/../../h/Testing/Testing_OS1/Consumer_Producer_CPP_Sync_API_Test.hpp ****         }
 4979              		.loc 4 83 13
  83:src/Code/../../h/Testing/Testing_OS1/Consumer_Producer_CPP_Sync_API_Test.hpp ****         }
 4980              		.loc 4 83 21 is_stmt 0
 4981 0010 83350501 		ld	a1,16(a0)
 4982 0014 97000000 		call	_ZN23ConsumerProducerSyncCPP8Consumer8consumerEPv
 4982      E7800000 
 4983              	.LVL552:
  84:src/Code/../../h/Testing/Testing_OS1/Consumer_Producer_CPP_Sync_API_Test.hpp ****     };
 4984              		.loc 4 84 9
 4985 001c 83308100 		ld	ra,8(sp)
 4986              		.cfi_restore 1
 4987 0020 03340100 		ld	s0,0(sp)
 4988              		.cfi_restore 8
 4989              		.cfi_def_cfa 2, 16
 4990 0024 13010101 		addi	sp,sp,16
 4991              		.cfi_def_cfa_offset 0
 4992 0028 67800000 		jr	ra
 4993              		.cfi_endproc
 4994              	.LFE95:
 4996              		.section	.rodata.str1.8
 4997 01fb 00000000 		.align	3
 4997      00
 4998              	.LC27:
 4999 0200 42726F6A 		.string	"Broj proizvodjaca ne sme biti manji od velicine bafera!\n"
 4999      2070726F 
 4999      697A766F 
 4999      646A6163 
 4999      61206E65 
 5000              		.text
 5001              		.align	2
 5002              		.globl	_ZN23ConsumerProducerSyncCPP35Consumer_Producer_Sync_CPP_API_TestEv
 5004              	_ZN23ConsumerProducerSyncCPP35Consumer_Producer_Sync_CPP_API_TestEv:
 5005              	.LFB97:
 114:src/Code/../../h/Testing/Testing_OS1/Consumer_Producer_CPP_Sync_API_Test.hpp **** 
 115:src/Code/../../h/Testing/Testing_OS1/Consumer_Producer_CPP_Sync_API_Test.hpp ****     void Consumer_Producer_Sync_CPP_API_Test() {
 5006              		.loc 4 115 48 is_stmt 1
 5007              		.cfi_startproc
 5008              		.cfi_personality 0x9b,DW.ref.__gxx_personality_v0
GAS LISTING /tmp/ccBYUnRY.s 			page 117


 5009              		.cfi_lsda 0x1b,.LLSDA97
 5010 14bc 130101F8 		addi	sp,sp,-128
 5011              		.cfi_def_cfa_offset 128
 5012 14c0 233C1106 		sd	ra,120(sp)
 5013 14c4 23388106 		sd	s0,112(sp)
 5014 14c8 23349106 		sd	s1,104(sp)
 5015 14cc 23302107 		sd	s2,96(sp)
 5016 14d0 233C3105 		sd	s3,88(sp)
 5017 14d4 23384105 		sd	s4,80(sp)
 5018 14d8 23345105 		sd	s5,72(sp)
 5019 14dc 23306105 		sd	s6,64(sp)
 5020 14e0 233C7103 		sd	s7,56(sp)
 5021 14e4 23388103 		sd	s8,48(sp)
 5022 14e8 23349103 		sd	s9,40(sp)
 5023              		.cfi_offset 1, -8
 5024              		.cfi_offset 8, -16
 5025              		.cfi_offset 9, -24
 5026              		.cfi_offset 18, -32
 5027              		.cfi_offset 19, -40
 5028              		.cfi_offset 20, -48
 5029              		.cfi_offset 21, -56
 5030              		.cfi_offset 22, -64
 5031              		.cfi_offset 23, -72
 5032              		.cfi_offset 24, -80
 5033              		.cfi_offset 25, -88
 5034 14ec 13040108 		addi	s0,sp,128
 5035              		.cfi_def_cfa 8, 0
 116:src/Code/../../h/Testing/Testing_OS1/Consumer_Producer_CPP_Sync_API_Test.hpp ****         char input[30];
 117:src/Code/../../h/Testing/Testing_OS1/Consumer_Producer_CPP_Sync_API_Test.hpp ****         int n, threadNum;
 118:src/Code/../../h/Testing/Testing_OS1/Consumer_Producer_CPP_Sync_API_Test.hpp **** 
 119:src/Code/../../h/Testing/Testing_OS1/Consumer_Producer_CPP_Sync_API_Test.hpp ****         printString("Unesite broj proizvodjaca?\n");
 120:src/Code/../../h/Testing/Testing_OS1/Consumer_Producer_CPP_Sync_API_Test.hpp ****         getString(input, 30);
 121:src/Code/../../h/Testing/Testing_OS1/Consumer_Producer_CPP_Sync_API_Test.hpp ****         threadNum = stringToInt(input);
 122:src/Code/../../h/Testing/Testing_OS1/Consumer_Producer_CPP_Sync_API_Test.hpp **** 
 123:src/Code/../../h/Testing/Testing_OS1/Consumer_Producer_CPP_Sync_API_Test.hpp ****         printString("Unesite velicinu bafera?\n");
 124:src/Code/../../h/Testing/Testing_OS1/Consumer_Producer_CPP_Sync_API_Test.hpp ****         getString(input, 30);
 125:src/Code/../../h/Testing/Testing_OS1/Consumer_Producer_CPP_Sync_API_Test.hpp ****         n = stringToInt(input);
 126:src/Code/../../h/Testing/Testing_OS1/Consumer_Producer_CPP_Sync_API_Test.hpp **** 
 127:src/Code/../../h/Testing/Testing_OS1/Consumer_Producer_CPP_Sync_API_Test.hpp ****         printString("Broj proizvodjaca "); printInt(threadNum);
 128:src/Code/../../h/Testing/Testing_OS1/Consumer_Producer_CPP_Sync_API_Test.hpp ****         printString(" i velicina bafera "); printInt(n);
 129:src/Code/../../h/Testing/Testing_OS1/Consumer_Producer_CPP_Sync_API_Test.hpp ****         printString(".\n");
 130:src/Code/../../h/Testing/Testing_OS1/Consumer_Producer_CPP_Sync_API_Test.hpp **** 
 131:src/Code/../../h/Testing/Testing_OS1/Consumer_Producer_CPP_Sync_API_Test.hpp ****         if(threadNum > n) {
 132:src/Code/../../h/Testing/Testing_OS1/Consumer_Producer_CPP_Sync_API_Test.hpp ****             printString("Broj proizvodjaca ne sme biti manji od velicine bafera!\n");
 133:src/Code/../../h/Testing/Testing_OS1/Consumer_Producer_CPP_Sync_API_Test.hpp ****             return;
 134:src/Code/../../h/Testing/Testing_OS1/Consumer_Producer_CPP_Sync_API_Test.hpp ****         } else if (threadNum < 1) {
 135:src/Code/../../h/Testing/Testing_OS1/Consumer_Producer_CPP_Sync_API_Test.hpp ****             printString("Broj proizvodjaca mora biti veci od nula!\n");
 136:src/Code/../../h/Testing/Testing_OS1/Consumer_Producer_CPP_Sync_API_Test.hpp ****             return;
 137:src/Code/../../h/Testing/Testing_OS1/Consumer_Producer_CPP_Sync_API_Test.hpp ****         }
 138:src/Code/../../h/Testing/Testing_OS1/Consumer_Producer_CPP_Sync_API_Test.hpp **** 
 139:src/Code/../../h/Testing/Testing_OS1/Consumer_Producer_CPP_Sync_API_Test.hpp ****         BufferTestCPP::BufferCPP *buffer = new BufferTestCPP::BufferCPP(n);
 140:src/Code/../../h/Testing/Testing_OS1/Consumer_Producer_CPP_Sync_API_Test.hpp **** 
 141:src/Code/../../h/Testing/Testing_OS1/Consumer_Producer_CPP_Sync_API_Test.hpp ****         waitForAll = new Semaphore(0);
 142:src/Code/../../h/Testing/Testing_OS1/Consumer_Producer_CPP_Sync_API_Test.hpp **** 
 143:src/Code/../../h/Testing/Testing_OS1/Consumer_Producer_CPP_Sync_API_Test.hpp ****         Thread* threads[threadNum];
 144:src/Code/../../h/Testing/Testing_OS1/Consumer_Producer_CPP_Sync_API_Test.hpp ****         Thread* consumerThread;
 145:src/Code/../../h/Testing/Testing_OS1/Consumer_Producer_CPP_Sync_API_Test.hpp **** 
GAS LISTING /tmp/ccBYUnRY.s 			page 118


 146:src/Code/../../h/Testing/Testing_OS1/Consumer_Producer_CPP_Sync_API_Test.hpp ****         struct thread_data data[threadNum + 1];
 147:src/Code/../../h/Testing/Testing_OS1/Consumer_Producer_CPP_Sync_API_Test.hpp **** 
 148:src/Code/../../h/Testing/Testing_OS1/Consumer_Producer_CPP_Sync_API_Test.hpp ****         data[threadNum].id = threadNum;
 149:src/Code/../../h/Testing/Testing_OS1/Consumer_Producer_CPP_Sync_API_Test.hpp ****         data[threadNum].buffer = buffer;
 150:src/Code/../../h/Testing/Testing_OS1/Consumer_Producer_CPP_Sync_API_Test.hpp ****         data[threadNum].wait = waitForAll;
 151:src/Code/../../h/Testing/Testing_OS1/Consumer_Producer_CPP_Sync_API_Test.hpp ****         consumerThread = new Consumer(data+threadNum);
 152:src/Code/../../h/Testing/Testing_OS1/Consumer_Producer_CPP_Sync_API_Test.hpp ****         consumerThread->start();
 153:src/Code/../../h/Testing/Testing_OS1/Consumer_Producer_CPP_Sync_API_Test.hpp **** 
 154:src/Code/../../h/Testing/Testing_OS1/Consumer_Producer_CPP_Sync_API_Test.hpp ****         for (int i = 0; i < threadNum; i++) {
 155:src/Code/../../h/Testing/Testing_OS1/Consumer_Producer_CPP_Sync_API_Test.hpp ****             data[i].id = i;
 156:src/Code/../../h/Testing/Testing_OS1/Consumer_Producer_CPP_Sync_API_Test.hpp ****             data[i].buffer = buffer;
 157:src/Code/../../h/Testing/Testing_OS1/Consumer_Producer_CPP_Sync_API_Test.hpp ****             data[i].wait = waitForAll;
 158:src/Code/../../h/Testing/Testing_OS1/Consumer_Producer_CPP_Sync_API_Test.hpp **** 
 159:src/Code/../../h/Testing/Testing_OS1/Consumer_Producer_CPP_Sync_API_Test.hpp ****             if(i>0) {
 160:src/Code/../../h/Testing/Testing_OS1/Consumer_Producer_CPP_Sync_API_Test.hpp ****                 threads[i] = new Producer(data+i);
 161:src/Code/../../h/Testing/Testing_OS1/Consumer_Producer_CPP_Sync_API_Test.hpp ****             } else {
 162:src/Code/../../h/Testing/Testing_OS1/Consumer_Producer_CPP_Sync_API_Test.hpp ****                 threads[i] = new ProducerKeyboard(data+i);
 163:src/Code/../../h/Testing/Testing_OS1/Consumer_Producer_CPP_Sync_API_Test.hpp ****             }
 164:src/Code/../../h/Testing/Testing_OS1/Consumer_Producer_CPP_Sync_API_Test.hpp **** 
 165:src/Code/../../h/Testing/Testing_OS1/Consumer_Producer_CPP_Sync_API_Test.hpp ****             threads[i]->start();
 166:src/Code/../../h/Testing/Testing_OS1/Consumer_Producer_CPP_Sync_API_Test.hpp ****         }
 167:src/Code/../../h/Testing/Testing_OS1/Consumer_Producer_CPP_Sync_API_Test.hpp **** 
 168:src/Code/../../h/Testing/Testing_OS1/Consumer_Producer_CPP_Sync_API_Test.hpp ****         Thread::dispatch();
 169:src/Code/../../h/Testing/Testing_OS1/Consumer_Producer_CPP_Sync_API_Test.hpp **** 
 170:src/Code/../../h/Testing/Testing_OS1/Consumer_Producer_CPP_Sync_API_Test.hpp ****         for (int i = 0; i <= threadNum; i++) {
 171:src/Code/../../h/Testing/Testing_OS1/Consumer_Producer_CPP_Sync_API_Test.hpp ****             waitForAll->wait();
 172:src/Code/../../h/Testing/Testing_OS1/Consumer_Producer_CPP_Sync_API_Test.hpp ****         }
 173:src/Code/../../h/Testing/Testing_OS1/Consumer_Producer_CPP_Sync_API_Test.hpp **** 
 174:src/Code/../../h/Testing/Testing_OS1/Consumer_Producer_CPP_Sync_API_Test.hpp ****         for (int i = 0; i < threadNum; i++) {
 175:src/Code/../../h/Testing/Testing_OS1/Consumer_Producer_CPP_Sync_API_Test.hpp ****             delete threads[i];
 176:src/Code/../../h/Testing/Testing_OS1/Consumer_Producer_CPP_Sync_API_Test.hpp ****         }
 177:src/Code/../../h/Testing/Testing_OS1/Consumer_Producer_CPP_Sync_API_Test.hpp ****         delete consumerThread;
 178:src/Code/../../h/Testing/Testing_OS1/Consumer_Producer_CPP_Sync_API_Test.hpp ****         delete waitForAll;
 179:src/Code/../../h/Testing/Testing_OS1/Consumer_Producer_CPP_Sync_API_Test.hpp ****         delete buffer;
 5036              		.loc 4 179 22 is_stmt 0
 5037 14f0 930B0100 		mv	s7,sp
 116:src/Code/../../h/Testing/Testing_OS1/Consumer_Producer_CPP_Sync_API_Test.hpp ****         char input[30];
 5038              		.loc 4 116 9 is_stmt 1
 117:src/Code/../../h/Testing/Testing_OS1/Consumer_Producer_CPP_Sync_API_Test.hpp **** 
 5039              		.loc 4 117 9
 119:src/Code/../../h/Testing/Testing_OS1/Consumer_Producer_CPP_Sync_API_Test.hpp ****         getString(input, 30);
 5040              		.loc 4 119 9
 119:src/Code/../../h/Testing/Testing_OS1/Consumer_Producer_CPP_Sync_API_Test.hpp ****         getString(input, 30);
 5041              		.loc 4 119 20 is_stmt 0
 5042 14f4 17050000 		lla	a0,.LC20
 5042      13050500 
 5043              	.LEHB17:
 5044 14fc 97000000 		call	_Z11printStringPKc@plt
 5044      E7800000 
 5045              	.LVL553:
 120:src/Code/../../h/Testing/Testing_OS1/Consumer_Producer_CPP_Sync_API_Test.hpp ****         threadNum = stringToInt(input);
 5046              		.loc 4 120 9 is_stmt 1
 120:src/Code/../../h/Testing/Testing_OS1/Consumer_Producer_CPP_Sync_API_Test.hpp ****         threadNum = stringToInt(input);
 5047              		.loc 4 120 18 is_stmt 0
 5048 1504 9305E001 		li	a1,30
 5049 1508 930404F8 		addi	s1,s0,-128
 5050 150c 13850400 		mv	a0,s1
GAS LISTING /tmp/ccBYUnRY.s 			page 119


 5051 1510 97000000 		call	_Z9getStringPci@plt
 5051      E7800000 
 5052              	.LVL554:
 121:src/Code/../../h/Testing/Testing_OS1/Consumer_Producer_CPP_Sync_API_Test.hpp **** 
 5053              		.loc 4 121 9 is_stmt 1
 121:src/Code/../../h/Testing/Testing_OS1/Consumer_Producer_CPP_Sync_API_Test.hpp **** 
 5054              		.loc 4 121 32 is_stmt 0
 5055 1518 13850400 		mv	a0,s1
 5056 151c 97000000 		call	_Z11stringToIntPKc@plt
 5056      E7800000 
 5057              	.LVL555:
 5058 1524 13090500 		mv	s2,a0
 5059              	.LVL556:
 123:src/Code/../../h/Testing/Testing_OS1/Consumer_Producer_CPP_Sync_API_Test.hpp ****         getString(input, 30);
 5060              		.loc 4 123 9 is_stmt 1
 123:src/Code/../../h/Testing/Testing_OS1/Consumer_Producer_CPP_Sync_API_Test.hpp ****         getString(input, 30);
 5061              		.loc 4 123 20 is_stmt 0
 5062 1528 17050000 		lla	a0,.LC21
 5062      13050500 
 5063 1530 97000000 		call	_Z11printStringPKc@plt
 5063      E7800000 
 5064              	.LVL557:
 124:src/Code/../../h/Testing/Testing_OS1/Consumer_Producer_CPP_Sync_API_Test.hpp ****         n = stringToInt(input);
 5065              		.loc 4 124 9 is_stmt 1
 124:src/Code/../../h/Testing/Testing_OS1/Consumer_Producer_CPP_Sync_API_Test.hpp ****         n = stringToInt(input);
 5066              		.loc 4 124 18 is_stmt 0
 5067 1538 9305E001 		li	a1,30
 5068 153c 13850400 		mv	a0,s1
 5069 1540 97000000 		call	_Z9getStringPci@plt
 5069      E7800000 
 5070              	.LVL558:
 125:src/Code/../../h/Testing/Testing_OS1/Consumer_Producer_CPP_Sync_API_Test.hpp **** 
 5071              		.loc 4 125 9 is_stmt 1
 125:src/Code/../../h/Testing/Testing_OS1/Consumer_Producer_CPP_Sync_API_Test.hpp **** 
 5072              		.loc 4 125 24 is_stmt 0
 5073 1548 13850400 		mv	a0,s1
 5074 154c 97000000 		call	_Z11stringToIntPKc@plt
 5074      E7800000 
 5075              	.LVL559:
 5076 1554 93040500 		mv	s1,a0
 5077              	.LVL560:
 127:src/Code/../../h/Testing/Testing_OS1/Consumer_Producer_CPP_Sync_API_Test.hpp ****         printString(" i velicina bafera "); printInt(n);
 5078              		.loc 4 127 9 is_stmt 1
 127:src/Code/../../h/Testing/Testing_OS1/Consumer_Producer_CPP_Sync_API_Test.hpp ****         printString(" i velicina bafera "); printInt(n);
 5079              		.loc 4 127 20 is_stmt 0
 5080 1558 17050000 		lla	a0,.LC22
 5080      13050500 
 5081 1560 97000000 		call	_Z11printStringPKc@plt
 5081      E7800000 
 5082              	.LVL561:
 127:src/Code/../../h/Testing/Testing_OS1/Consumer_Producer_CPP_Sync_API_Test.hpp ****         printString(" i velicina bafera "); printInt(n);
 5083              		.loc 4 127 44 is_stmt 1
 127:src/Code/../../h/Testing/Testing_OS1/Consumer_Producer_CPP_Sync_API_Test.hpp ****         printString(" i velicina bafera "); printInt(n);
 5084              		.loc 4 127 52 is_stmt 0
 5085 1568 13060000 		li	a2,0
 5086 156c 9305A000 		li	a1,10
 5087 1570 13050900 		mv	a0,s2
GAS LISTING /tmp/ccBYUnRY.s 			page 120


 5088 1574 97000000 		call	_Z8printIntiii@plt
 5088      E7800000 
 5089              	.LVL562:
 128:src/Code/../../h/Testing/Testing_OS1/Consumer_Producer_CPP_Sync_API_Test.hpp ****         printString(".\n");
 5090              		.loc 4 128 9 is_stmt 1
 128:src/Code/../../h/Testing/Testing_OS1/Consumer_Producer_CPP_Sync_API_Test.hpp ****         printString(".\n");
 5091              		.loc 4 128 20 is_stmt 0
 5092 157c 17050000 		lla	a0,.LC23
 5092      13050500 
 5093 1584 97000000 		call	_Z11printStringPKc@plt
 5093      E7800000 
 5094              	.LVL563:
 128:src/Code/../../h/Testing/Testing_OS1/Consumer_Producer_CPP_Sync_API_Test.hpp ****         printString(".\n");
 5095              		.loc 4 128 45 is_stmt 1
 128:src/Code/../../h/Testing/Testing_OS1/Consumer_Producer_CPP_Sync_API_Test.hpp ****         printString(".\n");
 5096              		.loc 4 128 53 is_stmt 0
 5097 158c 13060000 		li	a2,0
 5098 1590 9305A000 		li	a1,10
 5099 1594 13850400 		mv	a0,s1
 5100 1598 97000000 		call	_Z8printIntiii@plt
 5100      E7800000 
 5101              	.LVL564:
 129:src/Code/../../h/Testing/Testing_OS1/Consumer_Producer_CPP_Sync_API_Test.hpp **** 
 5102              		.loc 4 129 9 is_stmt 1
 129:src/Code/../../h/Testing/Testing_OS1/Consumer_Producer_CPP_Sync_API_Test.hpp **** 
 5103              		.loc 4 129 20 is_stmt 0
 5104 15a0 17050000 		lla	a0,.LC24
 5104      13050500 
 5105 15a8 97000000 		call	_Z11printStringPKc@plt
 5105      E7800000 
 5106              	.LVL565:
 131:src/Code/../../h/Testing/Testing_OS1/Consumer_Producer_CPP_Sync_API_Test.hpp ****             printString("Broj proizvodjaca ne sme biti manji od velicine bafera!\n");
 5107              		.loc 4 131 9 is_stmt 1
 5108 15b0 63C42403 		bgt	s2,s1,.L295
 134:src/Code/../../h/Testing/Testing_OS1/Consumer_Producer_CPP_Sync_API_Test.hpp ****             printString("Broj proizvodjaca mora biti veci od nula!\n");
 5109              		.loc 4 134 16
 5110 15b4 635C2003 		blez	s2,.L296
 139:src/Code/../../h/Testing/Testing_OS1/Consumer_Producer_CPP_Sync_API_Test.hpp **** 
 5111              		.loc 4 139 9
 139:src/Code/../../h/Testing/Testing_OS1/Consumer_Producer_CPP_Sync_API_Test.hpp **** 
 5112              		.loc 4 139 74 is_stmt 0
 5113 15b8 13058003 		li	a0,56
 5114 15bc 97000000 		call	_Znwm@plt
 5114      E7800000 
 5115              	.LVL566:
 5116              	.LEHE17:
 5117 15c4 930A0500 		mv	s5,a0
 5118 15c8 93850400 		mv	a1,s1
 5119              	.LEHB18:
 5120 15cc 97000000 		call	_ZN13BufferTestCPP9BufferCPPC1Ei@plt
 5120      E7800000 
 5121              	.LVL567:
 5122              	.LEHE18:
 5123 15d4 6F000003 		j	.L297
 5124              	.L295:
 132:src/Code/../../h/Testing/Testing_OS1/Consumer_Producer_CPP_Sync_API_Test.hpp ****             return;
 5125              		.loc 4 132 13 is_stmt 1
GAS LISTING /tmp/ccBYUnRY.s 			page 121


 132:src/Code/../../h/Testing/Testing_OS1/Consumer_Producer_CPP_Sync_API_Test.hpp ****             return;
 5126              		.loc 4 132 24 is_stmt 0
 5127 15d8 17050000 		lla	a0,.LC27
 5127      13050500 
 5128              	.LEHB19:
 5129 15e0 97000000 		call	_Z11printStringPKc@plt
 5129      E7800000 
 5130              	.LVL568:
 133:src/Code/../../h/Testing/Testing_OS1/Consumer_Producer_CPP_Sync_API_Test.hpp ****         } else if (threadNum < 1) {
 5131              		.loc 4 133 13 is_stmt 1
 5132 15e8 6F004001 		j	.L269
 5133              	.L296:
 135:src/Code/../../h/Testing/Testing_OS1/Consumer_Producer_CPP_Sync_API_Test.hpp ****             return;
 5134              		.loc 4 135 13
 135:src/Code/../../h/Testing/Testing_OS1/Consumer_Producer_CPP_Sync_API_Test.hpp ****             return;
 5135              		.loc 4 135 24 is_stmt 0
 5136 15ec 17050000 		lla	a0,.LC26
 5136      13050500 
 5137 15f4 97000000 		call	_Z11printStringPKc@plt
 5137      E7800000 
 5138              	.LVL569:
 136:src/Code/../../h/Testing/Testing_OS1/Consumer_Producer_CPP_Sync_API_Test.hpp ****         }
 5139              		.loc 4 136 13 is_stmt 1
 5140              	.L269:
 5141 15fc 13810B00 		mv	sp,s7
 5142 1600 6F000024 		j	.L267
 5143              	.L297:
 5144              	.LVL570:
 141:src/Code/../../h/Testing/Testing_OS1/Consumer_Producer_CPP_Sync_API_Test.hpp **** 
 5145              		.loc 4 141 9 discriminator 3
 141:src/Code/../../h/Testing/Testing_OS1/Consumer_Producer_CPP_Sync_API_Test.hpp **** 
 5146              		.loc 4 141 37 is_stmt 0 discriminator 3
 5147 1604 13050001 		li	a0,16
 5148 1608 97000000 		call	_Znwm@plt
 5148      E7800000 
 5149              	.LVL571:
 5150              	.LEHE19:
 5151 1610 93040500 		mv	s1,a0
 5152              	.LVL572:
 5153 1614 93050000 		li	a1,0
 5154              	.LEHB20:
 5155 1618 97000000 		call	_ZN9SemaphoreC1Ej@plt
 5155      E7800000 
 5156              	.LVL573:
 5157              	.LEHE20:
 141:src/Code/../../h/Testing/Testing_OS1/Consumer_Producer_CPP_Sync_API_Test.hpp **** 
 5158              		.loc 4 141 20 discriminator 3
 5159 1620 17070000 		lla	a4,.LANCHOR0
 5159      13070700 
 5160 1628 23309704 		sd	s1,64(a4)
 143:src/Code/../../h/Testing/Testing_OS1/Consumer_Producer_CPP_Sync_API_Test.hpp ****         Thread* consumerThread;
 5161              		.loc 4 143 9 is_stmt 1 discriminator 3
 5162              	.LVL574:
 143:src/Code/../../h/Testing/Testing_OS1/Consumer_Producer_CPP_Sync_API_Test.hpp ****         Thread* consumerThread;
 5163              		.loc 4 143 17 is_stmt 0 discriminator 3
 5164 162c 93173900 		slli	a5,s2,3
 5165 1630 9387F700 		addi	a5,a5,15
GAS LISTING /tmp/ccBYUnRY.s 			page 122


 5166 1634 93F707FF 		andi	a5,a5,-16
 5167 1638 3301F140 		sub	sp,sp,a5
 5168 163c 93090100 		mv	s3,sp
 5169              	.LVL575:
 144:src/Code/../../h/Testing/Testing_OS1/Consumer_Producer_CPP_Sync_API_Test.hpp **** 
 5170              		.loc 4 144 9 is_stmt 1 discriminator 3
 146:src/Code/../../h/Testing/Testing_OS1/Consumer_Producer_CPP_Sync_API_Test.hpp **** 
 5171              		.loc 4 146 9 discriminator 3
 146:src/Code/../../h/Testing/Testing_OS1/Consumer_Producer_CPP_Sync_API_Test.hpp **** 
 5172              		.loc 4 146 43 is_stmt 0 discriminator 3
 5173 1640 9B061900 		addiw	a3,s2,1
 5174              	.LVL576:
 146:src/Code/../../h/Testing/Testing_OS1/Consumer_Producer_CPP_Sync_API_Test.hpp **** 
 5175              		.loc 4 146 28 discriminator 3
 5176 1644 93971600 		slli	a5,a3,1
 5177 1648 B387D700 		add	a5,a5,a3
 5178 164c 93973700 		slli	a5,a5,3
 5179 1650 9387F700 		addi	a5,a5,15
 5180 1654 93F707FF 		andi	a5,a5,-16
 5181 1658 3301F140 		sub	sp,sp,a5
 5182              	.LVL577:
 5183 165c 130A0100 		mv	s4,sp
 5184              	.LVL578:
 148:src/Code/../../h/Testing/Testing_OS1/Consumer_Producer_CPP_Sync_API_Test.hpp ****         data[threadNum].buffer = buffer;
 5185              		.loc 4 148 9 is_stmt 1 discriminator 3
 148:src/Code/../../h/Testing/Testing_OS1/Consumer_Producer_CPP_Sync_API_Test.hpp ****         data[threadNum].buffer = buffer;
 5186              		.loc 4 148 28 is_stmt 0 discriminator 3
 5187 1660 93141900 		slli	s1,s2,1
 5188 1664 B3872401 		add	a5,s1,s2
 5189 1668 93973700 		slli	a5,a5,3
 5190 166c B307FA00 		add	a5,s4,a5
 5191 1670 23A02701 		sw	s2,0(a5)
 149:src/Code/../../h/Testing/Testing_OS1/Consumer_Producer_CPP_Sync_API_Test.hpp ****         data[threadNum].wait = waitForAll;
 5192              		.loc 4 149 9 is_stmt 1 discriminator 3
 149:src/Code/../../h/Testing/Testing_OS1/Consumer_Producer_CPP_Sync_API_Test.hpp ****         data[threadNum].wait = waitForAll;
 5193              		.loc 4 149 32 is_stmt 0 discriminator 3
 5194 1674 23B45701 		sd	s5,8(a5)
 150:src/Code/../../h/Testing/Testing_OS1/Consumer_Producer_CPP_Sync_API_Test.hpp ****         consumerThread = new Consumer(data+threadNum);
 5195              		.loc 4 150 9 is_stmt 1 discriminator 3
 150:src/Code/../../h/Testing/Testing_OS1/Consumer_Producer_CPP_Sync_API_Test.hpp ****         consumerThread = new Consumer(data+threadNum);
 5196              		.loc 4 150 30 is_stmt 0 discriminator 3
 5197 1678 03370704 		ld	a4,64(a4)
 5198 167c 23B8E700 		sd	a4,16(a5)
 151:src/Code/../../h/Testing/Testing_OS1/Consumer_Producer_CPP_Sync_API_Test.hpp ****         consumerThread->start();
 5199              		.loc 4 151 9 is_stmt 1 discriminator 3
 151:src/Code/../../h/Testing/Testing_OS1/Consumer_Producer_CPP_Sync_API_Test.hpp ****         consumerThread->start();
 5200              		.loc 4 151 53 is_stmt 0 discriminator 3
 5201 1680 13058001 		li	a0,24
 5202              	.LEHB21:
 5203 1684 97000000 		call	_Znwm@plt
 5203      E7800000 
 5204              	.LVL579:
 5205              	.LEHE21:
 5206 168c 130B0500 		mv	s6,a0
 151:src/Code/../../h/Testing/Testing_OS1/Consumer_Producer_CPP_Sync_API_Test.hpp ****         consumerThread->start();
 5207              		.loc 4 151 43 discriminator 3
 5208 1690 B3842401 		add	s1,s1,s2
GAS LISTING /tmp/ccBYUnRY.s 			page 123


 5209 1694 93943400 		slli	s1,s1,3
 151:src/Code/../../h/Testing/Testing_OS1/Consumer_Producer_CPP_Sync_API_Test.hpp ****         consumerThread->start();
 5210              		.loc 4 151 53 discriminator 3
 5211 1698 B3049A00 		add	s1,s4,s1
 5212              	.LVL580:
 5213              	.LEHB22:
 5214              	.LBB216:
 5215              	.LBB217:
  80:src/Code/../../h/Testing/Testing_OS1/Consumer_Producer_CPP_Sync_API_Test.hpp **** 
 5216              		.loc 4 80 52 discriminator 3
 5217 169c 97000000 		call	_ZN6ThreadC2Ev@plt
 5217      E7800000 
 5218              	.LVL581:
 5219              	.LEHE22:
  80:src/Code/../../h/Testing/Testing_OS1/Consumer_Producer_CPP_Sync_API_Test.hpp **** 
 5220              		.loc 4 80 52
 5221 16a4 97070000 		lla	a5,_ZTVN23ConsumerProducerSyncCPP8ConsumerE+16
 5221      93870700 
 5222 16ac 2330FB00 		sd	a5,0(s6)
 5223 16b0 23389B00 		sd	s1,16(s6)
 5224              	.LVL582:
 5225              	.LBE217:
 5226              	.LBE216:
 152:src/Code/../../h/Testing/Testing_OS1/Consumer_Producer_CPP_Sync_API_Test.hpp **** 
 5227              		.loc 4 152 9 is_stmt 1
 152:src/Code/../../h/Testing/Testing_OS1/Consumer_Producer_CPP_Sync_API_Test.hpp **** 
 5228              		.loc 4 152 30 is_stmt 0
 5229 16b4 13050B00 		mv	a0,s6
 5230              	.LEHB23:
 5231 16b8 97000000 		call	_ZN6Thread5startEv@plt
 5231      E7800000 
 5232              	.LVL583:
 5233              	.LBB218:
 154:src/Code/../../h/Testing/Testing_OS1/Consumer_Producer_CPP_Sync_API_Test.hpp ****             data[i].id = i;
 5234              		.loc 4 154 18
 5235 16c0 93040000 		li	s1,0
 5236 16c4 6F008003 		j	.L274
 5237              	.LVL584:
 5238              	.L298:
 5239              	.LBB219:
 5240              	.LBB220:
  53:src/Code/../../h/Testing/Testing_OS1/Consumer_Producer_CPP_Sync_API_Test.hpp **** 
 5241              		.loc 4 53 52
 5242 16c8 97070000 		lla	a5,_ZTVN23ConsumerProducerSyncCPP8ProducerE+16
 5242      93870700 
 5243 16d0 23B0FC00 		sd	a5,0(s9)
 5244 16d4 23B88C01 		sd	s8,16(s9)
 5245              	.LVL585:
 5246              	.LBE220:
 5247              	.LBE219:
 160:src/Code/../../h/Testing/Testing_OS1/Consumer_Producer_CPP_Sync_API_Test.hpp ****             } else {
 5248              		.loc 4 160 28
 5249 16d8 93973400 		slli	a5,s1,3
 5250 16dc B387F900 		add	a5,s3,a5
 5251 16e0 23B09701 		sd	s9,0(a5)
 5252              	.L273:
 165:src/Code/../../h/Testing/Testing_OS1/Consumer_Producer_CPP_Sync_API_Test.hpp ****         }
GAS LISTING /tmp/ccBYUnRY.s 			page 124


 5253              		.loc 4 165 13 is_stmt 1
 165:src/Code/../../h/Testing/Testing_OS1/Consumer_Producer_CPP_Sync_API_Test.hpp ****         }
 5254              		.loc 4 165 22 is_stmt 0
 5255 16e4 93973400 		slli	a5,s1,3
 5256 16e8 B387F900 		add	a5,s3,a5
 165:src/Code/../../h/Testing/Testing_OS1/Consumer_Producer_CPP_Sync_API_Test.hpp ****         }
 5257              		.loc 4 165 30
 5258 16ec 03B50700 		ld	a0,0(a5)
 5259 16f0 97000000 		call	_ZN6Thread5startEv@plt
 5259      E7800000 
 5260              	.LVL586:
 154:src/Code/../../h/Testing/Testing_OS1/Consumer_Producer_CPP_Sync_API_Test.hpp ****             data[i].id = i;
 5261              		.loc 4 154 9 is_stmt 1
 5262 16f8 9B841400 		addiw	s1,s1,1
 5263              	.LVL587:
 5264              	.L274:
 154:src/Code/../../h/Testing/Testing_OS1/Consumer_Producer_CPP_Sync_API_Test.hpp ****             data[i].id = i;
 5265              		.loc 4 154 27 discriminator 1
 5266 16fc 63D0240B 		bge	s1,s2,.L271
 155:src/Code/../../h/Testing/Testing_OS1/Consumer_Producer_CPP_Sync_API_Test.hpp ****             data[i].buffer = buffer;
 5267              		.loc 4 155 13
 155:src/Code/../../h/Testing/Testing_OS1/Consumer_Producer_CPP_Sync_API_Test.hpp ****             data[i].buffer = buffer;
 5268              		.loc 4 155 24 is_stmt 0
 5269 1700 93971400 		slli	a5,s1,1
 5270 1704 B3879700 		add	a5,a5,s1
 5271 1708 93973700 		slli	a5,a5,3
 5272 170c B307FA00 		add	a5,s4,a5
 5273 1710 23A09700 		sw	s1,0(a5)
 156:src/Code/../../h/Testing/Testing_OS1/Consumer_Producer_CPP_Sync_API_Test.hpp ****             data[i].wait = waitForAll;
 5274              		.loc 4 156 13 is_stmt 1
 156:src/Code/../../h/Testing/Testing_OS1/Consumer_Producer_CPP_Sync_API_Test.hpp ****             data[i].wait = waitForAll;
 5275              		.loc 4 156 28 is_stmt 0
 5276 1714 23B45701 		sd	s5,8(a5)
 157:src/Code/../../h/Testing/Testing_OS1/Consumer_Producer_CPP_Sync_API_Test.hpp **** 
 5277              		.loc 4 157 13 is_stmt 1
 157:src/Code/../../h/Testing/Testing_OS1/Consumer_Producer_CPP_Sync_API_Test.hpp **** 
 5278              		.loc 4 157 26 is_stmt 0
 5279 1718 17070000 		ld	a4,.LANCHOR0+64
 5279      03370700 
 5280 1720 23B8E700 		sd	a4,16(a5)
 159:src/Code/../../h/Testing/Testing_OS1/Consumer_Producer_CPP_Sync_API_Test.hpp ****                 threads[i] = new Producer(data+i);
 5281              		.loc 4 159 13 is_stmt 1
 5282 1724 63589002 		blez	s1,.L272
 160:src/Code/../../h/Testing/Testing_OS1/Consumer_Producer_CPP_Sync_API_Test.hpp ****             } else {
 5283              		.loc 4 160 17
 160:src/Code/../../h/Testing/Testing_OS1/Consumer_Producer_CPP_Sync_API_Test.hpp ****             } else {
 5284              		.loc 4 160 49 is_stmt 0
 5285 1728 13058001 		li	a0,24
 5286 172c 97000000 		call	_Znwm@plt
 5286      E7800000 
 5287              	.LVL588:
 5288              	.LEHE23:
 5289 1734 930C0500 		mv	s9,a0
 160:src/Code/../../h/Testing/Testing_OS1/Consumer_Producer_CPP_Sync_API_Test.hpp ****             } else {
 5290              		.loc 4 160 47
 5291 1738 139C1400 		slli	s8,s1,1
 5292 173c 330C9C00 		add	s8,s8,s1
GAS LISTING /tmp/ccBYUnRY.s 			page 125


 5293 1740 131C3C00 		slli	s8,s8,3
 160:src/Code/../../h/Testing/Testing_OS1/Consumer_Producer_CPP_Sync_API_Test.hpp ****             } else {
 5294              		.loc 4 160 49
 5295 1744 330C8A01 		add	s8,s4,s8
 5296              	.LVL589:
 5297              	.LEHB24:
 5298              	.LBB222:
 5299              	.LBB221:
  53:src/Code/../../h/Testing/Testing_OS1/Consumer_Producer_CPP_Sync_API_Test.hpp **** 
 5300              		.loc 4 53 52
 5301 1748 97000000 		call	_ZN6ThreadC2Ev@plt
 5301      E7800000 
 5302              	.LVL590:
 5303              	.LEHE24:
 5304 1750 6FF09FF7 		j	.L298
 5305              	.LVL591:
 5306              	.L272:
 5307              	.LBE221:
 5308              	.LBE222:
 162:src/Code/../../h/Testing/Testing_OS1/Consumer_Producer_CPP_Sync_API_Test.hpp ****             }
 5309              		.loc 4 162 17 is_stmt 1
 162:src/Code/../../h/Testing/Testing_OS1/Consumer_Producer_CPP_Sync_API_Test.hpp ****             }
 5310              		.loc 4 162 57 is_stmt 0
 5311 1754 13058001 		li	a0,24
 5312              	.LEHB25:
 5313 1758 97000000 		call	_Znwm@plt
 5313      E7800000 
 5314              	.LVL592:
 5315              	.LEHE25:
 5316 1760 930C0500 		mv	s9,a0
 162:src/Code/../../h/Testing/Testing_OS1/Consumer_Producer_CPP_Sync_API_Test.hpp ****             }
 5317              		.loc 4 162 55
 5318 1764 139C1400 		slli	s8,s1,1
 5319 1768 330C9C00 		add	s8,s8,s1
 5320 176c 131C3C00 		slli	s8,s8,3
 162:src/Code/../../h/Testing/Testing_OS1/Consumer_Producer_CPP_Sync_API_Test.hpp ****             }
 5321              		.loc 4 162 57
 5322 1770 330C8A01 		add	s8,s4,s8
 5323              	.LVL593:
 5324              	.LEHB26:
 5325              	.LBB223:
 5326              	.LBB224:
  22:src/Code/../../h/Testing/Testing_OS1/Consumer_Producer_CPP_Sync_API_Test.hpp **** 
 5327              		.loc 4 22 60
 5328 1774 97000000 		call	_ZN6ThreadC2Ev@plt
 5328      E7800000 
 5329              	.LVL594:
 5330              	.LEHE26:
 5331 177c 97070000 		lla	a5,_ZTVN23ConsumerProducerSyncCPP16ProducerKeyboardE+16
 5331      93870700 
 5332 1784 23B0FC00 		sd	a5,0(s9)
 5333 1788 23B88C01 		sd	s8,16(s9)
 5334              	.LVL595:
 5335              	.LBE224:
 5336              	.LBE223:
 162:src/Code/../../h/Testing/Testing_OS1/Consumer_Producer_CPP_Sync_API_Test.hpp ****             }
 5337              		.loc 4 162 28
GAS LISTING /tmp/ccBYUnRY.s 			page 126


 5338 178c 93973400 		slli	a5,s1,3
 5339 1790 B387F900 		add	a5,s3,a5
 5340 1794 23B09701 		sd	s9,0(a5)
 5341 1798 6FF0DFF4 		j	.L273
 5342              	.L271:
 5343              	.LBE218:
 168:src/Code/../../h/Testing/Testing_OS1/Consumer_Producer_CPP_Sync_API_Test.hpp **** 
 5344              		.loc 4 168 9 is_stmt 1
 5345              	.LEHB27:
 168:src/Code/../../h/Testing/Testing_OS1/Consumer_Producer_CPP_Sync_API_Test.hpp **** 
 5346              		.loc 4 168 25 is_stmt 0
 5347 179c 97000000 		call	_ZN6Thread8dispatchEv@plt
 5347      E7800000 
 5348              	.LVL596:
 5349              	.LBB225:
 170:src/Code/../../h/Testing/Testing_OS1/Consumer_Producer_CPP_Sync_API_Test.hpp ****             waitForAll->wait();
 5350              		.loc 4 170 18
 5351 17a4 93040000 		li	s1,0
 5352              	.LVL597:
 5353              	.L276:
 170:src/Code/../../h/Testing/Testing_OS1/Consumer_Producer_CPP_Sync_API_Test.hpp ****             waitForAll->wait();
 5354              		.loc 4 170 27 is_stmt 1 discriminator 1
 5355 17a8 634E9900 		bgt	s1,s2,.L288
 171:src/Code/../../h/Testing/Testing_OS1/Consumer_Producer_CPP_Sync_API_Test.hpp ****         }
 5356              		.loc 4 171 13
 171:src/Code/../../h/Testing/Testing_OS1/Consumer_Producer_CPP_Sync_API_Test.hpp ****         }
 5357              		.loc 4 171 29 is_stmt 0
 5358 17ac 17050000 		ld	a0,.LANCHOR0+64
 5358      03350500 
 5359 17b4 97000000 		call	_ZN9Semaphore4waitEv@plt
 5359      E7800000 
 5360              	.LVL598:
 170:src/Code/../../h/Testing/Testing_OS1/Consumer_Producer_CPP_Sync_API_Test.hpp ****             waitForAll->wait();
 5361              		.loc 4 170 9 is_stmt 1
 5362 17bc 9B841400 		addiw	s1,s1,1
 5363              	.LVL599:
 5364 17c0 6FF09FFE 		j	.L276
 5365              	.LVL600:
 5366              	.L288:
 5367              	.LBE225:
 5368              	.LBB226:
 174:src/Code/../../h/Testing/Testing_OS1/Consumer_Producer_CPP_Sync_API_Test.hpp ****             delete threads[i];
 5369              		.loc 4 174 18 is_stmt 0
 5370 17c4 93040000 		li	s1,0
 5371              	.LVL601:
 5372 17c8 6F008000 		j	.L275
 5373              	.LVL602:
 5374              	.L278:
 174:src/Code/../../h/Testing/Testing_OS1/Consumer_Producer_CPP_Sync_API_Test.hpp ****             delete threads[i];
 5375              		.loc 4 174 9 is_stmt 1 discriminator 2
 5376 17cc 9B841400 		addiw	s1,s1,1
 5377              	.LVL603:
 5378              	.L275:
 174:src/Code/../../h/Testing/Testing_OS1/Consumer_Producer_CPP_Sync_API_Test.hpp ****             delete threads[i];
 5379              		.loc 4 174 27 discriminator 1
 5380 17d0 63D22403 		bge	s1,s2,.L277
 175:src/Code/../../h/Testing/Testing_OS1/Consumer_Producer_CPP_Sync_API_Test.hpp ****         }
GAS LISTING /tmp/ccBYUnRY.s 			page 127


 5381              		.loc 4 175 13
 175:src/Code/../../h/Testing/Testing_OS1/Consumer_Producer_CPP_Sync_API_Test.hpp ****         }
 5382              		.loc 4 175 29 is_stmt 0
 5383 17d4 93973400 		slli	a5,s1,3
 5384 17d8 B387F900 		add	a5,s3,a5
 5385 17dc 03B50700 		ld	a0,0(a5)
 175:src/Code/../../h/Testing/Testing_OS1/Consumer_Producer_CPP_Sync_API_Test.hpp ****         }
 5386              		.loc 4 175 30
 5387 17e0 E30605FE 		beqz	a0,.L278
 175:src/Code/../../h/Testing/Testing_OS1/Consumer_Producer_CPP_Sync_API_Test.hpp ****         }
 5388              		.loc 4 175 29 discriminator 1
 5389 17e4 83370500 		ld	a5,0(a0)
 5390 17e8 83B78700 		ld	a5,8(a5)
 5391 17ec E7800700 		jalr	a5
 5392              	.LVL604:
 5393 17f0 6FF0DFFD 		j	.L278
 5394              	.L277:
 5395              	.LBE226:
 177:src/Code/../../h/Testing/Testing_OS1/Consumer_Producer_CPP_Sync_API_Test.hpp ****         delete waitForAll;
 5396              		.loc 4 177 9 is_stmt 1
 177:src/Code/../../h/Testing/Testing_OS1/Consumer_Producer_CPP_Sync_API_Test.hpp ****         delete waitForAll;
 5397              		.loc 4 177 30 is_stmt 0
 5398 17f4 630A0B00 		beqz	s6,.L279
 177:src/Code/../../h/Testing/Testing_OS1/Consumer_Producer_CPP_Sync_API_Test.hpp ****         delete waitForAll;
 5399              		.loc 4 177 16 discriminator 1
 5400 17f8 83370B00 		ld	a5,0(s6)
 5401 17fc 83B78700 		ld	a5,8(a5)
 5402 1800 13050B00 		mv	a0,s6
 5403 1804 E7800700 		jalr	a5
 5404              	.LVL605:
 5405              	.L279:
 178:src/Code/../../h/Testing/Testing_OS1/Consumer_Producer_CPP_Sync_API_Test.hpp ****         delete buffer;
 5406              		.loc 4 178 9 is_stmt 1
 178:src/Code/../../h/Testing/Testing_OS1/Consumer_Producer_CPP_Sync_API_Test.hpp ****         delete buffer;
 5407              		.loc 4 178 16 is_stmt 0
 5408 1808 17050000 		ld	a0,.LANCHOR0+64
 5408      03350500 
 178:src/Code/../../h/Testing/Testing_OS1/Consumer_Producer_CPP_Sync_API_Test.hpp ****         delete buffer;
 5409              		.loc 4 178 26
 5410 1810 63080500 		beqz	a0,.L280
 178:src/Code/../../h/Testing/Testing_OS1/Consumer_Producer_CPP_Sync_API_Test.hpp ****         delete buffer;
 5411              		.loc 4 178 16 discriminator 1
 5412 1814 83370500 		ld	a5,0(a0)
 5413 1818 83B78700 		ld	a5,8(a5)
 5414 181c E7800700 		jalr	a5
 5415              	.LVL606:
 5416              	.L280:
 5417              		.loc 4 179 9 is_stmt 1
 5418              		.loc 4 179 22 is_stmt 0
 5419 1820 638E0A00 		beqz	s5,.L281
 5420              		.loc 4 179 16 discriminator 1
 5421 1824 13850A00 		mv	a0,s5
 5422 1828 97000000 		call	_ZN13BufferTestCPP9BufferCPPD1Ev@plt
 5422      E7800000 
 5423              	.LVL607:
 5424 1830 13850A00 		mv	a0,s5
 5425 1834 97000000 		call	_ZdlPv@plt
GAS LISTING /tmp/ccBYUnRY.s 			page 128


 5425      E7800000 
 5426              	.LVL608:
 5427              	.LEHE27:
 5428              	.L281:
 5429 183c 13810B00 		mv	sp,s7
 5430              	.LVL609:
 5431              	.L267:
 180:src/Code/../../h/Testing/Testing_OS1/Consumer_Producer_CPP_Sync_API_Test.hpp **** 
 181:src/Code/../../h/Testing/Testing_OS1/Consumer_Producer_CPP_Sync_API_Test.hpp ****     }
 5432              		.loc 4 181 5
 5433 1840 130104F8 		addi	sp,s0,-128
 5434              		.cfi_remember_state
 5435              		.cfi_def_cfa 2, 128
 5436 1844 83308107 		ld	ra,120(sp)
 5437              		.cfi_restore 1
 5438 1848 03340107 		ld	s0,112(sp)
 5439              		.cfi_restore 8
 5440 184c 83348106 		ld	s1,104(sp)
 5441              		.cfi_restore 9
 5442 1850 03390106 		ld	s2,96(sp)
 5443              		.cfi_restore 18
 5444              	.LVL610:
 5445 1854 83398105 		ld	s3,88(sp)
 5446              		.cfi_restore 19
 5447 1858 033A0105 		ld	s4,80(sp)
 5448              		.cfi_restore 20
 5449 185c 833A8104 		ld	s5,72(sp)
 5450              		.cfi_restore 21
 5451 1860 033B0104 		ld	s6,64(sp)
 5452              		.cfi_restore 22
 5453 1864 833B8103 		ld	s7,56(sp)
 5454              		.cfi_restore 23
 5455 1868 033C0103 		ld	s8,48(sp)
 5456              		.cfi_restore 24
 5457 186c 833C8102 		ld	s9,40(sp)
 5458              		.cfi_restore 25
 5459 1870 13010108 		addi	sp,sp,128
 5460              		.cfi_def_cfa_offset 0
 5461 1874 67800000 		jr	ra
 5462              	.LVL611:
 5463              	.L289:
 5464              		.cfi_restore_state
 5465 1878 93040500 		mv	s1,a0
 5466              	.LVL612:
 139:src/Code/../../h/Testing/Testing_OS1/Consumer_Producer_CPP_Sync_API_Test.hpp **** 
 5467              		.loc 4 139 74
 5468 187c 13850A00 		mv	a0,s5
 5469 1880 97000000 		call	_ZdlPv@plt
 5469      E7800000 
 5470              	.LVL613:
 5471 1888 13850400 		mv	a0,s1
 5472              	.LEHB28:
 5473 188c 97000000 		call	_Unwind_Resume@plt
 5473      E7800000 
 5474              	.LVL614:
 5475              	.LEHE28:
 5476              	.L290:
GAS LISTING /tmp/ccBYUnRY.s 			page 129


 5477 1894 13090500 		mv	s2,a0
 5478              	.LVL615:
 141:src/Code/../../h/Testing/Testing_OS1/Consumer_Producer_CPP_Sync_API_Test.hpp **** 
 5479              		.loc 4 141 37
 5480 1898 13850400 		mv	a0,s1
 5481 189c 97000000 		call	_ZdlPv@plt
 5481      E7800000 
 5482              	.LVL616:
 5483 18a4 13050900 		mv	a0,s2
 5484              	.LEHB29:
 5485 18a8 97000000 		call	_Unwind_Resume@plt
 5485      E7800000 
 5486              	.LVL617:
 5487              	.LEHE29:
 5488              	.L291:
 5489 18b0 93040500 		mv	s1,a0
 5490              	.LVL618:
 151:src/Code/../../h/Testing/Testing_OS1/Consumer_Producer_CPP_Sync_API_Test.hpp ****         consumerThread->start();
 5491              		.loc 4 151 53
 5492 18b4 13050B00 		mv	a0,s6
 5493 18b8 97000000 		call	_ZdlPv@plt
 5493      E7800000 
 5494              	.LVL619:
 5495 18c0 13850400 		mv	a0,s1
 5496              	.LEHB30:
 5497 18c4 97000000 		call	_Unwind_Resume@plt
 5497      E7800000 
 5498              	.LVL620:
 5499              	.LEHE30:
 5500              	.L292:
 5501 18cc 93040500 		mv	s1,a0
 5502              	.LVL621:
 5503              	.LBB227:
 160:src/Code/../../h/Testing/Testing_OS1/Consumer_Producer_CPP_Sync_API_Test.hpp ****             } else {
 5504              		.loc 4 160 49
 5505 18d0 13850C00 		mv	a0,s9
 5506 18d4 97000000 		call	_ZdlPv@plt
 5506      E7800000 
 5507              	.LVL622:
 5508 18dc 13850400 		mv	a0,s1
 5509              	.LEHB31:
 5510 18e0 97000000 		call	_Unwind_Resume@plt
 5510      E7800000 
 5511              	.LVL623:
 5512              	.LEHE31:
 5513              	.L293:
 5514 18e8 93040500 		mv	s1,a0
 5515              	.LVL624:
 162:src/Code/../../h/Testing/Testing_OS1/Consumer_Producer_CPP_Sync_API_Test.hpp ****             }
 5516              		.loc 4 162 57
 5517 18ec 13850C00 		mv	a0,s9
 5518 18f0 97000000 		call	_ZdlPv@plt
 5518      E7800000 
 5519              	.LVL625:
 5520 18f8 13850400 		mv	a0,s1
 5521              	.LEHB32:
 5522 18fc 97000000 		call	_Unwind_Resume@plt
GAS LISTING /tmp/ccBYUnRY.s 			page 130


 5522      E7800000 
 5523              	.LVL626:
 5524              	.LEHE32:
 5525              	.LBE227:
 5526              		.cfi_endproc
 5527              	.LFE97:
 5528              		.section	.gcc_except_table
 5529              	.LLSDA97:
 5530 00e6 FF       		.byte	0xff
 5531 00e7 FF       		.byte	0xff
 5532 00e8 03       		.byte	0x3
 5533 00e9 D001     		.byte	0xd0,0x1
 5534 00eb 00000000 		.4byte	.LEHB17-.LFB97
 5535 00ef 00000000 		.4byte	.LEHE17-.LEHB17
 5536 00f3 00000000 		.4byte	0
 5537 00f7 00       		.byte	0
 5538 00f8 00000000 		.4byte	.LEHB18-.LFB97
 5539 00fc 00000000 		.4byte	.LEHE18-.LEHB18
 5540 0100 00000000 		.4byte	.L289-.LFB97
 5541 0104 00       		.byte	0
 5542 0105 00000000 		.4byte	.LEHB19-.LFB97
 5543 0109 00000000 		.4byte	.LEHE19-.LEHB19
 5544 010d 00000000 		.4byte	0
 5545 0111 00       		.byte	0
 5546 0112 00000000 		.4byte	.LEHB20-.LFB97
 5547 0116 00000000 		.4byte	.LEHE20-.LEHB20
 5548 011a 00000000 		.4byte	.L290-.LFB97
 5549 011e 00       		.byte	0
 5550 011f 00000000 		.4byte	.LEHB21-.LFB97
 5551 0123 00000000 		.4byte	.LEHE21-.LEHB21
 5552 0127 00000000 		.4byte	0
 5553 012b 00       		.byte	0
 5554 012c 00000000 		.4byte	.LEHB22-.LFB97
 5555 0130 00000000 		.4byte	.LEHE22-.LEHB22
 5556 0134 00000000 		.4byte	.L291-.LFB97
 5557 0138 00       		.byte	0
 5558 0139 00000000 		.4byte	.LEHB23-.LFB97
 5559 013d 00000000 		.4byte	.LEHE23-.LEHB23
 5560 0141 00000000 		.4byte	0
 5561 0145 00       		.byte	0
 5562 0146 00000000 		.4byte	.LEHB24-.LFB97
 5563 014a 00000000 		.4byte	.LEHE24-.LEHB24
 5564 014e 00000000 		.4byte	.L292-.LFB97
 5565 0152 00       		.byte	0
 5566 0153 00000000 		.4byte	.LEHB25-.LFB97
 5567 0157 00000000 		.4byte	.LEHE25-.LEHB25
 5568 015b 00000000 		.4byte	0
 5569 015f 00       		.byte	0
 5570 0160 00000000 		.4byte	.LEHB26-.LFB97
 5571 0164 00000000 		.4byte	.LEHE26-.LEHB26
 5572 0168 00000000 		.4byte	.L293-.LFB97
 5573 016c 00       		.byte	0
 5574 016d 00000000 		.4byte	.LEHB27-.LFB97
 5575 0171 00000000 		.4byte	.LEHE27-.LEHB27
 5576 0175 00000000 		.4byte	0
 5577 0179 00       		.byte	0
 5578 017a 00000000 		.4byte	.LEHB28-.LFB97
GAS LISTING /tmp/ccBYUnRY.s 			page 131


 5579 017e 00000000 		.4byte	.LEHE28-.LEHB28
 5580 0182 00000000 		.4byte	0
 5581 0186 00       		.byte	0
 5582 0187 00000000 		.4byte	.LEHB29-.LFB97
 5583 018b 00000000 		.4byte	.LEHE29-.LEHB29
 5584 018f 00000000 		.4byte	0
 5585 0193 00       		.byte	0
 5586 0194 00000000 		.4byte	.LEHB30-.LFB97
 5587 0198 00000000 		.4byte	.LEHE30-.LEHB30
 5588 019c 00000000 		.4byte	0
 5589 01a0 00       		.byte	0
 5590 01a1 00000000 		.4byte	.LEHB31-.LFB97
 5591 01a5 00000000 		.4byte	.LEHE31-.LEHB31
 5592 01a9 00000000 		.4byte	0
 5593 01ad 00       		.byte	0
 5594 01ae 00000000 		.4byte	.LEHB32-.LFB97
 5595 01b2 00000000 		.4byte	.LEHE32-.LEHB32
 5596 01b6 00000000 		.4byte	0
 5597 01ba 00       		.byte	0
 5598              		.text
 5600              		.align	2
 5601              		.globl	_ZN15ThreadSleepTest23Thread_Sleep_C_API_TestEv
 5603              	_ZN15ThreadSleepTest23Thread_Sleep_C_API_TestEv:
 5604              	.LFB99:
  22:src/Code/../../h/Testing/Testing_OS1/ThreadSleep_C_API_Test.hpp **** 
  23:src/Code/../../h/Testing/Testing_OS1/ThreadSleep_C_API_Test.hpp ****     void Thread_Sleep_C_API_Test() {
 5605              		.loc 9 23 36 is_stmt 1
 5606              		.cfi_startproc
 5607 1904 130101FC 		addi	sp,sp,-64
 5608              		.cfi_def_cfa_offset 64
 5609 1908 233C1102 		sd	ra,56(sp)
 5610 190c 23388102 		sd	s0,48(sp)
 5611 1910 23349102 		sd	s1,40(sp)
 5612              		.cfi_offset 1, -8
 5613              		.cfi_offset 8, -16
 5614              		.cfi_offset 9, -24
 5615 1914 13040104 		addi	s0,sp,64
 5616              		.cfi_def_cfa 8, 0
  24:src/Code/../../h/Testing/Testing_OS1/ThreadSleep_C_API_Test.hpp ****         const int sleepy_thread_count = 2;
 5617              		.loc 9 24 9
 5618              	.LVL627:
  25:src/Code/../../h/Testing/Testing_OS1/ThreadSleep_C_API_Test.hpp ****         time_t sleep_times[sleepy_thread_count] = {10, 20};
 5619              		.loc 9 25 9
 5620              		.loc 9 25 16 is_stmt 0
 5621 1918 9307A000 		li	a5,10
 5622 191c 2338F4FC 		sd	a5,-48(s0)
 5623 1920 93074001 		li	a5,20
 5624 1924 233CF4FC 		sd	a5,-40(s0)
  26:src/Code/../../h/Testing/Testing_OS1/ThreadSleep_C_API_Test.hpp ****         thread_t sleepyThread[sleepy_thread_count];
 5625              		.loc 9 26 9 is_stmt 1
  27:src/Code/../../h/Testing/Testing_OS1/ThreadSleep_C_API_Test.hpp **** 
  28:src/Code/../../h/Testing/Testing_OS1/ThreadSleep_C_API_Test.hpp ****         for (int i = 0; i < sleepy_thread_count; i++) {
 5626              		.loc 9 28 9
 5627              	.LVL628:
 5628              	.LBB228:
 5629              		.loc 9 28 18 is_stmt 0
 5630 1928 93040000 		li	s1,0
GAS LISTING /tmp/ccBYUnRY.s 			page 132


 5631 192c 6F00C002 		j	.L301
 5632              	.LVL629:
 5633              	.L304:
  29:src/Code/../../h/Testing/Testing_OS1/ThreadSleep_C_API_Test.hpp ****             thread_create(&sleepyThread[i], sleepyRun, sleep_times + i);
 5634              		.loc 9 29 13 is_stmt 1
 5635              		.loc 9 29 68 is_stmt 0
 5636 1930 93973400 		slli	a5,s1,3
 5637              		.loc 9 29 26
 5638 1934 130604FD 		addi	a2,s0,-48
 5639 1938 3306F600 		add	a2,a2,a5
 5640 193c 97050000 		lla	a1,_ZN15ThreadSleepTest9sleepyRunEPv
 5640      93850500 
 5641 1944 130504FC 		addi	a0,s0,-64
 5642 1948 3305F500 		add	a0,a0,a5
 5643 194c 97000000 		call	_Z13thread_createPP6threadPFvPvES2_@plt
 5643      E7800000 
 5644              	.LVL630:
  28:src/Code/../../h/Testing/Testing_OS1/ThreadSleep_C_API_Test.hpp ****             thread_create(&sleepyThread[i], sleepyRun, sleep_times + i);
 5645              		.loc 9 28 9 is_stmt 1
 5646 1954 9B841400 		addiw	s1,s1,1
 5647              	.LVL631:
 5648              	.L301:
  28:src/Code/../../h/Testing/Testing_OS1/ThreadSleep_C_API_Test.hpp ****             thread_create(&sleepyThread[i], sleepyRun, sleep_times + i);
 5649              		.loc 9 28 27 discriminator 1
 5650 1958 93071000 		li	a5,1
 5651 195c E3DA97FC 		ble	s1,a5,.L304
 5652              	.L302:
 5653              	.LBE228:
  30:src/Code/../../h/Testing/Testing_OS1/ThreadSleep_C_API_Test.hpp ****         }
  31:src/Code/../../h/Testing/Testing_OS1/ThreadSleep_C_API_Test.hpp **** 
  32:src/Code/../../h/Testing/Testing_OS1/ThreadSleep_C_API_Test.hpp ****         while (!(finished[0] && finished[1])) {}
 5654              		.loc 9 32 9
 5655              		.loc 9 32 16
 5656              		.loc 9 32 28 is_stmt 0
 5657 1960 97070000 		lbu	a5,.LANCHOR0+24
 5657      83C70700 
 5658              		.loc 9 32 16
 5659 1968 E38C07FE 		beqz	a5,.L302
 5660              		.loc 9 32 43 discriminator 1
 5661 196c 97070000 		lbu	a5,.LANCHOR0+25
 5661      83C70700 
 5662              		.loc 9 32 16 discriminator 1
 5663 1974 E38607FE 		beqz	a5,.L302
  33:src/Code/../../h/Testing/Testing_OS1/ThreadSleep_C_API_Test.hpp ****     }
 5664              		.loc 9 33 5
 5665 1978 83308103 		ld	ra,56(sp)
 5666              		.cfi_restore 1
 5667 197c 03340103 		ld	s0,48(sp)
 5668              		.cfi_restore 8
 5669              		.cfi_def_cfa 2, 64
 5670 1980 83348102 		ld	s1,40(sp)
 5671              		.cfi_restore 9
 5672              	.LVL632:
 5673 1984 13010104 		addi	sp,sp,64
 5674              		.cfi_def_cfa_offset 0
 5675 1988 67800000 		jr	ra
 5676              		.cfi_endproc
GAS LISTING /tmp/ccBYUnRY.s 			page 133


 5677              	.LFE99:
 5679              		.align	2
 5680              		.globl	_ZN24ConsumerProducerAsyncCPP36Consumer_Producer_Async_CPP_API_TestEv
 5682              	_ZN24ConsumerProducerAsyncCPP36Consumer_Producer_Async_CPP_API_TestEv:
 5683              	.LFB112:
  82:src/Code/../../h/Testing/Testing_OS1/Consumer_Producer_CPP_API_Test.hpp ****     };
  83:src/Code/../../h/Testing/Testing_OS1/Consumer_Producer_CPP_API_Test.hpp **** 
  84:src/Code/../../h/Testing/Testing_OS1/Consumer_Producer_CPP_API_Test.hpp ****     void Consumer_Producer_Async_CPP_API_Test() {
 5684              		.loc 5 84 49 is_stmt 1
 5685              		.cfi_startproc
 5686              		.cfi_personality 0x9b,DW.ref.__gxx_personality_v0
 5687              		.cfi_lsda 0x1b,.LLSDA112
 5688 198c 130101F8 		addi	sp,sp,-128
 5689              		.cfi_def_cfa_offset 128
 5690 1990 233C1106 		sd	ra,120(sp)
 5691 1994 23388106 		sd	s0,112(sp)
 5692 1998 23349106 		sd	s1,104(sp)
 5693 199c 23302107 		sd	s2,96(sp)
 5694 19a0 233C3105 		sd	s3,88(sp)
 5695 19a4 23384105 		sd	s4,80(sp)
 5696 19a8 23345105 		sd	s5,72(sp)
 5697 19ac 23306105 		sd	s6,64(sp)
 5698 19b0 233C7103 		sd	s7,56(sp)
 5699 19b4 23388103 		sd	s8,48(sp)
 5700 19b8 23349103 		sd	s9,40(sp)
 5701              		.cfi_offset 1, -8
 5702              		.cfi_offset 8, -16
 5703              		.cfi_offset 9, -24
 5704              		.cfi_offset 18, -32
 5705              		.cfi_offset 19, -40
 5706              		.cfi_offset 20, -48
 5707              		.cfi_offset 21, -56
 5708              		.cfi_offset 22, -64
 5709              		.cfi_offset 23, -72
 5710              		.cfi_offset 24, -80
 5711              		.cfi_offset 25, -88
 5712 19bc 13040108 		addi	s0,sp,128
 5713              		.cfi_def_cfa 8, 0
  85:src/Code/../../h/Testing/Testing_OS1/Consumer_Producer_CPP_API_Test.hpp ****         char input[30];
  86:src/Code/../../h/Testing/Testing_OS1/Consumer_Producer_CPP_API_Test.hpp ****         int n, threadNum;
  87:src/Code/../../h/Testing/Testing_OS1/Consumer_Producer_CPP_API_Test.hpp **** 
  88:src/Code/../../h/Testing/Testing_OS1/Consumer_Producer_CPP_API_Test.hpp ****         printString("Unesite broj proizvodjaca?\n");
  89:src/Code/../../h/Testing/Testing_OS1/Consumer_Producer_CPP_API_Test.hpp ****         getString(input, 30);
  90:src/Code/../../h/Testing/Testing_OS1/Consumer_Producer_CPP_API_Test.hpp ****         threadNum = stringToInt(input);
  91:src/Code/../../h/Testing/Testing_OS1/Consumer_Producer_CPP_API_Test.hpp **** 
  92:src/Code/../../h/Testing/Testing_OS1/Consumer_Producer_CPP_API_Test.hpp ****         printString("Unesite velicinu bafera?\n");
  93:src/Code/../../h/Testing/Testing_OS1/Consumer_Producer_CPP_API_Test.hpp ****         getString(input, 30);
  94:src/Code/../../h/Testing/Testing_OS1/Consumer_Producer_CPP_API_Test.hpp ****         n = stringToInt(input);
  95:src/Code/../../h/Testing/Testing_OS1/Consumer_Producer_CPP_API_Test.hpp **** 
  96:src/Code/../../h/Testing/Testing_OS1/Consumer_Producer_CPP_API_Test.hpp ****         printString("Broj proizvodjaca "); printInt(threadNum);
  97:src/Code/../../h/Testing/Testing_OS1/Consumer_Producer_CPP_API_Test.hpp ****         printString(" i velicina bafera "); printInt(n);
  98:src/Code/../../h/Testing/Testing_OS1/Consumer_Producer_CPP_API_Test.hpp ****         printString(".\n");
  99:src/Code/../../h/Testing/Testing_OS1/Consumer_Producer_CPP_API_Test.hpp **** 
 100:src/Code/../../h/Testing/Testing_OS1/Consumer_Producer_CPP_API_Test.hpp ****         if(threadNum > n) {
 101:src/Code/../../h/Testing/Testing_OS1/Consumer_Producer_CPP_API_Test.hpp ****             printString("Broj proizvodjaca ne sme biti manji od velicine bafera!\n");
 102:src/Code/../../h/Testing/Testing_OS1/Consumer_Producer_CPP_API_Test.hpp ****             return;
 103:src/Code/../../h/Testing/Testing_OS1/Consumer_Producer_CPP_API_Test.hpp ****         } else if (threadNum < 1) {
GAS LISTING /tmp/ccBYUnRY.s 			page 134


 104:src/Code/../../h/Testing/Testing_OS1/Consumer_Producer_CPP_API_Test.hpp ****             printString("Broj proizvodjaca mora biti veci od nula!\n");
 105:src/Code/../../h/Testing/Testing_OS1/Consumer_Producer_CPP_API_Test.hpp ****             return;
 106:src/Code/../../h/Testing/Testing_OS1/Consumer_Producer_CPP_API_Test.hpp ****         }
 107:src/Code/../../h/Testing/Testing_OS1/Consumer_Producer_CPP_API_Test.hpp **** 
 108:src/Code/../../h/Testing/Testing_OS1/Consumer_Producer_CPP_API_Test.hpp ****         BufferTestCPP::BufferCPP *buffer = new BufferTestCPP::BufferCPP(n);
 109:src/Code/../../h/Testing/Testing_OS1/Consumer_Producer_CPP_API_Test.hpp **** 
 110:src/Code/../../h/Testing/Testing_OS1/Consumer_Producer_CPP_API_Test.hpp ****         waitForAll = new Semaphore(0);
 111:src/Code/../../h/Testing/Testing_OS1/Consumer_Producer_CPP_API_Test.hpp ****         Thread *producers[threadNum];
 112:src/Code/../../h/Testing/Testing_OS1/Consumer_Producer_CPP_API_Test.hpp ****         thread_data threadData[threadNum + 1];
 113:src/Code/../../h/Testing/Testing_OS1/Consumer_Producer_CPP_API_Test.hpp **** 
 114:src/Code/../../h/Testing/Testing_OS1/Consumer_Producer_CPP_API_Test.hpp ****         threadData[threadNum].id = threadNum;
 115:src/Code/../../h/Testing/Testing_OS1/Consumer_Producer_CPP_API_Test.hpp ****         threadData[threadNum].buffer = buffer;
 116:src/Code/../../h/Testing/Testing_OS1/Consumer_Producer_CPP_API_Test.hpp ****         threadData[threadNum].sem = waitForAll;
 117:src/Code/../../h/Testing/Testing_OS1/Consumer_Producer_CPP_API_Test.hpp ****         Thread *consumer = new Consumer(&threadData[threadNum]);
 118:src/Code/../../h/Testing/Testing_OS1/Consumer_Producer_CPP_API_Test.hpp ****         consumer->start();
 119:src/Code/../../h/Testing/Testing_OS1/Consumer_Producer_CPP_API_Test.hpp **** 
 120:src/Code/../../h/Testing/Testing_OS1/Consumer_Producer_CPP_API_Test.hpp ****         threadData[0].id = 0;
 121:src/Code/../../h/Testing/Testing_OS1/Consumer_Producer_CPP_API_Test.hpp ****         threadData[0].buffer = buffer;
 122:src/Code/../../h/Testing/Testing_OS1/Consumer_Producer_CPP_API_Test.hpp ****         threadData[0].sem = waitForAll;
 123:src/Code/../../h/Testing/Testing_OS1/Consumer_Producer_CPP_API_Test.hpp ****         producers[0] = new ProducerKeyborad(&threadData[0]);
 124:src/Code/../../h/Testing/Testing_OS1/Consumer_Producer_CPP_API_Test.hpp ****         producers[0]->start();
 125:src/Code/../../h/Testing/Testing_OS1/Consumer_Producer_CPP_API_Test.hpp **** 
 126:src/Code/../../h/Testing/Testing_OS1/Consumer_Producer_CPP_API_Test.hpp ****         for (int i = 1; i < threadNum; i++) {
 127:src/Code/../../h/Testing/Testing_OS1/Consumer_Producer_CPP_API_Test.hpp ****             threadData[i].id = i;
 128:src/Code/../../h/Testing/Testing_OS1/Consumer_Producer_CPP_API_Test.hpp ****             threadData[i].buffer = buffer;
 129:src/Code/../../h/Testing/Testing_OS1/Consumer_Producer_CPP_API_Test.hpp ****             threadData[i].sem = waitForAll;
 130:src/Code/../../h/Testing/Testing_OS1/Consumer_Producer_CPP_API_Test.hpp **** 
 131:src/Code/../../h/Testing/Testing_OS1/Consumer_Producer_CPP_API_Test.hpp ****             producers[i] = new Producer(&threadData[i]);
 132:src/Code/../../h/Testing/Testing_OS1/Consumer_Producer_CPP_API_Test.hpp ****             producers[i]->start();
 133:src/Code/../../h/Testing/Testing_OS1/Consumer_Producer_CPP_API_Test.hpp **** 
 134:src/Code/../../h/Testing/Testing_OS1/Consumer_Producer_CPP_API_Test.hpp ****         }
 135:src/Code/../../h/Testing/Testing_OS1/Consumer_Producer_CPP_API_Test.hpp **** 
 136:src/Code/../../h/Testing/Testing_OS1/Consumer_Producer_CPP_API_Test.hpp ****         Thread::dispatch();
 137:src/Code/../../h/Testing/Testing_OS1/Consumer_Producer_CPP_API_Test.hpp **** 
 138:src/Code/../../h/Testing/Testing_OS1/Consumer_Producer_CPP_API_Test.hpp ****         for (int i = 0; i <= threadNum; i++) {
 139:src/Code/../../h/Testing/Testing_OS1/Consumer_Producer_CPP_API_Test.hpp ****             waitForAll->wait();
 140:src/Code/../../h/Testing/Testing_OS1/Consumer_Producer_CPP_API_Test.hpp ****         }
 141:src/Code/../../h/Testing/Testing_OS1/Consumer_Producer_CPP_API_Test.hpp **** 
 142:src/Code/../../h/Testing/Testing_OS1/Consumer_Producer_CPP_API_Test.hpp ****         delete waitForAll;
 143:src/Code/../../h/Testing/Testing_OS1/Consumer_Producer_CPP_API_Test.hpp ****         for (int i = 0; i < threadNum; i++) {
 144:src/Code/../../h/Testing/Testing_OS1/Consumer_Producer_CPP_API_Test.hpp ****             delete producers[i];
 145:src/Code/../../h/Testing/Testing_OS1/Consumer_Producer_CPP_API_Test.hpp ****         }
 146:src/Code/../../h/Testing/Testing_OS1/Consumer_Producer_CPP_API_Test.hpp ****         delete consumer;
 147:src/Code/../../h/Testing/Testing_OS1/Consumer_Producer_CPP_API_Test.hpp ****         delete buffer;
 5714              		.loc 5 147 22 is_stmt 0
 5715 19c0 130C0100 		mv	s8,sp
  85:src/Code/../../h/Testing/Testing_OS1/Consumer_Producer_CPP_API_Test.hpp ****         char input[30];
 5716              		.loc 5 85 9 is_stmt 1
  86:src/Code/../../h/Testing/Testing_OS1/Consumer_Producer_CPP_API_Test.hpp **** 
 5717              		.loc 5 86 9
  88:src/Code/../../h/Testing/Testing_OS1/Consumer_Producer_CPP_API_Test.hpp ****         getString(input, 30);
 5718              		.loc 5 88 9
  88:src/Code/../../h/Testing/Testing_OS1/Consumer_Producer_CPP_API_Test.hpp ****         getString(input, 30);
 5719              		.loc 5 88 20 is_stmt 0
 5720 19c4 17050000 		lla	a0,.LC20
 5720      13050500 
 5721              	.LEHB33:
GAS LISTING /tmp/ccBYUnRY.s 			page 135


 5722 19cc 97000000 		call	_Z11printStringPKc@plt
 5722      E7800000 
 5723              	.LVL633:
  89:src/Code/../../h/Testing/Testing_OS1/Consumer_Producer_CPP_API_Test.hpp ****         threadNum = stringToInt(input);
 5724              		.loc 5 89 9 is_stmt 1
  89:src/Code/../../h/Testing/Testing_OS1/Consumer_Producer_CPP_API_Test.hpp ****         threadNum = stringToInt(input);
 5725              		.loc 5 89 18 is_stmt 0
 5726 19d4 9305E001 		li	a1,30
 5727 19d8 930404F8 		addi	s1,s0,-128
 5728 19dc 13850400 		mv	a0,s1
 5729 19e0 97000000 		call	_Z9getStringPci@plt
 5729      E7800000 
 5730              	.LVL634:
  90:src/Code/../../h/Testing/Testing_OS1/Consumer_Producer_CPP_API_Test.hpp **** 
 5731              		.loc 5 90 9 is_stmt 1
  90:src/Code/../../h/Testing/Testing_OS1/Consumer_Producer_CPP_API_Test.hpp **** 
 5732              		.loc 5 90 32 is_stmt 0
 5733 19e8 13850400 		mv	a0,s1
 5734 19ec 97000000 		call	_Z11stringToIntPKc@plt
 5734      E7800000 
 5735              	.LVL635:
 5736 19f4 93090500 		mv	s3,a0
 5737              	.LVL636:
  92:src/Code/../../h/Testing/Testing_OS1/Consumer_Producer_CPP_API_Test.hpp ****         getString(input, 30);
 5738              		.loc 5 92 9 is_stmt 1
  92:src/Code/../../h/Testing/Testing_OS1/Consumer_Producer_CPP_API_Test.hpp ****         getString(input, 30);
 5739              		.loc 5 92 20 is_stmt 0
 5740 19f8 17050000 		lla	a0,.LC21
 5740      13050500 
 5741 1a00 97000000 		call	_Z11printStringPKc@plt
 5741      E7800000 
 5742              	.LVL637:
  93:src/Code/../../h/Testing/Testing_OS1/Consumer_Producer_CPP_API_Test.hpp ****         n = stringToInt(input);
 5743              		.loc 5 93 9 is_stmt 1
  93:src/Code/../../h/Testing/Testing_OS1/Consumer_Producer_CPP_API_Test.hpp ****         n = stringToInt(input);
 5744              		.loc 5 93 18 is_stmt 0
 5745 1a08 9305E001 		li	a1,30
 5746 1a0c 13850400 		mv	a0,s1
 5747 1a10 97000000 		call	_Z9getStringPci@plt
 5747      E7800000 
 5748              	.LVL638:
  94:src/Code/../../h/Testing/Testing_OS1/Consumer_Producer_CPP_API_Test.hpp **** 
 5749              		.loc 5 94 9 is_stmt 1
  94:src/Code/../../h/Testing/Testing_OS1/Consumer_Producer_CPP_API_Test.hpp **** 
 5750              		.loc 5 94 24 is_stmt 0
 5751 1a18 13850400 		mv	a0,s1
 5752 1a1c 97000000 		call	_Z11stringToIntPKc@plt
 5752      E7800000 
 5753              	.LVL639:
 5754 1a24 93040500 		mv	s1,a0
 5755              	.LVL640:
  96:src/Code/../../h/Testing/Testing_OS1/Consumer_Producer_CPP_API_Test.hpp ****         printString(" i velicina bafera "); printInt(n);
 5756              		.loc 5 96 9 is_stmt 1
  96:src/Code/../../h/Testing/Testing_OS1/Consumer_Producer_CPP_API_Test.hpp ****         printString(" i velicina bafera "); printInt(n);
 5757              		.loc 5 96 20 is_stmt 0
 5758 1a28 17050000 		lla	a0,.LC22
 5758      13050500 
GAS LISTING /tmp/ccBYUnRY.s 			page 136


 5759 1a30 97000000 		call	_Z11printStringPKc@plt
 5759      E7800000 
 5760              	.LVL641:
  96:src/Code/../../h/Testing/Testing_OS1/Consumer_Producer_CPP_API_Test.hpp ****         printString(" i velicina bafera "); printInt(n);
 5761              		.loc 5 96 44 is_stmt 1
  96:src/Code/../../h/Testing/Testing_OS1/Consumer_Producer_CPP_API_Test.hpp ****         printString(" i velicina bafera "); printInt(n);
 5762              		.loc 5 96 52 is_stmt 0
 5763 1a38 13060000 		li	a2,0
 5764 1a3c 9305A000 		li	a1,10
 5765 1a40 13850900 		mv	a0,s3
 5766 1a44 97000000 		call	_Z8printIntiii@plt
 5766      E7800000 
 5767              	.LVL642:
  97:src/Code/../../h/Testing/Testing_OS1/Consumer_Producer_CPP_API_Test.hpp ****         printString(".\n");
 5768              		.loc 5 97 9 is_stmt 1
  97:src/Code/../../h/Testing/Testing_OS1/Consumer_Producer_CPP_API_Test.hpp ****         printString(".\n");
 5769              		.loc 5 97 20 is_stmt 0
 5770 1a4c 17050000 		lla	a0,.LC23
 5770      13050500 
 5771 1a54 97000000 		call	_Z11printStringPKc@plt
 5771      E7800000 
 5772              	.LVL643:
  97:src/Code/../../h/Testing/Testing_OS1/Consumer_Producer_CPP_API_Test.hpp ****         printString(".\n");
 5773              		.loc 5 97 45 is_stmt 1
  97:src/Code/../../h/Testing/Testing_OS1/Consumer_Producer_CPP_API_Test.hpp ****         printString(".\n");
 5774              		.loc 5 97 53 is_stmt 0
 5775 1a5c 13060000 		li	a2,0
 5776 1a60 9305A000 		li	a1,10
 5777 1a64 13850400 		mv	a0,s1
 5778 1a68 97000000 		call	_Z8printIntiii@plt
 5778      E7800000 
 5779              	.LVL644:
  98:src/Code/../../h/Testing/Testing_OS1/Consumer_Producer_CPP_API_Test.hpp **** 
 5780              		.loc 5 98 9 is_stmt 1
  98:src/Code/../../h/Testing/Testing_OS1/Consumer_Producer_CPP_API_Test.hpp **** 
 5781              		.loc 5 98 20 is_stmt 0
 5782 1a70 17050000 		lla	a0,.LC24
 5782      13050500 
 5783 1a78 97000000 		call	_Z11printStringPKc@plt
 5783      E7800000 
 5784              	.LVL645:
 100:src/Code/../../h/Testing/Testing_OS1/Consumer_Producer_CPP_API_Test.hpp ****             printString("Broj proizvodjaca ne sme biti manji od velicine bafera!\n");
 5785              		.loc 5 100 9 is_stmt 1
 5786 1a80 63C43403 		bgt	s3,s1,.L331
 103:src/Code/../../h/Testing/Testing_OS1/Consumer_Producer_CPP_API_Test.hpp ****             printString("Broj proizvodjaca mora biti veci od nula!\n");
 5787              		.loc 5 103 16
 5788 1a84 635C3003 		blez	s3,.L332
 108:src/Code/../../h/Testing/Testing_OS1/Consumer_Producer_CPP_API_Test.hpp **** 
 5789              		.loc 5 108 9
 108:src/Code/../../h/Testing/Testing_OS1/Consumer_Producer_CPP_API_Test.hpp **** 
 5790              		.loc 5 108 74 is_stmt 0
 5791 1a88 13058003 		li	a0,56
 5792 1a8c 97000000 		call	_Znwm@plt
 5792      E7800000 
 5793              	.LVL646:
 5794              	.LEHE33:
 5795 1a94 930A0500 		mv	s5,a0
GAS LISTING /tmp/ccBYUnRY.s 			page 137


 5796 1a98 93850400 		mv	a1,s1
 5797              	.LEHB34:
 5798 1a9c 97000000 		call	_ZN13BufferTestCPP9BufferCPPC1Ei@plt
 5798      E7800000 
 5799              	.LVL647:
 5800              	.LEHE34:
 5801 1aa4 6F000003 		j	.L333
 5802              	.L331:
 101:src/Code/../../h/Testing/Testing_OS1/Consumer_Producer_CPP_API_Test.hpp ****             return;
 5803              		.loc 5 101 13 is_stmt 1
 101:src/Code/../../h/Testing/Testing_OS1/Consumer_Producer_CPP_API_Test.hpp ****             return;
 5804              		.loc 5 101 24 is_stmt 0
 5805 1aa8 17050000 		lla	a0,.LC27
 5805      13050500 
 5806              	.LEHB35:
 5807 1ab0 97000000 		call	_Z11printStringPKc@plt
 5807      E7800000 
 5808              	.LVL648:
 102:src/Code/../../h/Testing/Testing_OS1/Consumer_Producer_CPP_API_Test.hpp ****         } else if (threadNum < 1) {
 5809              		.loc 5 102 13 is_stmt 1
 5810 1ab8 6F004001 		j	.L307
 5811              	.L332:
 104:src/Code/../../h/Testing/Testing_OS1/Consumer_Producer_CPP_API_Test.hpp ****             return;
 5812              		.loc 5 104 13
 104:src/Code/../../h/Testing/Testing_OS1/Consumer_Producer_CPP_API_Test.hpp ****             return;
 5813              		.loc 5 104 24 is_stmt 0
 5814 1abc 17050000 		lla	a0,.LC26
 5814      13050500 
 5815 1ac4 97000000 		call	_Z11printStringPKc@plt
 5815      E7800000 
 5816              	.LVL649:
 105:src/Code/../../h/Testing/Testing_OS1/Consumer_Producer_CPP_API_Test.hpp ****         }
 5817              		.loc 5 105 13 is_stmt 1
 5818              	.L307:
 5819 1acc 13010C00 		mv	sp,s8
 5820 1ad0 6F00C021 		j	.L305
 5821              	.L333:
 5822              	.LVL650:
 110:src/Code/../../h/Testing/Testing_OS1/Consumer_Producer_CPP_API_Test.hpp ****         Thread *producers[threadNum];
 5823              		.loc 5 110 9 discriminator 3
 110:src/Code/../../h/Testing/Testing_OS1/Consumer_Producer_CPP_API_Test.hpp ****         Thread *producers[threadNum];
 5824              		.loc 5 110 37 is_stmt 0 discriminator 3
 5825 1ad4 13050001 		li	a0,16
 5826 1ad8 97000000 		call	_Znwm@plt
 5826      E7800000 
 5827              	.LVL651:
 5828              	.LEHE35:
 5829 1ae0 93040500 		mv	s1,a0
 5830              	.LVL652:
 5831 1ae4 93050000 		li	a1,0
 5832              	.LEHB36:
 5833 1ae8 97000000 		call	_ZN9SemaphoreC1Ej@plt
 5833      E7800000 
 5834              	.LVL653:
 5835              	.LEHE36:
 110:src/Code/../../h/Testing/Testing_OS1/Consumer_Producer_CPP_API_Test.hpp ****         Thread *producers[threadNum];
 5836              		.loc 5 110 20 discriminator 3
GAS LISTING /tmp/ccBYUnRY.s 			page 138


 5837 1af0 17070000 		lla	a4,.LANCHOR0
 5837      13070700 
 5838 1af8 23349704 		sd	s1,72(a4)
 111:src/Code/../../h/Testing/Testing_OS1/Consumer_Producer_CPP_API_Test.hpp ****         thread_data threadData[threadNum + 1];
 5839              		.loc 5 111 9 is_stmt 1 discriminator 3
 5840              	.LVL654:
 111:src/Code/../../h/Testing/Testing_OS1/Consumer_Producer_CPP_API_Test.hpp ****         thread_data threadData[threadNum + 1];
 5841              		.loc 5 111 17 is_stmt 0 discriminator 3
 5842 1afc 93973900 		slli	a5,s3,3
 5843 1b00 9387F700 		addi	a5,a5,15
 5844 1b04 93F707FF 		andi	a5,a5,-16
 5845 1b08 3301F140 		sub	sp,sp,a5
 5846 1b0c 130A0100 		mv	s4,sp
 5847              	.LVL655:
 112:src/Code/../../h/Testing/Testing_OS1/Consumer_Producer_CPP_API_Test.hpp **** 
 5848              		.loc 5 112 9 is_stmt 1 discriminator 3
 112:src/Code/../../h/Testing/Testing_OS1/Consumer_Producer_CPP_API_Test.hpp **** 
 5849              		.loc 5 112 42 is_stmt 0 discriminator 3
 5850 1b10 9B861900 		addiw	a3,s3,1
 5851              	.LVL656:
 112:src/Code/../../h/Testing/Testing_OS1/Consumer_Producer_CPP_API_Test.hpp **** 
 5852              		.loc 5 112 21 discriminator 3
 5853 1b14 93971600 		slli	a5,a3,1
 5854 1b18 B387D700 		add	a5,a5,a3
 5855 1b1c 93973700 		slli	a5,a5,3
 5856 1b20 9387F700 		addi	a5,a5,15
 5857 1b24 93F707FF 		andi	a5,a5,-16
 5858 1b28 3301F140 		sub	sp,sp,a5
 5859              	.LVL657:
 5860 1b2c 130B0100 		mv	s6,sp
 5861              	.LVL658:
 114:src/Code/../../h/Testing/Testing_OS1/Consumer_Producer_CPP_API_Test.hpp ****         threadData[threadNum].buffer = buffer;
 5862              		.loc 5 114 9 is_stmt 1 discriminator 3
 114:src/Code/../../h/Testing/Testing_OS1/Consumer_Producer_CPP_API_Test.hpp ****         threadData[threadNum].buffer = buffer;
 5863              		.loc 5 114 34 is_stmt 0 discriminator 3
 5864 1b30 93941900 		slli	s1,s3,1
 5865 1b34 B3843401 		add	s1,s1,s3
 5866 1b38 93943400 		slli	s1,s1,3
 5867 1b3c B3049B00 		add	s1,s6,s1
 5868 1b40 23A03401 		sw	s3,0(s1)
 115:src/Code/../../h/Testing/Testing_OS1/Consumer_Producer_CPP_API_Test.hpp ****         threadData[threadNum].sem = waitForAll;
 5869              		.loc 5 115 9 is_stmt 1 discriminator 3
 115:src/Code/../../h/Testing/Testing_OS1/Consumer_Producer_CPP_API_Test.hpp ****         threadData[threadNum].sem = waitForAll;
 5870              		.loc 5 115 38 is_stmt 0 discriminator 3
 5871 1b44 23B45401 		sd	s5,8(s1)
 116:src/Code/../../h/Testing/Testing_OS1/Consumer_Producer_CPP_API_Test.hpp ****         Thread *consumer = new Consumer(&threadData[threadNum]);
 5872              		.loc 5 116 9 is_stmt 1 discriminator 3
 116:src/Code/../../h/Testing/Testing_OS1/Consumer_Producer_CPP_API_Test.hpp ****         Thread *consumer = new Consumer(&threadData[threadNum]);
 5873              		.loc 5 116 35 is_stmt 0 discriminator 3
 5874 1b48 83378704 		ld	a5,72(a4)
 5875 1b4c 23B8F400 		sd	a5,16(s1)
 117:src/Code/../../h/Testing/Testing_OS1/Consumer_Producer_CPP_API_Test.hpp ****         consumer->start();
 5876              		.loc 5 117 9 is_stmt 1 discriminator 3
 117:src/Code/../../h/Testing/Testing_OS1/Consumer_Producer_CPP_API_Test.hpp ****         consumer->start();
 5877              		.loc 5 117 63 is_stmt 0 discriminator 3
 5878 1b50 13058001 		li	a0,24
 5879              	.LEHB37:
GAS LISTING /tmp/ccBYUnRY.s 			page 139


 5880 1b54 97000000 		call	_Znwm@plt
 5880      E7800000 
 5881              	.LVL659:
 5882              	.LEHE37:
 5883 1b5c 930B0500 		mv	s7,a0
 5884              	.LVL660:
 5885              	.LEHB38:
 5886              	.LBB229:
 5887              	.LBB230:
  60:src/Code/../../h/Testing/Testing_OS1/Consumer_Producer_CPP_API_Test.hpp **** 
 5888              		.loc 5 60 54 discriminator 3
 5889 1b60 97000000 		call	_ZN6ThreadC2Ev@plt
 5889      E7800000 
 5890              	.LVL661:
 5891              	.LEHE38:
  60:src/Code/../../h/Testing/Testing_OS1/Consumer_Producer_CPP_API_Test.hpp **** 
 5892              		.loc 5 60 54
 5893 1b68 97070000 		lla	a5,_ZTVN24ConsumerProducerAsyncCPP8ConsumerE+16
 5893      93870700 
 5894 1b70 23B0FB00 		sd	a5,0(s7)
 5895 1b74 23B89B00 		sd	s1,16(s7)
 5896              	.LVL662:
 5897              	.LBE230:
 5898              	.LBE229:
 118:src/Code/../../h/Testing/Testing_OS1/Consumer_Producer_CPP_API_Test.hpp **** 
 5899              		.loc 5 118 9 is_stmt 1
 118:src/Code/../../h/Testing/Testing_OS1/Consumer_Producer_CPP_API_Test.hpp **** 
 5900              		.loc 5 118 24 is_stmt 0
 5901 1b78 13850B00 		mv	a0,s7
 5902              	.LEHB39:
 5903 1b7c 97000000 		call	_ZN6Thread5startEv@plt
 5903      E7800000 
 5904              	.LVL663:
 120:src/Code/../../h/Testing/Testing_OS1/Consumer_Producer_CPP_API_Test.hpp ****         threadData[0].buffer = buffer;
 5905              		.loc 5 120 9 is_stmt 1
 120:src/Code/../../h/Testing/Testing_OS1/Consumer_Producer_CPP_API_Test.hpp ****         threadData[0].buffer = buffer;
 5906              		.loc 5 120 26 is_stmt 0
 5907 1b84 23200B00 		sw	zero,0(s6)
 121:src/Code/../../h/Testing/Testing_OS1/Consumer_Producer_CPP_API_Test.hpp ****         threadData[0].sem = waitForAll;
 5908              		.loc 5 121 9 is_stmt 1
 121:src/Code/../../h/Testing/Testing_OS1/Consumer_Producer_CPP_API_Test.hpp ****         threadData[0].sem = waitForAll;
 5909              		.loc 5 121 30 is_stmt 0
 5910 1b88 23345B01 		sd	s5,8(s6)
 122:src/Code/../../h/Testing/Testing_OS1/Consumer_Producer_CPP_API_Test.hpp ****         producers[0] = new ProducerKeyborad(&threadData[0]);
 5911              		.loc 5 122 9 is_stmt 1
 122:src/Code/../../h/Testing/Testing_OS1/Consumer_Producer_CPP_API_Test.hpp ****         producers[0] = new ProducerKeyborad(&threadData[0]);
 5912              		.loc 5 122 27 is_stmt 0
 5913 1b8c 97070000 		ld	a5,.LANCHOR0+72
 5913      83B70700 
 5914 1b94 2338FB00 		sd	a5,16(s6)
 123:src/Code/../../h/Testing/Testing_OS1/Consumer_Producer_CPP_API_Test.hpp ****         producers[0]->start();
 5915              		.loc 5 123 9 is_stmt 1
 123:src/Code/../../h/Testing/Testing_OS1/Consumer_Producer_CPP_API_Test.hpp ****         producers[0]->start();
 5916              		.loc 5 123 59 is_stmt 0
 5917 1b98 13058001 		li	a0,24
 5918 1b9c 97000000 		call	_Znwm@plt
 5918      E7800000 
GAS LISTING /tmp/ccBYUnRY.s 			page 140


 5919              	.LVL664:
 5920              	.LEHE39:
 5921 1ba4 93040500 		mv	s1,a0
 5922              	.LVL665:
 5923              	.LEHB40:
 5924              	.LBB231:
 5925              	.LBB232:
  23:src/Code/../../h/Testing/Testing_OS1/Consumer_Producer_CPP_API_Test.hpp **** 
 5926              		.loc 5 23 62
 5927 1ba8 97000000 		call	_ZN6ThreadC2Ev@plt
 5927      E7800000 
 5928              	.LVL666:
 5929              	.LEHE40:
 5930 1bb0 97070000 		lla	a5,_ZTVN24ConsumerProducerAsyncCPP16ProducerKeyboradE+16
 5930      93870700 
 5931 1bb8 23B0F400 		sd	a5,0(s1)
 5932 1bbc 23B86401 		sd	s6,16(s1)
 5933              	.LVL667:
 5934              	.LBE232:
 5935              	.LBE231:
 123:src/Code/../../h/Testing/Testing_OS1/Consumer_Producer_CPP_API_Test.hpp ****         producers[0]->start();
 5936              		.loc 5 123 22
 5937 1bc0 23309A00 		sd	s1,0(s4)
 124:src/Code/../../h/Testing/Testing_OS1/Consumer_Producer_CPP_API_Test.hpp **** 
 5938              		.loc 5 124 9 is_stmt 1
 124:src/Code/../../h/Testing/Testing_OS1/Consumer_Producer_CPP_API_Test.hpp **** 
 5939              		.loc 5 124 28 is_stmt 0
 5940 1bc4 13850400 		mv	a0,s1
 5941              	.LEHB41:
 5942 1bc8 97000000 		call	_ZN6Thread5startEv@plt
 5942      E7800000 
 5943              	.LVL668:
 5944              	.LBB233:
 126:src/Code/../../h/Testing/Testing_OS1/Consumer_Producer_CPP_API_Test.hpp ****             threadData[i].id = i;
 5945              		.loc 5 126 18
 5946 1bd0 13091000 		li	s2,1
 5947 1bd4 6F000003 		j	.L310
 5948              	.LVL669:
 5949              	.L334:
 5950              	.LBB234:
 5951              	.LBB235:
  43:src/Code/../../h/Testing/Testing_OS1/Consumer_Producer_CPP_API_Test.hpp **** 
 5952              		.loc 5 43 54
 5953 1bd8 97070000 		lla	a5,_ZTVN24ConsumerProducerAsyncCPP8ProducerE+16
 5953      93870700 
 5954 1be0 23B0FC00 		sd	a5,0(s9)
 5955 1be4 23B89C00 		sd	s1,16(s9)
 5956              	.LVL670:
 5957              	.LBE235:
 5958              	.LBE234:
 131:src/Code/../../h/Testing/Testing_OS1/Consumer_Producer_CPP_API_Test.hpp ****             producers[i]->start();
 5959              		.loc 5 131 26
 5960 1be8 93173900 		slli	a5,s2,3
 5961 1bec B307FA00 		add	a5,s4,a5
 5962 1bf0 23B09701 		sd	s9,0(a5)
 132:src/Code/../../h/Testing/Testing_OS1/Consumer_Producer_CPP_API_Test.hpp **** 
 5963              		.loc 5 132 13 is_stmt 1
GAS LISTING /tmp/ccBYUnRY.s 			page 141


 132:src/Code/../../h/Testing/Testing_OS1/Consumer_Producer_CPP_API_Test.hpp **** 
 5964              		.loc 5 132 32 is_stmt 0
 5965 1bf4 13850C00 		mv	a0,s9
 5966 1bf8 97000000 		call	_ZN6Thread5startEv@plt
 5966      E7800000 
 5967              	.LVL671:
 126:src/Code/../../h/Testing/Testing_OS1/Consumer_Producer_CPP_API_Test.hpp ****             threadData[i].id = i;
 5968              		.loc 5 126 9 is_stmt 1
 5969 1c00 1B091900 		addiw	s2,s2,1
 5970              	.LVL672:
 5971              	.L310:
 126:src/Code/../../h/Testing/Testing_OS1/Consumer_Producer_CPP_API_Test.hpp ****             threadData[i].id = i;
 5972              		.loc 5 126 27 discriminator 1
 5973 1c04 63523905 		bge	s2,s3,.L309
 127:src/Code/../../h/Testing/Testing_OS1/Consumer_Producer_CPP_API_Test.hpp ****             threadData[i].buffer = buffer;
 5974              		.loc 5 127 13
 127:src/Code/../../h/Testing/Testing_OS1/Consumer_Producer_CPP_API_Test.hpp ****             threadData[i].buffer = buffer;
 5975              		.loc 5 127 30 is_stmt 0
 5976 1c08 93141900 		slli	s1,s2,1
 5977 1c0c B3842401 		add	s1,s1,s2
 5978 1c10 93943400 		slli	s1,s1,3
 5979 1c14 B3049B00 		add	s1,s6,s1
 5980 1c18 23A02401 		sw	s2,0(s1)
 128:src/Code/../../h/Testing/Testing_OS1/Consumer_Producer_CPP_API_Test.hpp ****             threadData[i].sem = waitForAll;
 5981              		.loc 5 128 13 is_stmt 1
 128:src/Code/../../h/Testing/Testing_OS1/Consumer_Producer_CPP_API_Test.hpp ****             threadData[i].sem = waitForAll;
 5982              		.loc 5 128 34 is_stmt 0
 5983 1c1c 23B45401 		sd	s5,8(s1)
 129:src/Code/../../h/Testing/Testing_OS1/Consumer_Producer_CPP_API_Test.hpp **** 
 5984              		.loc 5 129 13 is_stmt 1
 129:src/Code/../../h/Testing/Testing_OS1/Consumer_Producer_CPP_API_Test.hpp **** 
 5985              		.loc 5 129 31 is_stmt 0
 5986 1c20 97070000 		ld	a5,.LANCHOR0+72
 5986      83B70700 
 5987 1c28 23B8F400 		sd	a5,16(s1)
 131:src/Code/../../h/Testing/Testing_OS1/Consumer_Producer_CPP_API_Test.hpp ****             producers[i]->start();
 5988              		.loc 5 131 13 is_stmt 1
 131:src/Code/../../h/Testing/Testing_OS1/Consumer_Producer_CPP_API_Test.hpp ****             producers[i]->start();
 5989              		.loc 5 131 55 is_stmt 0
 5990 1c2c 13058001 		li	a0,24
 5991 1c30 97000000 		call	_Znwm@plt
 5991      E7800000 
 5992              	.LVL673:
 5993              	.LEHE41:
 5994 1c38 930C0500 		mv	s9,a0
 5995              	.LVL674:
 5996              	.LEHB42:
 5997              	.LBB237:
 5998              	.LBB236:
  43:src/Code/../../h/Testing/Testing_OS1/Consumer_Producer_CPP_API_Test.hpp **** 
 5999              		.loc 5 43 54
 6000 1c3c 97000000 		call	_ZN6ThreadC2Ev@plt
 6000      E7800000 
 6001              	.LVL675:
 6002              	.LEHE42:
 6003 1c44 6FF05FF9 		j	.L334
 6004              	.LVL676:
GAS LISTING /tmp/ccBYUnRY.s 			page 142


 6005              	.L309:
 6006              	.LBE236:
 6007              	.LBE237:
 6008              	.LBE233:
 136:src/Code/../../h/Testing/Testing_OS1/Consumer_Producer_CPP_API_Test.hpp **** 
 6009              		.loc 5 136 9 is_stmt 1
 6010              	.LEHB43:
 136:src/Code/../../h/Testing/Testing_OS1/Consumer_Producer_CPP_API_Test.hpp **** 
 6011              		.loc 5 136 25 is_stmt 0
 6012 1c48 97000000 		call	_ZN6Thread8dispatchEv@plt
 6012      E7800000 
 6013              	.LVL677:
 6014              	.LBB238:
 138:src/Code/../../h/Testing/Testing_OS1/Consumer_Producer_CPP_API_Test.hpp ****             waitForAll->wait();
 6015              		.loc 5 138 18
 6016 1c50 93040000 		li	s1,0
 6017              	.L312:
 6018              	.LVL678:
 138:src/Code/../../h/Testing/Testing_OS1/Consumer_Producer_CPP_API_Test.hpp ****             waitForAll->wait();
 6019              		.loc 5 138 27 is_stmt 1 discriminator 1
 6020 1c54 63CE9900 		bgt	s1,s3,.L311
 139:src/Code/../../h/Testing/Testing_OS1/Consumer_Producer_CPP_API_Test.hpp ****         }
 6021              		.loc 5 139 13
 139:src/Code/../../h/Testing/Testing_OS1/Consumer_Producer_CPP_API_Test.hpp ****         }
 6022              		.loc 5 139 29 is_stmt 0
 6023 1c58 17050000 		ld	a0,.LANCHOR0+72
 6023      03350500 
 6024 1c60 97000000 		call	_ZN9Semaphore4waitEv@plt
 6024      E7800000 
 6025              	.LVL679:
 138:src/Code/../../h/Testing/Testing_OS1/Consumer_Producer_CPP_API_Test.hpp ****             waitForAll->wait();
 6026              		.loc 5 138 9 is_stmt 1
 6027 1c68 9B841400 		addiw	s1,s1,1
 6028              	.LVL680:
 6029 1c6c 6FF09FFE 		j	.L312
 6030              	.LVL681:
 6031              	.L311:
 6032              	.LBE238:
 142:src/Code/../../h/Testing/Testing_OS1/Consumer_Producer_CPP_API_Test.hpp ****         for (int i = 0; i < threadNum; i++) {
 6033              		.loc 5 142 9
 142:src/Code/../../h/Testing/Testing_OS1/Consumer_Producer_CPP_API_Test.hpp ****         for (int i = 0; i < threadNum; i++) {
 6034              		.loc 5 142 16 is_stmt 0
 6035 1c70 17050000 		ld	a0,.LANCHOR0+72
 6035      03350500 
 142:src/Code/../../h/Testing/Testing_OS1/Consumer_Producer_CPP_API_Test.hpp ****         for (int i = 0; i < threadNum; i++) {
 6036              		.loc 5 142 26
 6037 1c78 63080500 		beqz	a0,.L313
 142:src/Code/../../h/Testing/Testing_OS1/Consumer_Producer_CPP_API_Test.hpp ****         for (int i = 0; i < threadNum; i++) {
 6038              		.loc 5 142 16 discriminator 1
 6039 1c7c 83370500 		ld	a5,0(a0)
 6040 1c80 83B78700 		ld	a5,8(a5)
 6041 1c84 E7800700 		jalr	a5
 6042              	.LVL682:
 6043              	.L313:
 6044              	.LBB239:
 138:src/Code/../../h/Testing/Testing_OS1/Consumer_Producer_CPP_API_Test.hpp ****             waitForAll->wait();
 6045              		.loc 5 138 18 discriminator 1
GAS LISTING /tmp/ccBYUnRY.s 			page 143


 6046 1c88 93040000 		li	s1,0
 6047              	.LVL683:
 6048 1c8c 6F008000 		j	.L316
 6049              	.LVL684:
 6050              	.L315:
 6051              	.LBE239:
 6052              	.LBB240:
 143:src/Code/../../h/Testing/Testing_OS1/Consumer_Producer_CPP_API_Test.hpp ****             delete producers[i];
 6053              		.loc 5 143 9 is_stmt 1 discriminator 2
 6054 1c90 9B841400 		addiw	s1,s1,1
 6055              	.LVL685:
 6056              	.L316:
 143:src/Code/../../h/Testing/Testing_OS1/Consumer_Producer_CPP_API_Test.hpp ****             delete producers[i];
 6057              		.loc 5 143 27 discriminator 1
 6058 1c94 63D23403 		bge	s1,s3,.L314
 144:src/Code/../../h/Testing/Testing_OS1/Consumer_Producer_CPP_API_Test.hpp ****         }
 6059              		.loc 5 144 13
 144:src/Code/../../h/Testing/Testing_OS1/Consumer_Producer_CPP_API_Test.hpp ****         }
 6060              		.loc 5 144 31 is_stmt 0
 6061 1c98 93973400 		slli	a5,s1,3
 6062 1c9c B307FA00 		add	a5,s4,a5
 6063 1ca0 03B50700 		ld	a0,0(a5)
 144:src/Code/../../h/Testing/Testing_OS1/Consumer_Producer_CPP_API_Test.hpp ****         }
 6064              		.loc 5 144 32
 6065 1ca4 E30605FE 		beqz	a0,.L315
 144:src/Code/../../h/Testing/Testing_OS1/Consumer_Producer_CPP_API_Test.hpp ****         }
 6066              		.loc 5 144 31 discriminator 1
 6067 1ca8 83370500 		ld	a5,0(a0)
 6068 1cac 83B78700 		ld	a5,8(a5)
 6069 1cb0 E7800700 		jalr	a5
 6070              	.LVL686:
 6071 1cb4 6FF0DFFD 		j	.L315
 6072              	.L314:
 6073              	.LBE240:
 146:src/Code/../../h/Testing/Testing_OS1/Consumer_Producer_CPP_API_Test.hpp ****         delete buffer;
 6074              		.loc 5 146 9 is_stmt 1
 146:src/Code/../../h/Testing/Testing_OS1/Consumer_Producer_CPP_API_Test.hpp ****         delete buffer;
 6075              		.loc 5 146 24 is_stmt 0
 6076 1cb8 638A0B00 		beqz	s7,.L317
 146:src/Code/../../h/Testing/Testing_OS1/Consumer_Producer_CPP_API_Test.hpp ****         delete buffer;
 6077              		.loc 5 146 16 discriminator 1
 6078 1cbc 83B70B00 		ld	a5,0(s7)
 6079 1cc0 83B78700 		ld	a5,8(a5)
 6080 1cc4 13850B00 		mv	a0,s7
 6081 1cc8 E7800700 		jalr	a5
 6082              	.LVL687:
 6083              	.L317:
 6084              		.loc 5 147 9 is_stmt 1
 6085              		.loc 5 147 22 is_stmt 0
 6086 1ccc 638E0A00 		beqz	s5,.L318
 6087              		.loc 5 147 16 discriminator 1
 6088 1cd0 13850A00 		mv	a0,s5
 6089 1cd4 97000000 		call	_ZN13BufferTestCPP9BufferCPPD1Ev@plt
 6089      E7800000 
 6090              	.LVL688:
 6091 1cdc 13850A00 		mv	a0,s5
 6092 1ce0 97000000 		call	_ZdlPv@plt
GAS LISTING /tmp/ccBYUnRY.s 			page 144


 6092      E7800000 
 6093              	.LVL689:
 6094              	.LEHE43:
 6095              	.L318:
 6096 1ce8 13010C00 		mv	sp,s8
 6097              	.LVL690:
 6098              	.L305:
 148:src/Code/../../h/Testing/Testing_OS1/Consumer_Producer_CPP_API_Test.hpp ****     }
 6099              		.loc 5 148 5
 6100 1cec 130104F8 		addi	sp,s0,-128
 6101              		.cfi_remember_state
 6102              		.cfi_def_cfa 2, 128
 6103 1cf0 83308107 		ld	ra,120(sp)
 6104              		.cfi_restore 1
 6105 1cf4 03340107 		ld	s0,112(sp)
 6106              		.cfi_restore 8
 6107 1cf8 83348106 		ld	s1,104(sp)
 6108              		.cfi_restore 9
 6109 1cfc 03390106 		ld	s2,96(sp)
 6110              		.cfi_restore 18
 6111 1d00 83398105 		ld	s3,88(sp)
 6112              		.cfi_restore 19
 6113              	.LVL691:
 6114 1d04 033A0105 		ld	s4,80(sp)
 6115              		.cfi_restore 20
 6116 1d08 833A8104 		ld	s5,72(sp)
 6117              		.cfi_restore 21
 6118 1d0c 033B0104 		ld	s6,64(sp)
 6119              		.cfi_restore 22
 6120 1d10 833B8103 		ld	s7,56(sp)
 6121              		.cfi_restore 23
 6122 1d14 033C0103 		ld	s8,48(sp)
 6123              		.cfi_restore 24
 6124 1d18 833C8102 		ld	s9,40(sp)
 6125              		.cfi_restore 25
 6126 1d1c 13010108 		addi	sp,sp,128
 6127              		.cfi_def_cfa_offset 0
 6128 1d20 67800000 		jr	ra
 6129              	.LVL692:
 6130              	.L325:
 6131              		.cfi_restore_state
 6132 1d24 93040500 		mv	s1,a0
 6133              	.LVL693:
 108:src/Code/../../h/Testing/Testing_OS1/Consumer_Producer_CPP_API_Test.hpp **** 
 6134              		.loc 5 108 74
 6135 1d28 13850A00 		mv	a0,s5
 6136 1d2c 97000000 		call	_ZdlPv@plt
 6136      E7800000 
 6137              	.LVL694:
 6138 1d34 13850400 		mv	a0,s1
 6139              	.LEHB44:
 6140 1d38 97000000 		call	_Unwind_Resume@plt
 6140      E7800000 
 6141              	.LVL695:
 6142              	.LEHE44:
 6143              	.L326:
 6144 1d40 13090500 		mv	s2,a0
GAS LISTING /tmp/ccBYUnRY.s 			page 145


 110:src/Code/../../h/Testing/Testing_OS1/Consumer_Producer_CPP_API_Test.hpp ****         Thread *producers[threadNum];
 6145              		.loc 5 110 37
 6146 1d44 13850400 		mv	a0,s1
 6147 1d48 97000000 		call	_ZdlPv@plt
 6147      E7800000 
 6148              	.LVL696:
 6149 1d50 13050900 		mv	a0,s2
 6150              	.LEHB45:
 6151 1d54 97000000 		call	_Unwind_Resume@plt
 6151      E7800000 
 6152              	.LVL697:
 6153              	.LEHE45:
 6154              	.L327:
 6155 1d5c 93040500 		mv	s1,a0
 6156              	.LVL698:
 117:src/Code/../../h/Testing/Testing_OS1/Consumer_Producer_CPP_API_Test.hpp ****         consumer->start();
 6157              		.loc 5 117 63
 6158 1d60 13850B00 		mv	a0,s7
 6159 1d64 97000000 		call	_ZdlPv@plt
 6159      E7800000 
 6160              	.LVL699:
 6161 1d6c 13850400 		mv	a0,s1
 6162              	.LEHB46:
 6163 1d70 97000000 		call	_Unwind_Resume@plt
 6163      E7800000 
 6164              	.LVL700:
 6165              	.LEHE46:
 6166              	.L328:
 6167 1d78 13090500 		mv	s2,a0
 123:src/Code/../../h/Testing/Testing_OS1/Consumer_Producer_CPP_API_Test.hpp ****         producers[0]->start();
 6168              		.loc 5 123 59
 6169 1d7c 13850400 		mv	a0,s1
 6170 1d80 97000000 		call	_ZdlPv@plt
 6170      E7800000 
 6171              	.LVL701:
 6172 1d88 13050900 		mv	a0,s2
 6173              	.LEHB47:
 6174 1d8c 97000000 		call	_Unwind_Resume@plt
 6174      E7800000 
 6175              	.LVL702:
 6176              	.LEHE47:
 6177              	.L329:
 6178 1d94 93040500 		mv	s1,a0
 6179              	.LVL703:
 6180              	.LBB241:
 131:src/Code/../../h/Testing/Testing_OS1/Consumer_Producer_CPP_API_Test.hpp ****             producers[i]->start();
 6181              		.loc 5 131 55
 6182 1d98 13850C00 		mv	a0,s9
 6183 1d9c 97000000 		call	_ZdlPv@plt
 6183      E7800000 
 6184              	.LVL704:
 6185 1da4 13850400 		mv	a0,s1
 6186              	.LEHB48:
 6187 1da8 97000000 		call	_Unwind_Resume@plt
 6187      E7800000 
 6188              	.LVL705:
 6189              	.LEHE48:
GAS LISTING /tmp/ccBYUnRY.s 			page 146


 6190              	.LBE241:
 6191              		.cfi_endproc
 6192              	.LFE112:
 6193              		.section	.gcc_except_table
 6194              	.LLSDA112:
 6195 01bb FF       		.byte	0xff
 6196 01bc FF       		.byte	0xff
 6197 01bd 03       		.byte	0x3
 6198 01be D001     		.byte	0xd0,0x1
 6199 01c0 00000000 		.4byte	.LEHB33-.LFB112
 6200 01c4 00000000 		.4byte	.LEHE33-.LEHB33
 6201 01c8 00000000 		.4byte	0
 6202 01cc 00       		.byte	0
 6203 01cd 00000000 		.4byte	.LEHB34-.LFB112
 6204 01d1 00000000 		.4byte	.LEHE34-.LEHB34
 6205 01d5 00000000 		.4byte	.L325-.LFB112
 6206 01d9 00       		.byte	0
 6207 01da 00000000 		.4byte	.LEHB35-.LFB112
 6208 01de 00000000 		.4byte	.LEHE35-.LEHB35
 6209 01e2 00000000 		.4byte	0
 6210 01e6 00       		.byte	0
 6211 01e7 00000000 		.4byte	.LEHB36-.LFB112
 6212 01eb 00000000 		.4byte	.LEHE36-.LEHB36
 6213 01ef 00000000 		.4byte	.L326-.LFB112
 6214 01f3 00       		.byte	0
 6215 01f4 00000000 		.4byte	.LEHB37-.LFB112
 6216 01f8 00000000 		.4byte	.LEHE37-.LEHB37
 6217 01fc 00000000 		.4byte	0
 6218 0200 00       		.byte	0
 6219 0201 00000000 		.4byte	.LEHB38-.LFB112
 6220 0205 00000000 		.4byte	.LEHE38-.LEHB38
 6221 0209 00000000 		.4byte	.L327-.LFB112
 6222 020d 00       		.byte	0
 6223 020e 00000000 		.4byte	.LEHB39-.LFB112
 6224 0212 00000000 		.4byte	.LEHE39-.LEHB39
 6225 0216 00000000 		.4byte	0
 6226 021a 00       		.byte	0
 6227 021b 00000000 		.4byte	.LEHB40-.LFB112
 6228 021f 00000000 		.4byte	.LEHE40-.LEHB40
 6229 0223 00000000 		.4byte	.L328-.LFB112
 6230 0227 00       		.byte	0
 6231 0228 00000000 		.4byte	.LEHB41-.LFB112
 6232 022c 00000000 		.4byte	.LEHE41-.LEHB41
 6233 0230 00000000 		.4byte	0
 6234 0234 00       		.byte	0
 6235 0235 00000000 		.4byte	.LEHB42-.LFB112
 6236 0239 00000000 		.4byte	.LEHE42-.LEHB42
 6237 023d 00000000 		.4byte	.L329-.LFB112
 6238 0241 00       		.byte	0
 6239 0242 00000000 		.4byte	.LEHB43-.LFB112
 6240 0246 00000000 		.4byte	.LEHE43-.LEHB43
 6241 024a 00000000 		.4byte	0
 6242 024e 00       		.byte	0
 6243 024f 00000000 		.4byte	.LEHB44-.LFB112
 6244 0253 00000000 		.4byte	.LEHE44-.LEHB44
 6245 0257 00000000 		.4byte	0
 6246 025b 00       		.byte	0
GAS LISTING /tmp/ccBYUnRY.s 			page 147


 6247 025c 00000000 		.4byte	.LEHB45-.LFB112
 6248 0260 00000000 		.4byte	.LEHE45-.LEHB45
 6249 0264 00000000 		.4byte	0
 6250 0268 00       		.byte	0
 6251 0269 00000000 		.4byte	.LEHB46-.LFB112
 6252 026d 00000000 		.4byte	.LEHE46-.LEHB46
 6253 0271 00000000 		.4byte	0
 6254 0275 00       		.byte	0
 6255 0276 00000000 		.4byte	.LEHB47-.LFB112
 6256 027a 00000000 		.4byte	.LEHE47-.LEHB47
 6257 027e 00000000 		.4byte	0
 6258 0282 00       		.byte	0
 6259 0283 00000000 		.4byte	.LEHB48-.LFB112
 6260 0287 00000000 		.4byte	.LEHE48-.LEHB48
 6261 028b 00000000 		.4byte	0
 6262 028f 00       		.byte	0
 6263              		.text
 6265              		.align	2
 6266              		.globl	_ZN19PeriodicThreadsTest29Periodic_Threads_CPP_API_TestEv
 6268              	_ZN19PeriodicThreadsTest29Periodic_Threads_CPP_API_TestEv:
 6269              	.LFB132:
  74:src/Code/../../h/Testing/Testing_OS1/Periodic_Threads_CPP_API_Test.hpp ****     };
  75:src/Code/../../h/Testing/Testing_OS1/Periodic_Threads_CPP_API_Test.hpp **** 
  76:src/Code/../../h/Testing/Testing_OS1/Periodic_Threads_CPP_API_Test.hpp ****     void Periodic_Threads_CPP_API_Test() {
 6270              		.loc 6 76 42 is_stmt 1
 6271              		.cfi_startproc
 6272              		.cfi_personality 0x9b,DW.ref.__gxx_personality_v0
 6273              		.cfi_lsda 0x1b,.LLSDA132
 6274 1db0 130101FB 		addi	sp,sp,-80
 6275              		.cfi_def_cfa_offset 80
 6276 1db4 23341104 		sd	ra,72(sp)
 6277 1db8 23308104 		sd	s0,64(sp)
 6278 1dbc 233C9102 		sd	s1,56(sp)
 6279 1dc0 23382103 		sd	s2,48(sp)
 6280 1dc4 23343103 		sd	s3,40(sp)
 6281              		.cfi_offset 1, -8
 6282              		.cfi_offset 8, -16
 6283              		.cfi_offset 9, -24
 6284              		.cfi_offset 18, -32
 6285              		.cfi_offset 19, -40
 6286 1dc8 13040105 		addi	s0,sp,80
 6287              		.cfi_def_cfa 8, 0
  77:src/Code/../../h/Testing/Testing_OS1/Periodic_Threads_CPP_API_Test.hpp ****         myOwnMutex = new Semaphore();
 6288              		.loc 6 77 9
 6289              		.loc 6 77 36 is_stmt 0
 6290 1dcc 13050001 		li	a0,16
 6291              	.LEHB49:
 6292 1dd0 97000000 		call	_Znwm@plt
 6292      E7800000 
 6293              	.LVL706:
 6294              	.LEHE49:
 6295 1dd8 93040500 		mv	s1,a0
 6296 1ddc 93051000 		li	a1,1
 6297              	.LEHB50:
 6298 1de0 97000000 		call	_ZN9SemaphoreC1Ej@plt
 6298      E7800000 
 6299              	.LVL707:
GAS LISTING /tmp/ccBYUnRY.s 			page 148


 6300              	.LEHE50:
 6301              		.loc 6 77 20
 6302 1de8 97070000 		sd	s1,.LANCHOR0+16,a5
 6302      23B09700 
  78:src/Code/../../h/Testing/Testing_OS1/Periodic_Threads_CPP_API_Test.hpp ****         myOwnWaitForAll = new Semaphore(0);
 6303              		.loc 6 78 9 is_stmt 1
 6304              		.loc 6 78 42 is_stmt 0
 6305 1df0 13050001 		li	a0,16
 6306              	.LEHB51:
 6307 1df4 97000000 		call	_Znwm@plt
 6307      E7800000 
 6308              	.LVL708:
 6309              	.LEHE51:
 6310 1dfc 93040500 		mv	s1,a0
 6311 1e00 93050000 		li	a1,0
 6312              	.LEHB52:
 6313 1e04 97000000 		call	_ZN9SemaphoreC1Ej@plt
 6313      E7800000 
 6314              	.LVL709:
 6315              	.LEHE52:
 6316              		.loc 6 78 25 discriminator 3
 6317 1e0c 97070000 		sd	s1,.LANCHOR0+32,a5
 6317      23B09700 
  79:src/Code/../../h/Testing/Testing_OS1/Periodic_Threads_CPP_API_Test.hpp **** 
  80:src/Code/../../h/Testing/Testing_OS1/Periodic_Threads_CPP_API_Test.hpp ****         A* a = new A(5);
 6318              		.loc 6 80 9 is_stmt 1 discriminator 3
 6319              		.loc 6 80 23 is_stmt 0 discriminator 3
 6320 1e14 13050002 		li	a0,32
 6321              	.LEHB53:
 6322 1e18 97000000 		call	_Znwm@plt
 6322      E7800000 
 6323              	.LVL710:
 6324              	.LEHE53:
 6325 1e20 93090500 		mv	s3,a0
 6326              	.LVL711:
 6327              	.LBB242:
 6328              	.LBB243:
  12:src/Code/../../h/Testing/Testing_OS1/Periodic_Threads_CPP_API_Test.hpp **** 
 6329              		.loc 6 12 58 discriminator 3
 6330 1e24 93055000 		li	a1,5
 6331              	.LEHB54:
 6332 1e28 97000000 		call	_ZN14PeriodicThreadC2Em@plt
 6332      E7800000 
 6333              	.LVL712:
 6334              	.LEHE54:
  12:src/Code/../../h/Testing/Testing_OS1/Periodic_Threads_CPP_API_Test.hpp **** 
 6335              		.loc 6 12 58
 6336 1e30 97070000 		lla	a5,_ZTVN19PeriodicThreadsTest1AE+16
 6336      93870700 
 6337 1e38 23B0F900 		sd	a5,0(s3)
 6338              	.LVL713:
 6339              	.LBE243:
 6340              	.LBE242:
  81:src/Code/../../h/Testing/Testing_OS1/Periodic_Threads_CPP_API_Test.hpp ****         B* b = new B(5);
 6341              		.loc 6 81 9 is_stmt 1
 6342              		.loc 6 81 23 is_stmt 0
 6343 1e3c 13050002 		li	a0,32
GAS LISTING /tmp/ccBYUnRY.s 			page 149


 6344              	.LEHB55:
 6345 1e40 97000000 		call	_Znwm@plt
 6345      E7800000 
 6346              	.LVL714:
 6347              	.LEHE55:
 6348 1e48 13090500 		mv	s2,a0
 6349              	.LVL715:
 6350              	.LBB244:
 6351              	.LBB245:
  34:src/Code/../../h/Testing/Testing_OS1/Periodic_Threads_CPP_API_Test.hpp **** 
 6352              		.loc 6 34 58
 6353 1e4c 93055000 		li	a1,5
 6354              	.LEHB56:
 6355 1e50 97000000 		call	_ZN14PeriodicThreadC2Em@plt
 6355      E7800000 
 6356              	.LVL716:
 6357              	.LEHE56:
 6358 1e58 97070000 		lla	a5,_ZTVN19PeriodicThreadsTest1BE+16
 6358      93870700 
 6359 1e60 2330F900 		sd	a5,0(s2)
 6360              	.LVL717:
 6361              	.LBE245:
 6362              	.LBE244:
  82:src/Code/../../h/Testing/Testing_OS1/Periodic_Threads_CPP_API_Test.hpp ****         C* c = new C(5);
 6363              		.loc 6 82 9 is_stmt 1
 6364              		.loc 6 82 23 is_stmt 0
 6365 1e64 13050002 		li	a0,32
 6366              	.LEHB57:
 6367 1e68 97000000 		call	_Znwm@plt
 6367      E7800000 
 6368              	.LVL718:
 6369              	.LEHE57:
 6370 1e70 93040500 		mv	s1,a0
 6371              	.LVL719:
 6372              	.LBB246:
 6373              	.LBB247:
  56:src/Code/../../h/Testing/Testing_OS1/Periodic_Threads_CPP_API_Test.hpp **** 
 6374              		.loc 6 56 58
 6375 1e74 93055000 		li	a1,5
 6376              	.LEHB58:
 6377 1e78 97000000 		call	_ZN14PeriodicThreadC2Em@plt
 6377      E7800000 
 6378              	.LVL720:
 6379              	.LEHE58:
 6380 1e80 97070000 		lla	a5,_ZTVN19PeriodicThreadsTest1CE+16
 6380      93870700 
 6381 1e88 23B0F400 		sd	a5,0(s1)
 6382              	.LVL721:
 6383              	.LBE247:
 6384              	.LBE246:
  83:src/Code/../../h/Testing/Testing_OS1/Periodic_Threads_CPP_API_Test.hpp **** 
  84:src/Code/../../h/Testing/Testing_OS1/Periodic_Threads_CPP_API_Test.hpp ****         PeriodicThread* threads[3];
 6385              		.loc 6 84 9 is_stmt 1
  85:src/Code/../../h/Testing/Testing_OS1/Periodic_Threads_CPP_API_Test.hpp ****         threads[0] = a;
 6386              		.loc 6 85 9
 6387              		.loc 6 85 20 is_stmt 0
 6388 1e8c 233C34FB 		sd	s3,-72(s0)
GAS LISTING /tmp/ccBYUnRY.s 			page 150


  86:src/Code/../../h/Testing/Testing_OS1/Periodic_Threads_CPP_API_Test.hpp ****         threads[1] = b;
 6389              		.loc 6 86 9 is_stmt 1
 6390              		.loc 6 86 20 is_stmt 0
 6391 1e90 233024FD 		sd	s2,-64(s0)
  87:src/Code/../../h/Testing/Testing_OS1/Periodic_Threads_CPP_API_Test.hpp ****         threads[2] = c;
 6392              		.loc 6 87 9 is_stmt 1
 6393              		.loc 6 87 20 is_stmt 0
 6394 1e94 233494FC 		sd	s1,-56(s0)
  88:src/Code/../../h/Testing/Testing_OS1/Periodic_Threads_CPP_API_Test.hpp **** 
  89:src/Code/../../h/Testing/Testing_OS1/Periodic_Threads_CPP_API_Test.hpp ****         threads[0]->start();
 6395              		.loc 6 89 9 is_stmt 1
 6396              		.loc 6 89 26 is_stmt 0
 6397 1e98 13850900 		mv	a0,s3
 6398              	.LEHB59:
 6399 1e9c 97000000 		call	_ZN6Thread5startEv@plt
 6399      E7800000 
 6400              	.LVL722:
  90:src/Code/../../h/Testing/Testing_OS1/Periodic_Threads_CPP_API_Test.hpp ****         threads[1]->start();
 6401              		.loc 6 90 9 is_stmt 1
 6402              		.loc 6 90 26 is_stmt 0
 6403 1ea4 13050900 		mv	a0,s2
 6404 1ea8 97000000 		call	_ZN6Thread5startEv@plt
 6404      E7800000 
 6405              	.LVL723:
  91:src/Code/../../h/Testing/Testing_OS1/Periodic_Threads_CPP_API_Test.hpp ****         threads[2]->start();
 6406              		.loc 6 91 9 is_stmt 1
 6407              		.loc 6 91 26 is_stmt 0
 6408 1eb0 13850400 		mv	a0,s1
 6409 1eb4 97000000 		call	_ZN6Thread5startEv@plt
 6409      E7800000 
 6410              	.LVL724:
 6411              	.LBB248:
  92:src/Code/../../h/Testing/Testing_OS1/Periodic_Threads_CPP_API_Test.hpp **** 
  93:src/Code/../../h/Testing/Testing_OS1/Periodic_Threads_CPP_API_Test.hpp ****         int endThis = 0;
  94:src/Code/../../h/Testing/Testing_OS1/Periodic_Threads_CPP_API_Test.hpp ****         for (int i = 0; i < 3; i++) {
 6412              		.loc 6 94 18
 6413 1ebc 93040000 		li	s1,0
 6414              	.LVL725:
 6415              	.LBE248:
  93:src/Code/../../h/Testing/Testing_OS1/Periodic_Threads_CPP_API_Test.hpp ****         for (int i = 0; i < 3; i++) {
 6416              		.loc 6 93 13
 6417 1ec0 13090000 		li	s2,0
 6418              	.LVL726:
 6419 1ec4 6F008002 		j	.L339
 6420              	.LVL727:
 6421              	.L355:
 6422              	.LBB251:
 6423              	.LBB249:
  95:src/Code/../../h/Testing/Testing_OS1/Periodic_Threads_CPP_API_Test.hpp ****             char chr = getc();
  96:src/Code/../../h/Testing/Testing_OS1/Periodic_Threads_CPP_API_Test.hpp ****             if (chr == 'k') {
  97:src/Code/../../h/Testing/Testing_OS1/Periodic_Threads_CPP_API_Test.hpp ****                 threads[endThis++]->endPeriodicThread();
 6424              		.loc 6 97 17 is_stmt 1
 6425              		.loc 6 97 32 is_stmt 0
 6426 1ec8 9B091900 		addiw	s3,s2,1
 6427              	.LVL728:
 6428              		.loc 6 97 34
 6429 1ecc 13193900 		slli	s2,s2,3
GAS LISTING /tmp/ccBYUnRY.s 			page 151


 6430              	.LVL729:
 6431 1ed0 930704FD 		addi	a5,s0,-48
 6432 1ed4 33892701 		add	s2,a5,s2
 6433              		.loc 6 97 54
 6434 1ed8 033589FE 		ld	a0,-24(s2)
 6435              	.LVL730:
 6436 1edc 97000000 		call	_ZN14PeriodicThread17endPeriodicThreadEv@plt
 6436      E7800000 
 6437              	.LVL731:
 6438              		.loc 6 97 32
 6439 1ee4 13890900 		mv	s2,s3
 6440              	.LVL732:
 6441              	.L338:
 6442              	.LBE249:
  94:src/Code/../../h/Testing/Testing_OS1/Periodic_Threads_CPP_API_Test.hpp ****             char chr = getc();
 6443              		.loc 6 94 9 is_stmt 1 discriminator 2
 6444 1ee8 9B841400 		addiw	s1,s1,1
 6445              	.LVL733:
 6446              	.L339:
  94:src/Code/../../h/Testing/Testing_OS1/Periodic_Threads_CPP_API_Test.hpp ****             char chr = getc();
 6447              		.loc 6 94 27 discriminator 1
 6448 1eec 93072000 		li	a5,2
 6449 1ef0 63CE9700 		bgt	s1,a5,.L348
 6450              	.LBB250:
  95:src/Code/../../h/Testing/Testing_OS1/Periodic_Threads_CPP_API_Test.hpp ****             char chr = getc();
 6451              		.loc 6 95 13
  95:src/Code/../../h/Testing/Testing_OS1/Periodic_Threads_CPP_API_Test.hpp ****             char chr = getc();
 6452              		.loc 6 95 28 is_stmt 0
 6453 1ef4 97000000 		call	_Z4getcv@plt
 6453      E7800000 
 6454              	.LVL734:
  96:src/Code/../../h/Testing/Testing_OS1/Periodic_Threads_CPP_API_Test.hpp ****                 threads[endThis++]->endPeriodicThread();
 6455              		.loc 6 96 13 is_stmt 1
 6456 1efc 9307B006 		li	a5,107
 6457 1f00 E304F5FC 		beq	a0,a5,.L355
  98:src/Code/../../h/Testing/Testing_OS1/Periodic_Threads_CPP_API_Test.hpp ****             } else {
  99:src/Code/../../h/Testing/Testing_OS1/Periodic_Threads_CPP_API_Test.hpp ****                 i--;
 6458              		.loc 6 99 17
 6459              		.loc 6 99 18 is_stmt 0
 6460 1f04 9B84F4FF 		addiw	s1,s1,-1
 6461              	.LVL735:
 6462 1f08 6FF01FFE 		j	.L338
 6463              	.LVL736:
 6464              	.L348:
 6465              	.LBE250:
 6466              	.LBE251:
 6467              	.LBB252:
 100:src/Code/../../h/Testing/Testing_OS1/Periodic_Threads_CPP_API_Test.hpp ****             }
 101:src/Code/../../h/Testing/Testing_OS1/Periodic_Threads_CPP_API_Test.hpp ****         }
 102:src/Code/../../h/Testing/Testing_OS1/Periodic_Threads_CPP_API_Test.hpp **** 
 103:src/Code/../../h/Testing/Testing_OS1/Periodic_Threads_CPP_API_Test.hpp ****         for (int i = 0; i < 3; i++) {
 6468              		.loc 6 103 18
 6469 1f0c 93040000 		li	s1,0
 6470              	.LVL737:
 6471              	.L336:
 6472              		.loc 6 103 27 is_stmt 1 discriminator 1
 6473 1f10 93072000 		li	a5,2
GAS LISTING /tmp/ccBYUnRY.s 			page 152


 6474 1f14 63CE9700 		bgt	s1,a5,.L340
 104:src/Code/../../h/Testing/Testing_OS1/Periodic_Threads_CPP_API_Test.hpp ****             myOwnWaitForAll->wait();
 6475              		.loc 6 104 13
 6476              		.loc 6 104 34 is_stmt 0
 6477 1f18 17050000 		ld	a0,.LANCHOR0+32
 6477      03350500 
 6478 1f20 97000000 		call	_ZN9Semaphore4waitEv@plt
 6478      E7800000 
 6479              	.LVL738:
 6480              	.LEHE59:
 103:src/Code/../../h/Testing/Testing_OS1/Periodic_Threads_CPP_API_Test.hpp ****             myOwnWaitForAll->wait();
 6481              		.loc 6 103 9 is_stmt 1
 6482 1f28 9B841400 		addiw	s1,s1,1
 6483              	.LVL739:
 6484 1f2c 6FF05FFE 		j	.L336
 6485              	.LVL740:
 6486              	.L340:
 6487              	.LBE252:
 105:src/Code/../../h/Testing/Testing_OS1/Periodic_Threads_CPP_API_Test.hpp ****         }
 106:src/Code/../../h/Testing/Testing_OS1/Periodic_Threads_CPP_API_Test.hpp **** 
 107:src/Code/../../h/Testing/Testing_OS1/Periodic_Threads_CPP_API_Test.hpp ****         delete myOwnMutex;
 6488              		.loc 6 107 9
 6489              		.loc 6 107 16 is_stmt 0
 6490 1f30 17050000 		ld	a0,.LANCHOR0+16
 6490      03350500 
 6491              		.loc 6 107 26
 6492 1f38 63080500 		beqz	a0,.L341
 6493              		.loc 6 107 16 discriminator 1
 6494 1f3c 83370500 		ld	a5,0(a0)
 6495 1f40 83B78700 		ld	a5,8(a5)
 6496 1f44 E7800700 		jalr	a5
 6497              	.LVL741:
 6498              	.L341:
 108:src/Code/../../h/Testing/Testing_OS1/Periodic_Threads_CPP_API_Test.hpp ****         delete myOwnWaitForAll;
 6499              		.loc 6 108 9 is_stmt 1
 6500              		.loc 6 108 16 is_stmt 0
 6501 1f48 17050000 		ld	a0,.LANCHOR0+32
 6501      03350500 
 6502              		.loc 6 108 31
 6503 1f50 63080500 		beqz	a0,.L335
 6504              		.loc 6 108 16 discriminator 1
 6505 1f54 83370500 		ld	a5,0(a0)
 6506 1f58 83B78700 		ld	a5,8(a5)
 6507 1f5c E7800700 		jalr	a5
 6508              	.LVL742:
 6509              	.L335:
 109:src/Code/../../h/Testing/Testing_OS1/Periodic_Threads_CPP_API_Test.hpp ****     }
 6510              		.loc 6 109 5
 6511 1f60 83308104 		ld	ra,72(sp)
 6512              		.cfi_remember_state
 6513              		.cfi_restore 1
 6514 1f64 03340104 		ld	s0,64(sp)
 6515              		.cfi_restore 8
 6516              		.cfi_def_cfa 2, 80
 6517              	.LVL743:
 6518 1f68 83348103 		ld	s1,56(sp)
 6519              		.cfi_restore 9
GAS LISTING /tmp/ccBYUnRY.s 			page 153


 6520              	.LVL744:
 6521 1f6c 03390103 		ld	s2,48(sp)
 6522              		.cfi_restore 18
 6523              	.LVL745:
 6524 1f70 83398102 		ld	s3,40(sp)
 6525              		.cfi_restore 19
 6526 1f74 13010105 		addi	sp,sp,80
 6527              		.cfi_def_cfa_offset 0
 6528              	.LVL746:
 6529 1f78 67800000 		jr	ra
 6530              	.LVL747:
 6531              	.L349:
 6532              		.cfi_restore_state
 6533 1f7c 13090500 		mv	s2,a0
  77:src/Code/../../h/Testing/Testing_OS1/Periodic_Threads_CPP_API_Test.hpp ****         myOwnWaitForAll = new Semaphore(0);
 6534              		.loc 6 77 36
 6535 1f80 13850400 		mv	a0,s1
 6536 1f84 97000000 		call	_ZdlPv@plt
 6536      E7800000 
 6537              	.LVL748:
 6538 1f8c 13050900 		mv	a0,s2
 6539              	.LEHB60:
 6540 1f90 97000000 		call	_Unwind_Resume@plt
 6540      E7800000 
 6541              	.LVL749:
 6542              	.LEHE60:
 6543              	.L350:
 6544 1f98 13090500 		mv	s2,a0
  78:src/Code/../../h/Testing/Testing_OS1/Periodic_Threads_CPP_API_Test.hpp **** 
 6545              		.loc 6 78 42
 6546 1f9c 13850400 		mv	a0,s1
 6547 1fa0 97000000 		call	_ZdlPv@plt
 6547      E7800000 
 6548              	.LVL750:
 6549 1fa8 13050900 		mv	a0,s2
 6550              	.LEHB61:
 6551 1fac 97000000 		call	_Unwind_Resume@plt
 6551      E7800000 
 6552              	.LVL751:
 6553              	.LEHE61:
 6554              	.L351:
 6555 1fb4 93040500 		mv	s1,a0
  80:src/Code/../../h/Testing/Testing_OS1/Periodic_Threads_CPP_API_Test.hpp ****         B* b = new B(5);
 6556              		.loc 6 80 23
 6557 1fb8 13850900 		mv	a0,s3
 6558 1fbc 97000000 		call	_ZdlPv@plt
 6558      E7800000 
 6559              	.LVL752:
 6560 1fc4 13850400 		mv	a0,s1
 6561              	.LEHB62:
 6562 1fc8 97000000 		call	_Unwind_Resume@plt
 6562      E7800000 
 6563              	.LVL753:
 6564              	.LEHE62:
 6565              	.L352:
 6566 1fd0 93040500 		mv	s1,a0
  81:src/Code/../../h/Testing/Testing_OS1/Periodic_Threads_CPP_API_Test.hpp ****         C* c = new C(5);
GAS LISTING /tmp/ccBYUnRY.s 			page 154


 6567              		.loc 6 81 23
 6568 1fd4 13050900 		mv	a0,s2
 6569 1fd8 97000000 		call	_ZdlPv@plt
 6569      E7800000 
 6570              	.LVL754:
 6571 1fe0 13850400 		mv	a0,s1
 6572              	.LEHB63:
 6573 1fe4 97000000 		call	_Unwind_Resume@plt
 6573      E7800000 
 6574              	.LVL755:
 6575              	.LEHE63:
 6576              	.L353:
 6577 1fec 13090500 		mv	s2,a0
 6578              	.LVL756:
  82:src/Code/../../h/Testing/Testing_OS1/Periodic_Threads_CPP_API_Test.hpp **** 
 6579              		.loc 6 82 23
 6580 1ff0 13850400 		mv	a0,s1
 6581 1ff4 97000000 		call	_ZdlPv@plt
 6581      E7800000 
 6582              	.LVL757:
 6583 1ffc 13050900 		mv	a0,s2
 6584              	.LEHB64:
 6585 2000 97000000 		call	_Unwind_Resume@plt
 6585      E7800000 
 6586              	.LVL758:
 6587              	.LEHE64:
 6588              		.cfi_endproc
 6589              	.LFE132:
 6590              		.section	.gcc_except_table
 6591              	.LLSDA132:
 6592 0290 FF       		.byte	0xff
 6593 0291 FF       		.byte	0xff
 6594 0292 03       		.byte	0x3
 6595 0293 D001     		.byte	0xd0,0x1
 6596 0295 00000000 		.4byte	.LEHB49-.LFB132
 6597 0299 00000000 		.4byte	.LEHE49-.LEHB49
 6598 029d 00000000 		.4byte	0
 6599 02a1 00       		.byte	0
 6600 02a2 00000000 		.4byte	.LEHB50-.LFB132
 6601 02a6 00000000 		.4byte	.LEHE50-.LEHB50
 6602 02aa 00000000 		.4byte	.L349-.LFB132
 6603 02ae 00       		.byte	0
 6604 02af 00000000 		.4byte	.LEHB51-.LFB132
 6605 02b3 00000000 		.4byte	.LEHE51-.LEHB51
 6606 02b7 00000000 		.4byte	0
 6607 02bb 00       		.byte	0
 6608 02bc 00000000 		.4byte	.LEHB52-.LFB132
 6609 02c0 00000000 		.4byte	.LEHE52-.LEHB52
 6610 02c4 00000000 		.4byte	.L350-.LFB132
 6611 02c8 00       		.byte	0
 6612 02c9 00000000 		.4byte	.LEHB53-.LFB132
 6613 02cd 00000000 		.4byte	.LEHE53-.LEHB53
 6614 02d1 00000000 		.4byte	0
 6615 02d5 00       		.byte	0
 6616 02d6 00000000 		.4byte	.LEHB54-.LFB132
 6617 02da 00000000 		.4byte	.LEHE54-.LEHB54
 6618 02de 00000000 		.4byte	.L351-.LFB132
GAS LISTING /tmp/ccBYUnRY.s 			page 155


 6619 02e2 00       		.byte	0
 6620 02e3 00000000 		.4byte	.LEHB55-.LFB132
 6621 02e7 00000000 		.4byte	.LEHE55-.LEHB55
 6622 02eb 00000000 		.4byte	0
 6623 02ef 00       		.byte	0
 6624 02f0 00000000 		.4byte	.LEHB56-.LFB132
 6625 02f4 00000000 		.4byte	.LEHE56-.LEHB56
 6626 02f8 00000000 		.4byte	.L352-.LFB132
 6627 02fc 00       		.byte	0
 6628 02fd 00000000 		.4byte	.LEHB57-.LFB132
 6629 0301 00000000 		.4byte	.LEHE57-.LEHB57
 6630 0305 00000000 		.4byte	0
 6631 0309 00       		.byte	0
 6632 030a 00000000 		.4byte	.LEHB58-.LFB132
 6633 030e 00000000 		.4byte	.LEHE58-.LEHB58
 6634 0312 00000000 		.4byte	.L353-.LFB132
 6635 0316 00       		.byte	0
 6636 0317 00000000 		.4byte	.LEHB59-.LFB132
 6637 031b 00000000 		.4byte	.LEHE59-.LEHB59
 6638 031f 00000000 		.4byte	0
 6639 0323 00       		.byte	0
 6640 0324 00000000 		.4byte	.LEHB60-.LFB132
 6641 0328 00000000 		.4byte	.LEHE60-.LEHB60
 6642 032c 00000000 		.4byte	0
 6643 0330 00       		.byte	0
 6644 0331 00000000 		.4byte	.LEHB61-.LFB132
 6645 0335 00000000 		.4byte	.LEHE61-.LEHB61
 6646 0339 00000000 		.4byte	0
 6647 033d 00       		.byte	0
 6648 033e 00000000 		.4byte	.LEHB62-.LFB132
 6649 0342 00000000 		.4byte	.LEHE62-.LEHB62
 6650 0346 00000000 		.4byte	0
 6651 034a 00       		.byte	0
 6652 034b 00000000 		.4byte	.LEHB63-.LFB132
 6653 034f 00000000 		.4byte	.LEHE63-.LEHB63
 6654 0353 00000000 		.4byte	0
 6655 0357 00       		.byte	0
 6656 0358 00000000 		.4byte	.LEHB64-.LFB132
 6657 035c 00000000 		.4byte	.LEHE64-.LEHB64
 6658 0360 00000000 		.4byte	0
 6659 0364 00       		.byte	0
 6660              		.text
 6662              		.align	2
 6663              		.globl	main
 6665              	main:
 6666              	.LFB134:
  25:src/Code/main.cpp **** 
  26:src/Code/main.cpp **** // funkcija main je u nadleznosti jezgra - jezgro ima kontrolu onda nad radnjama koje ce se izvrsit
  27:src/Code/main.cpp **** // nakon toga, funkcija main treba da pokrene nit nad funkcijom userMain
  28:src/Code/main.cpp **** void main() {
 6667              		.loc 1 28 13 is_stmt 1
 6668              		.cfi_startproc
 6669 2008 130101FC 		addi	sp,sp,-64
 6670              		.cfi_def_cfa_offset 64
 6671 200c 233C1102 		sd	ra,56(sp)
 6672 2010 23388102 		sd	s0,48(sp)
 6673 2014 23349102 		sd	s1,40(sp)
GAS LISTING /tmp/ccBYUnRY.s 			page 156


 6674              		.cfi_offset 1, -8
 6675              		.cfi_offset 8, -16
 6676              		.cfi_offset 9, -24
 6677 2018 13040104 		addi	s0,sp,64
 6678              		.cfi_def_cfa 8, 0
  29:src/Code/main.cpp **** 
  30:src/Code/main.cpp ****     // upisivanje adrese prekidne rutine u registar stvec
  31:src/Code/main.cpp ****     Riscv::writeStvec(reinterpret_cast<uint64>(&Riscv::supervisorTrap));
 6679              		.loc 1 31 5
 6680              		.loc 1 31 22 is_stmt 0
 6681 201c 97070000 		la	a5,_ZN5Riscv14supervisorTrapEv
 6681      83B70700 
 6682              	.LVL759:
 6683              	.LBB253:
 6684              	.LBB254:
 6685              		.file 10 "src/Code/../../h/Code/InterruptHandling/Riscv.hpp"
   1:src/Code/../../h/Code/InterruptHandling/Riscv.hpp **** #ifndef RISCV_HPP
   2:src/Code/../../h/Code/InterruptHandling/Riscv.hpp **** #define RISCV_HPP
   3:src/Code/../../h/Code/InterruptHandling/Riscv.hpp **** 
   4:src/Code/../../h/Code/InterruptHandling/Riscv.hpp **** #include "../../../lib/hw.h"
   5:src/Code/../../h/Code/InterruptHandling/Riscv.hpp **** 
   6:src/Code/../../h/Code/InterruptHandling/Riscv.hpp **** class Riscv {
   7:src/Code/../../h/Code/InterruptHandling/Riscv.hpp **** public:
   8:src/Code/../../h/Code/InterruptHandling/Riscv.hpp ****     // prekidna rutina (definisana u assembly fajlu supervisorTrap.S; ignorisati upozorenje CLiona 
   9:src/Code/../../h/Code/InterruptHandling/Riscv.hpp ****     static void supervisorTrap();
  10:src/Code/../../h/Code/InterruptHandling/Riscv.hpp **** 
  11:src/Code/../../h/Code/InterruptHandling/Riscv.hpp ****     // definisana u registersStack.S; ova metoda treba da sacuva registre a0-a7 na steku (preko ovi
  12:src/Code/../../h/Code/InterruptHandling/Riscv.hpp ****     static void pushSysCallParameters();
  13:src/Code/../../h/Code/InterruptHandling/Riscv.hpp **** 
  14:src/Code/../../h/Code/InterruptHandling/Riscv.hpp ****     // definisana u registersStack.S; ova metoda treba da sacuva registre x3..x31 na steku
  15:src/Code/../../h/Code/InterruptHandling/Riscv.hpp ****     static void pushMostRegisters();
  16:src/Code/../../h/Code/InterruptHandling/Riscv.hpp **** 
  17:src/Code/../../h/Code/InterruptHandling/Riscv.hpp ****     // definisana u registersStack.S; ova metoda treba da restaurira registre x3..x31 sa steka
  18:src/Code/../../h/Code/InterruptHandling/Riscv.hpp ****     static void popMostRegisters();
  19:src/Code/../../h/Code/InterruptHandling/Riscv.hpp **** 
  20:src/Code/../../h/Code/InterruptHandling/Riscv.hpp ****     static void exitSupervisorTrap();
  21:src/Code/../../h/Code/InterruptHandling/Riscv.hpp **** 
  22:src/Code/../../h/Code/InterruptHandling/Riscv.hpp ****     // procitaj vrednost iz statusnog registra sstatus (ovaj registar pamti trenutno stanje proceso
  23:src/Code/../../h/Code/InterruptHandling/Riscv.hpp ****     static uint64 readSstatus();
  24:src/Code/../../h/Code/InterruptHandling/Riscv.hpp **** 
  25:src/Code/../../h/Code/InterruptHandling/Riscv.hpp ****     // upisi vrednost u statusni registar sstatus
  26:src/Code/../../h/Code/InterruptHandling/Riscv.hpp ****     static void writeSstatus(uint64 sstatus);
  27:src/Code/../../h/Code/InterruptHandling/Riscv.hpp **** 
  28:src/Code/../../h/Code/InterruptHandling/Riscv.hpp ****     // pod spoljasnjim prekidima se podrazumevaju prekidi od tajmera i spoljasnji hardverski prekid
  29:src/Code/../../h/Code/InterruptHandling/Riscv.hpp ****     // u korisnickom rezimu bit SIE sstatus registra se ignorise - spoljasnji prekidi su tada podra
  30:src/Code/../../h/Code/InterruptHandling/Riscv.hpp ****     enum BitMaskSstatus {
  31:src/Code/../../h/Code/InterruptHandling/Riscv.hpp ****         SSTATUS_SIE = (1 << 1), // ovaj bit govori da li su dozvoljeni spoljasnji prekidi (0 - nisu
  32:src/Code/../../h/Code/InterruptHandling/Riscv.hpp ****         SSTATUS_SPIE = (1 << 5), // ovaj bit govori koja je bila prethodna vrednost bita SIE (pre s
  33:src/Code/../../h/Code/InterruptHandling/Riscv.hpp ****         SSTATUS_SPP = (1 << 8) // ovaj bit govori iz kog rezima se skocilo na prekidnu rutinu (0 - 
  34:src/Code/../../h/Code/InterruptHandling/Riscv.hpp ****     };
  35:src/Code/../../h/Code/InterruptHandling/Riscv.hpp **** 
  36:src/Code/../../h/Code/InterruptHandling/Riscv.hpp ****     // postavi odgovarajuce bite u registru sstatus na 1 (odgovarajuca maska se prosledjuje kao arg
  37:src/Code/../../h/Code/InterruptHandling/Riscv.hpp ****     static void maskSetBitsSstatus(uint64 mask);
  38:src/Code/../../h/Code/InterruptHandling/Riscv.hpp **** 
  39:src/Code/../../h/Code/InterruptHandling/Riscv.hpp ****     // postavi odgovarajuce bite u registru sstatus na 0 (odgovarajuca maska se prosledjuje kao arg
  40:src/Code/../../h/Code/InterruptHandling/Riscv.hpp ****     static void maskClearBitsSstatus(uint64 mask);
  41:src/Code/../../h/Code/InterruptHandling/Riscv.hpp **** 
GAS LISTING /tmp/ccBYUnRY.s 			page 157


  42:src/Code/../../h/Code/InterruptHandling/Riscv.hpp ****     // procitaj vrednost iz registra sip (ovaj registar pamti koji zahtevi za prekid su trenutno ak
  43:src/Code/../../h/Code/InterruptHandling/Riscv.hpp ****     static uint64 readSip();
  44:src/Code/../../h/Code/InterruptHandling/Riscv.hpp **** 
  45:src/Code/../../h/Code/InterruptHandling/Riscv.hpp ****     // upisi vrednost u registar sip
  46:src/Code/../../h/Code/InterruptHandling/Riscv.hpp ****     static void writeSip(uint64 sip);
  47:src/Code/../../h/Code/InterruptHandling/Riscv.hpp **** 
  48:src/Code/../../h/Code/InterruptHandling/Riscv.hpp ****     enum BitMaskSip {
  49:src/Code/../../h/Code/InterruptHandling/Riscv.hpp ****         SIP_SSIP = (1 << 1), // ovaj bit govori da li je aktivan zahtev za softverski prekid (0 - n
  50:src/Code/../../h/Code/InterruptHandling/Riscv.hpp ****         SIP_SEIP = (1 << 9) // ovaj bit govori da li je aktivan zahtev za spoljasnji hardverski pre
  51:src/Code/../../h/Code/InterruptHandling/Riscv.hpp ****     };
  52:src/Code/../../h/Code/InterruptHandling/Riscv.hpp **** 
  53:src/Code/../../h/Code/InterruptHandling/Riscv.hpp ****     // postavi odgovarajuce bite u registru sip na 1 (odgovarajuca maska se prosledjuje kao argumen
  54:src/Code/../../h/Code/InterruptHandling/Riscv.hpp ****     static void maskSetBitsSip(uint64 mask);
  55:src/Code/../../h/Code/InterruptHandling/Riscv.hpp **** 
  56:src/Code/../../h/Code/InterruptHandling/Riscv.hpp ****     // postavi odgovarajuce bite u registru sip na 0 (odgovarajuca maska se prosledjuje kao argumen
  57:src/Code/../../h/Code/InterruptHandling/Riscv.hpp ****     static void maskClearBitsSip(uint64 mask);
  58:src/Code/../../h/Code/InterruptHandling/Riscv.hpp **** 
  59:src/Code/../../h/Code/InterruptHandling/Riscv.hpp ****     // procitaj vrednost iz registra sie (ovaj registar pamti koji prekidi su trenutno dozvoljeni)
  60:src/Code/../../h/Code/InterruptHandling/Riscv.hpp ****     static uint64 readSie();
  61:src/Code/../../h/Code/InterruptHandling/Riscv.hpp **** 
  62:src/Code/../../h/Code/InterruptHandling/Riscv.hpp ****     // upisi vrednost u registar sie
  63:src/Code/../../h/Code/InterruptHandling/Riscv.hpp ****     static void writeSie(uint64 sie);
  64:src/Code/../../h/Code/InterruptHandling/Riscv.hpp **** 
  65:src/Code/../../h/Code/InterruptHandling/Riscv.hpp ****     // vrednost registra sie se uzima u obzir prilikom izvrsavanja u korisnickom rezimu;
  66:src/Code/../../h/Code/InterruptHandling/Riscv.hpp ****     // ako se program izvrsava u sistemskom rezimu i bit SIE sstatus registra je nula, vrednost sie
  67:src/Code/../../h/Code/InterruptHandling/Riscv.hpp ****     enum BitMaskSie {
  68:src/Code/../../h/Code/InterruptHandling/Riscv.hpp ****         SIE_SSIE = (1 << 1), // ovaj bit govori da li su dozvoljeni softverski prekidi (0 - nisu, 1
  69:src/Code/../../h/Code/InterruptHandling/Riscv.hpp ****         SIE_SEIE = (1 << 9) // ovaj bit govori da li su dozvoljeni spoljasnji hardverski prekidi (0
  70:src/Code/../../h/Code/InterruptHandling/Riscv.hpp ****     };
  71:src/Code/../../h/Code/InterruptHandling/Riscv.hpp **** 
  72:src/Code/../../h/Code/InterruptHandling/Riscv.hpp ****     // postavi odgovarajuce bite u registru sie na 1 (odgovarajuca maska se prosledjuje kao argumen
  73:src/Code/../../h/Code/InterruptHandling/Riscv.hpp ****     static void maskSetBitsSie(uint64 mask);
  74:src/Code/../../h/Code/InterruptHandling/Riscv.hpp **** 
  75:src/Code/../../h/Code/InterruptHandling/Riscv.hpp ****     // postavi odgovarajuce bite u registru sie na 0 (odgovarajuca maska se prosledjuje kao argumen
  76:src/Code/../../h/Code/InterruptHandling/Riscv.hpp ****     static void maskClearBitsSie(uint64 mask);
  77:src/Code/../../h/Code/InterruptHandling/Riscv.hpp **** 
  78:src/Code/../../h/Code/InterruptHandling/Riscv.hpp ****     // procitaj vrednost iz registra scratch (ovaj registar sluzi za cuvanje privremenih vrednosti)
  79:src/Code/../../h/Code/InterruptHandling/Riscv.hpp ****     static uint64 readScratch();
  80:src/Code/../../h/Code/InterruptHandling/Riscv.hpp **** 
  81:src/Code/../../h/Code/InterruptHandling/Riscv.hpp ****     // upisi vrednost u registar scratch
  82:src/Code/../../h/Code/InterruptHandling/Riscv.hpp ****     static void writeScratch(uint64 scratch);
  83:src/Code/../../h/Code/InterruptHandling/Riscv.hpp **** 
  84:src/Code/../../h/Code/InterruptHandling/Riscv.hpp ****     // procitaj vrednost iz registra sepc (ovaj registar cuva vrednost registra pc iz korisnickog r
  85:src/Code/../../h/Code/InterruptHandling/Riscv.hpp ****     // to ce biti adresa instrukcije ecall ili adresa prve neizvrsene/prekinute instrukcije)
  86:src/Code/../../h/Code/InterruptHandling/Riscv.hpp ****     static uint64 readSepc();
  87:src/Code/../../h/Code/InterruptHandling/Riscv.hpp **** 
  88:src/Code/../../h/Code/InterruptHandling/Riscv.hpp ****     // upisi vrednost u registar sepc
  89:src/Code/../../h/Code/InterruptHandling/Riscv.hpp ****     static void writeSepc(uint64 sepc);
  90:src/Code/../../h/Code/InterruptHandling/Riscv.hpp **** 
  91:src/Code/../../h/Code/InterruptHandling/Riscv.hpp ****     // procitaj vrednost iz registra scause (ovaj registar cuva razlog prelaska u sistemski rezim)
  92:src/Code/../../h/Code/InterruptHandling/Riscv.hpp ****     static uint64 readScause();
  93:src/Code/../../h/Code/InterruptHandling/Riscv.hpp **** 
  94:src/Code/../../h/Code/InterruptHandling/Riscv.hpp ****     // upisi vrednost u registar scause
  95:src/Code/../../h/Code/InterruptHandling/Riscv.hpp ****     static void writeScause(uint64 scause);
  96:src/Code/../../h/Code/InterruptHandling/Riscv.hpp **** 
  97:src/Code/../../h/Code/InterruptHandling/Riscv.hpp ****     // procitaj vrednost iz registra stvec (ovaj registar cuva adresu prekidne rutine)
  98:src/Code/../../h/Code/InterruptHandling/Riscv.hpp ****     static uint64 readStvec();
GAS LISTING /tmp/ccBYUnRY.s 			page 158


  99:src/Code/../../h/Code/InterruptHandling/Riscv.hpp **** 
 100:src/Code/../../h/Code/InterruptHandling/Riscv.hpp ****     // upisi vrednost u registar stvec
 101:src/Code/../../h/Code/InterruptHandling/Riscv.hpp ****     static void writeStvec(uint64 stvec);
 102:src/Code/../../h/Code/InterruptHandling/Riscv.hpp **** 
 103:src/Code/../../h/Code/InterruptHandling/Riscv.hpp ****     // procitaj vrednost iz registra stval (ovaj registar cuva dodatan opis greske koja se dogodila
 104:src/Code/../../h/Code/InterruptHandling/Riscv.hpp ****     static uint64 readStval();
 105:src/Code/../../h/Code/InterruptHandling/Riscv.hpp **** 
 106:src/Code/../../h/Code/InterruptHandling/Riscv.hpp ****     // upisi vrednost u registar stval
 107:src/Code/../../h/Code/InterruptHandling/Riscv.hpp ****     static void writeStval(uint64 stval);
 108:src/Code/../../h/Code/InterruptHandling/Riscv.hpp **** 
 109:src/Code/../../h/Code/InterruptHandling/Riscv.hpp **** private:
 110:src/Code/../../h/Code/InterruptHandling/Riscv.hpp ****     // obrada sistemskog poziva/prekida/izuzetka
 111:src/Code/../../h/Code/InterruptHandling/Riscv.hpp ****     static void handleSupervisorTrap();
 112:src/Code/../../h/Code/InterruptHandling/Riscv.hpp **** };
 113:src/Code/../../h/Code/InterruptHandling/Riscv.hpp **** 
 114:src/Code/../../h/Code/InterruptHandling/Riscv.hpp **** // ove metode pisem kao inline da ne bi bilo rezijskih troskova koje iziskuje poziv funkcije (preno
 115:src/Code/../../h/Code/InterruptHandling/Riscv.hpp **** // funkcije, cuvanje povratne adrese)- ovako ce kod tela funkcije samo da se ugradi na mesto poziva
 116:src/Code/../../h/Code/InterruptHandling/Riscv.hpp **** // poziva funkcije
 117:src/Code/../../h/Code/InterruptHandling/Riscv.hpp **** inline uint64 Riscv::readSstatus() {
 118:src/Code/../../h/Code/InterruptHandling/Riscv.hpp ****     // volatile kvalifikator obezbedjuje da prevodilac ne izvrsi optimizaciju i sacuva lokalnu prom
 119:src/Code/../../h/Code/InterruptHandling/Riscv.hpp ****     // registara - umesto toga, sacuvace je na steku
 120:src/Code/../../h/Code/InterruptHandling/Riscv.hpp ****     uint64 volatile sstatus;
 121:src/Code/../../h/Code/InterruptHandling/Riscv.hpp ****     __asm__ volatile ("csrr %[sstatus], sstatus" : [sstatus] "=r"(sstatus));
 122:src/Code/../../h/Code/InterruptHandling/Riscv.hpp ****     return sstatus;
 123:src/Code/../../h/Code/InterruptHandling/Riscv.hpp **** }
 124:src/Code/../../h/Code/InterruptHandling/Riscv.hpp **** 
 125:src/Code/../../h/Code/InterruptHandling/Riscv.hpp **** inline void Riscv::writeSstatus(uint64 sstatus) {
 126:src/Code/../../h/Code/InterruptHandling/Riscv.hpp ****     __asm__ volatile ("csrw sstatus, %[sstatus]" : : [sstatus] "r"(sstatus));
 127:src/Code/../../h/Code/InterruptHandling/Riscv.hpp **** }
 128:src/Code/../../h/Code/InterruptHandling/Riscv.hpp **** 
 129:src/Code/../../h/Code/InterruptHandling/Riscv.hpp **** inline void Riscv::maskSetBitsSstatus(uint64 mask) {
 130:src/Code/../../h/Code/InterruptHandling/Riscv.hpp ****     __asm__ volatile ("csrs sstatus, %[mask]" : : [mask] "r"(mask));
 131:src/Code/../../h/Code/InterruptHandling/Riscv.hpp **** }
 132:src/Code/../../h/Code/InterruptHandling/Riscv.hpp **** 
 133:src/Code/../../h/Code/InterruptHandling/Riscv.hpp **** inline void Riscv::maskClearBitsSstatus(uint64 mask) {
 134:src/Code/../../h/Code/InterruptHandling/Riscv.hpp ****     __asm__ volatile ("csrc sstatus, %[mask]" : : [mask] "r"(mask));
 135:src/Code/../../h/Code/InterruptHandling/Riscv.hpp **** }
 136:src/Code/../../h/Code/InterruptHandling/Riscv.hpp **** 
 137:src/Code/../../h/Code/InterruptHandling/Riscv.hpp **** inline uint64 Riscv::readSip() {
 138:src/Code/../../h/Code/InterruptHandling/Riscv.hpp ****     uint64 volatile sip;
 139:src/Code/../../h/Code/InterruptHandling/Riscv.hpp ****     __asm__ volatile ("csrr %[sip], sip" : [sip] "=r"(sip));
 140:src/Code/../../h/Code/InterruptHandling/Riscv.hpp ****     return sip;
 141:src/Code/../../h/Code/InterruptHandling/Riscv.hpp **** }
 142:src/Code/../../h/Code/InterruptHandling/Riscv.hpp **** 
 143:src/Code/../../h/Code/InterruptHandling/Riscv.hpp **** inline void Riscv::writeSip(uint64 sip) {
 144:src/Code/../../h/Code/InterruptHandling/Riscv.hpp ****     __asm__ volatile ("csrw sip, %[sip]" : : [sip] "r"(sip));
 145:src/Code/../../h/Code/InterruptHandling/Riscv.hpp **** }
 146:src/Code/../../h/Code/InterruptHandling/Riscv.hpp **** 
 147:src/Code/../../h/Code/InterruptHandling/Riscv.hpp **** inline void Riscv::maskSetBitsSip(uint64 mask) {
 148:src/Code/../../h/Code/InterruptHandling/Riscv.hpp ****     __asm__ volatile ("csrs sip, %[mask]" : : [mask] "r"(mask));
 149:src/Code/../../h/Code/InterruptHandling/Riscv.hpp **** }
 150:src/Code/../../h/Code/InterruptHandling/Riscv.hpp **** 
 151:src/Code/../../h/Code/InterruptHandling/Riscv.hpp **** inline void Riscv::maskClearBitsSip(uint64 mask) {
 152:src/Code/../../h/Code/InterruptHandling/Riscv.hpp ****     __asm__ volatile ("csrc sip, %[mask]" : : [mask] "r"(mask));
 153:src/Code/../../h/Code/InterruptHandling/Riscv.hpp **** }
 154:src/Code/../../h/Code/InterruptHandling/Riscv.hpp **** 
 155:src/Code/../../h/Code/InterruptHandling/Riscv.hpp **** inline uint64 Riscv::readSie() {
GAS LISTING /tmp/ccBYUnRY.s 			page 159


 156:src/Code/../../h/Code/InterruptHandling/Riscv.hpp ****     uint64 volatile sie;
 157:src/Code/../../h/Code/InterruptHandling/Riscv.hpp ****     __asm__ volatile ("csrr %[sie], sie" : [sie] "=r"(sie));
 158:src/Code/../../h/Code/InterruptHandling/Riscv.hpp ****     return sie;
 159:src/Code/../../h/Code/InterruptHandling/Riscv.hpp **** }
 160:src/Code/../../h/Code/InterruptHandling/Riscv.hpp **** 
 161:src/Code/../../h/Code/InterruptHandling/Riscv.hpp **** inline void Riscv::writeSie(uint64 sie) {
 162:src/Code/../../h/Code/InterruptHandling/Riscv.hpp ****     __asm__ volatile ("csrw sie, %[sie]" : : [sie] "r"(sie));
 163:src/Code/../../h/Code/InterruptHandling/Riscv.hpp **** }
 164:src/Code/../../h/Code/InterruptHandling/Riscv.hpp **** 
 165:src/Code/../../h/Code/InterruptHandling/Riscv.hpp **** inline void Riscv::maskSetBitsSie(uint64 mask) {
 166:src/Code/../../h/Code/InterruptHandling/Riscv.hpp ****     __asm__ volatile ("csrs sie, %[mask]" : : [mask] "r"(mask));
 167:src/Code/../../h/Code/InterruptHandling/Riscv.hpp **** }
 168:src/Code/../../h/Code/InterruptHandling/Riscv.hpp **** 
 169:src/Code/../../h/Code/InterruptHandling/Riscv.hpp **** inline void Riscv::maskClearBitsSie(uint64 mask) {
 170:src/Code/../../h/Code/InterruptHandling/Riscv.hpp ****     __asm__ volatile ("csrc sie, %[mask]" : : [mask] "r"(mask));
 171:src/Code/../../h/Code/InterruptHandling/Riscv.hpp **** }
 172:src/Code/../../h/Code/InterruptHandling/Riscv.hpp **** 
 173:src/Code/../../h/Code/InterruptHandling/Riscv.hpp **** inline uint64 Riscv::readScratch() {
 174:src/Code/../../h/Code/InterruptHandling/Riscv.hpp ****     uint64 volatile scratch;
 175:src/Code/../../h/Code/InterruptHandling/Riscv.hpp ****     __asm__ volatile ("csrr %[scratch], scratch" : [scratch] "=r"(scratch));
 176:src/Code/../../h/Code/InterruptHandling/Riscv.hpp ****     return scratch;
 177:src/Code/../../h/Code/InterruptHandling/Riscv.hpp **** }
 178:src/Code/../../h/Code/InterruptHandling/Riscv.hpp **** 
 179:src/Code/../../h/Code/InterruptHandling/Riscv.hpp **** inline void Riscv::writeScratch(uint64 scratch) {
 180:src/Code/../../h/Code/InterruptHandling/Riscv.hpp ****     __asm__ volatile ("csrw scratch, %[scratch]" : : [scratch] "r"(scratch));
 181:src/Code/../../h/Code/InterruptHandling/Riscv.hpp **** }
 182:src/Code/../../h/Code/InterruptHandling/Riscv.hpp **** 
 183:src/Code/../../h/Code/InterruptHandling/Riscv.hpp **** inline uint64 Riscv::readSepc() {
 184:src/Code/../../h/Code/InterruptHandling/Riscv.hpp ****     uint64 volatile sepc;
 185:src/Code/../../h/Code/InterruptHandling/Riscv.hpp ****     __asm__ volatile ("csrr %[sepc], sepc" : [sepc] "=r"(sepc));
 186:src/Code/../../h/Code/InterruptHandling/Riscv.hpp ****     return sepc;
 187:src/Code/../../h/Code/InterruptHandling/Riscv.hpp **** }
 188:src/Code/../../h/Code/InterruptHandling/Riscv.hpp **** 
 189:src/Code/../../h/Code/InterruptHandling/Riscv.hpp **** inline void Riscv::writeSepc(uint64 sepc) {
 190:src/Code/../../h/Code/InterruptHandling/Riscv.hpp ****     __asm__ volatile ("csrw sepc, %[sepc]" : : [sepc] "r"(sepc));
 191:src/Code/../../h/Code/InterruptHandling/Riscv.hpp **** }
 192:src/Code/../../h/Code/InterruptHandling/Riscv.hpp **** 
 193:src/Code/../../h/Code/InterruptHandling/Riscv.hpp **** inline uint64 Riscv::readScause() {
 194:src/Code/../../h/Code/InterruptHandling/Riscv.hpp ****     uint64 volatile scause;
 195:src/Code/../../h/Code/InterruptHandling/Riscv.hpp ****     __asm__ volatile ("csrr %[scause], scause" : [scause] "=r"(scause));
 196:src/Code/../../h/Code/InterruptHandling/Riscv.hpp ****     return scause;
 197:src/Code/../../h/Code/InterruptHandling/Riscv.hpp **** }
 198:src/Code/../../h/Code/InterruptHandling/Riscv.hpp **** 
 199:src/Code/../../h/Code/InterruptHandling/Riscv.hpp **** inline void Riscv::writeScause(uint64 scause) {
 200:src/Code/../../h/Code/InterruptHandling/Riscv.hpp ****     __asm__ volatile ("csrw scause, %[scause]" : : [scause] "r"(scause));
 201:src/Code/../../h/Code/InterruptHandling/Riscv.hpp **** }
 202:src/Code/../../h/Code/InterruptHandling/Riscv.hpp **** 
 203:src/Code/../../h/Code/InterruptHandling/Riscv.hpp **** inline uint64 Riscv::readStvec() {
 204:src/Code/../../h/Code/InterruptHandling/Riscv.hpp ****     uint64 volatile stvec;
 205:src/Code/../../h/Code/InterruptHandling/Riscv.hpp ****     __asm__ volatile ("csrr %[stvec], stvec" : [stvec] "=r"(stvec));
 206:src/Code/../../h/Code/InterruptHandling/Riscv.hpp ****     return stvec;
 207:src/Code/../../h/Code/InterruptHandling/Riscv.hpp **** }
 208:src/Code/../../h/Code/InterruptHandling/Riscv.hpp **** 
 209:src/Code/../../h/Code/InterruptHandling/Riscv.hpp **** inline void Riscv::writeStvec(uint64 stvec) {
 210:src/Code/../../h/Code/InterruptHandling/Riscv.hpp ****     __asm__ volatile ("csrw stvec, %[stvec]" : : [stvec] "r"(stvec));
 6686              		.loc 10 210 5 is_stmt 1
 6687              		.loc 10 210 69 is_stmt 0
GAS LISTING /tmp/ccBYUnRY.s 			page 160


 6688              	#APP
 6689              	# 210 "src/Code/../../h/Code/InterruptHandling/Riscv.hpp" 1
 211              	}
 6690              		csrw stvec, a5
 6691              	# 0 "" 2
 6692              	.LVL760:
 6693              	#NO_APP
 6694              	.LBE254:
 6695              	.LBE253:
  32:src/Code/main.cpp **** 
  33:src/Code/main.cpp ****     // kreiranje niti za main funkciju da bismo postavili pokazivac TCB::runningThread na nit main-
  34:src/Code/main.cpp ****     thread_t mainThreadHandle;
 6696              		.loc 1 34 5 is_stmt 1
  35:src/Code/main.cpp ****     thread_create(&mainThreadHandle, nullptr, nullptr);
 6697              		.loc 1 35 5
 6698              		.loc 1 35 18 is_stmt 0
 6699 2028 13060000 		li	a2,0
 6700 202c 93050000 		li	a1,0
 6701 2030 130584FD 		addi	a0,s0,-40
 6702 2034 97000000 		call	_Z13thread_createPP6threadPFvPvES2_@plt
 6702      E7800000 
 6703              	.LVL761:
  36:src/Code/main.cpp ****     TCB::runningThread = (TCB*)(mainThreadHandle);
 6704              		.loc 1 36 5 is_stmt 1
 6705              		.loc 1 36 24 is_stmt 0
 6706 203c 97070000 		la	a5,_ZN3TCB13runningThreadE
 6706      83B70700 
 6707 2044 033784FD 		ld	a4,-40(s0)
 6708 2048 23B0E700 		sd	a4,0(a5)
  37:src/Code/main.cpp **** 
  38:src/Code/main.cpp ****     // kreiranje idle niti i ubacivanje nje u scheduler (ubacivanje niti u scheduler se radi u kons
  39:src/Code/main.cpp ****     // idle nit se nikada ne izbacuje iz schedulera i uvek ce biti na kraju schedulera
  40:src/Code/main.cpp ****     thread_t idleThreadHandle;
 6709              		.loc 1 40 5 is_stmt 1
  41:src/Code/main.cpp ****     thread_create(&idleThreadHandle, &idleFunction, nullptr);
 6710              		.loc 1 41 5
 6711              		.loc 1 41 18 is_stmt 0
 6712 204c 13060000 		li	a2,0
 6713 2050 97050000 		la	a1,_Z12idleFunctionPv
 6713      83B50500 
 6714 2058 130504FD 		addi	a0,s0,-48
 6715 205c 97000000 		call	_Z13thread_createPP6threadPFvPvES2_@plt
 6715      E7800000 
 6716              	.LVL762:
  42:src/Code/main.cpp **** 
  43:src/Code/main.cpp ****     // kreiranje niti nad funkcijom userMain i ubacivanje nje u scheduler (ubacivanje niti u schedu
  44:src/Code/main.cpp ****     thread_t userMainThreadHandle;
 6717              		.loc 1 44 5 is_stmt 1
  45:src/Code/main.cpp ****     thread_create(&userMainThreadHandle, &userMain, nullptr);
 6718              		.loc 1 45 5
 6719              		.loc 1 45 18 is_stmt 0
 6720 2064 13060000 		li	a2,0
 6721 2068 97050000 		lla	a1,_Z8userMainPv
 6721      93850500 
 6722 2070 130584FC 		addi	a0,s0,-56
 6723 2074 97000000 		call	_Z13thread_createPP6threadPFvPvES2_@plt
 6723      E7800000 
GAS LISTING /tmp/ccBYUnRY.s 			page 161


 6724              	.LVL763:
  46:src/Code/main.cpp **** 
  47:src/Code/main.cpp ****     thread_t putcKernelThread;
 6725              		.loc 1 47 5 is_stmt 1
  48:src/Code/main.cpp ****     thread_create(&putcKernelThread, &putcKernelThreadFunction, nullptr);
 6726              		.loc 1 48 5
 6727              		.loc 1 48 18 is_stmt 0
 6728 207c 13060000 		li	a2,0
 6729 2080 97050000 		la	a1,_Z24putcKernelThreadFunctionPv
 6729      83B50500 
 6730 2088 130504FC 		addi	a0,s0,-64
 6731 208c 97000000 		call	_Z13thread_createPP6threadPFvPvES2_@plt
 6731      E7800000 
 6732              	.LVL764:
  49:src/Code/main.cpp **** 
  50:src/Code/main.cpp ****     // omogucujem spoljasnje prekide jer trenutno radimo sve u sistemskom rezimu, a tu su oni podra
  51:src/Code/main.cpp ****     // radicu u sistemskom rezimu sve dok ne dodjem do kraja projekta kad cu imati i semafore i isp
  52:src/Code/main.cpp ****     Riscv::maskSetBitsSstatus(Riscv::SSTATUS_SIE);
 6733              		.loc 1 52 5 is_stmt 1
 6734              	.LBB255:
 6735              	.LBB256:
 130:src/Code/../../h/Code/InterruptHandling/Riscv.hpp **** }
 6736              		.loc 10 130 5
 130:src/Code/../../h/Code/InterruptHandling/Riscv.hpp **** }
 6737              		.loc 10 130 68 is_stmt 0
 6738 2094 93072000 		li	a5,2
 6739              	#APP
 6740              	# 130 "src/Code/../../h/Code/InterruptHandling/Riscv.hpp" 1
 131:src/Code/../../h/Code/InterruptHandling/Riscv.hpp **** 
 6741              		csrs sstatus, a5
 6742              	# 0 "" 2
 6743              		.loc 10 131 1
 6744              	#NO_APP
 6745 209c 6F00C000 		j	.L359
 6746              	.LVL765:
 6747              	.L357:
 6748              	.LBE256:
 6749              	.LBE255:
  53:src/Code/main.cpp **** 
  54:src/Code/main.cpp ****     while (!((TCB*)userMainThreadHandle)->getFinished() || KernelBuffer::putcGetInstance()->getNumb
  55:src/Code/main.cpp ****         thread_dispatch();
 6750              		.loc 1 55 9 is_stmt 1 discriminator 5
 6751              		.loc 1 55 24 is_stmt 0 discriminator 5
 6752 20a0 97000000 		call	_Z15thread_dispatchv@plt
 6752      E7800000 
 6753              	.LVL766:
 6754              	.L359:
  54:src/Code/main.cpp ****         thread_dispatch();
 6755              		.loc 1 54 5 is_stmt 1
  54:src/Code/main.cpp ****         thread_dispatch();
 6756              		.loc 1 54 57
  54:src/Code/main.cpp ****         thread_dispatch();
 6757              		.loc 1 54 54 is_stmt 0
 6758 20a8 833784FC 		ld	a5,-56(s0)
 6759              	.LVL767:
 6760              	.LBB257:
 6761              	.LBB258:
GAS LISTING /tmp/ccBYUnRY.s 			page 162


 6762              		.file 11 "src/Code/../../h/Code/Thread/TCB.hpp"
   1:src/Code/../../h/Code/Thread/TCB.hpp **** #ifndef TCB_HPP
   2:src/Code/../../h/Code/Thread/TCB.hpp **** #define TCB_HPP
   3:src/Code/../../h/Code/Thread/TCB.hpp **** 
   4:src/Code/../../h/Code/Thread/TCB.hpp **** #include "../../../lib/hw.h"
   5:src/Code/../../h/Code/Thread/TCB.hpp **** #include "../Scheduler/Scheduler.hpp"
   6:src/Code/../../h/Code/Thread/TCB.hpp **** #include "../InterruptHandling/Riscv.hpp"
   7:src/Code/../../h/Code/Thread/TCB.hpp **** 
   8:src/Code/../../h/Code/Thread/TCB.hpp **** // klasa TCB predstavlja apstrakciju niti
   9:src/Code/../../h/Code/Thread/TCB.hpp **** class TCB {
  10:src/Code/../../h/Code/Thread/TCB.hpp **** public:
  11:src/Code/../../h/Code/Thread/TCB.hpp ****     // definisanje korisnickog tipa Body - predstavljace pokazivac na void funkciju koja prima void
  12:src/Code/../../h/Code/Thread/TCB.hpp ****     using Body = void (*)(void*);
  13:src/Code/../../h/Code/Thread/TCB.hpp **** 
  14:src/Code/../../h/Code/Thread/TCB.hpp ****     // ova funkcija treba da napravi novu nit koja ce da izvrsava telo funkcije date parametrom bod
  15:src/Code/../../h/Code/Thread/TCB.hpp ****     // ako se prosledi nullptr, to znaci da treba napraviti nit koja ce da izvrsava main funkciju
  16:src/Code/../../h/Code/Thread/TCB.hpp ****     // u tom slucaju, u konstrukciji te niti ne treba je davati scheduleru na raspolaganje, jer bi 
  17:src/Code/../../h/Code/Thread/TCB.hpp ****     // zelimo da bas ta nit main-a nastavi da se izvrsava
  18:src/Code/../../h/Code/Thread/TCB.hpp ****     static TCB* createThread(Body body, void* arg, void* stack, bool cppApi);
  19:src/Code/../../h/Code/Thread/TCB.hpp **** 
  20:src/Code/../../h/Code/Thread/TCB.hpp ****     // obezbedjena enkapsulacija - atribut finished je privatan i moze se citati samo kroz getter m
  21:src/Code/../../h/Code/Thread/TCB.hpp ****     bool getFinished() const { return finished; }
 6763              		.loc 11 21 32 is_stmt 1
 6764              		.loc 11 21 39 is_stmt 0
 6765 20ac 83C70703 		lbu	a5,48(a5)
 6766              	.LVL768:
 6767              	.LBE258:
 6768              	.LBE257:
  54:src/Code/main.cpp ****         thread_dispatch();
 6769              		.loc 1 54 57
 6770 20b0 E38807FE 		beqz	a5,.L357
  54:src/Code/main.cpp ****         thread_dispatch();
 6771              		.loc 1 54 112 discriminator 2
 6772 20b4 97000000 		call	_ZN12KernelBuffer15putcGetInstanceEv@plt
 6772      E7800000 
 6773              	.LVL769:
 6774 20bc 97000000 		call	_ZN12KernelBuffer19getNumberOfElementsEv@plt
 6774      E7800000 
 6775              	.LVL770:
  54:src/Code/main.cpp ****         thread_dispatch();
 6776              		.loc 1 54 57 discriminator 2
 6777 20c4 E34EA0FC 		bgtz	a0,.L357
  56:src/Code/main.cpp ****     }
  57:src/Code/main.cpp **** 
  58:src/Code/main.cpp ****     // moram da dealociram bafer eksplicitno jer KernelBuffer::getInstance unutar sebe ne pravi sta
  59:src/Code/main.cpp ****     // dinamicki alocira na heap-u, sto znaci da se nece unistiti sam taj objekat kada se zavrsi ma
  60:src/Code/main.cpp ****     // statickom objektu) i zato moramo mi ovde eksplicitno da ga unistimo
  61:src/Code/main.cpp ****     delete KernelBuffer::getcGetInstance();
 6778              		.loc 1 61 5 is_stmt 1
 6779              		.loc 1 61 41 is_stmt 0
 6780 20c8 97000000 		call	_ZN12KernelBuffer15getcGetInstanceEv@plt
 6780      E7800000 
 6781              	.LVL771:
 6782 20d0 93040500 		mv	s1,a0
 6783              		.loc 1 61 43
 6784 20d4 630C0500 		beqz	a0,.L356
 6785              		.loc 1 61 42 discriminator 2
GAS LISTING /tmp/ccBYUnRY.s 			page 163


 6786 20d8 97000000 		call	_ZN12KernelBufferD1Ev@plt
 6786      E7800000 
 6787              	.LVL772:
 6788 20e0 13850400 		mv	a0,s1
 6789 20e4 97000000 		call	_ZN12KernelBufferdlEPv@plt
 6789      E7800000 
 6790              	.LVL773:
 6791              	.L356:
  62:src/Code/main.cpp ****     // ne brisem bafer za putc jer treba da se ispise Kernel Finished za sta treba taj bafer
  63:src/Code/main.cpp **** }...
 6792              		.loc 1 63 1
 6793 20ec 83308103 		ld	ra,56(sp)
 6794              		.cfi_restore 1
 6795 20f0 03340103 		ld	s0,48(sp)
 6796              		.cfi_restore 8
 6797              		.cfi_def_cfa 2, 64
 6798 20f4 83348102 		ld	s1,40(sp)
 6799              		.cfi_restore 9
 6800 20f8 13010104 		addi	sp,sp,64
 6801              		.cfi_def_cfa_offset 0
 6802 20fc 67800000 		jr	ra
 6803              		.cfi_endproc
 6804              	.LFE134:
 6806              		.weak	_ZTVN14ThreadsTestCPP7WorkerAE
 6807              		.section	.data.rel.ro.local._ZTVN14ThreadsTestCPP7WorkerAE,"awG",@progbits,_ZTVN14ThreadsTestCPP7W
 6808              		.align	3
 6811              	_ZTVN14ThreadsTestCPP7WorkerAE:
 6812 0000 00000000 		.dword	0
 6812      00000000 
 6813 0008 00000000 		.dword	0
 6813      00000000 
 6814 0010 00000000 		.dword	_ZN14ThreadsTestCPP7WorkerAD1Ev
 6814      00000000 
 6815 0018 00000000 		.dword	_ZN14ThreadsTestCPP7WorkerAD0Ev
 6815      00000000 
 6816 0020 00000000 		.dword	_ZN14ThreadsTestCPP7WorkerA3runEv
 6816      00000000 
 6817              		.weak	_ZTVN14ThreadsTestCPP7WorkerBE
 6818              		.section	.data.rel.ro.local._ZTVN14ThreadsTestCPP7WorkerBE,"awG",@progbits,_ZTVN14ThreadsTestCPP7W
 6819              		.align	3
 6822              	_ZTVN14ThreadsTestCPP7WorkerBE:
 6823 0000 00000000 		.dword	0
 6823      00000000 
 6824 0008 00000000 		.dword	0
 6824      00000000 
 6825 0010 00000000 		.dword	_ZN14ThreadsTestCPP7WorkerBD1Ev
 6825      00000000 
 6826 0018 00000000 		.dword	_ZN14ThreadsTestCPP7WorkerBD0Ev
 6826      00000000 
 6827 0020 00000000 		.dword	_ZN14ThreadsTestCPP7WorkerB3runEv
 6827      00000000 
 6828              		.weak	_ZTVN14ThreadsTestCPP7WorkerCE
 6829              		.section	.data.rel.ro.local._ZTVN14ThreadsTestCPP7WorkerCE,"awG",@progbits,_ZTVN14ThreadsTestCPP7W
 6830              		.align	3
 6833              	_ZTVN14ThreadsTestCPP7WorkerCE:
 6834 0000 00000000 		.dword	0
 6834      00000000 
GAS LISTING /tmp/ccBYUnRY.s 			page 164


 6835 0008 00000000 		.dword	0
 6835      00000000 
 6836 0010 00000000 		.dword	_ZN14ThreadsTestCPP7WorkerCD1Ev
 6836      00000000 
 6837 0018 00000000 		.dword	_ZN14ThreadsTestCPP7WorkerCD0Ev
 6837      00000000 
 6838 0020 00000000 		.dword	_ZN14ThreadsTestCPP7WorkerC3runEv
 6838      00000000 
 6839              		.weak	_ZTVN14ThreadsTestCPP7WorkerDE
 6840              		.section	.data.rel.ro.local._ZTVN14ThreadsTestCPP7WorkerDE,"awG",@progbits,_ZTVN14ThreadsTestCPP7W
 6841              		.align	3
 6844              	_ZTVN14ThreadsTestCPP7WorkerDE:
 6845 0000 00000000 		.dword	0
 6845      00000000 
 6846 0008 00000000 		.dword	0
 6846      00000000 
 6847 0010 00000000 		.dword	_ZN14ThreadsTestCPP7WorkerDD1Ev
 6847      00000000 
 6848 0018 00000000 		.dword	_ZN14ThreadsTestCPP7WorkerDD0Ev
 6848      00000000 
 6849 0020 00000000 		.dword	_ZN14ThreadsTestCPP7WorkerD3runEv
 6849      00000000 
 6850              		.weak	_ZTVN23ConsumerProducerSyncCPP16ProducerKeyboardE
 6851              		.section	.data.rel.ro.local._ZTVN23ConsumerProducerSyncCPP16ProducerKeyboardE,"awG",@progbits,_ZTV
 6852              		.align	3
 6855              	_ZTVN23ConsumerProducerSyncCPP16ProducerKeyboardE:
 6856 0000 00000000 		.dword	0
 6856      00000000 
 6857 0008 00000000 		.dword	0
 6857      00000000 
 6858 0010 00000000 		.dword	_ZN23ConsumerProducerSyncCPP16ProducerKeyboardD1Ev
 6858      00000000 
 6859 0018 00000000 		.dword	_ZN23ConsumerProducerSyncCPP16ProducerKeyboardD0Ev
 6859      00000000 
 6860 0020 00000000 		.dword	_ZN23ConsumerProducerSyncCPP16ProducerKeyboard3runEv
 6860      00000000 
 6861              		.weak	_ZTVN23ConsumerProducerSyncCPP8ProducerE
 6862              		.section	.data.rel.ro.local._ZTVN23ConsumerProducerSyncCPP8ProducerE,"awG",@progbits,_ZTVN23Consum
 6863              		.align	3
 6866              	_ZTVN23ConsumerProducerSyncCPP8ProducerE:
 6867 0000 00000000 		.dword	0
 6867      00000000 
 6868 0008 00000000 		.dword	0
 6868      00000000 
 6869 0010 00000000 		.dword	_ZN23ConsumerProducerSyncCPP8ProducerD1Ev
 6869      00000000 
 6870 0018 00000000 		.dword	_ZN23ConsumerProducerSyncCPP8ProducerD0Ev
 6870      00000000 
 6871 0020 00000000 		.dword	_ZN23ConsumerProducerSyncCPP8Producer3runEv
 6871      00000000 
 6872              		.weak	_ZTVN23ConsumerProducerSyncCPP8ConsumerE
 6873              		.section	.data.rel.ro.local._ZTVN23ConsumerProducerSyncCPP8ConsumerE,"awG",@progbits,_ZTVN23Consum
 6874              		.align	3
 6877              	_ZTVN23ConsumerProducerSyncCPP8ConsumerE:
 6878 0000 00000000 		.dword	0
 6878      00000000 
 6879 0008 00000000 		.dword	0
GAS LISTING /tmp/ccBYUnRY.s 			page 165


 6879      00000000 
 6880 0010 00000000 		.dword	_ZN23ConsumerProducerSyncCPP8ConsumerD1Ev
 6880      00000000 
 6881 0018 00000000 		.dword	_ZN23ConsumerProducerSyncCPP8ConsumerD0Ev
 6881      00000000 
 6882 0020 00000000 		.dword	_ZN23ConsumerProducerSyncCPP8Consumer3runEv
 6882      00000000 
 6883              		.weak	_ZTVN24ConsumerProducerAsyncCPP16ProducerKeyboradE
 6884              		.section	.data.rel.ro.local._ZTVN24ConsumerProducerAsyncCPP16ProducerKeyboradE,"awG",@progbits,_ZT
 6885              		.align	3
 6888              	_ZTVN24ConsumerProducerAsyncCPP16ProducerKeyboradE:
 6889 0000 00000000 		.dword	0
 6889      00000000 
 6890 0008 00000000 		.dword	0
 6890      00000000 
 6891 0010 00000000 		.dword	_ZN24ConsumerProducerAsyncCPP16ProducerKeyboradD1Ev
 6891      00000000 
 6892 0018 00000000 		.dword	_ZN24ConsumerProducerAsyncCPP16ProducerKeyboradD0Ev
 6892      00000000 
 6893 0020 00000000 		.dword	_ZN24ConsumerProducerAsyncCPP16ProducerKeyborad3runEv
 6893      00000000 
 6894              		.weak	_ZTVN24ConsumerProducerAsyncCPP8ProducerE
 6895              		.section	.data.rel.ro.local._ZTVN24ConsumerProducerAsyncCPP8ProducerE,"awG",@progbits,_ZTVN24Consu
 6896              		.align	3
 6899              	_ZTVN24ConsumerProducerAsyncCPP8ProducerE:
 6900 0000 00000000 		.dword	0
 6900      00000000 
 6901 0008 00000000 		.dword	0
 6901      00000000 
 6902 0010 00000000 		.dword	_ZN24ConsumerProducerAsyncCPP8ProducerD1Ev
 6902      00000000 
 6903 0018 00000000 		.dword	_ZN24ConsumerProducerAsyncCPP8ProducerD0Ev
 6903      00000000 
 6904 0020 00000000 		.dword	_ZN24ConsumerProducerAsyncCPP8Producer3runEv
 6904      00000000 
 6905              		.weak	_ZTVN24ConsumerProducerAsyncCPP8ConsumerE
 6906              		.section	.data.rel.ro.local._ZTVN24ConsumerProducerAsyncCPP8ConsumerE,"awG",@progbits,_ZTVN24Consu
 6907              		.align	3
 6910              	_ZTVN24ConsumerProducerAsyncCPP8ConsumerE:
 6911 0000 00000000 		.dword	0
 6911      00000000 
 6912 0008 00000000 		.dword	0
 6912      00000000 
 6913 0010 00000000 		.dword	_ZN24ConsumerProducerAsyncCPP8ConsumerD1Ev
 6913      00000000 
 6914 0018 00000000 		.dword	_ZN24ConsumerProducerAsyncCPP8ConsumerD0Ev
 6914      00000000 
 6915 0020 00000000 		.dword	_ZN24ConsumerProducerAsyncCPP8Consumer3runEv
 6915      00000000 
 6916              		.weak	_ZTVN19PeriodicThreadsTest1AE
 6917              		.section	.data.rel.ro.local._ZTVN19PeriodicThreadsTest1AE,"awG",@progbits,_ZTVN19PeriodicThreadsTe
 6918              		.align	3
 6921              	_ZTVN19PeriodicThreadsTest1AE:
 6922 0000 00000000 		.dword	0
 6922      00000000 
 6923 0008 00000000 		.dword	0
 6923      00000000 
GAS LISTING /tmp/ccBYUnRY.s 			page 166


 6924 0010 00000000 		.dword	_ZN19PeriodicThreadsTest1AD1Ev
 6924      00000000 
 6925 0018 00000000 		.dword	_ZN19PeriodicThreadsTest1AD0Ev
 6925      00000000 
 6926 0020 00000000 		.dword	_ZN19PeriodicThreadsTest1A3runEv
 6926      00000000 
 6927 0028 00000000 		.dword	_ZN19PeriodicThreadsTest1A18periodicActivationEv
 6927      00000000 
 6928              		.weak	_ZTVN19PeriodicThreadsTest1BE
 6929              		.section	.data.rel.ro.local._ZTVN19PeriodicThreadsTest1BE,"awG",@progbits,_ZTVN19PeriodicThreadsTe
 6930              		.align	3
 6933              	_ZTVN19PeriodicThreadsTest1BE:
 6934 0000 00000000 		.dword	0
 6934      00000000 
 6935 0008 00000000 		.dword	0
 6935      00000000 
 6936 0010 00000000 		.dword	_ZN19PeriodicThreadsTest1BD1Ev
 6936      00000000 
 6937 0018 00000000 		.dword	_ZN19PeriodicThreadsTest1BD0Ev
 6937      00000000 
 6938 0020 00000000 		.dword	_ZN19PeriodicThreadsTest1B3runEv
 6938      00000000 
 6939 0028 00000000 		.dword	_ZN19PeriodicThreadsTest1B18periodicActivationEv
 6939      00000000 
 6940              		.weak	_ZTVN19PeriodicThreadsTest1CE
 6941              		.section	.data.rel.ro.local._ZTVN19PeriodicThreadsTest1CE,"awG",@progbits,_ZTVN19PeriodicThreadsTe
 6942              		.align	3
 6945              	_ZTVN19PeriodicThreadsTest1CE:
 6946 0000 00000000 		.dword	0
 6946      00000000 
 6947 0008 00000000 		.dword	0
 6947      00000000 
 6948 0010 00000000 		.dword	_ZN19PeriodicThreadsTest1CD1Ev
 6948      00000000 
 6949 0018 00000000 		.dword	_ZN19PeriodicThreadsTest1CD0Ev
 6949      00000000 
 6950 0020 00000000 		.dword	_ZN19PeriodicThreadsTest1C3runEv
 6950      00000000 
 6951 0028 00000000 		.dword	_ZN19PeriodicThreadsTest1C18periodicActivationEv
 6951      00000000 
 6952              		.globl	_ZN19PeriodicThreadsTest15myOwnWaitForAllE
 6953              		.globl	_ZN19PeriodicThreadsTest10myOwnMutexE
 6954              		.globl	_ZN24ConsumerProducerAsyncCPP9threadEndE
 6955              		.globl	_ZN24ConsumerProducerAsyncCPP10waitForAllE
 6956              		.globl	_ZN15ThreadSleepTest8finishedE
 6957              		.globl	_ZN23ConsumerProducerSyncCPP9threadEndE
 6958              		.globl	_ZN23ConsumerProducerSyncCPP10waitForAllE
 6959              		.globl	_ZN21ConsumerProducerSyncC9threadEndE
 6960              		.globl	_ZN21ConsumerProducerSyncC10waitForAllE
 6961              		.globl	_ZN14ThreadsTestCPP9finishedDE
 6962              		.globl	_ZN14ThreadsTestCPP9finishedCE
 6963              		.globl	_ZN14ThreadsTestCPP9finishedBE
 6964              		.globl	_ZN14ThreadsTestCPP9finishedAE
 6965              		.globl	_ZN12ThreadsTestC9finishedDE
 6966              		.globl	_ZN12ThreadsTestC9finishedCE
 6967              		.globl	_ZN12ThreadsTestC9finishedBE
 6968              		.globl	_ZN12ThreadsTestC9finishedAE
GAS LISTING /tmp/ccBYUnRY.s 			page 167


 6969              		.bss
 6970              		.align	3
 6971              		.set	.LANCHOR0,. + 0
 6974              	_ZN12ThreadsTestC9finishedAE:
 6975 0000 00       		.zero	1
 6978              	_ZN12ThreadsTestC9finishedBE:
 6979 0001 00       		.zero	1
 6980 0002 0000     		.zero	2
 6983              	_ZN21ConsumerProducerSyncC9threadEndE:
 6984 0004 00000000 		.zero	4
 6987              	_ZN24ConsumerProducerAsyncCPP9threadEndE:
 6988 0008 00000000 		.zero	4
 6989 000c 00000000 		.zero	4
 6992              	_ZN19PeriodicThreadsTest10myOwnMutexE:
 6993 0010 00000000 		.zero	8
 6993      00000000 
 6996              	_ZN15ThreadSleepTest8finishedE:
 6997 0018 0000     		.zero	2
 6998 001a 00000000 		.zero	6
 6998      0000
 7001              	_ZN19PeriodicThreadsTest15myOwnWaitForAllE:
 7002 0020 00000000 		.zero	8
 7002      00000000 
 7005              	_ZN12ThreadsTestC9finishedCE:
 7006 0028 00       		.zero	1
 7009              	_ZN12ThreadsTestC9finishedDE:
 7010 0029 00       		.zero	1
 7013              	_ZN14ThreadsTestCPP9finishedAE:
 7014 002a 00       		.zero	1
 7017              	_ZN14ThreadsTestCPP9finishedBE:
 7018 002b 00       		.zero	1
 7021              	_ZN14ThreadsTestCPP9finishedCE:
 7022 002c 00       		.zero	1
 7025              	_ZN14ThreadsTestCPP9finishedDE:
 7026 002d 00       		.zero	1
 7027 002e 0000     		.zero	2
 7030              	_ZN21ConsumerProducerSyncC10waitForAllE:
 7031 0030 00000000 		.zero	8
 7031      00000000 
 7034              	_ZN23ConsumerProducerSyncCPP9threadEndE:
 7035 0038 00000000 		.zero	4
 7036 003c 00000000 		.zero	4
 7039              	_ZN23ConsumerProducerSyncCPP10waitForAllE:
 7040 0040 00000000 		.zero	8
 7040      00000000 
 7043              	_ZN24ConsumerProducerAsyncCPP10waitForAllE:
 7044 0048 00000000 		.zero	8
 7044      00000000 
 7045              		.text
 7046              	.Letext0:
 7047              		.file 12 "src/Code/../../h/Code/InterruptHandling/../../../lib/hw.h"
 7048              		.file 13 "src/Code/../../h/Code/Console/../Semaphore/KernelSemaphore.hpp"
 7049              		.file 14 "src/Code/../../h/Code/Console/../SystemCalls/syscall_c.h"
 7050              		.file 15 "src/Code/../../h/Code/Console/KernelBuffer.hpp"
 7051              		.file 16 "src/Code/../../h/Testing/Testing_OS1/Buffer_CPP_API.hpp"
 7052              		.file 17 "src/Code/../../h/Testing/Testing_OS1/Printing.hpp"
 23487              		.align	3
GAS LISTING /tmp/ccBYUnRY.s 			page 168


 23490              	DW.ref.__gxx_personality_v0:
 23491 0000 00000000 		.dword	__gxx_personality_v0
 23491      00000000 
 23492              		.ident	"GCC: (Ubuntu 9.4.0-1ubuntu1~20.04) 9.4.0"
 23493              		.section	.note.GNU-stack,"",@progbits
GAS LISTING /tmp/ccBYUnRY.s 			page 169


DEFINED SYMBOLS
                            *ABS*:0000000000000000 main.cpp
     /tmp/ccBYUnRY.s:9      .text:0000000000000000 _Z8userMainPv
     /tmp/ccBYUnRY.s:13     .text:0000000000000000 .L0 
     /tmp/ccBYUnRY.s:15     .text:0000000000000000 .L0 
     /tmp/ccBYUnRY.s:16     .text:0000000000000004 .L0 
     /tmp/ccBYUnRY.s:18     .text:0000000000000008 .L0 
     /tmp/ccBYUnRY.s:20     .text:000000000000000c .L0 
     /tmp/ccBYUnRY.s:22     .text:000000000000000c .L0 
     /tmp/ccBYUnRY.s:23     .text:0000000000000010 .L0 
     /tmp/ccBYUnRY.s:24     .text:0000000000000010 .L0 
     /tmp/ccBYUnRY.s:26     .text:0000000000000014 .L0 
     /tmp/ccBYUnRY.s:28     .text:0000000000000018 .L0 
     /tmp/ccBYUnRY.s:45     .text:0000000000000018 _ZN12ThreadsTestC11workerBodyAEPv
     /tmp/ccBYUnRY.s:49     .text:0000000000000018 .L0 
     /tmp/ccBYUnRY.s:51     .text:0000000000000018 .L0 
     /tmp/ccBYUnRY.s:52     .text:000000000000001c .L0 
     /tmp/ccBYUnRY.s:57     .text:000000000000002c .L0 
     /tmp/ccBYUnRY.s:58     .text:000000000000002c .L0 
     /tmp/ccBYUnRY.s:59     .text:000000000000002c .L0 
     /tmp/ccBYUnRY.s:60     .text:000000000000002c .L0 
     /tmp/ccBYUnRY.s:62     .text:0000000000000030 .L0 
     /tmp/ccBYUnRY.s:66     .text:0000000000000030 .L0 
     /tmp/ccBYUnRY.s:67     .text:0000000000000030 .L0 
     /tmp/ccBYUnRY.s:75     .text:0000000000000038 .L0 
     /tmp/ccBYUnRY.s:76     .text:0000000000000038 .L0 
     /tmp/ccBYUnRY.s:80     .text:0000000000000040 .L0 
     /tmp/ccBYUnRY.s:84     .text:0000000000000044 .L0 
     /tmp/ccBYUnRY.s:90     .text:0000000000000050 .L0 
     /tmp/ccBYUnRY.s:94     .text:0000000000000054 .L0 
     /tmp/ccBYUnRY.s:98     .text:0000000000000060 .L0 
     /tmp/ccBYUnRY.s:108    .text:0000000000000068 .L0 
     /tmp/ccBYUnRY.s:112    .text:000000000000006c .L0 
     /tmp/ccBYUnRY.s:116    .text:0000000000000074 .L0 
     /tmp/ccBYUnRY.s:117    .text:0000000000000074 .L0 
     /tmp/ccBYUnRY.s:121    .text:0000000000000084 .L0 
     /tmp/ccBYUnRY.s:122    .text:0000000000000084 .L0 
     /tmp/ccBYUnRY.s:128    .text:0000000000000098 .L0 
     /tmp/ccBYUnRY.s:129    .text:0000000000000098 .L0 
     /tmp/ccBYUnRY.s:134    .text:00000000000000a8 .L0 
     /tmp/ccBYUnRY.s:135    .text:00000000000000a8 .L0 
     /tmp/ccBYUnRY.s:143    .text:00000000000000b0 .L0 
     /tmp/ccBYUnRY.s:144    .text:00000000000000b0 .L0 
     /tmp/ccBYUnRY.s:148    .text:00000000000000c0 .L0 
     /tmp/ccBYUnRY.s:149    .text:00000000000000c0 .L0 
     /tmp/ccBYUnRY.s:152    .text:00000000000000cc .L0 
     /tmp/ccBYUnRY.s:153    .text:00000000000000d0 .L0 
     /tmp/ccBYUnRY.s:155    .text:00000000000000d4 .L0 
     /tmp/ccBYUnRY.s:156    .text:00000000000000d4 .L0 
     /tmp/ccBYUnRY.s:158    .text:00000000000000d8 .L0 
     /tmp/ccBYUnRY.s:160    .text:00000000000000dc .L0 
     /tmp/ccBYUnRY.s:163    .text:00000000000000e0 .L0 
     /tmp/ccBYUnRY.s:165    .text:00000000000000e4 .L0 
     /tmp/ccBYUnRY.s:179    .text:00000000000000e4 _ZN12ThreadsTestC11workerBodyBEPv
     /tmp/ccBYUnRY.s:182    .text:00000000000000e4 .L0 
     /tmp/ccBYUnRY.s:184    .text:00000000000000e4 .L0 
     /tmp/ccBYUnRY.s:185    .text:00000000000000e8 .L0 
GAS LISTING /tmp/ccBYUnRY.s 			page 170


     /tmp/ccBYUnRY.s:190    .text:00000000000000f8 .L0 
     /tmp/ccBYUnRY.s:191    .text:00000000000000f8 .L0 
     /tmp/ccBYUnRY.s:192    .text:00000000000000f8 .L0 
     /tmp/ccBYUnRY.s:193    .text:00000000000000f8 .L0 
     /tmp/ccBYUnRY.s:195    .text:00000000000000fc .L0 
     /tmp/ccBYUnRY.s:199    .text:00000000000000fc .L0 
     /tmp/ccBYUnRY.s:200    .text:00000000000000fc .L0 
     /tmp/ccBYUnRY.s:208    .text:0000000000000104 .L0 
     /tmp/ccBYUnRY.s:209    .text:0000000000000104 .L0 
     /tmp/ccBYUnRY.s:213    .text:000000000000010c .L0 
     /tmp/ccBYUnRY.s:217    .text:0000000000000110 .L0 
     /tmp/ccBYUnRY.s:223    .text:000000000000011c .L0 
     /tmp/ccBYUnRY.s:227    .text:0000000000000120 .L0 
     /tmp/ccBYUnRY.s:231    .text:000000000000012c .L0 
     /tmp/ccBYUnRY.s:241    .text:0000000000000134 .L0 
     /tmp/ccBYUnRY.s:245    .text:0000000000000138 .L0 
     /tmp/ccBYUnRY.s:249    .text:0000000000000140 .L0 
     /tmp/ccBYUnRY.s:250    .text:0000000000000140 .L0 
     /tmp/ccBYUnRY.s:254    .text:0000000000000150 .L0 
     /tmp/ccBYUnRY.s:255    .text:0000000000000150 .L0 
     /tmp/ccBYUnRY.s:261    .text:0000000000000164 .L0 
     /tmp/ccBYUnRY.s:262    .text:0000000000000164 .L0 
     /tmp/ccBYUnRY.s:267    .text:0000000000000174 .L0 
     /tmp/ccBYUnRY.s:268    .text:0000000000000174 .L0 
     /tmp/ccBYUnRY.s:276    .text:000000000000017c .L0 
     /tmp/ccBYUnRY.s:277    .text:000000000000017c .L0 
     /tmp/ccBYUnRY.s:281    .text:000000000000018c .L0 
     /tmp/ccBYUnRY.s:282    .text:000000000000018c .L0 
     /tmp/ccBYUnRY.s:285    .text:0000000000000198 .L0 
     /tmp/ccBYUnRY.s:286    .text:0000000000000198 .L0 
     /tmp/ccBYUnRY.s:289    .text:00000000000001a0 .L0 
     /tmp/ccBYUnRY.s:290    .text:00000000000001a4 .L0 
     /tmp/ccBYUnRY.s:292    .text:00000000000001a8 .L0 
     /tmp/ccBYUnRY.s:293    .text:00000000000001a8 .L0 
     /tmp/ccBYUnRY.s:295    .text:00000000000001ac .L0 
     /tmp/ccBYUnRY.s:297    .text:00000000000001b0 .L0 
     /tmp/ccBYUnRY.s:300    .text:00000000000001b4 .L0 
     /tmp/ccBYUnRY.s:302    .text:00000000000001b8 .L0 
     /tmp/ccBYUnRY.s:309    .text._ZN14ThreadsTestCPP7WorkerAD2Ev:0000000000000000 _ZN14ThreadsTestCPP7WorkerAD2Ev
     /tmp/ccBYUnRY.s:313    .text._ZN14ThreadsTestCPP7WorkerAD2Ev:0000000000000000 .L0 
     /tmp/ccBYUnRY.s:315    .text._ZN14ThreadsTestCPP7WorkerAD2Ev:0000000000000000 .L0 
     /tmp/ccBYUnRY.s:316    .text._ZN14ThreadsTestCPP7WorkerAD2Ev:0000000000000004 .L0 
     /tmp/ccBYUnRY.s:319    .text._ZN14ThreadsTestCPP7WorkerAD2Ev:000000000000000c .L0 
     /tmp/ccBYUnRY.s:320    .text._ZN14ThreadsTestCPP7WorkerAD2Ev:000000000000000c .L0 
     /tmp/ccBYUnRY.s:322    .text._ZN14ThreadsTestCPP7WorkerAD2Ev:0000000000000010 .L0 
     /tmp/ccBYUnRY.s:6811   .data.rel.ro.local._ZTVN14ThreadsTestCPP7WorkerAE:0000000000000000 _ZTVN14ThreadsTestCPP7WorkerAE
     /tmp/ccBYUnRY.s:325    .text._ZN14ThreadsTestCPP7WorkerAD2Ev:0000000000000010 .L0 
     /tmp/ccBYUnRY.s:331    .text._ZN14ThreadsTestCPP7WorkerAD2Ev:0000000000000028 .L0 
     /tmp/ccBYUnRY.s:333    .text._ZN14ThreadsTestCPP7WorkerAD2Ev:000000000000002c .L0 
     /tmp/ccBYUnRY.s:334    .text._ZN14ThreadsTestCPP7WorkerAD2Ev:000000000000002c .L0 
     /tmp/ccBYUnRY.s:336    .text._ZN14ThreadsTestCPP7WorkerAD2Ev:0000000000000030 .L0 
     /tmp/ccBYUnRY.s:338    .text._ZN14ThreadsTestCPP7WorkerAD2Ev:0000000000000034 .L0 
     /tmp/ccBYUnRY.s:309    .text._ZN14ThreadsTestCPP7WorkerAD2Ev:0000000000000000 _ZN14ThreadsTestCPP7WorkerAD1Ev
     /tmp/ccBYUnRY.s:347    .text._ZN14ThreadsTestCPP7WorkerAD0Ev:0000000000000000 _ZN14ThreadsTestCPP7WorkerAD0Ev
     /tmp/ccBYUnRY.s:350    .text._ZN14ThreadsTestCPP7WorkerAD0Ev:0000000000000000 .L0 
     /tmp/ccBYUnRY.s:352    .text._ZN14ThreadsTestCPP7WorkerAD0Ev:0000000000000000 .L0 
     /tmp/ccBYUnRY.s:353    .text._ZN14ThreadsTestCPP7WorkerAD0Ev:0000000000000004 .L0 
GAS LISTING /tmp/ccBYUnRY.s 			page 171


     /tmp/ccBYUnRY.s:357    .text._ZN14ThreadsTestCPP7WorkerAD0Ev:0000000000000010 .L0 
     /tmp/ccBYUnRY.s:358    .text._ZN14ThreadsTestCPP7WorkerAD0Ev:0000000000000010 .L0 
     /tmp/ccBYUnRY.s:359    .text._ZN14ThreadsTestCPP7WorkerAD0Ev:0000000000000010 .L0 
     /tmp/ccBYUnRY.s:361    .text._ZN14ThreadsTestCPP7WorkerAD0Ev:0000000000000014 .L0 
     /tmp/ccBYUnRY.s:367    .text._ZN14ThreadsTestCPP7WorkerAD0Ev:0000000000000018 .L0 
     /tmp/ccBYUnRY.s:377    .text._ZN14ThreadsTestCPP7WorkerAD0Ev:000000000000003c .L0 
     /tmp/ccBYUnRY.s:379    .text._ZN14ThreadsTestCPP7WorkerAD0Ev:0000000000000040 .L0 
     /tmp/ccBYUnRY.s:380    .text._ZN14ThreadsTestCPP7WorkerAD0Ev:0000000000000040 .L0 
     /tmp/ccBYUnRY.s:382    .text._ZN14ThreadsTestCPP7WorkerAD0Ev:0000000000000044 .L0 
     /tmp/ccBYUnRY.s:385    .text._ZN14ThreadsTestCPP7WorkerAD0Ev:0000000000000048 .L0 
     /tmp/ccBYUnRY.s:387    .text._ZN14ThreadsTestCPP7WorkerAD0Ev:000000000000004c .L0 
     /tmp/ccBYUnRY.s:394    .text._ZN14ThreadsTestCPP7WorkerBD2Ev:0000000000000000 _ZN14ThreadsTestCPP7WorkerBD2Ev
     /tmp/ccBYUnRY.s:397    .text._ZN14ThreadsTestCPP7WorkerBD2Ev:0000000000000000 .L0 
     /tmp/ccBYUnRY.s:399    .text._ZN14ThreadsTestCPP7WorkerBD2Ev:0000000000000000 .L0 
     /tmp/ccBYUnRY.s:400    .text._ZN14ThreadsTestCPP7WorkerBD2Ev:0000000000000004 .L0 
     /tmp/ccBYUnRY.s:403    .text._ZN14ThreadsTestCPP7WorkerBD2Ev:000000000000000c .L0 
     /tmp/ccBYUnRY.s:404    .text._ZN14ThreadsTestCPP7WorkerBD2Ev:000000000000000c .L0 
     /tmp/ccBYUnRY.s:406    .text._ZN14ThreadsTestCPP7WorkerBD2Ev:0000000000000010 .L0 
     /tmp/ccBYUnRY.s:6822   .data.rel.ro.local._ZTVN14ThreadsTestCPP7WorkerBE:0000000000000000 _ZTVN14ThreadsTestCPP7WorkerBE
     /tmp/ccBYUnRY.s:409    .text._ZN14ThreadsTestCPP7WorkerBD2Ev:0000000000000010 .L0 
     /tmp/ccBYUnRY.s:415    .text._ZN14ThreadsTestCPP7WorkerBD2Ev:0000000000000028 .L0 
     /tmp/ccBYUnRY.s:417    .text._ZN14ThreadsTestCPP7WorkerBD2Ev:000000000000002c .L0 
     /tmp/ccBYUnRY.s:418    .text._ZN14ThreadsTestCPP7WorkerBD2Ev:000000000000002c .L0 
     /tmp/ccBYUnRY.s:420    .text._ZN14ThreadsTestCPP7WorkerBD2Ev:0000000000000030 .L0 
     /tmp/ccBYUnRY.s:422    .text._ZN14ThreadsTestCPP7WorkerBD2Ev:0000000000000034 .L0 
     /tmp/ccBYUnRY.s:394    .text._ZN14ThreadsTestCPP7WorkerBD2Ev:0000000000000000 _ZN14ThreadsTestCPP7WorkerBD1Ev
     /tmp/ccBYUnRY.s:431    .text._ZN14ThreadsTestCPP7WorkerBD0Ev:0000000000000000 _ZN14ThreadsTestCPP7WorkerBD0Ev
     /tmp/ccBYUnRY.s:434    .text._ZN14ThreadsTestCPP7WorkerBD0Ev:0000000000000000 .L0 
     /tmp/ccBYUnRY.s:436    .text._ZN14ThreadsTestCPP7WorkerBD0Ev:0000000000000000 .L0 
     /tmp/ccBYUnRY.s:437    .text._ZN14ThreadsTestCPP7WorkerBD0Ev:0000000000000004 .L0 
     /tmp/ccBYUnRY.s:441    .text._ZN14ThreadsTestCPP7WorkerBD0Ev:0000000000000010 .L0 
     /tmp/ccBYUnRY.s:442    .text._ZN14ThreadsTestCPP7WorkerBD0Ev:0000000000000010 .L0 
     /tmp/ccBYUnRY.s:443    .text._ZN14ThreadsTestCPP7WorkerBD0Ev:0000000000000010 .L0 
     /tmp/ccBYUnRY.s:445    .text._ZN14ThreadsTestCPP7WorkerBD0Ev:0000000000000014 .L0 
     /tmp/ccBYUnRY.s:451    .text._ZN14ThreadsTestCPP7WorkerBD0Ev:0000000000000018 .L0 
     /tmp/ccBYUnRY.s:461    .text._ZN14ThreadsTestCPP7WorkerBD0Ev:000000000000003c .L0 
     /tmp/ccBYUnRY.s:463    .text._ZN14ThreadsTestCPP7WorkerBD0Ev:0000000000000040 .L0 
     /tmp/ccBYUnRY.s:464    .text._ZN14ThreadsTestCPP7WorkerBD0Ev:0000000000000040 .L0 
     /tmp/ccBYUnRY.s:466    .text._ZN14ThreadsTestCPP7WorkerBD0Ev:0000000000000044 .L0 
     /tmp/ccBYUnRY.s:469    .text._ZN14ThreadsTestCPP7WorkerBD0Ev:0000000000000048 .L0 
     /tmp/ccBYUnRY.s:471    .text._ZN14ThreadsTestCPP7WorkerBD0Ev:000000000000004c .L0 
     /tmp/ccBYUnRY.s:478    .text._ZN14ThreadsTestCPP7WorkerCD2Ev:0000000000000000 _ZN14ThreadsTestCPP7WorkerCD2Ev
     /tmp/ccBYUnRY.s:481    .text._ZN14ThreadsTestCPP7WorkerCD2Ev:0000000000000000 .L0 
     /tmp/ccBYUnRY.s:483    .text._ZN14ThreadsTestCPP7WorkerCD2Ev:0000000000000000 .L0 
     /tmp/ccBYUnRY.s:484    .text._ZN14ThreadsTestCPP7WorkerCD2Ev:0000000000000004 .L0 
     /tmp/ccBYUnRY.s:487    .text._ZN14ThreadsTestCPP7WorkerCD2Ev:000000000000000c .L0 
     /tmp/ccBYUnRY.s:488    .text._ZN14ThreadsTestCPP7WorkerCD2Ev:000000000000000c .L0 
     /tmp/ccBYUnRY.s:490    .text._ZN14ThreadsTestCPP7WorkerCD2Ev:0000000000000010 .L0 
     /tmp/ccBYUnRY.s:6833   .data.rel.ro.local._ZTVN14ThreadsTestCPP7WorkerCE:0000000000000000 _ZTVN14ThreadsTestCPP7WorkerCE
     /tmp/ccBYUnRY.s:493    .text._ZN14ThreadsTestCPP7WorkerCD2Ev:0000000000000010 .L0 
     /tmp/ccBYUnRY.s:499    .text._ZN14ThreadsTestCPP7WorkerCD2Ev:0000000000000028 .L0 
     /tmp/ccBYUnRY.s:501    .text._ZN14ThreadsTestCPP7WorkerCD2Ev:000000000000002c .L0 
     /tmp/ccBYUnRY.s:502    .text._ZN14ThreadsTestCPP7WorkerCD2Ev:000000000000002c .L0 
     /tmp/ccBYUnRY.s:504    .text._ZN14ThreadsTestCPP7WorkerCD2Ev:0000000000000030 .L0 
     /tmp/ccBYUnRY.s:506    .text._ZN14ThreadsTestCPP7WorkerCD2Ev:0000000000000034 .L0 
     /tmp/ccBYUnRY.s:478    .text._ZN14ThreadsTestCPP7WorkerCD2Ev:0000000000000000 _ZN14ThreadsTestCPP7WorkerCD1Ev
     /tmp/ccBYUnRY.s:515    .text._ZN14ThreadsTestCPP7WorkerCD0Ev:0000000000000000 _ZN14ThreadsTestCPP7WorkerCD0Ev
GAS LISTING /tmp/ccBYUnRY.s 			page 172


     /tmp/ccBYUnRY.s:518    .text._ZN14ThreadsTestCPP7WorkerCD0Ev:0000000000000000 .L0 
     /tmp/ccBYUnRY.s:520    .text._ZN14ThreadsTestCPP7WorkerCD0Ev:0000000000000000 .L0 
     /tmp/ccBYUnRY.s:521    .text._ZN14ThreadsTestCPP7WorkerCD0Ev:0000000000000004 .L0 
     /tmp/ccBYUnRY.s:525    .text._ZN14ThreadsTestCPP7WorkerCD0Ev:0000000000000010 .L0 
     /tmp/ccBYUnRY.s:526    .text._ZN14ThreadsTestCPP7WorkerCD0Ev:0000000000000010 .L0 
     /tmp/ccBYUnRY.s:527    .text._ZN14ThreadsTestCPP7WorkerCD0Ev:0000000000000010 .L0 
     /tmp/ccBYUnRY.s:529    .text._ZN14ThreadsTestCPP7WorkerCD0Ev:0000000000000014 .L0 
     /tmp/ccBYUnRY.s:535    .text._ZN14ThreadsTestCPP7WorkerCD0Ev:0000000000000018 .L0 
     /tmp/ccBYUnRY.s:545    .text._ZN14ThreadsTestCPP7WorkerCD0Ev:000000000000003c .L0 
     /tmp/ccBYUnRY.s:547    .text._ZN14ThreadsTestCPP7WorkerCD0Ev:0000000000000040 .L0 
     /tmp/ccBYUnRY.s:548    .text._ZN14ThreadsTestCPP7WorkerCD0Ev:0000000000000040 .L0 
     /tmp/ccBYUnRY.s:550    .text._ZN14ThreadsTestCPP7WorkerCD0Ev:0000000000000044 .L0 
     /tmp/ccBYUnRY.s:553    .text._ZN14ThreadsTestCPP7WorkerCD0Ev:0000000000000048 .L0 
     /tmp/ccBYUnRY.s:555    .text._ZN14ThreadsTestCPP7WorkerCD0Ev:000000000000004c .L0 
     /tmp/ccBYUnRY.s:562    .text._ZN14ThreadsTestCPP7WorkerDD2Ev:0000000000000000 _ZN14ThreadsTestCPP7WorkerDD2Ev
     /tmp/ccBYUnRY.s:565    .text._ZN14ThreadsTestCPP7WorkerDD2Ev:0000000000000000 .L0 
     /tmp/ccBYUnRY.s:567    .text._ZN14ThreadsTestCPP7WorkerDD2Ev:0000000000000000 .L0 
     /tmp/ccBYUnRY.s:568    .text._ZN14ThreadsTestCPP7WorkerDD2Ev:0000000000000004 .L0 
     /tmp/ccBYUnRY.s:571    .text._ZN14ThreadsTestCPP7WorkerDD2Ev:000000000000000c .L0 
     /tmp/ccBYUnRY.s:572    .text._ZN14ThreadsTestCPP7WorkerDD2Ev:000000000000000c .L0 
     /tmp/ccBYUnRY.s:574    .text._ZN14ThreadsTestCPP7WorkerDD2Ev:0000000000000010 .L0 
     /tmp/ccBYUnRY.s:6844   .data.rel.ro.local._ZTVN14ThreadsTestCPP7WorkerDE:0000000000000000 _ZTVN14ThreadsTestCPP7WorkerDE
     /tmp/ccBYUnRY.s:577    .text._ZN14ThreadsTestCPP7WorkerDD2Ev:0000000000000010 .L0 
     /tmp/ccBYUnRY.s:583    .text._ZN14ThreadsTestCPP7WorkerDD2Ev:0000000000000028 .L0 
     /tmp/ccBYUnRY.s:585    .text._ZN14ThreadsTestCPP7WorkerDD2Ev:000000000000002c .L0 
     /tmp/ccBYUnRY.s:586    .text._ZN14ThreadsTestCPP7WorkerDD2Ev:000000000000002c .L0 
     /tmp/ccBYUnRY.s:588    .text._ZN14ThreadsTestCPP7WorkerDD2Ev:0000000000000030 .L0 
     /tmp/ccBYUnRY.s:590    .text._ZN14ThreadsTestCPP7WorkerDD2Ev:0000000000000034 .L0 
     /tmp/ccBYUnRY.s:562    .text._ZN14ThreadsTestCPP7WorkerDD2Ev:0000000000000000 _ZN14ThreadsTestCPP7WorkerDD1Ev
     /tmp/ccBYUnRY.s:599    .text._ZN14ThreadsTestCPP7WorkerDD0Ev:0000000000000000 _ZN14ThreadsTestCPP7WorkerDD0Ev
     /tmp/ccBYUnRY.s:602    .text._ZN14ThreadsTestCPP7WorkerDD0Ev:0000000000000000 .L0 
     /tmp/ccBYUnRY.s:604    .text._ZN14ThreadsTestCPP7WorkerDD0Ev:0000000000000000 .L0 
     /tmp/ccBYUnRY.s:605    .text._ZN14ThreadsTestCPP7WorkerDD0Ev:0000000000000004 .L0 
     /tmp/ccBYUnRY.s:609    .text._ZN14ThreadsTestCPP7WorkerDD0Ev:0000000000000010 .L0 
     /tmp/ccBYUnRY.s:610    .text._ZN14ThreadsTestCPP7WorkerDD0Ev:0000000000000010 .L0 
     /tmp/ccBYUnRY.s:611    .text._ZN14ThreadsTestCPP7WorkerDD0Ev:0000000000000010 .L0 
     /tmp/ccBYUnRY.s:613    .text._ZN14ThreadsTestCPP7WorkerDD0Ev:0000000000000014 .L0 
     /tmp/ccBYUnRY.s:619    .text._ZN14ThreadsTestCPP7WorkerDD0Ev:0000000000000018 .L0 
     /tmp/ccBYUnRY.s:629    .text._ZN14ThreadsTestCPP7WorkerDD0Ev:000000000000003c .L0 
     /tmp/ccBYUnRY.s:631    .text._ZN14ThreadsTestCPP7WorkerDD0Ev:0000000000000040 .L0 
     /tmp/ccBYUnRY.s:632    .text._ZN14ThreadsTestCPP7WorkerDD0Ev:0000000000000040 .L0 
     /tmp/ccBYUnRY.s:634    .text._ZN14ThreadsTestCPP7WorkerDD0Ev:0000000000000044 .L0 
     /tmp/ccBYUnRY.s:637    .text._ZN14ThreadsTestCPP7WorkerDD0Ev:0000000000000048 .L0 
     /tmp/ccBYUnRY.s:639    .text._ZN14ThreadsTestCPP7WorkerDD0Ev:000000000000004c .L0 
     /tmp/ccBYUnRY.s:646    .text._ZN23ConsumerProducerSyncCPP8ConsumerD2Ev:0000000000000000 _ZN23ConsumerProducerSyncCPP8ConsumerD2Ev
     /tmp/ccBYUnRY.s:650    .text._ZN23ConsumerProducerSyncCPP8ConsumerD2Ev:0000000000000000 .L0 
     /tmp/ccBYUnRY.s:652    .text._ZN23ConsumerProducerSyncCPP8ConsumerD2Ev:0000000000000000 .L0 
     /tmp/ccBYUnRY.s:653    .text._ZN23ConsumerProducerSyncCPP8ConsumerD2Ev:0000000000000004 .L0 
     /tmp/ccBYUnRY.s:656    .text._ZN23ConsumerProducerSyncCPP8ConsumerD2Ev:000000000000000c .L0 
     /tmp/ccBYUnRY.s:657    .text._ZN23ConsumerProducerSyncCPP8ConsumerD2Ev:000000000000000c .L0 
     /tmp/ccBYUnRY.s:659    .text._ZN23ConsumerProducerSyncCPP8ConsumerD2Ev:0000000000000010 .L0 
     /tmp/ccBYUnRY.s:6877   .data.rel.ro.local._ZTVN23ConsumerProducerSyncCPP8ConsumerE:0000000000000000 _ZTVN23ConsumerProducerSyncCPP8ConsumerE
     /tmp/ccBYUnRY.s:662    .text._ZN23ConsumerProducerSyncCPP8ConsumerD2Ev:0000000000000010 .L0 
     /tmp/ccBYUnRY.s:668    .text._ZN23ConsumerProducerSyncCPP8ConsumerD2Ev:0000000000000028 .L0 
     /tmp/ccBYUnRY.s:670    .text._ZN23ConsumerProducerSyncCPP8ConsumerD2Ev:000000000000002c .L0 
     /tmp/ccBYUnRY.s:671    .text._ZN23ConsumerProducerSyncCPP8ConsumerD2Ev:000000000000002c .L0 
     /tmp/ccBYUnRY.s:673    .text._ZN23ConsumerProducerSyncCPP8ConsumerD2Ev:0000000000000030 .L0 
GAS LISTING /tmp/ccBYUnRY.s 			page 173


     /tmp/ccBYUnRY.s:675    .text._ZN23ConsumerProducerSyncCPP8ConsumerD2Ev:0000000000000034 .L0 
     /tmp/ccBYUnRY.s:646    .text._ZN23ConsumerProducerSyncCPP8ConsumerD2Ev:0000000000000000 _ZN23ConsumerProducerSyncCPP8ConsumerD1Ev
     /tmp/ccBYUnRY.s:684    .text._ZN23ConsumerProducerSyncCPP8ConsumerD0Ev:0000000000000000 _ZN23ConsumerProducerSyncCPP8ConsumerD0Ev
     /tmp/ccBYUnRY.s:687    .text._ZN23ConsumerProducerSyncCPP8ConsumerD0Ev:0000000000000000 .L0 
     /tmp/ccBYUnRY.s:689    .text._ZN23ConsumerProducerSyncCPP8ConsumerD0Ev:0000000000000000 .L0 
     /tmp/ccBYUnRY.s:690    .text._ZN23ConsumerProducerSyncCPP8ConsumerD0Ev:0000000000000004 .L0 
     /tmp/ccBYUnRY.s:694    .text._ZN23ConsumerProducerSyncCPP8ConsumerD0Ev:0000000000000010 .L0 
     /tmp/ccBYUnRY.s:695    .text._ZN23ConsumerProducerSyncCPP8ConsumerD0Ev:0000000000000010 .L0 
     /tmp/ccBYUnRY.s:696    .text._ZN23ConsumerProducerSyncCPP8ConsumerD0Ev:0000000000000010 .L0 
     /tmp/ccBYUnRY.s:698    .text._ZN23ConsumerProducerSyncCPP8ConsumerD0Ev:0000000000000014 .L0 
     /tmp/ccBYUnRY.s:704    .text._ZN23ConsumerProducerSyncCPP8ConsumerD0Ev:0000000000000018 .L0 
     /tmp/ccBYUnRY.s:714    .text._ZN23ConsumerProducerSyncCPP8ConsumerD0Ev:000000000000003c .L0 
     /tmp/ccBYUnRY.s:716    .text._ZN23ConsumerProducerSyncCPP8ConsumerD0Ev:0000000000000040 .L0 
     /tmp/ccBYUnRY.s:717    .text._ZN23ConsumerProducerSyncCPP8ConsumerD0Ev:0000000000000040 .L0 
     /tmp/ccBYUnRY.s:719    .text._ZN23ConsumerProducerSyncCPP8ConsumerD0Ev:0000000000000044 .L0 
     /tmp/ccBYUnRY.s:722    .text._ZN23ConsumerProducerSyncCPP8ConsumerD0Ev:0000000000000048 .L0 
     /tmp/ccBYUnRY.s:724    .text._ZN23ConsumerProducerSyncCPP8ConsumerD0Ev:000000000000004c .L0 
     /tmp/ccBYUnRY.s:731    .text._ZN23ConsumerProducerSyncCPP8ProducerD2Ev:0000000000000000 _ZN23ConsumerProducerSyncCPP8ProducerD2Ev
     /tmp/ccBYUnRY.s:734    .text._ZN23ConsumerProducerSyncCPP8ProducerD2Ev:0000000000000000 .L0 
     /tmp/ccBYUnRY.s:736    .text._ZN23ConsumerProducerSyncCPP8ProducerD2Ev:0000000000000000 .L0 
     /tmp/ccBYUnRY.s:737    .text._ZN23ConsumerProducerSyncCPP8ProducerD2Ev:0000000000000004 .L0 
     /tmp/ccBYUnRY.s:740    .text._ZN23ConsumerProducerSyncCPP8ProducerD2Ev:000000000000000c .L0 
     /tmp/ccBYUnRY.s:741    .text._ZN23ConsumerProducerSyncCPP8ProducerD2Ev:000000000000000c .L0 
     /tmp/ccBYUnRY.s:743    .text._ZN23ConsumerProducerSyncCPP8ProducerD2Ev:0000000000000010 .L0 
     /tmp/ccBYUnRY.s:6866   .data.rel.ro.local._ZTVN23ConsumerProducerSyncCPP8ProducerE:0000000000000000 _ZTVN23ConsumerProducerSyncCPP8ProducerE
     /tmp/ccBYUnRY.s:746    .text._ZN23ConsumerProducerSyncCPP8ProducerD2Ev:0000000000000010 .L0 
     /tmp/ccBYUnRY.s:752    .text._ZN23ConsumerProducerSyncCPP8ProducerD2Ev:0000000000000028 .L0 
     /tmp/ccBYUnRY.s:754    .text._ZN23ConsumerProducerSyncCPP8ProducerD2Ev:000000000000002c .L0 
     /tmp/ccBYUnRY.s:755    .text._ZN23ConsumerProducerSyncCPP8ProducerD2Ev:000000000000002c .L0 
     /tmp/ccBYUnRY.s:757    .text._ZN23ConsumerProducerSyncCPP8ProducerD2Ev:0000000000000030 .L0 
     /tmp/ccBYUnRY.s:759    .text._ZN23ConsumerProducerSyncCPP8ProducerD2Ev:0000000000000034 .L0 
     /tmp/ccBYUnRY.s:731    .text._ZN23ConsumerProducerSyncCPP8ProducerD2Ev:0000000000000000 _ZN23ConsumerProducerSyncCPP8ProducerD1Ev
     /tmp/ccBYUnRY.s:768    .text._ZN23ConsumerProducerSyncCPP8ProducerD0Ev:0000000000000000 _ZN23ConsumerProducerSyncCPP8ProducerD0Ev
     /tmp/ccBYUnRY.s:771    .text._ZN23ConsumerProducerSyncCPP8ProducerD0Ev:0000000000000000 .L0 
     /tmp/ccBYUnRY.s:773    .text._ZN23ConsumerProducerSyncCPP8ProducerD0Ev:0000000000000000 .L0 
     /tmp/ccBYUnRY.s:774    .text._ZN23ConsumerProducerSyncCPP8ProducerD0Ev:0000000000000004 .L0 
     /tmp/ccBYUnRY.s:778    .text._ZN23ConsumerProducerSyncCPP8ProducerD0Ev:0000000000000010 .L0 
     /tmp/ccBYUnRY.s:779    .text._ZN23ConsumerProducerSyncCPP8ProducerD0Ev:0000000000000010 .L0 
     /tmp/ccBYUnRY.s:780    .text._ZN23ConsumerProducerSyncCPP8ProducerD0Ev:0000000000000010 .L0 
     /tmp/ccBYUnRY.s:782    .text._ZN23ConsumerProducerSyncCPP8ProducerD0Ev:0000000000000014 .L0 
     /tmp/ccBYUnRY.s:788    .text._ZN23ConsumerProducerSyncCPP8ProducerD0Ev:0000000000000018 .L0 
     /tmp/ccBYUnRY.s:798    .text._ZN23ConsumerProducerSyncCPP8ProducerD0Ev:000000000000003c .L0 
     /tmp/ccBYUnRY.s:800    .text._ZN23ConsumerProducerSyncCPP8ProducerD0Ev:0000000000000040 .L0 
     /tmp/ccBYUnRY.s:801    .text._ZN23ConsumerProducerSyncCPP8ProducerD0Ev:0000000000000040 .L0 
     /tmp/ccBYUnRY.s:803    .text._ZN23ConsumerProducerSyncCPP8ProducerD0Ev:0000000000000044 .L0 
     /tmp/ccBYUnRY.s:806    .text._ZN23ConsumerProducerSyncCPP8ProducerD0Ev:0000000000000048 .L0 
     /tmp/ccBYUnRY.s:808    .text._ZN23ConsumerProducerSyncCPP8ProducerD0Ev:000000000000004c .L0 
     /tmp/ccBYUnRY.s:815    .text._ZN23ConsumerProducerSyncCPP16ProducerKeyboardD2Ev:0000000000000000 _ZN23ConsumerProducerSyncCPP16ProducerKeyboardD2Ev
     /tmp/ccBYUnRY.s:818    .text._ZN23ConsumerProducerSyncCPP16ProducerKeyboardD2Ev:0000000000000000 .L0 
     /tmp/ccBYUnRY.s:820    .text._ZN23ConsumerProducerSyncCPP16ProducerKeyboardD2Ev:0000000000000000 .L0 
     /tmp/ccBYUnRY.s:821    .text._ZN23ConsumerProducerSyncCPP16ProducerKeyboardD2Ev:0000000000000004 .L0 
     /tmp/ccBYUnRY.s:824    .text._ZN23ConsumerProducerSyncCPP16ProducerKeyboardD2Ev:000000000000000c .L0 
     /tmp/ccBYUnRY.s:825    .text._ZN23ConsumerProducerSyncCPP16ProducerKeyboardD2Ev:000000000000000c .L0 
     /tmp/ccBYUnRY.s:827    .text._ZN23ConsumerProducerSyncCPP16ProducerKeyboardD2Ev:0000000000000010 .L0 
     /tmp/ccBYUnRY.s:6855   .data.rel.ro.local._ZTVN23ConsumerProducerSyncCPP16ProducerKeyboardE:0000000000000000 _ZTVN23ConsumerProducerSyncCPP16ProducerKeyboardE
     /tmp/ccBYUnRY.s:830    .text._ZN23ConsumerProducerSyncCPP16ProducerKeyboardD2Ev:0000000000000010 .L0 
     /tmp/ccBYUnRY.s:836    .text._ZN23ConsumerProducerSyncCPP16ProducerKeyboardD2Ev:0000000000000028 .L0 
GAS LISTING /tmp/ccBYUnRY.s 			page 174


     /tmp/ccBYUnRY.s:838    .text._ZN23ConsumerProducerSyncCPP16ProducerKeyboardD2Ev:000000000000002c .L0 
     /tmp/ccBYUnRY.s:839    .text._ZN23ConsumerProducerSyncCPP16ProducerKeyboardD2Ev:000000000000002c .L0 
     /tmp/ccBYUnRY.s:841    .text._ZN23ConsumerProducerSyncCPP16ProducerKeyboardD2Ev:0000000000000030 .L0 
     /tmp/ccBYUnRY.s:843    .text._ZN23ConsumerProducerSyncCPP16ProducerKeyboardD2Ev:0000000000000034 .L0 
     /tmp/ccBYUnRY.s:815    .text._ZN23ConsumerProducerSyncCPP16ProducerKeyboardD2Ev:0000000000000000 _ZN23ConsumerProducerSyncCPP16ProducerKeyboardD1Ev
     /tmp/ccBYUnRY.s:852    .text._ZN23ConsumerProducerSyncCPP16ProducerKeyboardD0Ev:0000000000000000 _ZN23ConsumerProducerSyncCPP16ProducerKeyboardD0Ev
     /tmp/ccBYUnRY.s:855    .text._ZN23ConsumerProducerSyncCPP16ProducerKeyboardD0Ev:0000000000000000 .L0 
     /tmp/ccBYUnRY.s:857    .text._ZN23ConsumerProducerSyncCPP16ProducerKeyboardD0Ev:0000000000000000 .L0 
     /tmp/ccBYUnRY.s:858    .text._ZN23ConsumerProducerSyncCPP16ProducerKeyboardD0Ev:0000000000000004 .L0 
     /tmp/ccBYUnRY.s:862    .text._ZN23ConsumerProducerSyncCPP16ProducerKeyboardD0Ev:0000000000000010 .L0 
     /tmp/ccBYUnRY.s:863    .text._ZN23ConsumerProducerSyncCPP16ProducerKeyboardD0Ev:0000000000000010 .L0 
     /tmp/ccBYUnRY.s:864    .text._ZN23ConsumerProducerSyncCPP16ProducerKeyboardD0Ev:0000000000000010 .L0 
     /tmp/ccBYUnRY.s:866    .text._ZN23ConsumerProducerSyncCPP16ProducerKeyboardD0Ev:0000000000000014 .L0 
     /tmp/ccBYUnRY.s:872    .text._ZN23ConsumerProducerSyncCPP16ProducerKeyboardD0Ev:0000000000000018 .L0 
     /tmp/ccBYUnRY.s:882    .text._ZN23ConsumerProducerSyncCPP16ProducerKeyboardD0Ev:000000000000003c .L0 
     /tmp/ccBYUnRY.s:884    .text._ZN23ConsumerProducerSyncCPP16ProducerKeyboardD0Ev:0000000000000040 .L0 
     /tmp/ccBYUnRY.s:885    .text._ZN23ConsumerProducerSyncCPP16ProducerKeyboardD0Ev:0000000000000040 .L0 
     /tmp/ccBYUnRY.s:887    .text._ZN23ConsumerProducerSyncCPP16ProducerKeyboardD0Ev:0000000000000044 .L0 
     /tmp/ccBYUnRY.s:890    .text._ZN23ConsumerProducerSyncCPP16ProducerKeyboardD0Ev:0000000000000048 .L0 
     /tmp/ccBYUnRY.s:892    .text._ZN23ConsumerProducerSyncCPP16ProducerKeyboardD0Ev:000000000000004c .L0 
     /tmp/ccBYUnRY.s:899    .text._ZN24ConsumerProducerAsyncCPP8ConsumerD2Ev:0000000000000000 _ZN24ConsumerProducerAsyncCPP8ConsumerD2Ev
     /tmp/ccBYUnRY.s:903    .text._ZN24ConsumerProducerAsyncCPP8ConsumerD2Ev:0000000000000000 .L0 
     /tmp/ccBYUnRY.s:905    .text._ZN24ConsumerProducerAsyncCPP8ConsumerD2Ev:0000000000000000 .L0 
     /tmp/ccBYUnRY.s:906    .text._ZN24ConsumerProducerAsyncCPP8ConsumerD2Ev:0000000000000004 .L0 
     /tmp/ccBYUnRY.s:909    .text._ZN24ConsumerProducerAsyncCPP8ConsumerD2Ev:000000000000000c .L0 
     /tmp/ccBYUnRY.s:910    .text._ZN24ConsumerProducerAsyncCPP8ConsumerD2Ev:000000000000000c .L0 
     /tmp/ccBYUnRY.s:912    .text._ZN24ConsumerProducerAsyncCPP8ConsumerD2Ev:0000000000000010 .L0 
     /tmp/ccBYUnRY.s:6910   .data.rel.ro.local._ZTVN24ConsumerProducerAsyncCPP8ConsumerE:0000000000000000 _ZTVN24ConsumerProducerAsyncCPP8ConsumerE
     /tmp/ccBYUnRY.s:915    .text._ZN24ConsumerProducerAsyncCPP8ConsumerD2Ev:0000000000000010 .L0 
     /tmp/ccBYUnRY.s:921    .text._ZN24ConsumerProducerAsyncCPP8ConsumerD2Ev:0000000000000028 .L0 
     /tmp/ccBYUnRY.s:923    .text._ZN24ConsumerProducerAsyncCPP8ConsumerD2Ev:000000000000002c .L0 
     /tmp/ccBYUnRY.s:924    .text._ZN24ConsumerProducerAsyncCPP8ConsumerD2Ev:000000000000002c .L0 
     /tmp/ccBYUnRY.s:926    .text._ZN24ConsumerProducerAsyncCPP8ConsumerD2Ev:0000000000000030 .L0 
     /tmp/ccBYUnRY.s:928    .text._ZN24ConsumerProducerAsyncCPP8ConsumerD2Ev:0000000000000034 .L0 
     /tmp/ccBYUnRY.s:899    .text._ZN24ConsumerProducerAsyncCPP8ConsumerD2Ev:0000000000000000 _ZN24ConsumerProducerAsyncCPP8ConsumerD1Ev
     /tmp/ccBYUnRY.s:937    .text._ZN24ConsumerProducerAsyncCPP8ConsumerD0Ev:0000000000000000 _ZN24ConsumerProducerAsyncCPP8ConsumerD0Ev
     /tmp/ccBYUnRY.s:940    .text._ZN24ConsumerProducerAsyncCPP8ConsumerD0Ev:0000000000000000 .L0 
     /tmp/ccBYUnRY.s:942    .text._ZN24ConsumerProducerAsyncCPP8ConsumerD0Ev:0000000000000000 .L0 
     /tmp/ccBYUnRY.s:943    .text._ZN24ConsumerProducerAsyncCPP8ConsumerD0Ev:0000000000000004 .L0 
     /tmp/ccBYUnRY.s:947    .text._ZN24ConsumerProducerAsyncCPP8ConsumerD0Ev:0000000000000010 .L0 
     /tmp/ccBYUnRY.s:948    .text._ZN24ConsumerProducerAsyncCPP8ConsumerD0Ev:0000000000000010 .L0 
     /tmp/ccBYUnRY.s:949    .text._ZN24ConsumerProducerAsyncCPP8ConsumerD0Ev:0000000000000010 .L0 
     /tmp/ccBYUnRY.s:951    .text._ZN24ConsumerProducerAsyncCPP8ConsumerD0Ev:0000000000000014 .L0 
     /tmp/ccBYUnRY.s:957    .text._ZN24ConsumerProducerAsyncCPP8ConsumerD0Ev:0000000000000018 .L0 
     /tmp/ccBYUnRY.s:967    .text._ZN24ConsumerProducerAsyncCPP8ConsumerD0Ev:000000000000003c .L0 
     /tmp/ccBYUnRY.s:969    .text._ZN24ConsumerProducerAsyncCPP8ConsumerD0Ev:0000000000000040 .L0 
     /tmp/ccBYUnRY.s:970    .text._ZN24ConsumerProducerAsyncCPP8ConsumerD0Ev:0000000000000040 .L0 
     /tmp/ccBYUnRY.s:972    .text._ZN24ConsumerProducerAsyncCPP8ConsumerD0Ev:0000000000000044 .L0 
     /tmp/ccBYUnRY.s:975    .text._ZN24ConsumerProducerAsyncCPP8ConsumerD0Ev:0000000000000048 .L0 
     /tmp/ccBYUnRY.s:977    .text._ZN24ConsumerProducerAsyncCPP8ConsumerD0Ev:000000000000004c .L0 
     /tmp/ccBYUnRY.s:984    .text._ZN24ConsumerProducerAsyncCPP16ProducerKeyboradD2Ev:0000000000000000 _ZN24ConsumerProducerAsyncCPP16ProducerKeyboradD2Ev
     /tmp/ccBYUnRY.s:987    .text._ZN24ConsumerProducerAsyncCPP16ProducerKeyboradD2Ev:0000000000000000 .L0 
     /tmp/ccBYUnRY.s:989    .text._ZN24ConsumerProducerAsyncCPP16ProducerKeyboradD2Ev:0000000000000000 .L0 
     /tmp/ccBYUnRY.s:990    .text._ZN24ConsumerProducerAsyncCPP16ProducerKeyboradD2Ev:0000000000000004 .L0 
     /tmp/ccBYUnRY.s:993    .text._ZN24ConsumerProducerAsyncCPP16ProducerKeyboradD2Ev:000000000000000c .L0 
     /tmp/ccBYUnRY.s:994    .text._ZN24ConsumerProducerAsyncCPP16ProducerKeyboradD2Ev:000000000000000c .L0 
     /tmp/ccBYUnRY.s:996    .text._ZN24ConsumerProducerAsyncCPP16ProducerKeyboradD2Ev:0000000000000010 .L0 
GAS LISTING /tmp/ccBYUnRY.s 			page 175


     /tmp/ccBYUnRY.s:6888   .data.rel.ro.local._ZTVN24ConsumerProducerAsyncCPP16ProducerKeyboradE:0000000000000000 _ZTVN24ConsumerProducerAsyncCPP16ProducerKeyboradE
     /tmp/ccBYUnRY.s:999    .text._ZN24ConsumerProducerAsyncCPP16ProducerKeyboradD2Ev:0000000000000010 .L0 
     /tmp/ccBYUnRY.s:1005   .text._ZN24ConsumerProducerAsyncCPP16ProducerKeyboradD2Ev:0000000000000028 .L0 
     /tmp/ccBYUnRY.s:1007   .text._ZN24ConsumerProducerAsyncCPP16ProducerKeyboradD2Ev:000000000000002c .L0 
     /tmp/ccBYUnRY.s:1008   .text._ZN24ConsumerProducerAsyncCPP16ProducerKeyboradD2Ev:000000000000002c .L0 
     /tmp/ccBYUnRY.s:1010   .text._ZN24ConsumerProducerAsyncCPP16ProducerKeyboradD2Ev:0000000000000030 .L0 
     /tmp/ccBYUnRY.s:1012   .text._ZN24ConsumerProducerAsyncCPP16ProducerKeyboradD2Ev:0000000000000034 .L0 
     /tmp/ccBYUnRY.s:984    .text._ZN24ConsumerProducerAsyncCPP16ProducerKeyboradD2Ev:0000000000000000 _ZN24ConsumerProducerAsyncCPP16ProducerKeyboradD1Ev
     /tmp/ccBYUnRY.s:1021   .text._ZN24ConsumerProducerAsyncCPP16ProducerKeyboradD0Ev:0000000000000000 _ZN24ConsumerProducerAsyncCPP16ProducerKeyboradD0Ev
     /tmp/ccBYUnRY.s:1024   .text._ZN24ConsumerProducerAsyncCPP16ProducerKeyboradD0Ev:0000000000000000 .L0 
     /tmp/ccBYUnRY.s:1026   .text._ZN24ConsumerProducerAsyncCPP16ProducerKeyboradD0Ev:0000000000000000 .L0 
     /tmp/ccBYUnRY.s:1027   .text._ZN24ConsumerProducerAsyncCPP16ProducerKeyboradD0Ev:0000000000000004 .L0 
     /tmp/ccBYUnRY.s:1031   .text._ZN24ConsumerProducerAsyncCPP16ProducerKeyboradD0Ev:0000000000000010 .L0 
     /tmp/ccBYUnRY.s:1032   .text._ZN24ConsumerProducerAsyncCPP16ProducerKeyboradD0Ev:0000000000000010 .L0 
     /tmp/ccBYUnRY.s:1033   .text._ZN24ConsumerProducerAsyncCPP16ProducerKeyboradD0Ev:0000000000000010 .L0 
     /tmp/ccBYUnRY.s:1035   .text._ZN24ConsumerProducerAsyncCPP16ProducerKeyboradD0Ev:0000000000000014 .L0 
     /tmp/ccBYUnRY.s:1041   .text._ZN24ConsumerProducerAsyncCPP16ProducerKeyboradD0Ev:0000000000000018 .L0 
     /tmp/ccBYUnRY.s:1051   .text._ZN24ConsumerProducerAsyncCPP16ProducerKeyboradD0Ev:000000000000003c .L0 
     /tmp/ccBYUnRY.s:1053   .text._ZN24ConsumerProducerAsyncCPP16ProducerKeyboradD0Ev:0000000000000040 .L0 
     /tmp/ccBYUnRY.s:1054   .text._ZN24ConsumerProducerAsyncCPP16ProducerKeyboradD0Ev:0000000000000040 .L0 
     /tmp/ccBYUnRY.s:1056   .text._ZN24ConsumerProducerAsyncCPP16ProducerKeyboradD0Ev:0000000000000044 .L0 
     /tmp/ccBYUnRY.s:1059   .text._ZN24ConsumerProducerAsyncCPP16ProducerKeyboradD0Ev:0000000000000048 .L0 
     /tmp/ccBYUnRY.s:1061   .text._ZN24ConsumerProducerAsyncCPP16ProducerKeyboradD0Ev:000000000000004c .L0 
     /tmp/ccBYUnRY.s:1068   .text._ZN24ConsumerProducerAsyncCPP8ProducerD2Ev:0000000000000000 _ZN24ConsumerProducerAsyncCPP8ProducerD2Ev
     /tmp/ccBYUnRY.s:1071   .text._ZN24ConsumerProducerAsyncCPP8ProducerD2Ev:0000000000000000 .L0 
     /tmp/ccBYUnRY.s:1073   .text._ZN24ConsumerProducerAsyncCPP8ProducerD2Ev:0000000000000000 .L0 
     /tmp/ccBYUnRY.s:1074   .text._ZN24ConsumerProducerAsyncCPP8ProducerD2Ev:0000000000000004 .L0 
     /tmp/ccBYUnRY.s:1077   .text._ZN24ConsumerProducerAsyncCPP8ProducerD2Ev:000000000000000c .L0 
     /tmp/ccBYUnRY.s:1078   .text._ZN24ConsumerProducerAsyncCPP8ProducerD2Ev:000000000000000c .L0 
     /tmp/ccBYUnRY.s:1080   .text._ZN24ConsumerProducerAsyncCPP8ProducerD2Ev:0000000000000010 .L0 
     /tmp/ccBYUnRY.s:6899   .data.rel.ro.local._ZTVN24ConsumerProducerAsyncCPP8ProducerE:0000000000000000 _ZTVN24ConsumerProducerAsyncCPP8ProducerE
     /tmp/ccBYUnRY.s:1083   .text._ZN24ConsumerProducerAsyncCPP8ProducerD2Ev:0000000000000010 .L0 
     /tmp/ccBYUnRY.s:1089   .text._ZN24ConsumerProducerAsyncCPP8ProducerD2Ev:0000000000000028 .L0 
     /tmp/ccBYUnRY.s:1091   .text._ZN24ConsumerProducerAsyncCPP8ProducerD2Ev:000000000000002c .L0 
     /tmp/ccBYUnRY.s:1092   .text._ZN24ConsumerProducerAsyncCPP8ProducerD2Ev:000000000000002c .L0 
     /tmp/ccBYUnRY.s:1094   .text._ZN24ConsumerProducerAsyncCPP8ProducerD2Ev:0000000000000030 .L0 
     /tmp/ccBYUnRY.s:1096   .text._ZN24ConsumerProducerAsyncCPP8ProducerD2Ev:0000000000000034 .L0 
     /tmp/ccBYUnRY.s:1068   .text._ZN24ConsumerProducerAsyncCPP8ProducerD2Ev:0000000000000000 _ZN24ConsumerProducerAsyncCPP8ProducerD1Ev
     /tmp/ccBYUnRY.s:1105   .text._ZN24ConsumerProducerAsyncCPP8ProducerD0Ev:0000000000000000 _ZN24ConsumerProducerAsyncCPP8ProducerD0Ev
     /tmp/ccBYUnRY.s:1108   .text._ZN24ConsumerProducerAsyncCPP8ProducerD0Ev:0000000000000000 .L0 
     /tmp/ccBYUnRY.s:1110   .text._ZN24ConsumerProducerAsyncCPP8ProducerD0Ev:0000000000000000 .L0 
     /tmp/ccBYUnRY.s:1111   .text._ZN24ConsumerProducerAsyncCPP8ProducerD0Ev:0000000000000004 .L0 
     /tmp/ccBYUnRY.s:1115   .text._ZN24ConsumerProducerAsyncCPP8ProducerD0Ev:0000000000000010 .L0 
     /tmp/ccBYUnRY.s:1116   .text._ZN24ConsumerProducerAsyncCPP8ProducerD0Ev:0000000000000010 .L0 
     /tmp/ccBYUnRY.s:1117   .text._ZN24ConsumerProducerAsyncCPP8ProducerD0Ev:0000000000000010 .L0 
     /tmp/ccBYUnRY.s:1119   .text._ZN24ConsumerProducerAsyncCPP8ProducerD0Ev:0000000000000014 .L0 
     /tmp/ccBYUnRY.s:1125   .text._ZN24ConsumerProducerAsyncCPP8ProducerD0Ev:0000000000000018 .L0 
     /tmp/ccBYUnRY.s:1135   .text._ZN24ConsumerProducerAsyncCPP8ProducerD0Ev:000000000000003c .L0 
     /tmp/ccBYUnRY.s:1137   .text._ZN24ConsumerProducerAsyncCPP8ProducerD0Ev:0000000000000040 .L0 
     /tmp/ccBYUnRY.s:1138   .text._ZN24ConsumerProducerAsyncCPP8ProducerD0Ev:0000000000000040 .L0 
     /tmp/ccBYUnRY.s:1140   .text._ZN24ConsumerProducerAsyncCPP8ProducerD0Ev:0000000000000044 .L0 
     /tmp/ccBYUnRY.s:1143   .text._ZN24ConsumerProducerAsyncCPP8ProducerD0Ev:0000000000000048 .L0 
     /tmp/ccBYUnRY.s:1145   .text._ZN24ConsumerProducerAsyncCPP8ProducerD0Ev:000000000000004c .L0 
     /tmp/ccBYUnRY.s:1152   .text._ZN19PeriodicThreadsTest1AD2Ev:0000000000000000 _ZN19PeriodicThreadsTest1AD2Ev
     /tmp/ccBYUnRY.s:1156   .text._ZN19PeriodicThreadsTest1AD2Ev:0000000000000000 .L0 
     /tmp/ccBYUnRY.s:1158   .text._ZN19PeriodicThreadsTest1AD2Ev:0000000000000000 .L0 
     /tmp/ccBYUnRY.s:1159   .text._ZN19PeriodicThreadsTest1AD2Ev:0000000000000004 .L0 
GAS LISTING /tmp/ccBYUnRY.s 			page 176


     /tmp/ccBYUnRY.s:1162   .text._ZN19PeriodicThreadsTest1AD2Ev:000000000000000c .L0 
     /tmp/ccBYUnRY.s:1163   .text._ZN19PeriodicThreadsTest1AD2Ev:000000000000000c .L0 
     /tmp/ccBYUnRY.s:1165   .text._ZN19PeriodicThreadsTest1AD2Ev:0000000000000010 .L0 
     /tmp/ccBYUnRY.s:1171   .text._ZN19PeriodicThreadsTest1AD2Ev:0000000000000010 .L0 
     /tmp/ccBYUnRY.s:1179   .text._ZN19PeriodicThreadsTest1AD2Ev:0000000000000028 .L0 
     /tmp/ccBYUnRY.s:1180   .text._ZN19PeriodicThreadsTest1AD2Ev:000000000000002c .L0 
     /tmp/ccBYUnRY.s:1182   .text._ZN19PeriodicThreadsTest1AD2Ev:0000000000000030 .L0 
     /tmp/ccBYUnRY.s:1183   .text._ZN19PeriodicThreadsTest1AD2Ev:0000000000000030 .L0 
     /tmp/ccBYUnRY.s:1185   .text._ZN19PeriodicThreadsTest1AD2Ev:0000000000000034 .L0 
     /tmp/ccBYUnRY.s:1187   .text._ZN19PeriodicThreadsTest1AD2Ev:0000000000000038 .L0 
     /tmp/ccBYUnRY.s:1152   .text._ZN19PeriodicThreadsTest1AD2Ev:0000000000000000 _ZN19PeriodicThreadsTest1AD1Ev
     /tmp/ccBYUnRY.s:1196   .text._ZN19PeriodicThreadsTest1AD0Ev:0000000000000000 _ZN19PeriodicThreadsTest1AD0Ev
     /tmp/ccBYUnRY.s:1199   .text._ZN19PeriodicThreadsTest1AD0Ev:0000000000000000 .L0 
     /tmp/ccBYUnRY.s:1201   .text._ZN19PeriodicThreadsTest1AD0Ev:0000000000000000 .L0 
     /tmp/ccBYUnRY.s:1202   .text._ZN19PeriodicThreadsTest1AD0Ev:0000000000000004 .L0 
     /tmp/ccBYUnRY.s:1206   .text._ZN19PeriodicThreadsTest1AD0Ev:0000000000000010 .L0 
     /tmp/ccBYUnRY.s:1207   .text._ZN19PeriodicThreadsTest1AD0Ev:0000000000000010 .L0 
     /tmp/ccBYUnRY.s:1208   .text._ZN19PeriodicThreadsTest1AD0Ev:0000000000000010 .L0 
     /tmp/ccBYUnRY.s:1210   .text._ZN19PeriodicThreadsTest1AD0Ev:0000000000000014 .L0 
     /tmp/ccBYUnRY.s:1217   .text._ZN19PeriodicThreadsTest1AD0Ev:0000000000000018 .L0 
     /tmp/ccBYUnRY.s:1226   .text._ZN19PeriodicThreadsTest1AD0Ev:0000000000000030 .L0 
     /tmp/ccBYUnRY.s:1230   .text._ZN19PeriodicThreadsTest1AD0Ev:0000000000000040 .L0 
     /tmp/ccBYUnRY.s:1232   .text._ZN19PeriodicThreadsTest1AD0Ev:0000000000000044 .L0 
     /tmp/ccBYUnRY.s:1233   .text._ZN19PeriodicThreadsTest1AD0Ev:0000000000000044 .L0 
     /tmp/ccBYUnRY.s:1235   .text._ZN19PeriodicThreadsTest1AD0Ev:0000000000000048 .L0 
     /tmp/ccBYUnRY.s:1238   .text._ZN19PeriodicThreadsTest1AD0Ev:000000000000004c .L0 
     /tmp/ccBYUnRY.s:1240   .text._ZN19PeriodicThreadsTest1AD0Ev:0000000000000050 .L0 
     /tmp/ccBYUnRY.s:1247   .text._ZN19PeriodicThreadsTest1BD2Ev:0000000000000000 _ZN19PeriodicThreadsTest1BD2Ev
     /tmp/ccBYUnRY.s:1250   .text._ZN19PeriodicThreadsTest1BD2Ev:0000000000000000 .L0 
     /tmp/ccBYUnRY.s:1252   .text._ZN19PeriodicThreadsTest1BD2Ev:0000000000000000 .L0 
     /tmp/ccBYUnRY.s:1253   .text._ZN19PeriodicThreadsTest1BD2Ev:0000000000000004 .L0 
     /tmp/ccBYUnRY.s:1256   .text._ZN19PeriodicThreadsTest1BD2Ev:000000000000000c .L0 
     /tmp/ccBYUnRY.s:1257   .text._ZN19PeriodicThreadsTest1BD2Ev:000000000000000c .L0 
     /tmp/ccBYUnRY.s:1259   .text._ZN19PeriodicThreadsTest1BD2Ev:0000000000000010 .L0 
     /tmp/ccBYUnRY.s:1264   .text._ZN19PeriodicThreadsTest1BD2Ev:0000000000000010 .L0 
     /tmp/ccBYUnRY.s:1272   .text._ZN19PeriodicThreadsTest1BD2Ev:0000000000000028 .L0 
     /tmp/ccBYUnRY.s:1273   .text._ZN19PeriodicThreadsTest1BD2Ev:000000000000002c .L0 
     /tmp/ccBYUnRY.s:1275   .text._ZN19PeriodicThreadsTest1BD2Ev:0000000000000030 .L0 
     /tmp/ccBYUnRY.s:1276   .text._ZN19PeriodicThreadsTest1BD2Ev:0000000000000030 .L0 
     /tmp/ccBYUnRY.s:1278   .text._ZN19PeriodicThreadsTest1BD2Ev:0000000000000034 .L0 
     /tmp/ccBYUnRY.s:1280   .text._ZN19PeriodicThreadsTest1BD2Ev:0000000000000038 .L0 
     /tmp/ccBYUnRY.s:1247   .text._ZN19PeriodicThreadsTest1BD2Ev:0000000000000000 _ZN19PeriodicThreadsTest1BD1Ev
     /tmp/ccBYUnRY.s:1289   .text._ZN19PeriodicThreadsTest1BD0Ev:0000000000000000 _ZN19PeriodicThreadsTest1BD0Ev
     /tmp/ccBYUnRY.s:1292   .text._ZN19PeriodicThreadsTest1BD0Ev:0000000000000000 .L0 
     /tmp/ccBYUnRY.s:1294   .text._ZN19PeriodicThreadsTest1BD0Ev:0000000000000000 .L0 
     /tmp/ccBYUnRY.s:1295   .text._ZN19PeriodicThreadsTest1BD0Ev:0000000000000004 .L0 
     /tmp/ccBYUnRY.s:1299   .text._ZN19PeriodicThreadsTest1BD0Ev:0000000000000010 .L0 
     /tmp/ccBYUnRY.s:1300   .text._ZN19PeriodicThreadsTest1BD0Ev:0000000000000010 .L0 
     /tmp/ccBYUnRY.s:1301   .text._ZN19PeriodicThreadsTest1BD0Ev:0000000000000010 .L0 
     /tmp/ccBYUnRY.s:1303   .text._ZN19PeriodicThreadsTest1BD0Ev:0000000000000014 .L0 
     /tmp/ccBYUnRY.s:1310   .text._ZN19PeriodicThreadsTest1BD0Ev:0000000000000018 .L0 
     /tmp/ccBYUnRY.s:1319   .text._ZN19PeriodicThreadsTest1BD0Ev:0000000000000030 .L0 
     /tmp/ccBYUnRY.s:1323   .text._ZN19PeriodicThreadsTest1BD0Ev:0000000000000040 .L0 
     /tmp/ccBYUnRY.s:1325   .text._ZN19PeriodicThreadsTest1BD0Ev:0000000000000044 .L0 
     /tmp/ccBYUnRY.s:1326   .text._ZN19PeriodicThreadsTest1BD0Ev:0000000000000044 .L0 
     /tmp/ccBYUnRY.s:1328   .text._ZN19PeriodicThreadsTest1BD0Ev:0000000000000048 .L0 
     /tmp/ccBYUnRY.s:1331   .text._ZN19PeriodicThreadsTest1BD0Ev:000000000000004c .L0 
GAS LISTING /tmp/ccBYUnRY.s 			page 177


     /tmp/ccBYUnRY.s:1333   .text._ZN19PeriodicThreadsTest1BD0Ev:0000000000000050 .L0 
     /tmp/ccBYUnRY.s:1340   .text._ZN19PeriodicThreadsTest1CD2Ev:0000000000000000 _ZN19PeriodicThreadsTest1CD2Ev
     /tmp/ccBYUnRY.s:1343   .text._ZN19PeriodicThreadsTest1CD2Ev:0000000000000000 .L0 
     /tmp/ccBYUnRY.s:1345   .text._ZN19PeriodicThreadsTest1CD2Ev:0000000000000000 .L0 
     /tmp/ccBYUnRY.s:1346   .text._ZN19PeriodicThreadsTest1CD2Ev:0000000000000004 .L0 
     /tmp/ccBYUnRY.s:1349   .text._ZN19PeriodicThreadsTest1CD2Ev:000000000000000c .L0 
     /tmp/ccBYUnRY.s:1350   .text._ZN19PeriodicThreadsTest1CD2Ev:000000000000000c .L0 
     /tmp/ccBYUnRY.s:1352   .text._ZN19PeriodicThreadsTest1CD2Ev:0000000000000010 .L0 
     /tmp/ccBYUnRY.s:1357   .text._ZN19PeriodicThreadsTest1CD2Ev:0000000000000010 .L0 
     /tmp/ccBYUnRY.s:1365   .text._ZN19PeriodicThreadsTest1CD2Ev:0000000000000028 .L0 
     /tmp/ccBYUnRY.s:1366   .text._ZN19PeriodicThreadsTest1CD2Ev:000000000000002c .L0 
     /tmp/ccBYUnRY.s:1368   .text._ZN19PeriodicThreadsTest1CD2Ev:0000000000000030 .L0 
     /tmp/ccBYUnRY.s:1369   .text._ZN19PeriodicThreadsTest1CD2Ev:0000000000000030 .L0 
     /tmp/ccBYUnRY.s:1371   .text._ZN19PeriodicThreadsTest1CD2Ev:0000000000000034 .L0 
     /tmp/ccBYUnRY.s:1373   .text._ZN19PeriodicThreadsTest1CD2Ev:0000000000000038 .L0 
     /tmp/ccBYUnRY.s:1340   .text._ZN19PeriodicThreadsTest1CD2Ev:0000000000000000 _ZN19PeriodicThreadsTest1CD1Ev
     /tmp/ccBYUnRY.s:1382   .text._ZN19PeriodicThreadsTest1CD0Ev:0000000000000000 _ZN19PeriodicThreadsTest1CD0Ev
     /tmp/ccBYUnRY.s:1385   .text._ZN19PeriodicThreadsTest1CD0Ev:0000000000000000 .L0 
     /tmp/ccBYUnRY.s:1387   .text._ZN19PeriodicThreadsTest1CD0Ev:0000000000000000 .L0 
     /tmp/ccBYUnRY.s:1388   .text._ZN19PeriodicThreadsTest1CD0Ev:0000000000000004 .L0 
     /tmp/ccBYUnRY.s:1392   .text._ZN19PeriodicThreadsTest1CD0Ev:0000000000000010 .L0 
     /tmp/ccBYUnRY.s:1393   .text._ZN19PeriodicThreadsTest1CD0Ev:0000000000000010 .L0 
     /tmp/ccBYUnRY.s:1394   .text._ZN19PeriodicThreadsTest1CD0Ev:0000000000000010 .L0 
     /tmp/ccBYUnRY.s:1396   .text._ZN19PeriodicThreadsTest1CD0Ev:0000000000000014 .L0 
     /tmp/ccBYUnRY.s:1403   .text._ZN19PeriodicThreadsTest1CD0Ev:0000000000000018 .L0 
     /tmp/ccBYUnRY.s:1412   .text._ZN19PeriodicThreadsTest1CD0Ev:0000000000000030 .L0 
     /tmp/ccBYUnRY.s:1416   .text._ZN19PeriodicThreadsTest1CD0Ev:0000000000000040 .L0 
     /tmp/ccBYUnRY.s:1418   .text._ZN19PeriodicThreadsTest1CD0Ev:0000000000000044 .L0 
     /tmp/ccBYUnRY.s:1419   .text._ZN19PeriodicThreadsTest1CD0Ev:0000000000000044 .L0 
     /tmp/ccBYUnRY.s:1421   .text._ZN19PeriodicThreadsTest1CD0Ev:0000000000000048 .L0 
     /tmp/ccBYUnRY.s:1424   .text._ZN19PeriodicThreadsTest1CD0Ev:000000000000004c .L0 
     /tmp/ccBYUnRY.s:1426   .text._ZN19PeriodicThreadsTest1CD0Ev:0000000000000050 .L0 
     /tmp/ccBYUnRY.s:1433   .text:00000000000001b8 _ZN21ConsumerProducerSyncC16producerKeyboardEPv
     /tmp/ccBYUnRY.s:1437   .text:00000000000001b8 .L0 
     /tmp/ccBYUnRY.s:1439   .text:00000000000001b8 .L0 
     /tmp/ccBYUnRY.s:1440   .text:00000000000001bc .L0 
     /tmp/ccBYUnRY.s:1445   .text:00000000000001cc .L0 
     /tmp/ccBYUnRY.s:1446   .text:00000000000001cc .L0 
     /tmp/ccBYUnRY.s:1447   .text:00000000000001cc .L0 
     /tmp/ccBYUnRY.s:1448   .text:00000000000001cc .L0 
     /tmp/ccBYUnRY.s:1450   .text:00000000000001d0 .L0 
     /tmp/ccBYUnRY.s:1454   .text:00000000000001d4 .L0 
     /tmp/ccBYUnRY.s:1455   .text:00000000000001d4 .L0 
     /tmp/ccBYUnRY.s:1456   .text:00000000000001d4 .L0 
     /tmp/ccBYUnRY.s:1457   .text:00000000000001d4 .L0 
     /tmp/ccBYUnRY.s:1462   .text:00000000000001dc .L0 
     /tmp/ccBYUnRY.s:1463   .text:00000000000001dc .L0 
     /tmp/ccBYUnRY.s:1467   .text:00000000000001e4 .L0 
     /tmp/ccBYUnRY.s:1468   .text:00000000000001e4 .L0 
     /tmp/ccBYUnRY.s:1469   .text:00000000000001e4 .L0 
     /tmp/ccBYUnRY.s:1472   .text:00000000000001ec .L0 
     /tmp/ccBYUnRY.s:1475   .text:00000000000001f0 .L0 
     /tmp/ccBYUnRY.s:1478   .text:00000000000001f8 .L0 
     /tmp/ccBYUnRY.s:1479   .text:00000000000001f8 .L0 
     /tmp/ccBYUnRY.s:1483   .text:0000000000000204 .L0 
     /tmp/ccBYUnRY.s:1484   .text:0000000000000204 .L0 
     /tmp/ccBYUnRY.s:1488   .text:000000000000020c .L0 
GAS LISTING /tmp/ccBYUnRY.s 			page 178


     /tmp/ccBYUnRY.s:1489   .text:000000000000020c .L0 
     /tmp/ccBYUnRY.s:1491   .text:0000000000000210 .L0 
     /tmp/ccBYUnRY.s:1495   .text:000000000000021c .L0 
     /tmp/ccBYUnRY.s:1497   .text:0000000000000220 .L0 
     /tmp/ccBYUnRY.s:1502   .text:0000000000000228 .L0 
     /tmp/ccBYUnRY.s:1503   .text:0000000000000228 .L0 
     /tmp/ccBYUnRY.s:1506   .text:0000000000000234 .L0 
     /tmp/ccBYUnRY.s:1507   .text:0000000000000234 .L0 
     /tmp/ccBYUnRY.s:1514   .text:0000000000000244 .L0 
     /tmp/ccBYUnRY.s:1515   .text:0000000000000244 .L0 
     /tmp/ccBYUnRY.s:1519   .text:0000000000000250 .L0 
     /tmp/ccBYUnRY.s:1520   .text:0000000000000254 .L0 
     /tmp/ccBYUnRY.s:1522   .text:0000000000000258 .L0 
     /tmp/ccBYUnRY.s:1523   .text:0000000000000258 .L0 
     /tmp/ccBYUnRY.s:1525   .text:000000000000025c .L0 
     /tmp/ccBYUnRY.s:1528   .text:0000000000000260 .L0 
     /tmp/ccBYUnRY.s:1531   .text:0000000000000264 .L0 
     /tmp/ccBYUnRY.s:1533   .text:0000000000000268 .L0 
     /tmp/ccBYUnRY.s:1539   .text:0000000000000268 _ZN21ConsumerProducerSyncC8producerEPv
     /tmp/ccBYUnRY.s:1542   .text:0000000000000268 .L0 
     /tmp/ccBYUnRY.s:1544   .text:0000000000000268 .L0 
     /tmp/ccBYUnRY.s:1545   .text:000000000000026c .L0 
     /tmp/ccBYUnRY.s:1550   .text:000000000000027c .L0 
     /tmp/ccBYUnRY.s:1551   .text:000000000000027c .L0 
     /tmp/ccBYUnRY.s:1552   .text:000000000000027c .L0 
     /tmp/ccBYUnRY.s:1553   .text:000000000000027c .L0 
     /tmp/ccBYUnRY.s:1555   .text:0000000000000280 .L0 
     /tmp/ccBYUnRY.s:1559   .text:0000000000000284 .L0 
     /tmp/ccBYUnRY.s:1560   .text:0000000000000284 .L0 
     /tmp/ccBYUnRY.s:1561   .text:0000000000000284 .L0 
     /tmp/ccBYUnRY.s:1566   .text:000000000000028c .L0 
     /tmp/ccBYUnRY.s:1567   .text:000000000000028c .L0 
     /tmp/ccBYUnRY.s:1571   .text:0000000000000294 .L0 
     /tmp/ccBYUnRY.s:1572   .text:0000000000000294 .L0 
     /tmp/ccBYUnRY.s:1575   .text:00000000000002a0 .L0 
     /tmp/ccBYUnRY.s:1576   .text:00000000000002a0 .L0 
     /tmp/ccBYUnRY.s:1578   .text:00000000000002a4 .L0 
     /tmp/ccBYUnRY.s:1583   .text:00000000000002b4 .L0 
     /tmp/ccBYUnRY.s:1584   .text:00000000000002b4 .L0 
     /tmp/ccBYUnRY.s:1588   .text:00000000000002bc .L0 
     /tmp/ccBYUnRY.s:1589   .text:00000000000002bc .L0 
     /tmp/ccBYUnRY.s:1591   .text:00000000000002c0 .L0 
     /tmp/ccBYUnRY.s:1595   .text:00000000000002cc .L0 
     /tmp/ccBYUnRY.s:1597   .text:00000000000002d0 .L0 
     /tmp/ccBYUnRY.s:1602   .text:00000000000002d8 .L0 
     /tmp/ccBYUnRY.s:1603   .text:00000000000002d8 .L0 
     /tmp/ccBYUnRY.s:1607   .text:00000000000002e4 .L0 
     /tmp/ccBYUnRY.s:1608   .text:00000000000002e8 .L0 
     /tmp/ccBYUnRY.s:1610   .text:00000000000002ec .L0 
     /tmp/ccBYUnRY.s:1611   .text:00000000000002ec .L0 
     /tmp/ccBYUnRY.s:1613   .text:00000000000002f0 .L0 
     /tmp/ccBYUnRY.s:1616   .text:00000000000002f4 .L0 
     /tmp/ccBYUnRY.s:1619   .text:00000000000002f8 .L0 
     /tmp/ccBYUnRY.s:1621   .text:00000000000002fc .L0 
     /tmp/ccBYUnRY.s:1627   .text:00000000000002fc _ZN21ConsumerProducerSyncC8consumerEPv
     /tmp/ccBYUnRY.s:1630   .text:00000000000002fc .L0 
     /tmp/ccBYUnRY.s:1632   .text:00000000000002fc .L0 
GAS LISTING /tmp/ccBYUnRY.s 			page 179


     /tmp/ccBYUnRY.s:1633   .text:0000000000000300 .L0 
     /tmp/ccBYUnRY.s:1639   .text:0000000000000314 .L0 
     /tmp/ccBYUnRY.s:1640   .text:0000000000000314 .L0 
     /tmp/ccBYUnRY.s:1641   .text:0000000000000314 .L0 
     /tmp/ccBYUnRY.s:1642   .text:0000000000000314 .L0 
     /tmp/ccBYUnRY.s:1643   .text:0000000000000314 .L0 
     /tmp/ccBYUnRY.s:1645   .text:0000000000000318 .L0 
     /tmp/ccBYUnRY.s:1649   .text:000000000000031c .L0 
     /tmp/ccBYUnRY.s:1650   .text:000000000000031c .L0 
     /tmp/ccBYUnRY.s:1651   .text:000000000000031c .L0 
     /tmp/ccBYUnRY.s:1657   .text:0000000000000324 .L0 
     /tmp/ccBYUnRY.s:1658   .text:0000000000000324 .L0 
     /tmp/ccBYUnRY.s:1664   .text:0000000000000330 .L0 
     /tmp/ccBYUnRY.s:1665   .text:0000000000000330 .L0 
     /tmp/ccBYUnRY.s:1671   .text:000000000000033c .L0 
     /tmp/ccBYUnRY.s:1672   .text:000000000000033c .L0 
     /tmp/ccBYUnRY.s:1676   .text:0000000000000348 .L0 
     /tmp/ccBYUnRY.s:1677   .text:0000000000000348 .L0 
     /tmp/ccBYUnRY.s:1681   .text:0000000000000354 .L0 
     /tmp/ccBYUnRY.s:1682   .text:0000000000000354 .L0 
     /tmp/ccBYUnRY.s:1686   .text:000000000000035c .L0 
     /tmp/ccBYUnRY.s:1687   .text:000000000000035c .L0 
     /tmp/ccBYUnRY.s:1692   .text:0000000000000368 .L0 
     /tmp/ccBYUnRY.s:1693   .text:0000000000000368 .L0 
     /tmp/ccBYUnRY.s:1695   .text:000000000000036c .L0 
     /tmp/ccBYUnRY.s:1698   .text:0000000000000374 .L0 
     /tmp/ccBYUnRY.s:1700   .text:0000000000000378 .L0 
     /tmp/ccBYUnRY.s:1703   .text:000000000000037c .L0 
     /tmp/ccBYUnRY.s:1704   .text:000000000000037c .L0 
     /tmp/ccBYUnRY.s:1708   .text:0000000000000384 .L0 
     /tmp/ccBYUnRY.s:1714   .text:000000000000038c .L0 
     /tmp/ccBYUnRY.s:1715   .text:000000000000038c .L0 
     /tmp/ccBYUnRY.s:1719   .text:0000000000000398 .L0 
     /tmp/ccBYUnRY.s:1720   .text:0000000000000398 .L0 
     /tmp/ccBYUnRY.s:1727   .text:00000000000003a4 .L0 
     /tmp/ccBYUnRY.s:1728   .text:00000000000003a4 .L0 
     /tmp/ccBYUnRY.s:1729   .text:00000000000003a4 .L0 
     /tmp/ccBYUnRY.s:1733   .text:00000000000003b0 .L0 
     /tmp/ccBYUnRY.s:1735   .text:00000000000003b4 .L0 
     /tmp/ccBYUnRY.s:1736   .text:00000000000003b4 .L0 
     /tmp/ccBYUnRY.s:1740   .text:00000000000003c0 .L0 
     /tmp/ccBYUnRY.s:1741   .text:00000000000003c4 .L0 
     /tmp/ccBYUnRY.s:1743   .text:00000000000003c8 .L0 
     /tmp/ccBYUnRY.s:1744   .text:00000000000003c8 .L0 
     /tmp/ccBYUnRY.s:1746   .text:00000000000003cc .L0 
     /tmp/ccBYUnRY.s:1748   .text:00000000000003d0 .L0 
     /tmp/ccBYUnRY.s:1751   .text:00000000000003d4 .L0 
     /tmp/ccBYUnRY.s:1754   .text:00000000000003d8 .L0 
     /tmp/ccBYUnRY.s:1756   .text:00000000000003dc .L0 
     /tmp/ccBYUnRY.s:1763   .text._ZN24ConsumerProducerAsyncCPP16ProducerKeyborad3runEv:0000000000000000 _ZN24ConsumerProducerAsyncCPP16ProducerKeyborad3runEv
     /tmp/ccBYUnRY.s:1766   .text._ZN24ConsumerProducerAsyncCPP16ProducerKeyborad3runEv:0000000000000000 .L0 
     /tmp/ccBYUnRY.s:1768   .text._ZN24ConsumerProducerAsyncCPP16ProducerKeyborad3runEv:0000000000000000 .L0 
     /tmp/ccBYUnRY.s:1769   .text._ZN24ConsumerProducerAsyncCPP16ProducerKeyborad3runEv:0000000000000004 .L0 
     /tmp/ccBYUnRY.s:1773   .text._ZN24ConsumerProducerAsyncCPP16ProducerKeyborad3runEv:0000000000000010 .L0 
     /tmp/ccBYUnRY.s:1774   .text._ZN24ConsumerProducerAsyncCPP16ProducerKeyborad3runEv:0000000000000010 .L0 
     /tmp/ccBYUnRY.s:1775   .text._ZN24ConsumerProducerAsyncCPP16ProducerKeyborad3runEv:0000000000000010 .L0 
     /tmp/ccBYUnRY.s:1777   .text._ZN24ConsumerProducerAsyncCPP16ProducerKeyborad3runEv:0000000000000014 .L0 
GAS LISTING /tmp/ccBYUnRY.s 			page 180


     /tmp/ccBYUnRY.s:1780   .text._ZN24ConsumerProducerAsyncCPP16ProducerKeyborad3runEv:0000000000000018 .L0 
     /tmp/ccBYUnRY.s:1783   .text._ZN24ConsumerProducerAsyncCPP16ProducerKeyborad3runEv:0000000000000018 .L0 
     /tmp/ccBYUnRY.s:1784   .text._ZN24ConsumerProducerAsyncCPP16ProducerKeyborad3runEv:0000000000000018 .L0 
     /tmp/ccBYUnRY.s:1785   .text._ZN24ConsumerProducerAsyncCPP16ProducerKeyborad3runEv:0000000000000018 .L0 
     /tmp/ccBYUnRY.s:1786   .text._ZN24ConsumerProducerAsyncCPP16ProducerKeyborad3runEv:0000000000000018 .L0 
     /tmp/ccBYUnRY.s:1789   .text._ZN24ConsumerProducerAsyncCPP16ProducerKeyborad3runEv:0000000000000020 .L0 
     /tmp/ccBYUnRY.s:1792   .text._ZN24ConsumerProducerAsyncCPP16ProducerKeyborad3runEv:0000000000000024 .L0 
     /tmp/ccBYUnRY.s:1795   .text._ZN24ConsumerProducerAsyncCPP16ProducerKeyborad3runEv:000000000000002c .L0 
     /tmp/ccBYUnRY.s:1797   .text._ZN24ConsumerProducerAsyncCPP16ProducerKeyborad3runEv:0000000000000030 .L0 
     /tmp/ccBYUnRY.s:1801   .text._ZN24ConsumerProducerAsyncCPP16ProducerKeyborad3runEv:000000000000003c .L0 
     /tmp/ccBYUnRY.s:1802   .text._ZN24ConsumerProducerAsyncCPP16ProducerKeyborad3runEv:000000000000003c .L0 
     /tmp/ccBYUnRY.s:1806   .text._ZN24ConsumerProducerAsyncCPP16ProducerKeyborad3runEv:0000000000000040 .L0 
     /tmp/ccBYUnRY.s:1807   .text._ZN24ConsumerProducerAsyncCPP16ProducerKeyborad3runEv:0000000000000040 .L0 
     /tmp/ccBYUnRY.s:1810   .text._ZN24ConsumerProducerAsyncCPP16ProducerKeyborad3runEv:000000000000004c .L0 
     /tmp/ccBYUnRY.s:1812   .text._ZN24ConsumerProducerAsyncCPP16ProducerKeyborad3runEv:0000000000000050 .L0 
     /tmp/ccBYUnRY.s:1819   .text._ZN24ConsumerProducerAsyncCPP16ProducerKeyborad3runEv:0000000000000060 .L0 
     /tmp/ccBYUnRY.s:1821   .text._ZN24ConsumerProducerAsyncCPP16ProducerKeyborad3runEv:0000000000000064 .L0 
     /tmp/ccBYUnRY.s:1825   .text._ZN24ConsumerProducerAsyncCPP16ProducerKeyborad3runEv:0000000000000070 .L0 
     /tmp/ccBYUnRY.s:1826   .text._ZN24ConsumerProducerAsyncCPP16ProducerKeyborad3runEv:0000000000000074 .L0 
     /tmp/ccBYUnRY.s:1828   .text._ZN24ConsumerProducerAsyncCPP16ProducerKeyborad3runEv:0000000000000078 .L0 
     /tmp/ccBYUnRY.s:1829   .text._ZN24ConsumerProducerAsyncCPP16ProducerKeyborad3runEv:0000000000000078 .L0 
     /tmp/ccBYUnRY.s:1831   .text._ZN24ConsumerProducerAsyncCPP16ProducerKeyborad3runEv:000000000000007c .L0 
     /tmp/ccBYUnRY.s:1834   .text._ZN24ConsumerProducerAsyncCPP16ProducerKeyborad3runEv:0000000000000080 .L0 
     /tmp/ccBYUnRY.s:1836   .text._ZN24ConsumerProducerAsyncCPP16ProducerKeyborad3runEv:0000000000000084 .L0 
     /tmp/ccBYUnRY.s:1843   .text._ZN24ConsumerProducerAsyncCPP8Consumer3runEv:0000000000000000 _ZN24ConsumerProducerAsyncCPP8Consumer3runEv
     /tmp/ccBYUnRY.s:1846   .text._ZN24ConsumerProducerAsyncCPP8Consumer3runEv:0000000000000000 .L0 
     /tmp/ccBYUnRY.s:1848   .text._ZN24ConsumerProducerAsyncCPP8Consumer3runEv:0000000000000000 .L0 
     /tmp/ccBYUnRY.s:1849   .text._ZN24ConsumerProducerAsyncCPP8Consumer3runEv:0000000000000004 .L0 
     /tmp/ccBYUnRY.s:1855   .text._ZN24ConsumerProducerAsyncCPP8Consumer3runEv:0000000000000018 .L0 
     /tmp/ccBYUnRY.s:1856   .text._ZN24ConsumerProducerAsyncCPP8Consumer3runEv:0000000000000018 .L0 
     /tmp/ccBYUnRY.s:1857   .text._ZN24ConsumerProducerAsyncCPP8Consumer3runEv:0000000000000018 .L0 
     /tmp/ccBYUnRY.s:1858   .text._ZN24ConsumerProducerAsyncCPP8Consumer3runEv:0000000000000018 .L0 
     /tmp/ccBYUnRY.s:1859   .text._ZN24ConsumerProducerAsyncCPP8Consumer3runEv:0000000000000018 .L0 
     /tmp/ccBYUnRY.s:1861   .text._ZN24ConsumerProducerAsyncCPP8Consumer3runEv:000000000000001c .L0 
     /tmp/ccBYUnRY.s:1865   .text._ZN24ConsumerProducerAsyncCPP8Consumer3runEv:0000000000000020 .L0 
     /tmp/ccBYUnRY.s:1866   .text._ZN24ConsumerProducerAsyncCPP8Consumer3runEv:0000000000000020 .L0 
     /tmp/ccBYUnRY.s:1872   .text._ZN24ConsumerProducerAsyncCPP8Consumer3runEv:0000000000000028 .L0 
     /tmp/ccBYUnRY.s:1873   .text._ZN24ConsumerProducerAsyncCPP8Consumer3runEv:0000000000000028 .L0 
     /tmp/ccBYUnRY.s:1879   .text._ZN24ConsumerProducerAsyncCPP8Consumer3runEv:0000000000000034 .L0 
     /tmp/ccBYUnRY.s:1880   .text._ZN24ConsumerProducerAsyncCPP8Consumer3runEv:0000000000000034 .L0 
     /tmp/ccBYUnRY.s:1884   .text._ZN24ConsumerProducerAsyncCPP8Consumer3runEv:0000000000000040 .L0 
     /tmp/ccBYUnRY.s:1885   .text._ZN24ConsumerProducerAsyncCPP8Consumer3runEv:0000000000000040 .L0 
     /tmp/ccBYUnRY.s:1887   .text._ZN24ConsumerProducerAsyncCPP8Consumer3runEv:0000000000000044 .L0 
     /tmp/ccBYUnRY.s:1891   .text._ZN24ConsumerProducerAsyncCPP8Consumer3runEv:0000000000000050 .L0 
     /tmp/ccBYUnRY.s:1892   .text._ZN24ConsumerProducerAsyncCPP8Consumer3runEv:0000000000000050 .L0 
     /tmp/ccBYUnRY.s:1896   .text._ZN24ConsumerProducerAsyncCPP8Consumer3runEv:0000000000000058 .L0 
     /tmp/ccBYUnRY.s:1897   .text._ZN24ConsumerProducerAsyncCPP8Consumer3runEv:0000000000000058 .L0 
     /tmp/ccBYUnRY.s:1902   .text._ZN24ConsumerProducerAsyncCPP8Consumer3runEv:0000000000000064 .L0 
     /tmp/ccBYUnRY.s:1903   .text._ZN24ConsumerProducerAsyncCPP8Consumer3runEv:0000000000000064 .L0 
     /tmp/ccBYUnRY.s:1907   .text._ZN24ConsumerProducerAsyncCPP8Consumer3runEv:000000000000006c .L0 
     /tmp/ccBYUnRY.s:1913   .text._ZN24ConsumerProducerAsyncCPP8Consumer3runEv:0000000000000074 .L0 
     /tmp/ccBYUnRY.s:1914   .text._ZN24ConsumerProducerAsyncCPP8Consumer3runEv:0000000000000074 .L0 
     /tmp/ccBYUnRY.s:1916   .text._ZN24ConsumerProducerAsyncCPP8Consumer3runEv:0000000000000078 .L0 
     /tmp/ccBYUnRY.s:1920   .text._ZN24ConsumerProducerAsyncCPP8Consumer3runEv:0000000000000084 .L0 
     /tmp/ccBYUnRY.s:1921   .text._ZN24ConsumerProducerAsyncCPP8Consumer3runEv:0000000000000084 .L0 
     /tmp/ccBYUnRY.s:1928   .text._ZN24ConsumerProducerAsyncCPP8Consumer3runEv:0000000000000090 .L0 
     /tmp/ccBYUnRY.s:1929   .text._ZN24ConsumerProducerAsyncCPP8Consumer3runEv:0000000000000090 .L0 
GAS LISTING /tmp/ccBYUnRY.s 			page 181


     /tmp/ccBYUnRY.s:1930   .text._ZN24ConsumerProducerAsyncCPP8Consumer3runEv:0000000000000090 .L0 
     /tmp/ccBYUnRY.s:1932   .text._ZN24ConsumerProducerAsyncCPP8Consumer3runEv:0000000000000094 .L0 
     /tmp/ccBYUnRY.s:1936   .text._ZN24ConsumerProducerAsyncCPP8Consumer3runEv:00000000000000a0 .L0 
     /tmp/ccBYUnRY.s:1938   .text._ZN24ConsumerProducerAsyncCPP8Consumer3runEv:00000000000000a4 .L0 
     /tmp/ccBYUnRY.s:1940   .text._ZN24ConsumerProducerAsyncCPP8Consumer3runEv:00000000000000a8 .L0 
     /tmp/ccBYUnRY.s:1944   .text._ZN24ConsumerProducerAsyncCPP8Consumer3runEv:00000000000000b4 .L0 
     /tmp/ccBYUnRY.s:1945   .text._ZN24ConsumerProducerAsyncCPP8Consumer3runEv:00000000000000b8 .L0 
     /tmp/ccBYUnRY.s:1947   .text._ZN24ConsumerProducerAsyncCPP8Consumer3runEv:00000000000000bc .L0 
     /tmp/ccBYUnRY.s:1948   .text._ZN24ConsumerProducerAsyncCPP8Consumer3runEv:00000000000000bc .L0 
     /tmp/ccBYUnRY.s:1950   .text._ZN24ConsumerProducerAsyncCPP8Consumer3runEv:00000000000000c0 .L0 
     /tmp/ccBYUnRY.s:1952   .text._ZN24ConsumerProducerAsyncCPP8Consumer3runEv:00000000000000c4 .L0 
     /tmp/ccBYUnRY.s:1955   .text._ZN24ConsumerProducerAsyncCPP8Consumer3runEv:00000000000000c8 .L0 
     /tmp/ccBYUnRY.s:1958   .text._ZN24ConsumerProducerAsyncCPP8Consumer3runEv:00000000000000cc .L0 
     /tmp/ccBYUnRY.s:1960   .text._ZN24ConsumerProducerAsyncCPP8Consumer3runEv:00000000000000d0 .L0 
     /tmp/ccBYUnRY.s:1967   .text._ZN19PeriodicThreadsTest1A18periodicActivationEv:0000000000000000 _ZN19PeriodicThreadsTest1A18periodicActivationEv
     /tmp/ccBYUnRY.s:1970   .text._ZN19PeriodicThreadsTest1A18periodicActivationEv:0000000000000000 .L0 
     /tmp/ccBYUnRY.s:1972   .text._ZN19PeriodicThreadsTest1A18periodicActivationEv:0000000000000000 .L0 
     /tmp/ccBYUnRY.s:1973   .text._ZN19PeriodicThreadsTest1A18periodicActivationEv:0000000000000004 .L0 
     /tmp/ccBYUnRY.s:1977   .text._ZN19PeriodicThreadsTest1A18periodicActivationEv:0000000000000010 .L0 
     /tmp/ccBYUnRY.s:1978   .text._ZN19PeriodicThreadsTest1A18periodicActivationEv:0000000000000010 .L0 
     /tmp/ccBYUnRY.s:1979   .text._ZN19PeriodicThreadsTest1A18periodicActivationEv:0000000000000010 .L0 
     /tmp/ccBYUnRY.s:1981   .text._ZN19PeriodicThreadsTest1A18periodicActivationEv:0000000000000014 .L0 
     /tmp/ccBYUnRY.s:1983   .text._ZN19PeriodicThreadsTest1A18periodicActivationEv:0000000000000014 .L0 
     /tmp/ccBYUnRY.s:1984   .text._ZN19PeriodicThreadsTest1A18periodicActivationEv:0000000000000014 .L0 
     /tmp/ccBYUnRY.s:1990   .text._ZN19PeriodicThreadsTest1A18periodicActivationEv:0000000000000028 .L0 
     /tmp/ccBYUnRY.s:1991   .text._ZN19PeriodicThreadsTest1A18periodicActivationEv:0000000000000028 .L0 
     /tmp/ccBYUnRY.s:1995   .text._ZN19PeriodicThreadsTest1A18periodicActivationEv:0000000000000034 .L0 
     /tmp/ccBYUnRY.s:1996   .text._ZN19PeriodicThreadsTest1A18periodicActivationEv:0000000000000034 .L0 
     /tmp/ccBYUnRY.s:2000   .text._ZN19PeriodicThreadsTest1A18periodicActivationEv:0000000000000040 .L0 
     /tmp/ccBYUnRY.s:2001   .text._ZN19PeriodicThreadsTest1A18periodicActivationEv:0000000000000040 .L0 
     /tmp/ccBYUnRY.s:2005   .text._ZN19PeriodicThreadsTest1A18periodicActivationEv:000000000000004c .L0 
     /tmp/ccBYUnRY.s:2006   .text._ZN19PeriodicThreadsTest1A18periodicActivationEv:0000000000000050 .L0 
     /tmp/ccBYUnRY.s:2008   .text._ZN19PeriodicThreadsTest1A18periodicActivationEv:0000000000000054 .L0 
     /tmp/ccBYUnRY.s:2009   .text._ZN19PeriodicThreadsTest1A18periodicActivationEv:0000000000000054 .L0 
     /tmp/ccBYUnRY.s:2011   .text._ZN19PeriodicThreadsTest1A18periodicActivationEv:0000000000000058 .L0 
     /tmp/ccBYUnRY.s:2013   .text._ZN19PeriodicThreadsTest1A18periodicActivationEv:000000000000005c .L0 
     /tmp/ccBYUnRY.s:2015   .text._ZN19PeriodicThreadsTest1A18periodicActivationEv:0000000000000060 .L0 
     /tmp/ccBYUnRY.s:2022   .text._ZN19PeriodicThreadsTest1B18periodicActivationEv:0000000000000000 _ZN19PeriodicThreadsTest1B18periodicActivationEv
     /tmp/ccBYUnRY.s:2025   .text._ZN19PeriodicThreadsTest1B18periodicActivationEv:0000000000000000 .L0 
     /tmp/ccBYUnRY.s:2027   .text._ZN19PeriodicThreadsTest1B18periodicActivationEv:0000000000000000 .L0 
     /tmp/ccBYUnRY.s:2028   .text._ZN19PeriodicThreadsTest1B18periodicActivationEv:0000000000000004 .L0 
     /tmp/ccBYUnRY.s:2032   .text._ZN19PeriodicThreadsTest1B18periodicActivationEv:0000000000000010 .L0 
     /tmp/ccBYUnRY.s:2033   .text._ZN19PeriodicThreadsTest1B18periodicActivationEv:0000000000000010 .L0 
     /tmp/ccBYUnRY.s:2034   .text._ZN19PeriodicThreadsTest1B18periodicActivationEv:0000000000000010 .L0 
     /tmp/ccBYUnRY.s:2036   .text._ZN19PeriodicThreadsTest1B18periodicActivationEv:0000000000000014 .L0 
     /tmp/ccBYUnRY.s:2038   .text._ZN19PeriodicThreadsTest1B18periodicActivationEv:0000000000000014 .L0 
     /tmp/ccBYUnRY.s:2039   .text._ZN19PeriodicThreadsTest1B18periodicActivationEv:0000000000000014 .L0 
     /tmp/ccBYUnRY.s:2045   .text._ZN19PeriodicThreadsTest1B18periodicActivationEv:0000000000000028 .L0 
     /tmp/ccBYUnRY.s:2046   .text._ZN19PeriodicThreadsTest1B18periodicActivationEv:0000000000000028 .L0 
     /tmp/ccBYUnRY.s:2050   .text._ZN19PeriodicThreadsTest1B18periodicActivationEv:0000000000000034 .L0 
     /tmp/ccBYUnRY.s:2051   .text._ZN19PeriodicThreadsTest1B18periodicActivationEv:0000000000000034 .L0 
     /tmp/ccBYUnRY.s:2055   .text._ZN19PeriodicThreadsTest1B18periodicActivationEv:0000000000000040 .L0 
     /tmp/ccBYUnRY.s:2056   .text._ZN19PeriodicThreadsTest1B18periodicActivationEv:0000000000000040 .L0 
     /tmp/ccBYUnRY.s:2060   .text._ZN19PeriodicThreadsTest1B18periodicActivationEv:000000000000004c .L0 
     /tmp/ccBYUnRY.s:2061   .text._ZN19PeriodicThreadsTest1B18periodicActivationEv:0000000000000050 .L0 
     /tmp/ccBYUnRY.s:2063   .text._ZN19PeriodicThreadsTest1B18periodicActivationEv:0000000000000054 .L0 
     /tmp/ccBYUnRY.s:2064   .text._ZN19PeriodicThreadsTest1B18periodicActivationEv:0000000000000054 .L0 
GAS LISTING /tmp/ccBYUnRY.s 			page 182


     /tmp/ccBYUnRY.s:2066   .text._ZN19PeriodicThreadsTest1B18periodicActivationEv:0000000000000058 .L0 
     /tmp/ccBYUnRY.s:2068   .text._ZN19PeriodicThreadsTest1B18periodicActivationEv:000000000000005c .L0 
     /tmp/ccBYUnRY.s:2070   .text._ZN19PeriodicThreadsTest1B18periodicActivationEv:0000000000000060 .L0 
     /tmp/ccBYUnRY.s:2077   .text._ZN19PeriodicThreadsTest1C18periodicActivationEv:0000000000000000 _ZN19PeriodicThreadsTest1C18periodicActivationEv
     /tmp/ccBYUnRY.s:2080   .text._ZN19PeriodicThreadsTest1C18periodicActivationEv:0000000000000000 .L0 
     /tmp/ccBYUnRY.s:2082   .text._ZN19PeriodicThreadsTest1C18periodicActivationEv:0000000000000000 .L0 
     /tmp/ccBYUnRY.s:2083   .text._ZN19PeriodicThreadsTest1C18periodicActivationEv:0000000000000004 .L0 
     /tmp/ccBYUnRY.s:2087   .text._ZN19PeriodicThreadsTest1C18periodicActivationEv:0000000000000010 .L0 
     /tmp/ccBYUnRY.s:2088   .text._ZN19PeriodicThreadsTest1C18periodicActivationEv:0000000000000010 .L0 
     /tmp/ccBYUnRY.s:2089   .text._ZN19PeriodicThreadsTest1C18periodicActivationEv:0000000000000010 .L0 
     /tmp/ccBYUnRY.s:2091   .text._ZN19PeriodicThreadsTest1C18periodicActivationEv:0000000000000014 .L0 
     /tmp/ccBYUnRY.s:2093   .text._ZN19PeriodicThreadsTest1C18periodicActivationEv:0000000000000014 .L0 
     /tmp/ccBYUnRY.s:2094   .text._ZN19PeriodicThreadsTest1C18periodicActivationEv:0000000000000014 .L0 
     /tmp/ccBYUnRY.s:2100   .text._ZN19PeriodicThreadsTest1C18periodicActivationEv:0000000000000028 .L0 
     /tmp/ccBYUnRY.s:2101   .text._ZN19PeriodicThreadsTest1C18periodicActivationEv:0000000000000028 .L0 
     /tmp/ccBYUnRY.s:2105   .text._ZN19PeriodicThreadsTest1C18periodicActivationEv:0000000000000034 .L0 
     /tmp/ccBYUnRY.s:2106   .text._ZN19PeriodicThreadsTest1C18periodicActivationEv:0000000000000034 .L0 
     /tmp/ccBYUnRY.s:2110   .text._ZN19PeriodicThreadsTest1C18periodicActivationEv:0000000000000040 .L0 
     /tmp/ccBYUnRY.s:2111   .text._ZN19PeriodicThreadsTest1C18periodicActivationEv:0000000000000040 .L0 
     /tmp/ccBYUnRY.s:2115   .text._ZN19PeriodicThreadsTest1C18periodicActivationEv:000000000000004c .L0 
     /tmp/ccBYUnRY.s:2116   .text._ZN19PeriodicThreadsTest1C18periodicActivationEv:0000000000000050 .L0 
     /tmp/ccBYUnRY.s:2118   .text._ZN19PeriodicThreadsTest1C18periodicActivationEv:0000000000000054 .L0 
     /tmp/ccBYUnRY.s:2119   .text._ZN19PeriodicThreadsTest1C18periodicActivationEv:0000000000000054 .L0 
     /tmp/ccBYUnRY.s:2121   .text._ZN19PeriodicThreadsTest1C18periodicActivationEv:0000000000000058 .L0 
     /tmp/ccBYUnRY.s:2123   .text._ZN19PeriodicThreadsTest1C18periodicActivationEv:000000000000005c .L0 
     /tmp/ccBYUnRY.s:2125   .text._ZN19PeriodicThreadsTest1C18periodicActivationEv:0000000000000060 .L0 
     /tmp/ccBYUnRY.s:2139   .text:00000000000003dc _ZN15ThreadSleepTest9sleepyRunEPv
     /tmp/ccBYUnRY.s:2143   .text:00000000000003dc .L0 
     /tmp/ccBYUnRY.s:2145   .text:00000000000003dc .L0 
     /tmp/ccBYUnRY.s:2146   .text:00000000000003e0 .L0 
     /tmp/ccBYUnRY.s:2151   .text:00000000000003f0 .L0 
     /tmp/ccBYUnRY.s:2152   .text:00000000000003f0 .L0 
     /tmp/ccBYUnRY.s:2153   .text:00000000000003f0 .L0 
     /tmp/ccBYUnRY.s:2154   .text:00000000000003f0 .L0 
     /tmp/ccBYUnRY.s:2156   .text:00000000000003f4 .L0 
     /tmp/ccBYUnRY.s:2158   .text:00000000000003f4 .L0 
     /tmp/ccBYUnRY.s:2159   .text:00000000000003f4 .L0 
     /tmp/ccBYUnRY.s:2162   .text:00000000000003f8 .L0 
     /tmp/ccBYUnRY.s:2163   .text:00000000000003f8 .L0 
     /tmp/ccBYUnRY.s:2167   .text:00000000000003fc .L0 
     /tmp/ccBYUnRY.s:2168   .text:00000000000003fc .L0 
     /tmp/ccBYUnRY.s:2172   .text:0000000000000404 .L0 
     /tmp/ccBYUnRY.s:2173   .text:0000000000000404 .L0 
     /tmp/ccBYUnRY.s:2177   .text:0000000000000414 .L0 
     /tmp/ccBYUnRY.s:2178   .text:0000000000000414 .L0 
     /tmp/ccBYUnRY.s:2184   .text:0000000000000428 .L0 
     /tmp/ccBYUnRY.s:2185   .text:0000000000000428 .L0 
     /tmp/ccBYUnRY.s:2189   .text:0000000000000438 .L0 
     /tmp/ccBYUnRY.s:2190   .text:0000000000000438 .L0 
     /tmp/ccBYUnRY.s:2194   .text:0000000000000444 .L0 
     /tmp/ccBYUnRY.s:2197   .text:0000000000000448 .L0 
     /tmp/ccBYUnRY.s:2198   .text:0000000000000448 .L0 
     /tmp/ccBYUnRY.s:2202   .text:0000000000000450 .L0 
     /tmp/ccBYUnRY.s:2204   .text:0000000000000454 .L0 
     /tmp/ccBYUnRY.s:2209   .text:0000000000000468 .L0 
     /tmp/ccBYUnRY.s:2210   .text:000000000000046c .L0 
     /tmp/ccBYUnRY.s:2212   .text:0000000000000470 .L0 
GAS LISTING /tmp/ccBYUnRY.s 			page 183


     /tmp/ccBYUnRY.s:2213   .text:0000000000000470 .L0 
     /tmp/ccBYUnRY.s:2215   .text:0000000000000474 .L0 
     /tmp/ccBYUnRY.s:2217   .text:0000000000000478 .L0 
     /tmp/ccBYUnRY.s:2219   .text:000000000000047c .L0 
     /tmp/ccBYUnRY.s:2221   .text:0000000000000480 .L0 
     /tmp/ccBYUnRY.s:2228   .text._ZN19PeriodicThreadsTest1A3runEv:0000000000000000 _ZN19PeriodicThreadsTest1A3runEv
     /tmp/ccBYUnRY.s:2231   .text._ZN19PeriodicThreadsTest1A3runEv:0000000000000000 .L0 
     /tmp/ccBYUnRY.s:2233   .text._ZN19PeriodicThreadsTest1A3runEv:0000000000000000 .L0 
     /tmp/ccBYUnRY.s:2234   .text._ZN19PeriodicThreadsTest1A3runEv:0000000000000004 .L0 
     /tmp/ccBYUnRY.s:2238   .text._ZN19PeriodicThreadsTest1A3runEv:0000000000000010 .L0 
     /tmp/ccBYUnRY.s:2239   .text._ZN19PeriodicThreadsTest1A3runEv:0000000000000010 .L0 
     /tmp/ccBYUnRY.s:2240   .text._ZN19PeriodicThreadsTest1A3runEv:0000000000000010 .L0 
     /tmp/ccBYUnRY.s:2242   .text._ZN19PeriodicThreadsTest1A3runEv:0000000000000014 .L0 
     /tmp/ccBYUnRY.s:2247   .text._ZN19PeriodicThreadsTest1A3runEv:0000000000000018 .L0 
     /tmp/ccBYUnRY.s:2248   .text._ZN19PeriodicThreadsTest1A3runEv:0000000000000018 .L0 
     /tmp/ccBYUnRY.s:2249   .text._ZN19PeriodicThreadsTest1A3runEv:0000000000000018 .L0 
     /tmp/ccBYUnRY.s:2251   .text._ZN19PeriodicThreadsTest1A3runEv:000000000000001c .L0 
     /tmp/ccBYUnRY.s:2253   .text._ZN19PeriodicThreadsTest1A3runEv:0000000000000020 .L0 
     /tmp/ccBYUnRY.s:2254   .text._ZN19PeriodicThreadsTest1A3runEv:0000000000000020 .L0 
     /tmp/ccBYUnRY.s:2257   .text._ZN19PeriodicThreadsTest1A3runEv:0000000000000028 .L0 
     /tmp/ccBYUnRY.s:2261   .text._ZN19PeriodicThreadsTest1A3runEv:0000000000000030 .L0 
     /tmp/ccBYUnRY.s:2262   .text._ZN19PeriodicThreadsTest1A3runEv:0000000000000030 .L0 
     /tmp/ccBYUnRY.s:2266   .text._ZN19PeriodicThreadsTest1A3runEv:000000000000003c .L0 
     /tmp/ccBYUnRY.s:2269   .text._ZN19PeriodicThreadsTest1A3runEv:0000000000000040 .L0 
     /tmp/ccBYUnRY.s:2270   .text._ZN19PeriodicThreadsTest1A3runEv:0000000000000040 .L0 
     /tmp/ccBYUnRY.s:2274   .text._ZN19PeriodicThreadsTest1A3runEv:0000000000000050 .L0 
     /tmp/ccBYUnRY.s:2275   .text._ZN19PeriodicThreadsTest1A3runEv:0000000000000054 .L0 
     /tmp/ccBYUnRY.s:2277   .text._ZN19PeriodicThreadsTest1A3runEv:0000000000000058 .L0 
     /tmp/ccBYUnRY.s:2278   .text._ZN19PeriodicThreadsTest1A3runEv:0000000000000058 .L0 
     /tmp/ccBYUnRY.s:2280   .text._ZN19PeriodicThreadsTest1A3runEv:000000000000005c .L0 
     /tmp/ccBYUnRY.s:2283   .text._ZN19PeriodicThreadsTest1A3runEv:0000000000000060 .L0 
     /tmp/ccBYUnRY.s:2285   .text._ZN19PeriodicThreadsTest1A3runEv:0000000000000064 .L0 
     /tmp/ccBYUnRY.s:2292   .text._ZN19PeriodicThreadsTest1B3runEv:0000000000000000 _ZN19PeriodicThreadsTest1B3runEv
     /tmp/ccBYUnRY.s:2295   .text._ZN19PeriodicThreadsTest1B3runEv:0000000000000000 .L0 
     /tmp/ccBYUnRY.s:2297   .text._ZN19PeriodicThreadsTest1B3runEv:0000000000000000 .L0 
     /tmp/ccBYUnRY.s:2298   .text._ZN19PeriodicThreadsTest1B3runEv:0000000000000004 .L0 
     /tmp/ccBYUnRY.s:2302   .text._ZN19PeriodicThreadsTest1B3runEv:0000000000000010 .L0 
     /tmp/ccBYUnRY.s:2303   .text._ZN19PeriodicThreadsTest1B3runEv:0000000000000010 .L0 
     /tmp/ccBYUnRY.s:2304   .text._ZN19PeriodicThreadsTest1B3runEv:0000000000000010 .L0 
     /tmp/ccBYUnRY.s:2306   .text._ZN19PeriodicThreadsTest1B3runEv:0000000000000014 .L0 
     /tmp/ccBYUnRY.s:2311   .text._ZN19PeriodicThreadsTest1B3runEv:0000000000000018 .L0 
     /tmp/ccBYUnRY.s:2312   .text._ZN19PeriodicThreadsTest1B3runEv:0000000000000018 .L0 
     /tmp/ccBYUnRY.s:2313   .text._ZN19PeriodicThreadsTest1B3runEv:0000000000000018 .L0 
     /tmp/ccBYUnRY.s:2315   .text._ZN19PeriodicThreadsTest1B3runEv:000000000000001c .L0 
     /tmp/ccBYUnRY.s:2317   .text._ZN19PeriodicThreadsTest1B3runEv:0000000000000020 .L0 
     /tmp/ccBYUnRY.s:2318   .text._ZN19PeriodicThreadsTest1B3runEv:0000000000000020 .L0 
     /tmp/ccBYUnRY.s:2321   .text._ZN19PeriodicThreadsTest1B3runEv:0000000000000028 .L0 
     /tmp/ccBYUnRY.s:2325   .text._ZN19PeriodicThreadsTest1B3runEv:0000000000000030 .L0 
     /tmp/ccBYUnRY.s:2326   .text._ZN19PeriodicThreadsTest1B3runEv:0000000000000030 .L0 
     /tmp/ccBYUnRY.s:2330   .text._ZN19PeriodicThreadsTest1B3runEv:000000000000003c .L0 
     /tmp/ccBYUnRY.s:2333   .text._ZN19PeriodicThreadsTest1B3runEv:0000000000000040 .L0 
     /tmp/ccBYUnRY.s:2334   .text._ZN19PeriodicThreadsTest1B3runEv:0000000000000040 .L0 
     /tmp/ccBYUnRY.s:2338   .text._ZN19PeriodicThreadsTest1B3runEv:0000000000000050 .L0 
     /tmp/ccBYUnRY.s:2339   .text._ZN19PeriodicThreadsTest1B3runEv:0000000000000054 .L0 
     /tmp/ccBYUnRY.s:2341   .text._ZN19PeriodicThreadsTest1B3runEv:0000000000000058 .L0 
     /tmp/ccBYUnRY.s:2342   .text._ZN19PeriodicThreadsTest1B3runEv:0000000000000058 .L0 
     /tmp/ccBYUnRY.s:2344   .text._ZN19PeriodicThreadsTest1B3runEv:000000000000005c .L0 
GAS LISTING /tmp/ccBYUnRY.s 			page 184


     /tmp/ccBYUnRY.s:2347   .text._ZN19PeriodicThreadsTest1B3runEv:0000000000000060 .L0 
     /tmp/ccBYUnRY.s:2349   .text._ZN19PeriodicThreadsTest1B3runEv:0000000000000064 .L0 
     /tmp/ccBYUnRY.s:2356   .text._ZN19PeriodicThreadsTest1C3runEv:0000000000000000 _ZN19PeriodicThreadsTest1C3runEv
     /tmp/ccBYUnRY.s:2359   .text._ZN19PeriodicThreadsTest1C3runEv:0000000000000000 .L0 
     /tmp/ccBYUnRY.s:2361   .text._ZN19PeriodicThreadsTest1C3runEv:0000000000000000 .L0 
     /tmp/ccBYUnRY.s:2362   .text._ZN19PeriodicThreadsTest1C3runEv:0000000000000004 .L0 
     /tmp/ccBYUnRY.s:2366   .text._ZN19PeriodicThreadsTest1C3runEv:0000000000000010 .L0 
     /tmp/ccBYUnRY.s:2367   .text._ZN19PeriodicThreadsTest1C3runEv:0000000000000010 .L0 
     /tmp/ccBYUnRY.s:2368   .text._ZN19PeriodicThreadsTest1C3runEv:0000000000000010 .L0 
     /tmp/ccBYUnRY.s:2370   .text._ZN19PeriodicThreadsTest1C3runEv:0000000000000014 .L0 
     /tmp/ccBYUnRY.s:2375   .text._ZN19PeriodicThreadsTest1C3runEv:0000000000000018 .L0 
     /tmp/ccBYUnRY.s:2376   .text._ZN19PeriodicThreadsTest1C3runEv:0000000000000018 .L0 
     /tmp/ccBYUnRY.s:2377   .text._ZN19PeriodicThreadsTest1C3runEv:0000000000000018 .L0 
     /tmp/ccBYUnRY.s:2379   .text._ZN19PeriodicThreadsTest1C3runEv:000000000000001c .L0 
     /tmp/ccBYUnRY.s:2381   .text._ZN19PeriodicThreadsTest1C3runEv:0000000000000020 .L0 
     /tmp/ccBYUnRY.s:2382   .text._ZN19PeriodicThreadsTest1C3runEv:0000000000000020 .L0 
     /tmp/ccBYUnRY.s:2385   .text._ZN19PeriodicThreadsTest1C3runEv:0000000000000028 .L0 
     /tmp/ccBYUnRY.s:2389   .text._ZN19PeriodicThreadsTest1C3runEv:0000000000000030 .L0 
     /tmp/ccBYUnRY.s:2390   .text._ZN19PeriodicThreadsTest1C3runEv:0000000000000030 .L0 
     /tmp/ccBYUnRY.s:2394   .text._ZN19PeriodicThreadsTest1C3runEv:000000000000003c .L0 
     /tmp/ccBYUnRY.s:2397   .text._ZN19PeriodicThreadsTest1C3runEv:0000000000000040 .L0 
     /tmp/ccBYUnRY.s:2398   .text._ZN19PeriodicThreadsTest1C3runEv:0000000000000040 .L0 
     /tmp/ccBYUnRY.s:2402   .text._ZN19PeriodicThreadsTest1C3runEv:0000000000000050 .L0 
     /tmp/ccBYUnRY.s:2403   .text._ZN19PeriodicThreadsTest1C3runEv:0000000000000054 .L0 
     /tmp/ccBYUnRY.s:2405   .text._ZN19PeriodicThreadsTest1C3runEv:0000000000000058 .L0 
     /tmp/ccBYUnRY.s:2406   .text._ZN19PeriodicThreadsTest1C3runEv:0000000000000058 .L0 
     /tmp/ccBYUnRY.s:2408   .text._ZN19PeriodicThreadsTest1C3runEv:000000000000005c .L0 
     /tmp/ccBYUnRY.s:2411   .text._ZN19PeriodicThreadsTest1C3runEv:0000000000000060 .L0 
     /tmp/ccBYUnRY.s:2413   .text._ZN19PeriodicThreadsTest1C3runEv:0000000000000064 .L0 
     /tmp/ccBYUnRY.s:2420   .text._ZN24ConsumerProducerAsyncCPP8Producer3runEv:0000000000000000 _ZN24ConsumerProducerAsyncCPP8Producer3runEv
     /tmp/ccBYUnRY.s:2423   .text._ZN24ConsumerProducerAsyncCPP8Producer3runEv:0000000000000000 .L0 
     /tmp/ccBYUnRY.s:2425   .text._ZN24ConsumerProducerAsyncCPP8Producer3runEv:0000000000000000 .L0 
     /tmp/ccBYUnRY.s:2426   .text._ZN24ConsumerProducerAsyncCPP8Producer3runEv:0000000000000004 .L0 
     /tmp/ccBYUnRY.s:2431   .text._ZN24ConsumerProducerAsyncCPP8Producer3runEv:0000000000000014 .L0 
     /tmp/ccBYUnRY.s:2432   .text._ZN24ConsumerProducerAsyncCPP8Producer3runEv:0000000000000014 .L0 
     /tmp/ccBYUnRY.s:2433   .text._ZN24ConsumerProducerAsyncCPP8Producer3runEv:0000000000000014 .L0 
     /tmp/ccBYUnRY.s:2434   .text._ZN24ConsumerProducerAsyncCPP8Producer3runEv:0000000000000014 .L0 
     /tmp/ccBYUnRY.s:2436   .text._ZN24ConsumerProducerAsyncCPP8Producer3runEv:0000000000000018 .L0 
     /tmp/ccBYUnRY.s:2440   .text._ZN24ConsumerProducerAsyncCPP8Producer3runEv:000000000000001c .L0 
     /tmp/ccBYUnRY.s:2441   .text._ZN24ConsumerProducerAsyncCPP8Producer3runEv:000000000000001c .L0 
     /tmp/ccBYUnRY.s:2445   .text._ZN24ConsumerProducerAsyncCPP8Producer3runEv:0000000000000020 .L0 
     /tmp/ccBYUnRY.s:2446   .text._ZN24ConsumerProducerAsyncCPP8Producer3runEv:0000000000000020 .L0 
     /tmp/ccBYUnRY.s:2449   .text._ZN24ConsumerProducerAsyncCPP8Producer3runEv:000000000000002c .L0 
     /tmp/ccBYUnRY.s:2451   .text._ZN24ConsumerProducerAsyncCPP8Producer3runEv:0000000000000030 .L0 
     /tmp/ccBYUnRY.s:2453   .text._ZN24ConsumerProducerAsyncCPP8Producer3runEv:0000000000000034 .L0 
     /tmp/ccBYUnRY.s:2458   .text._ZN24ConsumerProducerAsyncCPP8Producer3runEv:0000000000000044 .L0 
     /tmp/ccBYUnRY.s:2459   .text._ZN24ConsumerProducerAsyncCPP8Producer3runEv:0000000000000044 .L0 
     /tmp/ccBYUnRY.s:2463   .text._ZN24ConsumerProducerAsyncCPP8Producer3runEv:000000000000004c .L0 
     /tmp/ccBYUnRY.s:2464   .text._ZN24ConsumerProducerAsyncCPP8Producer3runEv:000000000000004c .L0 
     /tmp/ccBYUnRY.s:2466   .text._ZN24ConsumerProducerAsyncCPP8Producer3runEv:0000000000000050 .L0 
     /tmp/ccBYUnRY.s:2468   .text._ZN24ConsumerProducerAsyncCPP8Producer3runEv:0000000000000054 .L0 
     /tmp/ccBYUnRY.s:2470   .text._ZN24ConsumerProducerAsyncCPP8Producer3runEv:0000000000000058 .L0 
     /tmp/ccBYUnRY.s:2475   .text._ZN24ConsumerProducerAsyncCPP8Producer3runEv:0000000000000068 .L0 
     /tmp/ccBYUnRY.s:2478   .text._ZN24ConsumerProducerAsyncCPP8Producer3runEv:000000000000006c .L0 
     /tmp/ccBYUnRY.s:2480   .text._ZN24ConsumerProducerAsyncCPP8Producer3runEv:0000000000000070 .L0 
     /tmp/ccBYUnRY.s:2484   .text._ZN24ConsumerProducerAsyncCPP8Producer3runEv:000000000000007c .L0 
     /tmp/ccBYUnRY.s:2485   .text._ZN24ConsumerProducerAsyncCPP8Producer3runEv:0000000000000080 .L0 
GAS LISTING /tmp/ccBYUnRY.s 			page 185


     /tmp/ccBYUnRY.s:2487   .text._ZN24ConsumerProducerAsyncCPP8Producer3runEv:0000000000000084 .L0 
     /tmp/ccBYUnRY.s:2488   .text._ZN24ConsumerProducerAsyncCPP8Producer3runEv:0000000000000084 .L0 
     /tmp/ccBYUnRY.s:2490   .text._ZN24ConsumerProducerAsyncCPP8Producer3runEv:0000000000000088 .L0 
     /tmp/ccBYUnRY.s:2493   .text._ZN24ConsumerProducerAsyncCPP8Producer3runEv:000000000000008c .L0 
     /tmp/ccBYUnRY.s:2496   .text._ZN24ConsumerProducerAsyncCPP8Producer3runEv:0000000000000090 .L0 
     /tmp/ccBYUnRY.s:2498   .text._ZN24ConsumerProducerAsyncCPP8Producer3runEv:0000000000000094 .L0 
     /tmp/ccBYUnRY.s:2505   .text:0000000000000480 _ZN12ThreadsTestC9fibonacciEm
     /tmp/ccBYUnRY.s:2508   .text:0000000000000480 .L0 
     /tmp/ccBYUnRY.s:2510   .text:0000000000000480 .L0 
     /tmp/ccBYUnRY.s:2511   .text:0000000000000484 .L0 
     /tmp/ccBYUnRY.s:2516   .text:0000000000000494 .L0 
     /tmp/ccBYUnRY.s:2517   .text:0000000000000494 .L0 
     /tmp/ccBYUnRY.s:2518   .text:0000000000000494 .L0 
     /tmp/ccBYUnRY.s:2519   .text:0000000000000494 .L0 
     /tmp/ccBYUnRY.s:2521   .text:0000000000000498 .L0 
     /tmp/ccBYUnRY.s:2524   .text:000000000000049c .L0 
     /tmp/ccBYUnRY.s:2527   .text:00000000000004a4 .L0 
     /tmp/ccBYUnRY.s:2528   .text:00000000000004a4 .L0 
     /tmp/ccBYUnRY.s:2531   .text:00000000000004ac .L0 
     /tmp/ccBYUnRY.s:2535   .text:00000000000004b0 .L0 
     /tmp/ccBYUnRY.s:2536   .text:00000000000004b0 .L0 
     /tmp/ccBYUnRY.s:2541   .text:00000000000004c0 .L0 
     /tmp/ccBYUnRY.s:2545   .text:00000000000004cc .L0 
     /tmp/ccBYUnRY.s:2548   .text:00000000000004d0 .L0 
     /tmp/ccBYUnRY.s:2549   .text:00000000000004d4 .L0 
     /tmp/ccBYUnRY.s:2550   .text:00000000000004d4 .L0 
     /tmp/ccBYUnRY.s:2552   .text:00000000000004d8 .L0 
     /tmp/ccBYUnRY.s:2553   .text:00000000000004d8 .L0 
     /tmp/ccBYUnRY.s:2555   .text:00000000000004dc .L0 
     /tmp/ccBYUnRY.s:2558   .text:00000000000004e0 .L0 
     /tmp/ccBYUnRY.s:2560   .text:00000000000004e4 .L0 
     /tmp/ccBYUnRY.s:2564   .text:00000000000004e8 .L0 
     /tmp/ccBYUnRY.s:2566   .text:00000000000004e8 .L0 
     /tmp/ccBYUnRY.s:2567   .text:00000000000004e8 .L0 
     /tmp/ccBYUnRY.s:2570   .text:00000000000004f4 .L0 
     /tmp/ccBYUnRY.s:2593   .text:00000000000004f4 _ZN12ThreadsTestC11workerBodyCEPv
     /tmp/ccBYUnRY.s:2596   .text:00000000000004f4 .L0 
     /tmp/ccBYUnRY.s:2598   .text:00000000000004f4 .L0 
     /tmp/ccBYUnRY.s:2599   .text:00000000000004f8 .L0 
     /tmp/ccBYUnRY.s:2604   .text:0000000000000508 .L0 
     /tmp/ccBYUnRY.s:2605   .text:0000000000000508 .L0 
     /tmp/ccBYUnRY.s:2606   .text:0000000000000508 .L0 
     /tmp/ccBYUnRY.s:2607   .text:0000000000000508 .L0 
     /tmp/ccBYUnRY.s:2609   .text:000000000000050c .L0 
     /tmp/ccBYUnRY.s:2612   .text:000000000000050c .L0 
     /tmp/ccBYUnRY.s:2613   .text:000000000000050c .L0 
     /tmp/ccBYUnRY.s:2618   .text:0000000000000514 .L0 
     /tmp/ccBYUnRY.s:2619   .text:0000000000000514 .L0 
     /tmp/ccBYUnRY.s:2623   .text:0000000000000524 .L0 
     /tmp/ccBYUnRY.s:2624   .text:0000000000000524 .L0 
     /tmp/ccBYUnRY.s:2630   .text:0000000000000538 .L0 
     /tmp/ccBYUnRY.s:2631   .text:0000000000000538 .L0 
     /tmp/ccBYUnRY.s:2635   .text:0000000000000548 .L0 
     /tmp/ccBYUnRY.s:2641   .text:0000000000000550 .L0 
     /tmp/ccBYUnRY.s:2642   .text:0000000000000550 .L0 
     /tmp/ccBYUnRY.s:2645   .text:0000000000000558 .L0 
     /tmp/ccBYUnRY.s:2646   .text:0000000000000558 .L0 
GAS LISTING /tmp/ccBYUnRY.s 			page 186


     /tmp/ccBYUnRY.s:2650   .text:0000000000000568 .L0 
src/Code/../../h/Testing/Testing_OS1/Threads_C_API_Test.hpp:51     .text:0000000000000568 .L0 
     /tmp/ccBYUnRY.s:2656   .text:000000000000056c .L0 
     /tmp/ccBYUnRY.s:2658   .text:000000000000056c .L0 
     /tmp/ccBYUnRY.s:2661   .text:0000000000000574 .L0 
     /tmp/ccBYUnRY.s:2662   .text:0000000000000574 .L0 
src/Code/../../h/Testing/Testing_OS1/Threads_C_API_Test.hpp:55     .text:0000000000000574 .L0 
     /tmp/ccBYUnRY.s:2669   .text:0000000000000578 .L0 
     /tmp/ccBYUnRY.s:2671   .text:0000000000000578 .L0 
     /tmp/ccBYUnRY.s:2675   .text:0000000000000588 .L0 
     /tmp/ccBYUnRY.s:2676   .text:0000000000000588 .L0 
     /tmp/ccBYUnRY.s:2682   .text:000000000000059c .L0 
     /tmp/ccBYUnRY.s:2683   .text:000000000000059c .L0 
     /tmp/ccBYUnRY.s:2687   .text:00000000000005ac .L0 
     /tmp/ccBYUnRY.s:2688   .text:00000000000005ac .L0 
     /tmp/ccBYUnRY.s:2694   .text:00000000000005bc .L0 
     /tmp/ccBYUnRY.s:2695   .text:00000000000005bc .L0 
     /tmp/ccBYUnRY.s:2700   .text:00000000000005cc .L0 
     /tmp/ccBYUnRY.s:2701   .text:00000000000005cc .L0 
     /tmp/ccBYUnRY.s:2707   .text:00000000000005e0 .L0 
     /tmp/ccBYUnRY.s:2708   .text:00000000000005e0 .L0 
     /tmp/ccBYUnRY.s:2714   .text:00000000000005f4 .L0 
     /tmp/ccBYUnRY.s:2715   .text:00000000000005f4 .L0 
     /tmp/ccBYUnRY.s:2719   .text:0000000000000604 .L0 
     /tmp/ccBYUnRY.s:2720   .text:0000000000000604 .L0 
     /tmp/ccBYUnRY.s:2726   .text:0000000000000618 .L0 
     /tmp/ccBYUnRY.s:2727   .text:0000000000000618 .L0 
     /tmp/ccBYUnRY.s:2731   .text:0000000000000628 .L0 
     /tmp/ccBYUnRY.s:2737   .text:0000000000000630 .L0 
     /tmp/ccBYUnRY.s:2738   .text:0000000000000630 .L0 
     /tmp/ccBYUnRY.s:2741   .text:0000000000000638 .L0 
     /tmp/ccBYUnRY.s:2742   .text:0000000000000638 .L0 
     /tmp/ccBYUnRY.s:2746   .text:0000000000000648 .L0 
     /tmp/ccBYUnRY.s:2747   .text:0000000000000648 .L0 
     /tmp/ccBYUnRY.s:2750   .text:0000000000000654 .L0 
     /tmp/ccBYUnRY.s:2751   .text:0000000000000654 .L0 
     /tmp/ccBYUnRY.s:2754   .text:000000000000065c .L0 
     /tmp/ccBYUnRY.s:2755   .text:0000000000000660 .L0 
     /tmp/ccBYUnRY.s:2757   .text:0000000000000664 .L0 
     /tmp/ccBYUnRY.s:2758   .text:0000000000000664 .L0 
     /tmp/ccBYUnRY.s:2760   .text:0000000000000668 .L0 
     /tmp/ccBYUnRY.s:2763   .text:000000000000066c .L0 
     /tmp/ccBYUnRY.s:2766   .text:0000000000000670 .L0 
     /tmp/ccBYUnRY.s:2768   .text:0000000000000674 .L0 
     /tmp/ccBYUnRY.s:2788   .text:0000000000000674 _ZN12ThreadsTestC11workerBodyDEPv
     /tmp/ccBYUnRY.s:2791   .text:0000000000000674 .L0 
     /tmp/ccBYUnRY.s:2793   .text:0000000000000674 .L0 
     /tmp/ccBYUnRY.s:2794   .text:0000000000000678 .L0 
     /tmp/ccBYUnRY.s:2799   .text:0000000000000688 .L0 
     /tmp/ccBYUnRY.s:2800   .text:0000000000000688 .L0 
     /tmp/ccBYUnRY.s:2801   .text:0000000000000688 .L0 
     /tmp/ccBYUnRY.s:2802   .text:0000000000000688 .L0 
     /tmp/ccBYUnRY.s:2804   .text:000000000000068c .L0 
     /tmp/ccBYUnRY.s:2807   .text:000000000000068c .L0 
     /tmp/ccBYUnRY.s:2808   .text:000000000000068c .L0 
     /tmp/ccBYUnRY.s:2813   .text:0000000000000694 .L0 
     /tmp/ccBYUnRY.s:2814   .text:0000000000000694 .L0 
GAS LISTING /tmp/ccBYUnRY.s 			page 187


     /tmp/ccBYUnRY.s:2818   .text:00000000000006a4 .L0 
     /tmp/ccBYUnRY.s:2819   .text:00000000000006a4 .L0 
     /tmp/ccBYUnRY.s:2825   .text:00000000000006b8 .L0 
     /tmp/ccBYUnRY.s:2826   .text:00000000000006b8 .L0 
     /tmp/ccBYUnRY.s:2830   .text:00000000000006c8 .L0 
     /tmp/ccBYUnRY.s:2836   .text:00000000000006d0 .L0 
     /tmp/ccBYUnRY.s:2837   .text:00000000000006d0 .L0 
     /tmp/ccBYUnRY.s:2840   .text:00000000000006d8 .L0 
     /tmp/ccBYUnRY.s:2841   .text:00000000000006d8 .L0 
     /tmp/ccBYUnRY.s:2845   .text:00000000000006e8 .L0 
src/Code/../../h/Testing/Testing_OS1/Threads_C_API_Test.hpp:78     .text:00000000000006e8 .L0 
     /tmp/ccBYUnRY.s:2851   .text:00000000000006ec .L0 
     /tmp/ccBYUnRY.s:2853   .text:00000000000006ec .L0 
     /tmp/ccBYUnRY.s:2856   .text:00000000000006f4 .L0 
     /tmp/ccBYUnRY.s:2857   .text:00000000000006f4 .L0 
     /tmp/ccBYUnRY.s:2863   .text:0000000000000704 .L0 
     /tmp/ccBYUnRY.s:2864   .text:0000000000000704 .L0 
     /tmp/ccBYUnRY.s:2869   .text:0000000000000714 .L0 
     /tmp/ccBYUnRY.s:2870   .text:0000000000000714 .L0 
     /tmp/ccBYUnRY.s:2876   .text:0000000000000728 .L0 
     /tmp/ccBYUnRY.s:2877   .text:0000000000000728 .L0 
     /tmp/ccBYUnRY.s:2883   .text:000000000000073c .L0 
     /tmp/ccBYUnRY.s:2884   .text:000000000000073c .L0 
     /tmp/ccBYUnRY.s:2888   .text:000000000000074c .L0 
     /tmp/ccBYUnRY.s:2889   .text:000000000000074c .L0 
     /tmp/ccBYUnRY.s:2895   .text:0000000000000760 .L0 
     /tmp/ccBYUnRY.s:2896   .text:0000000000000760 .L0 
     /tmp/ccBYUnRY.s:2900   .text:0000000000000770 .L0 
     /tmp/ccBYUnRY.s:2906   .text:0000000000000778 .L0 
     /tmp/ccBYUnRY.s:2907   .text:0000000000000778 .L0 
     /tmp/ccBYUnRY.s:2910   .text:0000000000000780 .L0 
     /tmp/ccBYUnRY.s:2911   .text:0000000000000780 .L0 
     /tmp/ccBYUnRY.s:2915   .text:0000000000000790 .L0 
     /tmp/ccBYUnRY.s:2916   .text:0000000000000790 .L0 
     /tmp/ccBYUnRY.s:2919   .text:000000000000079c .L0 
     /tmp/ccBYUnRY.s:2920   .text:000000000000079c .L0 
     /tmp/ccBYUnRY.s:2923   .text:00000000000007a4 .L0 
     /tmp/ccBYUnRY.s:2924   .text:00000000000007a8 .L0 
     /tmp/ccBYUnRY.s:2926   .text:00000000000007ac .L0 
     /tmp/ccBYUnRY.s:2927   .text:00000000000007ac .L0 
     /tmp/ccBYUnRY.s:2929   .text:00000000000007b0 .L0 
     /tmp/ccBYUnRY.s:2932   .text:00000000000007b4 .L0 
     /tmp/ccBYUnRY.s:2935   .text:00000000000007b8 .L0 
     /tmp/ccBYUnRY.s:2937   .text:00000000000007bc .L0 
     /tmp/ccBYUnRY.s:2957   .text:00000000000007bc _ZN12ThreadsTestC18Threads_C_API_testEv
     /tmp/ccBYUnRY.s:2960   .text:00000000000007bc .L0 
     /tmp/ccBYUnRY.s:2961   .text:00000000000007bc .L0 
     /tmp/ccBYUnRY.s:2962   .text:00000000000007c0 .L0 
     /tmp/ccBYUnRY.s:2965   .text:00000000000007c8 .L0 
     /tmp/ccBYUnRY.s:2966   .text:00000000000007c8 .L0 
     /tmp/ccBYUnRY.s:2968   .text:00000000000007cc .L0 
     /tmp/ccBYUnRY.s:2970   .text:00000000000007cc .L0 
     /tmp/ccBYUnRY.s:2971   .text:00000000000007cc .L0 
     /tmp/ccBYUnRY.s:2972   .text:00000000000007cc .L0 
     /tmp/ccBYUnRY.s:2978   .text:00000000000007e4 .L0 
     /tmp/ccBYUnRY.s:2979   .text:00000000000007e4 .L0 
     /tmp/ccBYUnRY.s:2983   .text:00000000000007f4 .L0 
GAS LISTING /tmp/ccBYUnRY.s 			page 188


     /tmp/ccBYUnRY.s:2984   .text:00000000000007f4 .L0 
     /tmp/ccBYUnRY.s:2990   .text:000000000000080c .L0 
     /tmp/ccBYUnRY.s:2991   .text:000000000000080c .L0 
     /tmp/ccBYUnRY.s:2995   .text:000000000000081c .L0 
     /tmp/ccBYUnRY.s:2996   .text:000000000000081c .L0 
     /tmp/ccBYUnRY.s:3002   .text:0000000000000834 .L0 
     /tmp/ccBYUnRY.s:3003   .text:0000000000000834 .L0 
     /tmp/ccBYUnRY.s:3007   .text:0000000000000844 .L0 
     /tmp/ccBYUnRY.s:3008   .text:0000000000000844 .L0 
     /tmp/ccBYUnRY.s:3014   .text:000000000000085c .L0 
     /tmp/ccBYUnRY.s:3015   .text:000000000000085c .L0 
     /tmp/ccBYUnRY.s:3021   .text:0000000000000870 .L0 
     /tmp/ccBYUnRY.s:3022   .text:0000000000000870 .L0 
     /tmp/ccBYUnRY.s:3026   .text:0000000000000878 .L0 
     /tmp/ccBYUnRY.s:3027   .text:0000000000000878 .L0 
     /tmp/ccBYUnRY.s:3030   .text:0000000000000884 .L0 
     /tmp/ccBYUnRY.s:3033   .text:0000000000000890 .L0 
     /tmp/ccBYUnRY.s:3036   .text:000000000000089c .L0 
     /tmp/ccBYUnRY.s:3039   .text:00000000000008a8 .L0 
     /tmp/ccBYUnRY.s:3040   .text:00000000000008ac .L0 
     /tmp/ccBYUnRY.s:3042   .text:00000000000008b0 .L0 
     /tmp/ccBYUnRY.s:3043   .text:00000000000008b0 .L0 
     /tmp/ccBYUnRY.s:3045   .text:00000000000008b4 .L0 
     /tmp/ccBYUnRY.s:3047   .text:00000000000008b8 .L0 
     /tmp/ccBYUnRY.s:3053   .text:00000000000008b8 _ZN14ThreadsTestCPP9fibonacciEm
     /tmp/ccBYUnRY.s:3056   .text:00000000000008b8 .L0 
     /tmp/ccBYUnRY.s:3058   .text:00000000000008b8 .L0 
     /tmp/ccBYUnRY.s:3059   .text:00000000000008bc .L0 
     /tmp/ccBYUnRY.s:3064   .text:00000000000008cc .L0 
     /tmp/ccBYUnRY.s:3065   .text:00000000000008cc .L0 
     /tmp/ccBYUnRY.s:3066   .text:00000000000008cc .L0 
     /tmp/ccBYUnRY.s:3067   .text:00000000000008cc .L0 
     /tmp/ccBYUnRY.s:3069   .text:00000000000008d0 .L0 
     /tmp/ccBYUnRY.s:3072   .text:00000000000008d4 .L0 
     /tmp/ccBYUnRY.s:3075   .text:00000000000008dc .L0 
     /tmp/ccBYUnRY.s:3076   .text:00000000000008dc .L0 
     /tmp/ccBYUnRY.s:3079   .text:00000000000008e4 .L0 
     /tmp/ccBYUnRY.s:3083   .text:00000000000008e8 .L0 
     /tmp/ccBYUnRY.s:3084   .text:00000000000008e8 .L0 
     /tmp/ccBYUnRY.s:3089   .text:00000000000008f8 .L0 
     /tmp/ccBYUnRY.s:3093   .text:0000000000000904 .L0 
     /tmp/ccBYUnRY.s:3096   .text:0000000000000908 .L0 
     /tmp/ccBYUnRY.s:3097   .text:000000000000090c .L0 
     /tmp/ccBYUnRY.s:3098   .text:000000000000090c .L0 
     /tmp/ccBYUnRY.s:3100   .text:0000000000000910 .L0 
     /tmp/ccBYUnRY.s:3101   .text:0000000000000910 .L0 
     /tmp/ccBYUnRY.s:3103   .text:0000000000000914 .L0 
     /tmp/ccBYUnRY.s:3106   .text:0000000000000918 .L0 
     /tmp/ccBYUnRY.s:3108   .text:000000000000091c .L0 
     /tmp/ccBYUnRY.s:3112   .text:0000000000000920 .L0 
     /tmp/ccBYUnRY.s:3114   .text:0000000000000920 .L0 
     /tmp/ccBYUnRY.s:3115   .text:0000000000000920 .L0 
     /tmp/ccBYUnRY.s:3118   .text:000000000000092c .L0 
     /tmp/ccBYUnRY.s:3124   .text:000000000000092c _ZN14ThreadsTestCPP7WorkerA11workerBodyAEPv
     /tmp/ccBYUnRY.s:3127   .text:000000000000092c .L0 
     /tmp/ccBYUnRY.s:3129   .text:000000000000092c .L0 
     /tmp/ccBYUnRY.s:3130   .text:0000000000000930 .L0 
GAS LISTING /tmp/ccBYUnRY.s 			page 189


     /tmp/ccBYUnRY.s:3135   .text:0000000000000940 .L0 
     /tmp/ccBYUnRY.s:3136   .text:0000000000000940 .L0 
     /tmp/ccBYUnRY.s:3137   .text:0000000000000940 .L0 
     /tmp/ccBYUnRY.s:3138   .text:0000000000000940 .L0 
     /tmp/ccBYUnRY.s:3140   .text:0000000000000944 .L0 
     /tmp/ccBYUnRY.s:3144   .text:0000000000000944 .L0 
     /tmp/ccBYUnRY.s:3145   .text:0000000000000944 .L0 
     /tmp/ccBYUnRY.s:3153   .text:000000000000094c .L0 
     /tmp/ccBYUnRY.s:3154   .text:000000000000094c .L0 
     /tmp/ccBYUnRY.s:3158   .text:0000000000000954 .L0 
     /tmp/ccBYUnRY.s:3162   .text:0000000000000958 .L0 
     /tmp/ccBYUnRY.s:3168   .text:0000000000000964 .L0 
     /tmp/ccBYUnRY.s:3172   .text:0000000000000968 .L0 
     /tmp/ccBYUnRY.s:3176   .text:0000000000000974 .L0 
     /tmp/ccBYUnRY.s:3186   .text:000000000000097c .L0 
     /tmp/ccBYUnRY.s:3190   .text:0000000000000980 .L0 
     /tmp/ccBYUnRY.s:3194   .text:0000000000000988 .L0 
     /tmp/ccBYUnRY.s:3195   .text:0000000000000988 .L0 
     /tmp/ccBYUnRY.s:3199   .text:0000000000000998 .L0 
     /tmp/ccBYUnRY.s:3200   .text:0000000000000998 .L0 
     /tmp/ccBYUnRY.s:3206   .text:00000000000009ac .L0 
     /tmp/ccBYUnRY.s:3207   .text:00000000000009ac .L0 
     /tmp/ccBYUnRY.s:3212   .text:00000000000009bc .L0 
     /tmp/ccBYUnRY.s:3213   .text:00000000000009bc .L0 
     /tmp/ccBYUnRY.s:3221   .text:00000000000009c4 .L0 
     /tmp/ccBYUnRY.s:3222   .text:00000000000009c4 .L0 
     /tmp/ccBYUnRY.s:3226   .text:00000000000009d4 .L0 
     /tmp/ccBYUnRY.s:3227   .text:00000000000009d4 .L0 
     /tmp/ccBYUnRY.s:3230   .text:00000000000009e0 .L0 
     /tmp/ccBYUnRY.s:3231   .text:00000000000009e4 .L0 
     /tmp/ccBYUnRY.s:3233   .text:00000000000009e8 .L0 
     /tmp/ccBYUnRY.s:3234   .text:00000000000009e8 .L0 
     /tmp/ccBYUnRY.s:3236   .text:00000000000009ec .L0 
     /tmp/ccBYUnRY.s:3238   .text:00000000000009f0 .L0 
     /tmp/ccBYUnRY.s:3241   .text:00000000000009f4 .L0 
     /tmp/ccBYUnRY.s:3243   .text:00000000000009f8 .L0 
     /tmp/ccBYUnRY.s:3250   .text._ZN14ThreadsTestCPP7WorkerA3runEv:0000000000000000 _ZN14ThreadsTestCPP7WorkerA3runEv
     /tmp/ccBYUnRY.s:3253   .text._ZN14ThreadsTestCPP7WorkerA3runEv:0000000000000000 .L0 
     /tmp/ccBYUnRY.s:3255   .text._ZN14ThreadsTestCPP7WorkerA3runEv:0000000000000000 .L0 
     /tmp/ccBYUnRY.s:3256   .text._ZN14ThreadsTestCPP7WorkerA3runEv:0000000000000004 .L0 
     /tmp/ccBYUnRY.s:3259   .text._ZN14ThreadsTestCPP7WorkerA3runEv:000000000000000c .L0 
     /tmp/ccBYUnRY.s:3260   .text._ZN14ThreadsTestCPP7WorkerA3runEv:000000000000000c .L0 
     /tmp/ccBYUnRY.s:3262   .text._ZN14ThreadsTestCPP7WorkerA3runEv:0000000000000010 .L0 
     /tmp/ccBYUnRY.s:3264   .text._ZN14ThreadsTestCPP7WorkerA3runEv:0000000000000010 .L0 
     /tmp/ccBYUnRY.s:3265   .text._ZN14ThreadsTestCPP7WorkerA3runEv:0000000000000010 .L0 
     /tmp/ccBYUnRY.s:3269   .text._ZN14ThreadsTestCPP7WorkerA3runEv:000000000000001c .L0 
     /tmp/ccBYUnRY.s:3270   .text._ZN14ThreadsTestCPP7WorkerA3runEv:0000000000000020 .L0 
     /tmp/ccBYUnRY.s:3272   .text._ZN14ThreadsTestCPP7WorkerA3runEv:0000000000000024 .L0 
     /tmp/ccBYUnRY.s:3273   .text._ZN14ThreadsTestCPP7WorkerA3runEv:0000000000000024 .L0 
     /tmp/ccBYUnRY.s:3275   .text._ZN14ThreadsTestCPP7WorkerA3runEv:0000000000000028 .L0 
     /tmp/ccBYUnRY.s:3277   .text._ZN14ThreadsTestCPP7WorkerA3runEv:000000000000002c .L0 
     /tmp/ccBYUnRY.s:3284   .text:00000000000009f8 _ZN14ThreadsTestCPP7WorkerB11workerBodyBEPv
     /tmp/ccBYUnRY.s:3287   .text:00000000000009f8 .L0 
     /tmp/ccBYUnRY.s:3289   .text:00000000000009f8 .L0 
     /tmp/ccBYUnRY.s:3290   .text:00000000000009fc .L0 
     /tmp/ccBYUnRY.s:3295   .text:0000000000000a0c .L0 
     /tmp/ccBYUnRY.s:3296   .text:0000000000000a0c .L0 
GAS LISTING /tmp/ccBYUnRY.s 			page 190


     /tmp/ccBYUnRY.s:3297   .text:0000000000000a0c .L0 
     /tmp/ccBYUnRY.s:3298   .text:0000000000000a0c .L0 
     /tmp/ccBYUnRY.s:3300   .text:0000000000000a10 .L0 
     /tmp/ccBYUnRY.s:3304   .text:0000000000000a10 .L0 
     /tmp/ccBYUnRY.s:3305   .text:0000000000000a10 .L0 
     /tmp/ccBYUnRY.s:3313   .text:0000000000000a18 .L0 
     /tmp/ccBYUnRY.s:3314   .text:0000000000000a18 .L0 
     /tmp/ccBYUnRY.s:3318   .text:0000000000000a20 .L0 
     /tmp/ccBYUnRY.s:3322   .text:0000000000000a24 .L0 
     /tmp/ccBYUnRY.s:3328   .text:0000000000000a30 .L0 
     /tmp/ccBYUnRY.s:3332   .text:0000000000000a34 .L0 
     /tmp/ccBYUnRY.s:3336   .text:0000000000000a40 .L0 
     /tmp/ccBYUnRY.s:3346   .text:0000000000000a48 .L0 
     /tmp/ccBYUnRY.s:3350   .text:0000000000000a4c .L0 
     /tmp/ccBYUnRY.s:3354   .text:0000000000000a54 .L0 
     /tmp/ccBYUnRY.s:3355   .text:0000000000000a54 .L0 
     /tmp/ccBYUnRY.s:3359   .text:0000000000000a64 .L0 
     /tmp/ccBYUnRY.s:3360   .text:0000000000000a64 .L0 
     /tmp/ccBYUnRY.s:3366   .text:0000000000000a78 .L0 
     /tmp/ccBYUnRY.s:3367   .text:0000000000000a78 .L0 
     /tmp/ccBYUnRY.s:3372   .text:0000000000000a88 .L0 
     /tmp/ccBYUnRY.s:3373   .text:0000000000000a88 .L0 
     /tmp/ccBYUnRY.s:3381   .text:0000000000000a90 .L0 
     /tmp/ccBYUnRY.s:3382   .text:0000000000000a90 .L0 
     /tmp/ccBYUnRY.s:3386   .text:0000000000000aa0 .L0 
     /tmp/ccBYUnRY.s:3387   .text:0000000000000aa0 .L0 
     /tmp/ccBYUnRY.s:3390   .text:0000000000000aac .L0 
     /tmp/ccBYUnRY.s:3391   .text:0000000000000aac .L0 
     /tmp/ccBYUnRY.s:3394   .text:0000000000000ab4 .L0 
     /tmp/ccBYUnRY.s:3395   .text:0000000000000ab8 .L0 
     /tmp/ccBYUnRY.s:3397   .text:0000000000000abc .L0 
     /tmp/ccBYUnRY.s:3398   .text:0000000000000abc .L0 
     /tmp/ccBYUnRY.s:3400   .text:0000000000000ac0 .L0 
     /tmp/ccBYUnRY.s:3402   .text:0000000000000ac4 .L0 
     /tmp/ccBYUnRY.s:3405   .text:0000000000000ac8 .L0 
     /tmp/ccBYUnRY.s:3407   .text:0000000000000acc .L0 
     /tmp/ccBYUnRY.s:3414   .text._ZN14ThreadsTestCPP7WorkerB3runEv:0000000000000000 _ZN14ThreadsTestCPP7WorkerB3runEv
     /tmp/ccBYUnRY.s:3417   .text._ZN14ThreadsTestCPP7WorkerB3runEv:0000000000000000 .L0 
     /tmp/ccBYUnRY.s:3419   .text._ZN14ThreadsTestCPP7WorkerB3runEv:0000000000000000 .L0 
     /tmp/ccBYUnRY.s:3420   .text._ZN14ThreadsTestCPP7WorkerB3runEv:0000000000000004 .L0 
     /tmp/ccBYUnRY.s:3423   .text._ZN14ThreadsTestCPP7WorkerB3runEv:000000000000000c .L0 
     /tmp/ccBYUnRY.s:3424   .text._ZN14ThreadsTestCPP7WorkerB3runEv:000000000000000c .L0 
     /tmp/ccBYUnRY.s:3426   .text._ZN14ThreadsTestCPP7WorkerB3runEv:0000000000000010 .L0 
     /tmp/ccBYUnRY.s:3428   .text._ZN14ThreadsTestCPP7WorkerB3runEv:0000000000000010 .L0 
     /tmp/ccBYUnRY.s:3429   .text._ZN14ThreadsTestCPP7WorkerB3runEv:0000000000000010 .L0 
     /tmp/ccBYUnRY.s:3433   .text._ZN14ThreadsTestCPP7WorkerB3runEv:000000000000001c .L0 
     /tmp/ccBYUnRY.s:3434   .text._ZN14ThreadsTestCPP7WorkerB3runEv:0000000000000020 .L0 
     /tmp/ccBYUnRY.s:3436   .text._ZN14ThreadsTestCPP7WorkerB3runEv:0000000000000024 .L0 
     /tmp/ccBYUnRY.s:3437   .text._ZN14ThreadsTestCPP7WorkerB3runEv:0000000000000024 .L0 
     /tmp/ccBYUnRY.s:3439   .text._ZN14ThreadsTestCPP7WorkerB3runEv:0000000000000028 .L0 
     /tmp/ccBYUnRY.s:3441   .text._ZN14ThreadsTestCPP7WorkerB3runEv:000000000000002c .L0 
     /tmp/ccBYUnRY.s:3448   .text:0000000000000acc _ZN14ThreadsTestCPP7WorkerC11workerBodyCEPv
     /tmp/ccBYUnRY.s:3451   .text:0000000000000acc .L0 
     /tmp/ccBYUnRY.s:3453   .text:0000000000000acc .L0 
     /tmp/ccBYUnRY.s:3454   .text:0000000000000ad0 .L0 
     /tmp/ccBYUnRY.s:3459   .text:0000000000000ae0 .L0 
     /tmp/ccBYUnRY.s:3460   .text:0000000000000ae0 .L0 
GAS LISTING /tmp/ccBYUnRY.s 			page 191


     /tmp/ccBYUnRY.s:3461   .text:0000000000000ae0 .L0 
     /tmp/ccBYUnRY.s:3462   .text:0000000000000ae0 .L0 
     /tmp/ccBYUnRY.s:3464   .text:0000000000000ae4 .L0 
     /tmp/ccBYUnRY.s:3467   .text:0000000000000ae4 .L0 
     /tmp/ccBYUnRY.s:3468   .text:0000000000000ae4 .L0 
     /tmp/ccBYUnRY.s:3473   .text:0000000000000aec .L0 
     /tmp/ccBYUnRY.s:3474   .text:0000000000000aec .L0 
     /tmp/ccBYUnRY.s:3478   .text:0000000000000afc .L0 
     /tmp/ccBYUnRY.s:3479   .text:0000000000000afc .L0 
     /tmp/ccBYUnRY.s:3485   .text:0000000000000b10 .L0 
     /tmp/ccBYUnRY.s:3486   .text:0000000000000b10 .L0 
     /tmp/ccBYUnRY.s:3490   .text:0000000000000b20 .L0 
     /tmp/ccBYUnRY.s:3496   .text:0000000000000b28 .L0 
     /tmp/ccBYUnRY.s:3497   .text:0000000000000b28 .L0 
     /tmp/ccBYUnRY.s:3500   .text:0000000000000b30 .L0 
     /tmp/ccBYUnRY.s:3501   .text:0000000000000b30 .L0 
     /tmp/ccBYUnRY.s:3505   .text:0000000000000b40 .L0 
src/Code/../../h/Testing/Testing_OS1/Threads_CPP_API_Test.hpp:90     .text:0000000000000b40 .L0 
     /tmp/ccBYUnRY.s:3511   .text:0000000000000b44 .L0 
     /tmp/ccBYUnRY.s:3513   .text:0000000000000b44 .L0 
     /tmp/ccBYUnRY.s:3516   .text:0000000000000b4c .L0 
     /tmp/ccBYUnRY.s:3517   .text:0000000000000b4c .L0 
src/Code/../../h/Testing/Testing_OS1/Threads_CPP_API_Test.hpp:94     .text:0000000000000b4c .L0 
     /tmp/ccBYUnRY.s:3524   .text:0000000000000b50 .L0 
     /tmp/ccBYUnRY.s:3526   .text:0000000000000b50 .L0 
     /tmp/ccBYUnRY.s:3530   .text:0000000000000b60 .L0 
     /tmp/ccBYUnRY.s:3531   .text:0000000000000b60 .L0 
     /tmp/ccBYUnRY.s:3537   .text:0000000000000b74 .L0 
     /tmp/ccBYUnRY.s:3538   .text:0000000000000b74 .L0 
     /tmp/ccBYUnRY.s:3542   .text:0000000000000b84 .L0 
     /tmp/ccBYUnRY.s:3543   .text:0000000000000b84 .L0 
     /tmp/ccBYUnRY.s:3549   .text:0000000000000b94 .L0 
     /tmp/ccBYUnRY.s:3550   .text:0000000000000b94 .L0 
     /tmp/ccBYUnRY.s:3555   .text:0000000000000ba4 .L0 
     /tmp/ccBYUnRY.s:3556   .text:0000000000000ba4 .L0 
     /tmp/ccBYUnRY.s:3562   .text:0000000000000bb8 .L0 
     /tmp/ccBYUnRY.s:3563   .text:0000000000000bb8 .L0 
     /tmp/ccBYUnRY.s:3569   .text:0000000000000bcc .L0 
     /tmp/ccBYUnRY.s:3570   .text:0000000000000bcc .L0 
     /tmp/ccBYUnRY.s:3574   .text:0000000000000bdc .L0 
     /tmp/ccBYUnRY.s:3575   .text:0000000000000bdc .L0 
     /tmp/ccBYUnRY.s:3581   .text:0000000000000bf0 .L0 
     /tmp/ccBYUnRY.s:3582   .text:0000000000000bf0 .L0 
     /tmp/ccBYUnRY.s:3586   .text:0000000000000c00 .L0 
     /tmp/ccBYUnRY.s:3592   .text:0000000000000c08 .L0 
     /tmp/ccBYUnRY.s:3593   .text:0000000000000c08 .L0 
     /tmp/ccBYUnRY.s:3596   .text:0000000000000c10 .L0 
     /tmp/ccBYUnRY.s:3597   .text:0000000000000c10 .L0 
     /tmp/ccBYUnRY.s:3601   .text:0000000000000c20 .L0 
     /tmp/ccBYUnRY.s:3602   .text:0000000000000c20 .L0 
     /tmp/ccBYUnRY.s:3605   .text:0000000000000c2c .L0 
     /tmp/ccBYUnRY.s:3606   .text:0000000000000c2c .L0 
     /tmp/ccBYUnRY.s:3609   .text:0000000000000c34 .L0 
     /tmp/ccBYUnRY.s:3610   .text:0000000000000c38 .L0 
     /tmp/ccBYUnRY.s:3612   .text:0000000000000c3c .L0 
     /tmp/ccBYUnRY.s:3613   .text:0000000000000c3c .L0 
     /tmp/ccBYUnRY.s:3615   .text:0000000000000c40 .L0 
GAS LISTING /tmp/ccBYUnRY.s 			page 192


     /tmp/ccBYUnRY.s:3618   .text:0000000000000c44 .L0 
     /tmp/ccBYUnRY.s:3621   .text:0000000000000c48 .L0 
     /tmp/ccBYUnRY.s:3623   .text:0000000000000c4c .L0 
     /tmp/ccBYUnRY.s:3630   .text._ZN14ThreadsTestCPP7WorkerC3runEv:0000000000000000 _ZN14ThreadsTestCPP7WorkerC3runEv
     /tmp/ccBYUnRY.s:3633   .text._ZN14ThreadsTestCPP7WorkerC3runEv:0000000000000000 .L0 
     /tmp/ccBYUnRY.s:3635   .text._ZN14ThreadsTestCPP7WorkerC3runEv:0000000000000000 .L0 
     /tmp/ccBYUnRY.s:3636   .text._ZN14ThreadsTestCPP7WorkerC3runEv:0000000000000004 .L0 
     /tmp/ccBYUnRY.s:3639   .text._ZN14ThreadsTestCPP7WorkerC3runEv:000000000000000c .L0 
     /tmp/ccBYUnRY.s:3640   .text._ZN14ThreadsTestCPP7WorkerC3runEv:000000000000000c .L0 
     /tmp/ccBYUnRY.s:3642   .text._ZN14ThreadsTestCPP7WorkerC3runEv:0000000000000010 .L0 
     /tmp/ccBYUnRY.s:3644   .text._ZN14ThreadsTestCPP7WorkerC3runEv:0000000000000010 .L0 
     /tmp/ccBYUnRY.s:3645   .text._ZN14ThreadsTestCPP7WorkerC3runEv:0000000000000010 .L0 
     /tmp/ccBYUnRY.s:3649   .text._ZN14ThreadsTestCPP7WorkerC3runEv:000000000000001c .L0 
     /tmp/ccBYUnRY.s:3650   .text._ZN14ThreadsTestCPP7WorkerC3runEv:0000000000000020 .L0 
     /tmp/ccBYUnRY.s:3652   .text._ZN14ThreadsTestCPP7WorkerC3runEv:0000000000000024 .L0 
     /tmp/ccBYUnRY.s:3653   .text._ZN14ThreadsTestCPP7WorkerC3runEv:0000000000000024 .L0 
     /tmp/ccBYUnRY.s:3655   .text._ZN14ThreadsTestCPP7WorkerC3runEv:0000000000000028 .L0 
     /tmp/ccBYUnRY.s:3657   .text._ZN14ThreadsTestCPP7WorkerC3runEv:000000000000002c .L0 
     /tmp/ccBYUnRY.s:3664   .text:0000000000000c4c _ZN14ThreadsTestCPP7WorkerD11workerBodyDEPv
     /tmp/ccBYUnRY.s:3667   .text:0000000000000c4c .L0 
     /tmp/ccBYUnRY.s:3669   .text:0000000000000c4c .L0 
     /tmp/ccBYUnRY.s:3670   .text:0000000000000c50 .L0 
     /tmp/ccBYUnRY.s:3675   .text:0000000000000c60 .L0 
     /tmp/ccBYUnRY.s:3676   .text:0000000000000c60 .L0 
     /tmp/ccBYUnRY.s:3677   .text:0000000000000c60 .L0 
     /tmp/ccBYUnRY.s:3678   .text:0000000000000c60 .L0 
     /tmp/ccBYUnRY.s:3680   .text:0000000000000c64 .L0 
     /tmp/ccBYUnRY.s:3683   .text:0000000000000c64 .L0 
     /tmp/ccBYUnRY.s:3684   .text:0000000000000c64 .L0 
     /tmp/ccBYUnRY.s:3689   .text:0000000000000c6c .L0 
     /tmp/ccBYUnRY.s:3690   .text:0000000000000c6c .L0 
     /tmp/ccBYUnRY.s:3694   .text:0000000000000c7c .L0 
     /tmp/ccBYUnRY.s:3695   .text:0000000000000c7c .L0 
     /tmp/ccBYUnRY.s:3701   .text:0000000000000c90 .L0 
     /tmp/ccBYUnRY.s:3702   .text:0000000000000c90 .L0 
     /tmp/ccBYUnRY.s:3706   .text:0000000000000ca0 .L0 
     /tmp/ccBYUnRY.s:3712   .text:0000000000000ca8 .L0 
     /tmp/ccBYUnRY.s:3713   .text:0000000000000ca8 .L0 
     /tmp/ccBYUnRY.s:3716   .text:0000000000000cb0 .L0 
     /tmp/ccBYUnRY.s:3717   .text:0000000000000cb0 .L0 
     /tmp/ccBYUnRY.s:3721   .text:0000000000000cc0 .L0 
src/Code/../../h/Testing/Testing_OS1/Threads_CPP_API_Test.hpp:117    .text:0000000000000cc0 .L0 
     /tmp/ccBYUnRY.s:3727   .text:0000000000000cc4 .L0 
     /tmp/ccBYUnRY.s:3729   .text:0000000000000cc4 .L0 
     /tmp/ccBYUnRY.s:3732   .text:0000000000000ccc .L0 
     /tmp/ccBYUnRY.s:3733   .text:0000000000000ccc .L0 
     /tmp/ccBYUnRY.s:3739   .text:0000000000000cdc .L0 
     /tmp/ccBYUnRY.s:3740   .text:0000000000000cdc .L0 
     /tmp/ccBYUnRY.s:3745   .text:0000000000000cec .L0 
     /tmp/ccBYUnRY.s:3746   .text:0000000000000cec .L0 
     /tmp/ccBYUnRY.s:3752   .text:0000000000000d00 .L0 
     /tmp/ccBYUnRY.s:3753   .text:0000000000000d00 .L0 
     /tmp/ccBYUnRY.s:3759   .text:0000000000000d14 .L0 
     /tmp/ccBYUnRY.s:3760   .text:0000000000000d14 .L0 
     /tmp/ccBYUnRY.s:3764   .text:0000000000000d24 .L0 
     /tmp/ccBYUnRY.s:3765   .text:0000000000000d24 .L0 
     /tmp/ccBYUnRY.s:3771   .text:0000000000000d38 .L0 
GAS LISTING /tmp/ccBYUnRY.s 			page 193


     /tmp/ccBYUnRY.s:3772   .text:0000000000000d38 .L0 
     /tmp/ccBYUnRY.s:3776   .text:0000000000000d48 .L0 
     /tmp/ccBYUnRY.s:3782   .text:0000000000000d50 .L0 
     /tmp/ccBYUnRY.s:3783   .text:0000000000000d50 .L0 
     /tmp/ccBYUnRY.s:3786   .text:0000000000000d58 .L0 
     /tmp/ccBYUnRY.s:3787   .text:0000000000000d58 .L0 
     /tmp/ccBYUnRY.s:3791   .text:0000000000000d68 .L0 
     /tmp/ccBYUnRY.s:3792   .text:0000000000000d68 .L0 
     /tmp/ccBYUnRY.s:3795   .text:0000000000000d74 .L0 
     /tmp/ccBYUnRY.s:3796   .text:0000000000000d74 .L0 
     /tmp/ccBYUnRY.s:3799   .text:0000000000000d7c .L0 
     /tmp/ccBYUnRY.s:3800   .text:0000000000000d80 .L0 
     /tmp/ccBYUnRY.s:3802   .text:0000000000000d84 .L0 
     /tmp/ccBYUnRY.s:3803   .text:0000000000000d84 .L0 
     /tmp/ccBYUnRY.s:3805   .text:0000000000000d88 .L0 
     /tmp/ccBYUnRY.s:3808   .text:0000000000000d8c .L0 
     /tmp/ccBYUnRY.s:3811   .text:0000000000000d90 .L0 
     /tmp/ccBYUnRY.s:3813   .text:0000000000000d94 .L0 
     /tmp/ccBYUnRY.s:3820   .text._ZN14ThreadsTestCPP7WorkerD3runEv:0000000000000000 _ZN14ThreadsTestCPP7WorkerD3runEv
     /tmp/ccBYUnRY.s:3823   .text._ZN14ThreadsTestCPP7WorkerD3runEv:0000000000000000 .L0 
     /tmp/ccBYUnRY.s:3825   .text._ZN14ThreadsTestCPP7WorkerD3runEv:0000000000000000 .L0 
     /tmp/ccBYUnRY.s:3826   .text._ZN14ThreadsTestCPP7WorkerD3runEv:0000000000000004 .L0 
     /tmp/ccBYUnRY.s:3829   .text._ZN14ThreadsTestCPP7WorkerD3runEv:000000000000000c .L0 
     /tmp/ccBYUnRY.s:3830   .text._ZN14ThreadsTestCPP7WorkerD3runEv:000000000000000c .L0 
     /tmp/ccBYUnRY.s:3832   .text._ZN14ThreadsTestCPP7WorkerD3runEv:0000000000000010 .L0 
     /tmp/ccBYUnRY.s:3834   .text._ZN14ThreadsTestCPP7WorkerD3runEv:0000000000000010 .L0 
     /tmp/ccBYUnRY.s:3835   .text._ZN14ThreadsTestCPP7WorkerD3runEv:0000000000000010 .L0 
     /tmp/ccBYUnRY.s:3839   .text._ZN14ThreadsTestCPP7WorkerD3runEv:000000000000001c .L0 
     /tmp/ccBYUnRY.s:3840   .text._ZN14ThreadsTestCPP7WorkerD3runEv:0000000000000020 .L0 
     /tmp/ccBYUnRY.s:3842   .text._ZN14ThreadsTestCPP7WorkerD3runEv:0000000000000024 .L0 
     /tmp/ccBYUnRY.s:3843   .text._ZN14ThreadsTestCPP7WorkerD3runEv:0000000000000024 .L0 
     /tmp/ccBYUnRY.s:3845   .text._ZN14ThreadsTestCPP7WorkerD3runEv:0000000000000028 .L0 
     /tmp/ccBYUnRY.s:3847   .text._ZN14ThreadsTestCPP7WorkerD3runEv:000000000000002c .L0 
     /tmp/ccBYUnRY.s:3854   .text:0000000000000d94 _ZN14ThreadsTestCPP20Threads_CPP_API_testEv
     /tmp/ccBYUnRY.s:3857   .text:0000000000000d94 .L0 
     /tmp/ccBYUnRY.s:23490  .data.rel.local.DW.ref.__gxx_personality_v0:0000000000000000 DW.ref.__gxx_personality_v0
     /tmp/ccBYUnRY.s:3860   .text:0000000000000d94 .L0 
     /tmp/ccBYUnRY.s:3861   .text:0000000000000d98 .L0 
     /tmp/ccBYUnRY.s:3866   .text:0000000000000da8 .L0 
     /tmp/ccBYUnRY.s:3867   .text:0000000000000da8 .L0 
     /tmp/ccBYUnRY.s:3868   .text:0000000000000da8 .L0 
     /tmp/ccBYUnRY.s:3869   .text:0000000000000da8 .L0 
     /tmp/ccBYUnRY.s:3871   .text:0000000000000dac .L0 
     /tmp/ccBYUnRY.s:3873   .text:0000000000000dac .L0 
     /tmp/ccBYUnRY.s:3874   .text:0000000000000dac .L0 
     /tmp/ccBYUnRY.s:3875   .text:0000000000000dac .L0 
     /tmp/ccBYUnRY.s:3886   .text:0000000000000dbc .L0 
     /tmp/ccBYUnRY.s:3895   .text:0000000000000dd0 .L0 
     /tmp/ccBYUnRY.s:3897   .text:0000000000000dd4 .L0 
     /tmp/ccBYUnRY.s:3898   .text:0000000000000dd4 .L0 
     /tmp/ccBYUnRY.s:3903   .text:0000000000000de4 .L0 
     /tmp/ccBYUnRY.s:3904   .text:0000000000000de4 .L0 
     /tmp/ccBYUnRY.s:3914   .text:0000000000000df4 .L0 
     /tmp/ccBYUnRY.s:3923   .text:0000000000000e08 .L0 
     /tmp/ccBYUnRY.s:3925   .text:0000000000000e0c .L0 
     /tmp/ccBYUnRY.s:3926   .text:0000000000000e0c .L0 
     /tmp/ccBYUnRY.s:3931   .text:0000000000000e1c .L0 
GAS LISTING /tmp/ccBYUnRY.s 			page 194


     /tmp/ccBYUnRY.s:3932   .text:0000000000000e1c .L0 
     /tmp/ccBYUnRY.s:3942   .text:0000000000000e2c .L0 
     /tmp/ccBYUnRY.s:3951   .text:0000000000000e40 .L0 
     /tmp/ccBYUnRY.s:3953   .text:0000000000000e44 .L0 
     /tmp/ccBYUnRY.s:3954   .text:0000000000000e44 .L0 
     /tmp/ccBYUnRY.s:3959   .text:0000000000000e54 .L0 
     /tmp/ccBYUnRY.s:3960   .text:0000000000000e54 .L0 
     /tmp/ccBYUnRY.s:3970   .text:0000000000000e64 .L0 
     /tmp/ccBYUnRY.s:3979   .text:0000000000000e78 .L0 
     /tmp/ccBYUnRY.s:3981   .text:0000000000000e7c .L0 
     /tmp/ccBYUnRY.s:3982   .text:0000000000000e7c .L0 
     /tmp/ccBYUnRY.s:3988   .text:0000000000000e8c .L0 
     /tmp/ccBYUnRY.s:3992   .text:0000000000000e90 .L0 
     /tmp/ccBYUnRY.s:3995   .text:0000000000000e98 .L0 
     /tmp/ccBYUnRY.s:3996   .text:0000000000000e98 .L0 
     /tmp/ccBYUnRY.s:4000   .text:0000000000000ea4 .L0 
     /tmp/ccBYUnRY.s:4004   .text:0000000000000eb0 .L0 
     /tmp/ccBYUnRY.s:4011   .text:0000000000000eb8 .L0 
     /tmp/ccBYUnRY.s:4012   .text:0000000000000eb8 .L0 
     /tmp/ccBYUnRY.s:4017   .text:0000000000000ec0 .L0 
     /tmp/ccBYUnRY.s:4018   .text:0000000000000ec0 .L0 
     /tmp/ccBYUnRY.s:4021   .text:0000000000000ecc .L0 
     /tmp/ccBYUnRY.s:4024   .text:0000000000000ed8 .L0 
     /tmp/ccBYUnRY.s:4027   .text:0000000000000ee4 .L0 
     /tmp/ccBYUnRY.s:4031   .text:0000000000000ef0 .L0 
     /tmp/ccBYUnRY.s:4037   .text:0000000000000ef8 .L0 
     /tmp/ccBYUnRY.s:4041   .text:0000000000000efc .L0 
     /tmp/ccBYUnRY.s:4044   .text:0000000000000f04 .L0 
     /tmp/ccBYUnRY.s:4047   .text:0000000000000f08 .L0 
     /tmp/ccBYUnRY.s:4048   .text:0000000000000f08 .L0 
     /tmp/ccBYUnRY.s:4050   .text:0000000000000f0c .L0 
     /tmp/ccBYUnRY.s:4060   .text:0000000000000f20 .L0 
     /tmp/ccBYUnRY.s:4071   .text:0000000000000f3c .L0 
     /tmp/ccBYUnRY.s:4082   .text:0000000000000f58 .L0 
     /tmp/ccBYUnRY.s:4093   .text:0000000000000f74 .L0 
     /tmp/ccBYUnRY.s:4103   .text:0000000000000f8c .L0 
     /tmp/ccBYUnRY.s:4104   .text:0000000000000f90 .L0 
     /tmp/ccBYUnRY.s:4106   .text:0000000000000f94 .L0 
     /tmp/ccBYUnRY.s:4107   .text:0000000000000f94 .L0 
     /tmp/ccBYUnRY.s:4109   .text:0000000000000f98 .L0 
     /tmp/ccBYUnRY.s:4112   .text:0000000000000f9c .L0 
     /tmp/ccBYUnRY.s:4114   .text:0000000000000fa0 .L0 
     /tmp/ccBYUnRY.s:4116   .text:0000000000000fa4 .L0 
     /tmp/ccBYUnRY.s:4205   .text:0000000000000fa4 _ZN21ConsumerProducerSyncC33Consumer_Producer_Sync_C_API_TestEv
     /tmp/ccBYUnRY.s:4208   .text:0000000000000fa4 .L0 
     /tmp/ccBYUnRY.s:4211   .text:0000000000000fa4 .L0 
     /tmp/ccBYUnRY.s:4212   .text:0000000000000fa8 .L0 
     /tmp/ccBYUnRY.s:4221   .text:0000000000000fc8 .L0 
     /tmp/ccBYUnRY.s:4222   .text:0000000000000fc8 .L0 
     /tmp/ccBYUnRY.s:4223   .text:0000000000000fc8 .L0 
     /tmp/ccBYUnRY.s:4224   .text:0000000000000fc8 .L0 
     /tmp/ccBYUnRY.s:4225   .text:0000000000000fc8 .L0 
     /tmp/ccBYUnRY.s:4226   .text:0000000000000fc8 .L0 
     /tmp/ccBYUnRY.s:4227   .text:0000000000000fc8 .L0 
     /tmp/ccBYUnRY.s:4228   .text:0000000000000fc8 .L0 
     /tmp/ccBYUnRY.s:4230   .text:0000000000000fcc .L0 
     /tmp/ccBYUnRY.s:4232   .text:0000000000000fcc .L0 
GAS LISTING /tmp/ccBYUnRY.s 			page 195


     /tmp/ccBYUnRY.s:4234   .text:0000000000000fd0 .L0 
     /tmp/ccBYUnRY.s:4235   .text:0000000000000fd0 .L0 
     /tmp/ccBYUnRY.s:4236   .text:0000000000000fd0 .L0 
     /tmp/ccBYUnRY.s:4237   .text:0000000000000fd0 .L0 
     /tmp/ccBYUnRY.s:4242   .text:0000000000000fe0 .L0 
     /tmp/ccBYUnRY.s:4243   .text:0000000000000fe0 .L0 
     /tmp/ccBYUnRY.s:4249   .text:0000000000000ff4 .L0 
     /tmp/ccBYUnRY.s:4250   .text:0000000000000ff4 .L0 
     /tmp/ccBYUnRY.s:4256   .text:0000000000001004 .L0 
     /tmp/ccBYUnRY.s:4257   .text:0000000000001004 .L0 
     /tmp/ccBYUnRY.s:4261   .text:0000000000001014 .L0 
     /tmp/ccBYUnRY.s:4262   .text:0000000000001014 .L0 
     /tmp/ccBYUnRY.s:4267   .text:0000000000001024 .L0 
     /tmp/ccBYUnRY.s:4268   .text:0000000000001024 .L0 
     /tmp/ccBYUnRY.s:4274   .text:0000000000001034 .L0 
     /tmp/ccBYUnRY.s:4275   .text:0000000000001034 .L0 
     /tmp/ccBYUnRY.s:4279   .text:0000000000001044 .L0 
     /tmp/ccBYUnRY.s:4280   .text:0000000000001044 .L0 
     /tmp/ccBYUnRY.s:4286   .text:0000000000001058 .L0 
     /tmp/ccBYUnRY.s:4287   .text:0000000000001058 .L0 
     /tmp/ccBYUnRY.s:4291   .text:0000000000001068 .L0 
     /tmp/ccBYUnRY.s:4292   .text:0000000000001068 .L0 
     /tmp/ccBYUnRY.s:4298   .text:000000000000107c .L0 
     /tmp/ccBYUnRY.s:4299   .text:000000000000107c .L0 
     /tmp/ccBYUnRY.s:4303   .text:000000000000108c .L0 
     /tmp/ccBYUnRY.s:4305   .text:0000000000001090 .L0 
     /tmp/ccBYUnRY.s:4307   .text:0000000000001094 .L0 
     /tmp/ccBYUnRY.s:4308   .text:0000000000001094 .L0 
     /tmp/ccBYUnRY.s:4321   .text:00000000000010b4 .L0 
     /tmp/ccBYUnRY.s:4322   .text:00000000000010b4 .L0 
     /tmp/ccBYUnRY.s:4327   .text:00000000000010c4 .L0 
     /tmp/ccBYUnRY.s:4330   .text:00000000000010c8 .L0 
     /tmp/ccBYUnRY.s:4331   .text:00000000000010c8 .L0 
     /tmp/ccBYUnRY.s:4336   .text:00000000000010d8 .L0 
     /tmp/ccBYUnRY.s:4341   .text:00000000000010e0 .L0 
     /tmp/ccBYUnRY.s:4342   .text:00000000000010e0 .L0 
     /tmp/ccBYUnRY.s:4347   .text:00000000000010f4 .L0 
     /tmp/ccBYUnRY.s:4348   .text:00000000000010f4 .L0 
     /tmp/ccBYUnRY.s:4355   .text:0000000000001108 .L0 
     /tmp/ccBYUnRY.s:4356   .text:0000000000001108 .L0 
     /tmp/ccBYUnRY.s:4357   .text:0000000000001108 .L0 
     /tmp/ccBYUnRY.s:4360   .text:000000000000110c .L0 
     /tmp/ccBYUnRY.s:4370   .text:0000000000001128 .L0 
     /tmp/ccBYUnRY.s:4371   .text:0000000000001128 .L0 
     /tmp/ccBYUnRY.s:4377   .text:000000000000113c .L0 
     /tmp/ccBYUnRY.s:4378   .text:000000000000113c .L0 
     /tmp/ccBYUnRY.s:4380   .text:0000000000001140 .L0 
     /tmp/ccBYUnRY.s:4381   .text:0000000000001140 .L0 
     /tmp/ccBYUnRY.s:4384   .text:000000000000114c .L0 
     /tmp/ccBYUnRY.s:4385   .text:000000000000114c .L0 
     /tmp/ccBYUnRY.s:4392   .text:0000000000001164 .L0 
     /tmp/ccBYUnRY.s:4398   .text:000000000000116c .L0 
     /tmp/ccBYUnRY.s:4401   .text:0000000000001174 .L0 
     /tmp/ccBYUnRY.s:4405   .text:0000000000001180 .L0 
     /tmp/ccBYUnRY.s:4409   .text:000000000000118c .L0 
     /tmp/ccBYUnRY.s:4413   .text:0000000000001190 .L0 
     /tmp/ccBYUnRY.s:4415   .text:0000000000001194 .L0 
GAS LISTING /tmp/ccBYUnRY.s 			page 196


     /tmp/ccBYUnRY.s:4416   .text:0000000000001194 .L0 
     /tmp/ccBYUnRY.s:4422   .text:00000000000011a8 .L0 
     /tmp/ccBYUnRY.s:4423   .text:00000000000011a8 .L0 
     /tmp/ccBYUnRY.s:4425   .text:00000000000011ac .L0 
     /tmp/ccBYUnRY.s:4426   .text:00000000000011ac .L0 
     /tmp/ccBYUnRY.s:4429   .text:00000000000011b8 .L0 
     /tmp/ccBYUnRY.s:4430   .text:00000000000011b8 .L0 
     /tmp/ccBYUnRY.s:4432   .text:00000000000011bc .L0 
     /tmp/ccBYUnRY.s:4434   .text:00000000000011c0 .L0 
     /tmp/ccBYUnRY.s:4441   .text:00000000000011d4 .L0 
     /tmp/ccBYUnRY.s:4442   .text:00000000000011d4 .L0 
     /tmp/ccBYUnRY.s:4446   .text:00000000000011dc .L0 
     /tmp/ccBYUnRY.s:4450   .text:00000000000011e0 .L0 
     /tmp/ccBYUnRY.s:4452   .text:00000000000011e4 .L0 
     /tmp/ccBYUnRY.s:4453   .text:00000000000011e4 .L0 
     /tmp/ccBYUnRY.s:4457   .text:00000000000011f4 .L0 
     /tmp/ccBYUnRY.s:4464   .text:00000000000011fc .L0 
     /tmp/ccBYUnRY.s:4465   .text:00000000000011fc .L0 
     /tmp/ccBYUnRY.s:4469   .text:000000000000120c .L0 
     /tmp/ccBYUnRY.s:4470   .text:000000000000120c .L0 
     /tmp/ccBYUnRY.s:4472   .text:0000000000001210 .L0 
     /tmp/ccBYUnRY.s:4484   .text:000000000000122c .L0 
     /tmp/ccBYUnRY.s:4485   .text:0000000000001230 .L0 
     /tmp/ccBYUnRY.s:4486   .text:0000000000001230 .L0 
     /tmp/ccBYUnRY.s:4488   .text:0000000000001234 .L0 
     /tmp/ccBYUnRY.s:4490   .text:0000000000001238 .L0 
     /tmp/ccBYUnRY.s:4492   .text:000000000000123c .L0 
     /tmp/ccBYUnRY.s:4494   .text:0000000000001240 .L0 
     /tmp/ccBYUnRY.s:4497   .text:0000000000001244 .L0 
     /tmp/ccBYUnRY.s:4499   .text:0000000000001248 .L0 
     /tmp/ccBYUnRY.s:4501   .text:000000000000124c .L0 
     /tmp/ccBYUnRY.s:4503   .text:0000000000001250 .L0 
     /tmp/ccBYUnRY.s:4505   .text:0000000000001254 .L0 
     /tmp/ccBYUnRY.s:4509   .text:0000000000001258 .L0 
     /tmp/ccBYUnRY.s:4513   .text:000000000000125c .L0 
     /tmp/ccBYUnRY.s:4521   .text:0000000000001274 .L0 
     /tmp/ccBYUnRY.s:4550   .text:0000000000001274 _ZN23ConsumerProducerSyncCPP16ProducerKeyboard16producerKeyboardEPv
     /tmp/ccBYUnRY.s:4553   .text:0000000000001274 .L0 
     /tmp/ccBYUnRY.s:4555   .text:0000000000001274 .L0 
     /tmp/ccBYUnRY.s:4556   .text:0000000000001278 .L0 
     /tmp/ccBYUnRY.s:4562   .text:000000000000128c .L0 
     /tmp/ccBYUnRY.s:4563   .text:000000000000128c .L0 
     /tmp/ccBYUnRY.s:4564   .text:000000000000128c .L0 
     /tmp/ccBYUnRY.s:4565   .text:000000000000128c .L0 
     /tmp/ccBYUnRY.s:4566   .text:000000000000128c .L0 
     /tmp/ccBYUnRY.s:4568   .text:0000000000001290 .L0 
     /tmp/ccBYUnRY.s:4573   .text:0000000000001298 .L0 
     /tmp/ccBYUnRY.s:4574   .text:0000000000001298 .L0 
     /tmp/ccBYUnRY.s:4575   .text:0000000000001298 .L0 
     /tmp/ccBYUnRY.s:4576   .text:0000000000001298 .L0 
     /tmp/ccBYUnRY.s:4581   .text:00000000000012a0 .L0 
     /tmp/ccBYUnRY.s:4582   .text:00000000000012a0 .L0 
     /tmp/ccBYUnRY.s:4586   .text:00000000000012a8 .L0 
     /tmp/ccBYUnRY.s:4587   .text:00000000000012a8 .L0 
     /tmp/ccBYUnRY.s:4588   .text:00000000000012a8 .L0 
     /tmp/ccBYUnRY.s:4591   .text:00000000000012b0 .L0 
     /tmp/ccBYUnRY.s:4594   .text:00000000000012b4 .L0 
GAS LISTING /tmp/ccBYUnRY.s 			page 197


     /tmp/ccBYUnRY.s:4597   .text:00000000000012bc .L0 
     /tmp/ccBYUnRY.s:4598   .text:00000000000012bc .L0 
     /tmp/ccBYUnRY.s:4602   .text:00000000000012c8 .L0 
     /tmp/ccBYUnRY.s:4603   .text:00000000000012c8 .L0 
     /tmp/ccBYUnRY.s:4607   .text:00000000000012d0 .L0 
     /tmp/ccBYUnRY.s:4608   .text:00000000000012d0 .L0 
     /tmp/ccBYUnRY.s:4610   .text:00000000000012d4 .L0 
     /tmp/ccBYUnRY.s:4614   .text:00000000000012e0 .L0 
     /tmp/ccBYUnRY.s:4616   .text:00000000000012e4 .L0 
     /tmp/ccBYUnRY.s:4621   .text:00000000000012ec .L0 
     /tmp/ccBYUnRY.s:4622   .text:00000000000012ec .L0 
     /tmp/ccBYUnRY.s:4625   .text:00000000000012f8 .L0 
     /tmp/ccBYUnRY.s:4627   .text:00000000000012fc .L0 
     /tmp/ccBYUnRY.s:4634   .text:000000000000130c .L0 
     /tmp/ccBYUnRY.s:4635   .text:000000000000130c .L0 
     /tmp/ccBYUnRY.s:4639   .text:0000000000001318 .L0 
     /tmp/ccBYUnRY.s:4640   .text:000000000000131c .L0 
     /tmp/ccBYUnRY.s:4642   .text:0000000000001320 .L0 
     /tmp/ccBYUnRY.s:4643   .text:0000000000001320 .L0 
     /tmp/ccBYUnRY.s:4645   .text:0000000000001324 .L0 
     /tmp/ccBYUnRY.s:4648   .text:0000000000001328 .L0 
     /tmp/ccBYUnRY.s:4651   .text:000000000000132c .L0 
     /tmp/ccBYUnRY.s:4654   .text:0000000000001330 .L0 
     /tmp/ccBYUnRY.s:4656   .text:0000000000001334 .L0 
     /tmp/ccBYUnRY.s:4663   .text._ZN23ConsumerProducerSyncCPP16ProducerKeyboard3runEv:0000000000000000 _ZN23ConsumerProducerSyncCPP16ProducerKeyboard3runEv
     /tmp/ccBYUnRY.s:4666   .text._ZN23ConsumerProducerSyncCPP16ProducerKeyboard3runEv:0000000000000000 .L0 
     /tmp/ccBYUnRY.s:4668   .text._ZN23ConsumerProducerSyncCPP16ProducerKeyboard3runEv:0000000000000000 .L0 
     /tmp/ccBYUnRY.s:4669   .text._ZN23ConsumerProducerSyncCPP16ProducerKeyboard3runEv:0000000000000004 .L0 
     /tmp/ccBYUnRY.s:4672   .text._ZN23ConsumerProducerSyncCPP16ProducerKeyboard3runEv:000000000000000c .L0 
     /tmp/ccBYUnRY.s:4673   .text._ZN23ConsumerProducerSyncCPP16ProducerKeyboard3runEv:000000000000000c .L0 
     /tmp/ccBYUnRY.s:4675   .text._ZN23ConsumerProducerSyncCPP16ProducerKeyboard3runEv:0000000000000010 .L0 
     /tmp/ccBYUnRY.s:4677   .text._ZN23ConsumerProducerSyncCPP16ProducerKeyboard3runEv:0000000000000010 .L0 
     /tmp/ccBYUnRY.s:4678   .text._ZN23ConsumerProducerSyncCPP16ProducerKeyboard3runEv:0000000000000010 .L0 
     /tmp/ccBYUnRY.s:4682   .text._ZN23ConsumerProducerSyncCPP16ProducerKeyboard3runEv:000000000000001c .L0 
     /tmp/ccBYUnRY.s:4683   .text._ZN23ConsumerProducerSyncCPP16ProducerKeyboard3runEv:0000000000000020 .L0 
     /tmp/ccBYUnRY.s:4685   .text._ZN23ConsumerProducerSyncCPP16ProducerKeyboard3runEv:0000000000000024 .L0 
     /tmp/ccBYUnRY.s:4686   .text._ZN23ConsumerProducerSyncCPP16ProducerKeyboard3runEv:0000000000000024 .L0 
     /tmp/ccBYUnRY.s:4688   .text._ZN23ConsumerProducerSyncCPP16ProducerKeyboard3runEv:0000000000000028 .L0 
     /tmp/ccBYUnRY.s:4690   .text._ZN23ConsumerProducerSyncCPP16ProducerKeyboard3runEv:000000000000002c .L0 
     /tmp/ccBYUnRY.s:4697   .text:0000000000001334 _ZN23ConsumerProducerSyncCPP8Producer8producerEPv
     /tmp/ccBYUnRY.s:4700   .text:0000000000001334 .L0 
     /tmp/ccBYUnRY.s:4702   .text:0000000000001334 .L0 
     /tmp/ccBYUnRY.s:4703   .text:0000000000001338 .L0 
     /tmp/ccBYUnRY.s:4708   .text:0000000000001348 .L0 
     /tmp/ccBYUnRY.s:4709   .text:0000000000001348 .L0 
     /tmp/ccBYUnRY.s:4710   .text:0000000000001348 .L0 
     /tmp/ccBYUnRY.s:4711   .text:0000000000001348 .L0 
     /tmp/ccBYUnRY.s:4713   .text:000000000000134c .L0 
     /tmp/ccBYUnRY.s:4717   .text:0000000000001350 .L0 
     /tmp/ccBYUnRY.s:4718   .text:0000000000001350 .L0 
     /tmp/ccBYUnRY.s:4719   .text:0000000000001350 .L0 
     /tmp/ccBYUnRY.s:4724   .text:0000000000001358 .L0 
     /tmp/ccBYUnRY.s:4725   .text:0000000000001358 .L0 
     /tmp/ccBYUnRY.s:4729   .text:0000000000001360 .L0 
     /tmp/ccBYUnRY.s:4730   .text:0000000000001360 .L0 
     /tmp/ccBYUnRY.s:4733   .text:000000000000136c .L0 
     /tmp/ccBYUnRY.s:4734   .text:000000000000136c .L0 
GAS LISTING /tmp/ccBYUnRY.s 			page 198


     /tmp/ccBYUnRY.s:4736   .text:0000000000001370 .L0 
     /tmp/ccBYUnRY.s:4741   .text:0000000000001380 .L0 
     /tmp/ccBYUnRY.s:4742   .text:0000000000001380 .L0 
     /tmp/ccBYUnRY.s:4746   .text:0000000000001388 .L0 
     /tmp/ccBYUnRY.s:4747   .text:0000000000001388 .L0 
     /tmp/ccBYUnRY.s:4749   .text:000000000000138c .L0 
     /tmp/ccBYUnRY.s:4753   .text:0000000000001398 .L0 
     /tmp/ccBYUnRY.s:4755   .text:000000000000139c .L0 
     /tmp/ccBYUnRY.s:4760   .text:00000000000013a4 .L0 
     /tmp/ccBYUnRY.s:4761   .text:00000000000013a4 .L0 
     /tmp/ccBYUnRY.s:4765   .text:00000000000013b0 .L0 
     /tmp/ccBYUnRY.s:4766   .text:00000000000013b4 .L0 
     /tmp/ccBYUnRY.s:4768   .text:00000000000013b8 .L0 
     /tmp/ccBYUnRY.s:4769   .text:00000000000013b8 .L0 
     /tmp/ccBYUnRY.s:4771   .text:00000000000013bc .L0 
     /tmp/ccBYUnRY.s:4774   .text:00000000000013c0 .L0 
     /tmp/ccBYUnRY.s:4777   .text:00000000000013c4 .L0 
     /tmp/ccBYUnRY.s:4779   .text:00000000000013c8 .L0 
     /tmp/ccBYUnRY.s:4786   .text._ZN23ConsumerProducerSyncCPP8Producer3runEv:0000000000000000 _ZN23ConsumerProducerSyncCPP8Producer3runEv
     /tmp/ccBYUnRY.s:4789   .text._ZN23ConsumerProducerSyncCPP8Producer3runEv:0000000000000000 .L0 
     /tmp/ccBYUnRY.s:4791   .text._ZN23ConsumerProducerSyncCPP8Producer3runEv:0000000000000000 .L0 
     /tmp/ccBYUnRY.s:4792   .text._ZN23ConsumerProducerSyncCPP8Producer3runEv:0000000000000004 .L0 
     /tmp/ccBYUnRY.s:4795   .text._ZN23ConsumerProducerSyncCPP8Producer3runEv:000000000000000c .L0 
     /tmp/ccBYUnRY.s:4796   .text._ZN23ConsumerProducerSyncCPP8Producer3runEv:000000000000000c .L0 
     /tmp/ccBYUnRY.s:4798   .text._ZN23ConsumerProducerSyncCPP8Producer3runEv:0000000000000010 .L0 
     /tmp/ccBYUnRY.s:4800   .text._ZN23ConsumerProducerSyncCPP8Producer3runEv:0000000000000010 .L0 
     /tmp/ccBYUnRY.s:4801   .text._ZN23ConsumerProducerSyncCPP8Producer3runEv:0000000000000010 .L0 
     /tmp/ccBYUnRY.s:4805   .text._ZN23ConsumerProducerSyncCPP8Producer3runEv:000000000000001c .L0 
     /tmp/ccBYUnRY.s:4806   .text._ZN23ConsumerProducerSyncCPP8Producer3runEv:0000000000000020 .L0 
     /tmp/ccBYUnRY.s:4808   .text._ZN23ConsumerProducerSyncCPP8Producer3runEv:0000000000000024 .L0 
     /tmp/ccBYUnRY.s:4809   .text._ZN23ConsumerProducerSyncCPP8Producer3runEv:0000000000000024 .L0 
     /tmp/ccBYUnRY.s:4811   .text._ZN23ConsumerProducerSyncCPP8Producer3runEv:0000000000000028 .L0 
     /tmp/ccBYUnRY.s:4813   .text._ZN23ConsumerProducerSyncCPP8Producer3runEv:000000000000002c .L0 
     /tmp/ccBYUnRY.s:4820   .text:00000000000013c8 _ZN23ConsumerProducerSyncCPP8Consumer8consumerEPv
     /tmp/ccBYUnRY.s:4823   .text:00000000000013c8 .L0 
     /tmp/ccBYUnRY.s:4825   .text:00000000000013c8 .L0 
     /tmp/ccBYUnRY.s:4826   .text:00000000000013cc .L0 
     /tmp/ccBYUnRY.s:4833   .text:00000000000013e4 .L0 
     /tmp/ccBYUnRY.s:4834   .text:00000000000013e4 .L0 
     /tmp/ccBYUnRY.s:4835   .text:00000000000013e4 .L0 
     /tmp/ccBYUnRY.s:4836   .text:00000000000013e4 .L0 
     /tmp/ccBYUnRY.s:4837   .text:00000000000013e4 .L0 
     /tmp/ccBYUnRY.s:4838   .text:00000000000013e4 .L0 
     /tmp/ccBYUnRY.s:4840   .text:00000000000013e8 .L0 
     /tmp/ccBYUnRY.s:4845   .text:00000000000013f0 .L0 
     /tmp/ccBYUnRY.s:4846   .text:00000000000013f0 .L0 
     /tmp/ccBYUnRY.s:4847   .text:00000000000013f0 .L0 
     /tmp/ccBYUnRY.s:4853   .text:00000000000013f8 .L0 
     /tmp/ccBYUnRY.s:4854   .text:00000000000013f8 .L0 
     /tmp/ccBYUnRY.s:4860   .text:0000000000001404 .L0 
     /tmp/ccBYUnRY.s:4861   .text:0000000000001404 .L0 
     /tmp/ccBYUnRY.s:4867   .text:0000000000001410 .L0 
     /tmp/ccBYUnRY.s:4868   .text:0000000000001410 .L0 
     /tmp/ccBYUnRY.s:4872   .text:000000000000141c .L0 
     /tmp/ccBYUnRY.s:4873   .text:000000000000141c .L0 
     /tmp/ccBYUnRY.s:4877   .text:0000000000001428 .L0 
     /tmp/ccBYUnRY.s:4878   .text:0000000000001428 .L0 
GAS LISTING /tmp/ccBYUnRY.s 			page 199


     /tmp/ccBYUnRY.s:4882   .text:0000000000001430 .L0 
     /tmp/ccBYUnRY.s:4883   .text:0000000000001430 .L0 
     /tmp/ccBYUnRY.s:4888   .text:000000000000143c .L0 
     /tmp/ccBYUnRY.s:4889   .text:000000000000143c .L0 
     /tmp/ccBYUnRY.s:4891   .text:0000000000001440 .L0 
     /tmp/ccBYUnRY.s:4894   .text:0000000000001448 .L0 
     /tmp/ccBYUnRY.s:4896   .text:000000000000144c .L0 
     /tmp/ccBYUnRY.s:4899   .text:0000000000001450 .L0 
     /tmp/ccBYUnRY.s:4900   .text:0000000000001450 .L0 
     /tmp/ccBYUnRY.s:4904   .text:0000000000001458 .L0 
     /tmp/ccBYUnRY.s:4910   .text:0000000000001460 .L0 
     /tmp/ccBYUnRY.s:4911   .text:0000000000001460 .L0 
     /tmp/ccBYUnRY.s:4913   .text:0000000000001464 .L0 
     /tmp/ccBYUnRY.s:4917   .text:0000000000001470 .L0 
     /tmp/ccBYUnRY.s:4918   .text:0000000000001470 .L0 
     /tmp/ccBYUnRY.s:4925   .text:000000000000147c .L0 
     /tmp/ccBYUnRY.s:4926   .text:000000000000147c .L0 
     /tmp/ccBYUnRY.s:4927   .text:000000000000147c .L0 
     /tmp/ccBYUnRY.s:4929   .text:0000000000001480 .L0 
     /tmp/ccBYUnRY.s:4933   .text:000000000000148c .L0 
     /tmp/ccBYUnRY.s:4935   .text:0000000000001490 .L0 
     /tmp/ccBYUnRY.s:4936   .text:0000000000001490 .L0 
     /tmp/ccBYUnRY.s:4940   .text:000000000000149c .L0 
     /tmp/ccBYUnRY.s:4941   .text:00000000000014a0 .L0 
     /tmp/ccBYUnRY.s:4943   .text:00000000000014a4 .L0 
     /tmp/ccBYUnRY.s:4944   .text:00000000000014a4 .L0 
     /tmp/ccBYUnRY.s:4946   .text:00000000000014a8 .L0 
     /tmp/ccBYUnRY.s:4948   .text:00000000000014ac .L0 
     /tmp/ccBYUnRY.s:4951   .text:00000000000014b0 .L0 
     /tmp/ccBYUnRY.s:4954   .text:00000000000014b4 .L0 
     /tmp/ccBYUnRY.s:4957   .text:00000000000014b8 .L0 
     /tmp/ccBYUnRY.s:4959   .text:00000000000014bc .L0 
     /tmp/ccBYUnRY.s:4966   .text._ZN23ConsumerProducerSyncCPP8Consumer3runEv:0000000000000000 _ZN23ConsumerProducerSyncCPP8Consumer3runEv
     /tmp/ccBYUnRY.s:4969   .text._ZN23ConsumerProducerSyncCPP8Consumer3runEv:0000000000000000 .L0 
     /tmp/ccBYUnRY.s:4971   .text._ZN23ConsumerProducerSyncCPP8Consumer3runEv:0000000000000000 .L0 
     /tmp/ccBYUnRY.s:4972   .text._ZN23ConsumerProducerSyncCPP8Consumer3runEv:0000000000000004 .L0 
     /tmp/ccBYUnRY.s:4975   .text._ZN23ConsumerProducerSyncCPP8Consumer3runEv:000000000000000c .L0 
     /tmp/ccBYUnRY.s:4976   .text._ZN23ConsumerProducerSyncCPP8Consumer3runEv:000000000000000c .L0 
     /tmp/ccBYUnRY.s:4978   .text._ZN23ConsumerProducerSyncCPP8Consumer3runEv:0000000000000010 .L0 
     /tmp/ccBYUnRY.s:4980   .text._ZN23ConsumerProducerSyncCPP8Consumer3runEv:0000000000000010 .L0 
     /tmp/ccBYUnRY.s:4981   .text._ZN23ConsumerProducerSyncCPP8Consumer3runEv:0000000000000010 .L0 
     /tmp/ccBYUnRY.s:4985   .text._ZN23ConsumerProducerSyncCPP8Consumer3runEv:000000000000001c .L0 
     /tmp/ccBYUnRY.s:4986   .text._ZN23ConsumerProducerSyncCPP8Consumer3runEv:0000000000000020 .L0 
     /tmp/ccBYUnRY.s:4988   .text._ZN23ConsumerProducerSyncCPP8Consumer3runEv:0000000000000024 .L0 
     /tmp/ccBYUnRY.s:4989   .text._ZN23ConsumerProducerSyncCPP8Consumer3runEv:0000000000000024 .L0 
     /tmp/ccBYUnRY.s:4991   .text._ZN23ConsumerProducerSyncCPP8Consumer3runEv:0000000000000028 .L0 
     /tmp/ccBYUnRY.s:4993   .text._ZN23ConsumerProducerSyncCPP8Consumer3runEv:000000000000002c .L0 
     /tmp/ccBYUnRY.s:5004   .text:00000000000014bc _ZN23ConsumerProducerSyncCPP35Consumer_Producer_Sync_CPP_API_TestEv
     /tmp/ccBYUnRY.s:5007   .text:00000000000014bc .L0 
     /tmp/ccBYUnRY.s:5010   .text:00000000000014bc .L0 
     /tmp/ccBYUnRY.s:5011   .text:00000000000014c0 .L0 
     /tmp/ccBYUnRY.s:5023   .text:00000000000014ec .L0 
     /tmp/ccBYUnRY.s:5024   .text:00000000000014ec .L0 
     /tmp/ccBYUnRY.s:5025   .text:00000000000014ec .L0 
     /tmp/ccBYUnRY.s:5026   .text:00000000000014ec .L0 
     /tmp/ccBYUnRY.s:5027   .text:00000000000014ec .L0 
     /tmp/ccBYUnRY.s:5028   .text:00000000000014ec .L0 
GAS LISTING /tmp/ccBYUnRY.s 			page 200


     /tmp/ccBYUnRY.s:5029   .text:00000000000014ec .L0 
     /tmp/ccBYUnRY.s:5030   .text:00000000000014ec .L0 
     /tmp/ccBYUnRY.s:5031   .text:00000000000014ec .L0 
     /tmp/ccBYUnRY.s:5032   .text:00000000000014ec .L0 
     /tmp/ccBYUnRY.s:5033   .text:00000000000014ec .L0 
     /tmp/ccBYUnRY.s:5035   .text:00000000000014f0 .L0 
     /tmp/ccBYUnRY.s:5037   .text:00000000000014f0 .L0 
     /tmp/ccBYUnRY.s:5039   .text:00000000000014f4 .L0 
     /tmp/ccBYUnRY.s:5040   .text:00000000000014f4 .L0 
     /tmp/ccBYUnRY.s:5041   .text:00000000000014f4 .L0 
     /tmp/ccBYUnRY.s:5042   .text:00000000000014f4 .L0 
     /tmp/ccBYUnRY.s:5047   .text:0000000000001504 .L0 
     /tmp/ccBYUnRY.s:5048   .text:0000000000001504 .L0 
     /tmp/ccBYUnRY.s:5054   .text:0000000000001518 .L0 
     /tmp/ccBYUnRY.s:5055   .text:0000000000001518 .L0 
     /tmp/ccBYUnRY.s:5061   .text:0000000000001528 .L0 
     /tmp/ccBYUnRY.s:5062   .text:0000000000001528 .L0 
     /tmp/ccBYUnRY.s:5066   .text:0000000000001538 .L0 
     /tmp/ccBYUnRY.s:5067   .text:0000000000001538 .L0 
     /tmp/ccBYUnRY.s:5072   .text:0000000000001548 .L0 
     /tmp/ccBYUnRY.s:5073   .text:0000000000001548 .L0 
     /tmp/ccBYUnRY.s:5079   .text:0000000000001558 .L0 
     /tmp/ccBYUnRY.s:5080   .text:0000000000001558 .L0 
     /tmp/ccBYUnRY.s:5084   .text:0000000000001568 .L0 
     /tmp/ccBYUnRY.s:5085   .text:0000000000001568 .L0 
     /tmp/ccBYUnRY.s:5091   .text:000000000000157c .L0 
     /tmp/ccBYUnRY.s:5092   .text:000000000000157c .L0 
     /tmp/ccBYUnRY.s:5096   .text:000000000000158c .L0 
     /tmp/ccBYUnRY.s:5097   .text:000000000000158c .L0 
     /tmp/ccBYUnRY.s:5103   .text:00000000000015a0 .L0 
     /tmp/ccBYUnRY.s:5104   .text:00000000000015a0 .L0 
     /tmp/ccBYUnRY.s:5108   .text:00000000000015b0 .L0 
     /tmp/ccBYUnRY.s:5110   .text:00000000000015b4 .L0 
     /tmp/ccBYUnRY.s:5112   .text:00000000000015b8 .L0 
     /tmp/ccBYUnRY.s:5113   .text:00000000000015b8 .L0 
     /tmp/ccBYUnRY.s:5126   .text:00000000000015d8 .L0 
     /tmp/ccBYUnRY.s:5127   .text:00000000000015d8 .L0 
     /tmp/ccBYUnRY.s:5132   .text:00000000000015e8 .L0 
     /tmp/ccBYUnRY.s:5135   .text:00000000000015ec .L0 
     /tmp/ccBYUnRY.s:5136   .text:00000000000015ec .L0 
     /tmp/ccBYUnRY.s:5141   .text:00000000000015fc .L0 
     /tmp/ccBYUnRY.s:5146   .text:0000000000001604 .L0 
     /tmp/ccBYUnRY.s:5147   .text:0000000000001604 .L0 
     /tmp/ccBYUnRY.s:5159   .text:0000000000001620 .L0 
     /tmp/ccBYUnRY.s:5163   .text:000000000000162c .L0 
     /tmp/ccBYUnRY.s:5164   .text:000000000000162c .L0 
     /tmp/ccBYUnRY.s:5171   .text:0000000000001640 .L0 
     /tmp/ccBYUnRY.s:5172   .text:0000000000001640 .L0 
     /tmp/ccBYUnRY.s:5173   .text:0000000000001640 .L0 
     /tmp/ccBYUnRY.s:5176   .text:0000000000001644 .L0 
     /tmp/ccBYUnRY.s:5186   .text:0000000000001660 .L0 
     /tmp/ccBYUnRY.s:5187   .text:0000000000001660 .L0 
     /tmp/ccBYUnRY.s:5193   .text:0000000000001674 .L0 
     /tmp/ccBYUnRY.s:5194   .text:0000000000001674 .L0 
     /tmp/ccBYUnRY.s:5196   .text:0000000000001678 .L0 
     /tmp/ccBYUnRY.s:5197   .text:0000000000001678 .L0 
     /tmp/ccBYUnRY.s:5200   .text:0000000000001680 .L0 
GAS LISTING /tmp/ccBYUnRY.s 			page 201


     /tmp/ccBYUnRY.s:5201   .text:0000000000001680 .L0 
     /tmp/ccBYUnRY.s:5208   .text:0000000000001690 .L0 
     /tmp/ccBYUnRY.s:5211   .text:0000000000001698 .L0 
     /tmp/ccBYUnRY.s:5217   .text:000000000000169c .L0 
     /tmp/ccBYUnRY.s:5221   .text:00000000000016a4 .L0 
     /tmp/ccBYUnRY.s:5228   .text:00000000000016b4 .L0 
     /tmp/ccBYUnRY.s:5229   .text:00000000000016b4 .L0 
     /tmp/ccBYUnRY.s:5235   .text:00000000000016c0 .L0 
     /tmp/ccBYUnRY.s:5242   .text:00000000000016c8 .L0 
     /tmp/ccBYUnRY.s:5249   .text:00000000000016d8 .L0 
     /tmp/ccBYUnRY.s:5254   .text:00000000000016e4 .L0 
     /tmp/ccBYUnRY.s:5255   .text:00000000000016e4 .L0 
     /tmp/ccBYUnRY.s:5258   .text:00000000000016ec .L0 
     /tmp/ccBYUnRY.s:5262   .text:00000000000016f8 .L0 
     /tmp/ccBYUnRY.s:5266   .text:00000000000016fc .L0 
     /tmp/ccBYUnRY.s:5268   .text:0000000000001700 .L0 
     /tmp/ccBYUnRY.s:5269   .text:0000000000001700 .L0 
     /tmp/ccBYUnRY.s:5275   .text:0000000000001714 .L0 
     /tmp/ccBYUnRY.s:5276   .text:0000000000001714 .L0 
     /tmp/ccBYUnRY.s:5278   .text:0000000000001718 .L0 
     /tmp/ccBYUnRY.s:5279   .text:0000000000001718 .L0 
     /tmp/ccBYUnRY.s:5282   .text:0000000000001724 .L0 
     /tmp/ccBYUnRY.s:5284   .text:0000000000001728 .L0 
     /tmp/ccBYUnRY.s:5285   .text:0000000000001728 .L0 
     /tmp/ccBYUnRY.s:5291   .text:0000000000001738 .L0 
     /tmp/ccBYUnRY.s:5295   .text:0000000000001744 .L0 
     /tmp/ccBYUnRY.s:5301   .text:0000000000001748 .L0 
     /tmp/ccBYUnRY.s:5310   .text:0000000000001754 .L0 
     /tmp/ccBYUnRY.s:5311   .text:0000000000001754 .L0 
     /tmp/ccBYUnRY.s:5318   .text:0000000000001764 .L0 
     /tmp/ccBYUnRY.s:5322   .text:0000000000001770 .L0 
     /tmp/ccBYUnRY.s:5328   .text:0000000000001774 .L0 
     /tmp/ccBYUnRY.s:5338   .text:000000000000178c .L0 
     /tmp/ccBYUnRY.s:5346   .text:000000000000179c .L0 
     /tmp/ccBYUnRY.s:5347   .text:000000000000179c .L0 
     /tmp/ccBYUnRY.s:5351   .text:00000000000017a4 .L0 
     /tmp/ccBYUnRY.s:5355   .text:00000000000017a8 .L0 
     /tmp/ccBYUnRY.s:5357   .text:00000000000017ac .L0 
     /tmp/ccBYUnRY.s:5358   .text:00000000000017ac .L0 
     /tmp/ccBYUnRY.s:5362   .text:00000000000017bc .L0 
     /tmp/ccBYUnRY.s:5370   .text:00000000000017c4 .L0 
     /tmp/ccBYUnRY.s:5376   .text:00000000000017cc .L0 
     /tmp/ccBYUnRY.s:5380   .text:00000000000017d0 .L0 
     /tmp/ccBYUnRY.s:5382   .text:00000000000017d4 .L0 
     /tmp/ccBYUnRY.s:5383   .text:00000000000017d4 .L0 
     /tmp/ccBYUnRY.s:5387   .text:00000000000017e0 .L0 
     /tmp/ccBYUnRY.s:5389   .text:00000000000017e4 .L0 
     /tmp/ccBYUnRY.s:5397   .text:00000000000017f4 .L0 
     /tmp/ccBYUnRY.s:5398   .text:00000000000017f4 .L0 
     /tmp/ccBYUnRY.s:5400   .text:00000000000017f8 .L0 
     /tmp/ccBYUnRY.s:5407   .text:0000000000001808 .L0 
     /tmp/ccBYUnRY.s:5408   .text:0000000000001808 .L0 
     /tmp/ccBYUnRY.s:5410   .text:0000000000001810 .L0 
     /tmp/ccBYUnRY.s:5412   .text:0000000000001814 .L0 
     /tmp/ccBYUnRY.s:5418   .text:0000000000001820 .L0 
     /tmp/ccBYUnRY.s:5419   .text:0000000000001820 .L0 
     /tmp/ccBYUnRY.s:5421   .text:0000000000001824 .L0 
GAS LISTING /tmp/ccBYUnRY.s 			page 202


     /tmp/ccBYUnRY.s:5433   .text:0000000000001840 .L0 
     /tmp/ccBYUnRY.s:5434   .text:0000000000001844 .L0 
     /tmp/ccBYUnRY.s:5435   .text:0000000000001844 .L0 
     /tmp/ccBYUnRY.s:5437   .text:0000000000001848 .L0 
     /tmp/ccBYUnRY.s:5439   .text:000000000000184c .L0 
     /tmp/ccBYUnRY.s:5441   .text:0000000000001850 .L0 
     /tmp/ccBYUnRY.s:5443   .text:0000000000001854 .L0 
     /tmp/ccBYUnRY.s:5446   .text:0000000000001858 .L0 
     /tmp/ccBYUnRY.s:5448   .text:000000000000185c .L0 
     /tmp/ccBYUnRY.s:5450   .text:0000000000001860 .L0 
     /tmp/ccBYUnRY.s:5452   .text:0000000000001864 .L0 
     /tmp/ccBYUnRY.s:5454   .text:0000000000001868 .L0 
     /tmp/ccBYUnRY.s:5456   .text:000000000000186c .L0 
     /tmp/ccBYUnRY.s:5458   .text:0000000000001870 .L0 
     /tmp/ccBYUnRY.s:5460   .text:0000000000001874 .L0 
     /tmp/ccBYUnRY.s:5464   .text:0000000000001878 .L0 
     /tmp/ccBYUnRY.s:5468   .text:000000000000187c .L0 
     /tmp/ccBYUnRY.s:5480   .text:0000000000001898 .L0 
     /tmp/ccBYUnRY.s:5492   .text:00000000000018b4 .L0 
     /tmp/ccBYUnRY.s:5505   .text:00000000000018d0 .L0 
     /tmp/ccBYUnRY.s:5517   .text:00000000000018ec .L0 
     /tmp/ccBYUnRY.s:5526   .text:0000000000001904 .L0 
     /tmp/ccBYUnRY.s:5603   .text:0000000000001904 _ZN15ThreadSleepTest23Thread_Sleep_C_API_TestEv
     /tmp/ccBYUnRY.s:5606   .text:0000000000001904 .L0 
     /tmp/ccBYUnRY.s:5607   .text:0000000000001904 .L0 
     /tmp/ccBYUnRY.s:5608   .text:0000000000001908 .L0 
     /tmp/ccBYUnRY.s:5612   .text:0000000000001914 .L0 
     /tmp/ccBYUnRY.s:5613   .text:0000000000001914 .L0 
     /tmp/ccBYUnRY.s:5614   .text:0000000000001914 .L0 
     /tmp/ccBYUnRY.s:5616   .text:0000000000001918 .L0 
     /tmp/ccBYUnRY.s:5619   .text:0000000000001918 .L0 
     /tmp/ccBYUnRY.s:5620   .text:0000000000001918 .L0 
     /tmp/ccBYUnRY.s:5621   .text:0000000000001918 .L0 
     /tmp/ccBYUnRY.s:5626   .text:0000000000001928 .L0 
     /tmp/ccBYUnRY.s:5629   .text:0000000000001928 .L0 
     /tmp/ccBYUnRY.s:5630   .text:0000000000001928 .L0 
     /tmp/ccBYUnRY.s:5635   .text:0000000000001930 .L0 
     /tmp/ccBYUnRY.s:5636   .text:0000000000001930 .L0 
     /tmp/ccBYUnRY.s:5638   .text:0000000000001934 .L0 
     /tmp/ccBYUnRY.s:5646   .text:0000000000001954 .L0 
     /tmp/ccBYUnRY.s:5650   .text:0000000000001958 .L0 
     /tmp/ccBYUnRY.s:5655   .text:0000000000001960 .L0 
     /tmp/ccBYUnRY.s:5656   .text:0000000000001960 .L0 
     /tmp/ccBYUnRY.s:5657   .text:0000000000001960 .L0 
     /tmp/ccBYUnRY.s:5659   .text:0000000000001968 .L0 
     /tmp/ccBYUnRY.s:5661   .text:000000000000196c .L0 
     /tmp/ccBYUnRY.s:5663   .text:0000000000001974 .L0 
     /tmp/ccBYUnRY.s:5665   .text:0000000000001978 .L0 
     /tmp/ccBYUnRY.s:5666   .text:000000000000197c .L0 
     /tmp/ccBYUnRY.s:5668   .text:0000000000001980 .L0 
     /tmp/ccBYUnRY.s:5669   .text:0000000000001980 .L0 
     /tmp/ccBYUnRY.s:5671   .text:0000000000001984 .L0 
     /tmp/ccBYUnRY.s:5674   .text:0000000000001988 .L0 
     /tmp/ccBYUnRY.s:5676   .text:000000000000198c .L0 
     /tmp/ccBYUnRY.s:5682   .text:000000000000198c _ZN24ConsumerProducerAsyncCPP36Consumer_Producer_Async_CPP_API_TestEv
     /tmp/ccBYUnRY.s:5685   .text:000000000000198c .L0 
     /tmp/ccBYUnRY.s:5688   .text:000000000000198c .L0 
GAS LISTING /tmp/ccBYUnRY.s 			page 203


     /tmp/ccBYUnRY.s:5689   .text:0000000000001990 .L0 
     /tmp/ccBYUnRY.s:5701   .text:00000000000019bc .L0 
     /tmp/ccBYUnRY.s:5702   .text:00000000000019bc .L0 
     /tmp/ccBYUnRY.s:5703   .text:00000000000019bc .L0 
     /tmp/ccBYUnRY.s:5704   .text:00000000000019bc .L0 
     /tmp/ccBYUnRY.s:5705   .text:00000000000019bc .L0 
     /tmp/ccBYUnRY.s:5706   .text:00000000000019bc .L0 
     /tmp/ccBYUnRY.s:5707   .text:00000000000019bc .L0 
     /tmp/ccBYUnRY.s:5708   .text:00000000000019bc .L0 
     /tmp/ccBYUnRY.s:5709   .text:00000000000019bc .L0 
     /tmp/ccBYUnRY.s:5710   .text:00000000000019bc .L0 
     /tmp/ccBYUnRY.s:5711   .text:00000000000019bc .L0 
     /tmp/ccBYUnRY.s:5713   .text:00000000000019c0 .L0 
     /tmp/ccBYUnRY.s:5715   .text:00000000000019c0 .L0 
     /tmp/ccBYUnRY.s:5717   .text:00000000000019c4 .L0 
     /tmp/ccBYUnRY.s:5718   .text:00000000000019c4 .L0 
     /tmp/ccBYUnRY.s:5719   .text:00000000000019c4 .L0 
     /tmp/ccBYUnRY.s:5720   .text:00000000000019c4 .L0 
     /tmp/ccBYUnRY.s:5725   .text:00000000000019d4 .L0 
     /tmp/ccBYUnRY.s:5726   .text:00000000000019d4 .L0 
     /tmp/ccBYUnRY.s:5732   .text:00000000000019e8 .L0 
     /tmp/ccBYUnRY.s:5733   .text:00000000000019e8 .L0 
     /tmp/ccBYUnRY.s:5739   .text:00000000000019f8 .L0 
     /tmp/ccBYUnRY.s:5740   .text:00000000000019f8 .L0 
     /tmp/ccBYUnRY.s:5744   .text:0000000000001a08 .L0 
     /tmp/ccBYUnRY.s:5745   .text:0000000000001a08 .L0 
     /tmp/ccBYUnRY.s:5750   .text:0000000000001a18 .L0 
     /tmp/ccBYUnRY.s:5751   .text:0000000000001a18 .L0 
     /tmp/ccBYUnRY.s:5757   .text:0000000000001a28 .L0 
     /tmp/ccBYUnRY.s:5758   .text:0000000000001a28 .L0 
     /tmp/ccBYUnRY.s:5762   .text:0000000000001a38 .L0 
     /tmp/ccBYUnRY.s:5763   .text:0000000000001a38 .L0 
     /tmp/ccBYUnRY.s:5769   .text:0000000000001a4c .L0 
     /tmp/ccBYUnRY.s:5770   .text:0000000000001a4c .L0 
     /tmp/ccBYUnRY.s:5774   .text:0000000000001a5c .L0 
     /tmp/ccBYUnRY.s:5775   .text:0000000000001a5c .L0 
     /tmp/ccBYUnRY.s:5781   .text:0000000000001a70 .L0 
     /tmp/ccBYUnRY.s:5782   .text:0000000000001a70 .L0 
     /tmp/ccBYUnRY.s:5786   .text:0000000000001a80 .L0 
     /tmp/ccBYUnRY.s:5788   .text:0000000000001a84 .L0 
     /tmp/ccBYUnRY.s:5790   .text:0000000000001a88 .L0 
     /tmp/ccBYUnRY.s:5791   .text:0000000000001a88 .L0 
     /tmp/ccBYUnRY.s:5804   .text:0000000000001aa8 .L0 
     /tmp/ccBYUnRY.s:5805   .text:0000000000001aa8 .L0 
     /tmp/ccBYUnRY.s:5810   .text:0000000000001ab8 .L0 
     /tmp/ccBYUnRY.s:5813   .text:0000000000001abc .L0 
     /tmp/ccBYUnRY.s:5814   .text:0000000000001abc .L0 
     /tmp/ccBYUnRY.s:5819   .text:0000000000001acc .L0 
     /tmp/ccBYUnRY.s:5824   .text:0000000000001ad4 .L0 
     /tmp/ccBYUnRY.s:5825   .text:0000000000001ad4 .L0 
     /tmp/ccBYUnRY.s:5837   .text:0000000000001af0 .L0 
     /tmp/ccBYUnRY.s:5841   .text:0000000000001afc .L0 
     /tmp/ccBYUnRY.s:5842   .text:0000000000001afc .L0 
     /tmp/ccBYUnRY.s:5849   .text:0000000000001b10 .L0 
     /tmp/ccBYUnRY.s:5850   .text:0000000000001b10 .L0 
     /tmp/ccBYUnRY.s:5853   .text:0000000000001b14 .L0 
     /tmp/ccBYUnRY.s:5863   .text:0000000000001b30 .L0 
GAS LISTING /tmp/ccBYUnRY.s 			page 204


     /tmp/ccBYUnRY.s:5864   .text:0000000000001b30 .L0 
     /tmp/ccBYUnRY.s:5870   .text:0000000000001b44 .L0 
     /tmp/ccBYUnRY.s:5871   .text:0000000000001b44 .L0 
     /tmp/ccBYUnRY.s:5873   .text:0000000000001b48 .L0 
     /tmp/ccBYUnRY.s:5874   .text:0000000000001b48 .L0 
     /tmp/ccBYUnRY.s:5877   .text:0000000000001b50 .L0 
     /tmp/ccBYUnRY.s:5878   .text:0000000000001b50 .L0 
     /tmp/ccBYUnRY.s:5889   .text:0000000000001b60 .L0 
     /tmp/ccBYUnRY.s:5893   .text:0000000000001b68 .L0 
     /tmp/ccBYUnRY.s:5900   .text:0000000000001b78 .L0 
     /tmp/ccBYUnRY.s:5901   .text:0000000000001b78 .L0 
     /tmp/ccBYUnRY.s:5906   .text:0000000000001b84 .L0 
     /tmp/ccBYUnRY.s:5907   .text:0000000000001b84 .L0 
     /tmp/ccBYUnRY.s:5909   .text:0000000000001b88 .L0 
     /tmp/ccBYUnRY.s:5910   .text:0000000000001b88 .L0 
     /tmp/ccBYUnRY.s:5912   .text:0000000000001b8c .L0 
     /tmp/ccBYUnRY.s:5913   .text:0000000000001b8c .L0 
     /tmp/ccBYUnRY.s:5916   .text:0000000000001b98 .L0 
     /tmp/ccBYUnRY.s:5917   .text:0000000000001b98 .L0 
     /tmp/ccBYUnRY.s:5927   .text:0000000000001ba8 .L0 
     /tmp/ccBYUnRY.s:5937   .text:0000000000001bc0 .L0 
     /tmp/ccBYUnRY.s:5939   .text:0000000000001bc4 .L0 
     /tmp/ccBYUnRY.s:5940   .text:0000000000001bc4 .L0 
     /tmp/ccBYUnRY.s:5946   .text:0000000000001bd0 .L0 
     /tmp/ccBYUnRY.s:5953   .text:0000000000001bd8 .L0 
     /tmp/ccBYUnRY.s:5960   .text:0000000000001be8 .L0 
     /tmp/ccBYUnRY.s:5964   .text:0000000000001bf4 .L0 
     /tmp/ccBYUnRY.s:5965   .text:0000000000001bf4 .L0 
     /tmp/ccBYUnRY.s:5969   .text:0000000000001c00 .L0 
     /tmp/ccBYUnRY.s:5973   .text:0000000000001c04 .L0 
     /tmp/ccBYUnRY.s:5975   .text:0000000000001c08 .L0 
     /tmp/ccBYUnRY.s:5976   .text:0000000000001c08 .L0 
     /tmp/ccBYUnRY.s:5982   .text:0000000000001c1c .L0 
     /tmp/ccBYUnRY.s:5983   .text:0000000000001c1c .L0 
     /tmp/ccBYUnRY.s:5985   .text:0000000000001c20 .L0 
     /tmp/ccBYUnRY.s:5986   .text:0000000000001c20 .L0 
     /tmp/ccBYUnRY.s:5989   .text:0000000000001c2c .L0 
     /tmp/ccBYUnRY.s:5990   .text:0000000000001c2c .L0 
     /tmp/ccBYUnRY.s:6000   .text:0000000000001c3c .L0 
     /tmp/ccBYUnRY.s:6011   .text:0000000000001c48 .L0 
     /tmp/ccBYUnRY.s:6012   .text:0000000000001c48 .L0 
     /tmp/ccBYUnRY.s:6016   .text:0000000000001c50 .L0 
     /tmp/ccBYUnRY.s:6020   .text:0000000000001c54 .L0 
     /tmp/ccBYUnRY.s:6022   .text:0000000000001c58 .L0 
     /tmp/ccBYUnRY.s:6023   .text:0000000000001c58 .L0 
     /tmp/ccBYUnRY.s:6027   .text:0000000000001c68 .L0 
     /tmp/ccBYUnRY.s:6034   .text:0000000000001c70 .L0 
     /tmp/ccBYUnRY.s:6035   .text:0000000000001c70 .L0 
     /tmp/ccBYUnRY.s:6037   .text:0000000000001c78 .L0 
     /tmp/ccBYUnRY.s:6039   .text:0000000000001c7c .L0 
     /tmp/ccBYUnRY.s:6046   .text:0000000000001c88 .L0 
     /tmp/ccBYUnRY.s:6054   .text:0000000000001c90 .L0 
     /tmp/ccBYUnRY.s:6058   .text:0000000000001c94 .L0 
     /tmp/ccBYUnRY.s:6060   .text:0000000000001c98 .L0 
     /tmp/ccBYUnRY.s:6061   .text:0000000000001c98 .L0 
     /tmp/ccBYUnRY.s:6065   .text:0000000000001ca4 .L0 
     /tmp/ccBYUnRY.s:6067   .text:0000000000001ca8 .L0 
GAS LISTING /tmp/ccBYUnRY.s 			page 205


     /tmp/ccBYUnRY.s:6075   .text:0000000000001cb8 .L0 
     /tmp/ccBYUnRY.s:6076   .text:0000000000001cb8 .L0 
     /tmp/ccBYUnRY.s:6078   .text:0000000000001cbc .L0 
     /tmp/ccBYUnRY.s:6085   .text:0000000000001ccc .L0 
     /tmp/ccBYUnRY.s:6086   .text:0000000000001ccc .L0 
     /tmp/ccBYUnRY.s:6088   .text:0000000000001cd0 .L0 
     /tmp/ccBYUnRY.s:6100   .text:0000000000001cec .L0 
     /tmp/ccBYUnRY.s:6101   .text:0000000000001cf0 .L0 
     /tmp/ccBYUnRY.s:6102   .text:0000000000001cf0 .L0 
     /tmp/ccBYUnRY.s:6104   .text:0000000000001cf4 .L0 
     /tmp/ccBYUnRY.s:6106   .text:0000000000001cf8 .L0 
     /tmp/ccBYUnRY.s:6108   .text:0000000000001cfc .L0 
     /tmp/ccBYUnRY.s:6110   .text:0000000000001d00 .L0 
     /tmp/ccBYUnRY.s:6112   .text:0000000000001d04 .L0 
     /tmp/ccBYUnRY.s:6115   .text:0000000000001d08 .L0 
     /tmp/ccBYUnRY.s:6117   .text:0000000000001d0c .L0 
     /tmp/ccBYUnRY.s:6119   .text:0000000000001d10 .L0 
     /tmp/ccBYUnRY.s:6121   .text:0000000000001d14 .L0 
     /tmp/ccBYUnRY.s:6123   .text:0000000000001d18 .L0 
     /tmp/ccBYUnRY.s:6125   .text:0000000000001d1c .L0 
     /tmp/ccBYUnRY.s:6127   .text:0000000000001d20 .L0 
     /tmp/ccBYUnRY.s:6131   .text:0000000000001d24 .L0 
     /tmp/ccBYUnRY.s:6135   .text:0000000000001d28 .L0 
     /tmp/ccBYUnRY.s:6146   .text:0000000000001d44 .L0 
     /tmp/ccBYUnRY.s:6158   .text:0000000000001d60 .L0 
     /tmp/ccBYUnRY.s:6169   .text:0000000000001d7c .L0 
     /tmp/ccBYUnRY.s:6182   .text:0000000000001d98 .L0 
     /tmp/ccBYUnRY.s:6191   .text:0000000000001db0 .L0 
     /tmp/ccBYUnRY.s:6268   .text:0000000000001db0 _ZN19PeriodicThreadsTest29Periodic_Threads_CPP_API_TestEv
     /tmp/ccBYUnRY.s:6271   .text:0000000000001db0 .L0 
     /tmp/ccBYUnRY.s:6274   .text:0000000000001db0 .L0 
     /tmp/ccBYUnRY.s:6275   .text:0000000000001db4 .L0 
     /tmp/ccBYUnRY.s:6281   .text:0000000000001dc8 .L0 
     /tmp/ccBYUnRY.s:6282   .text:0000000000001dc8 .L0 
     /tmp/ccBYUnRY.s:6283   .text:0000000000001dc8 .L0 
     /tmp/ccBYUnRY.s:6284   .text:0000000000001dc8 .L0 
     /tmp/ccBYUnRY.s:6285   .text:0000000000001dc8 .L0 
     /tmp/ccBYUnRY.s:6287   .text:0000000000001dcc .L0 
     /tmp/ccBYUnRY.s:6289   .text:0000000000001dcc .L0 
     /tmp/ccBYUnRY.s:6290   .text:0000000000001dcc .L0 
     /tmp/ccBYUnRY.s:6302   .text:0000000000001de8 .L0 
     /tmp/ccBYUnRY.s:6304   .text:0000000000001df0 .L0 
     /tmp/ccBYUnRY.s:6305   .text:0000000000001df0 .L0 
     /tmp/ccBYUnRY.s:6317   .text:0000000000001e0c .L0 
     /tmp/ccBYUnRY.s:6319   .text:0000000000001e14 .L0 
     /tmp/ccBYUnRY.s:6320   .text:0000000000001e14 .L0 
     /tmp/ccBYUnRY.s:6330   .text:0000000000001e24 .L0 
     /tmp/ccBYUnRY.s:6921   .data.rel.ro.local._ZTVN19PeriodicThreadsTest1AE:0000000000000000 _ZTVN19PeriodicThreadsTest1AE
     /tmp/ccBYUnRY.s:6336   .text:0000000000001e30 .L0 
     /tmp/ccBYUnRY.s:6342   .text:0000000000001e3c .L0 
     /tmp/ccBYUnRY.s:6343   .text:0000000000001e3c .L0 
     /tmp/ccBYUnRY.s:6353   .text:0000000000001e4c .L0 
     /tmp/ccBYUnRY.s:6933   .data.rel.ro.local._ZTVN19PeriodicThreadsTest1BE:0000000000000000 _ZTVN19PeriodicThreadsTest1BE
     /tmp/ccBYUnRY.s:6364   .text:0000000000001e64 .L0 
     /tmp/ccBYUnRY.s:6365   .text:0000000000001e64 .L0 
     /tmp/ccBYUnRY.s:6375   .text:0000000000001e74 .L0 
     /tmp/ccBYUnRY.s:6945   .data.rel.ro.local._ZTVN19PeriodicThreadsTest1CE:0000000000000000 _ZTVN19PeriodicThreadsTest1CE
GAS LISTING /tmp/ccBYUnRY.s 			page 206


     /tmp/ccBYUnRY.s:6386   .text:0000000000001e8c .L0 
     /tmp/ccBYUnRY.s:6387   .text:0000000000001e8c .L0 
     /tmp/ccBYUnRY.s:6388   .text:0000000000001e8c .L0 
     /tmp/ccBYUnRY.s:6390   .text:0000000000001e90 .L0 
     /tmp/ccBYUnRY.s:6391   .text:0000000000001e90 .L0 
     /tmp/ccBYUnRY.s:6393   .text:0000000000001e94 .L0 
     /tmp/ccBYUnRY.s:6394   .text:0000000000001e94 .L0 
     /tmp/ccBYUnRY.s:6396   .text:0000000000001e98 .L0 
     /tmp/ccBYUnRY.s:6397   .text:0000000000001e98 .L0 
     /tmp/ccBYUnRY.s:6402   .text:0000000000001ea4 .L0 
     /tmp/ccBYUnRY.s:6403   .text:0000000000001ea4 .L0 
     /tmp/ccBYUnRY.s:6407   .text:0000000000001eb0 .L0 
     /tmp/ccBYUnRY.s:6408   .text:0000000000001eb0 .L0 
     /tmp/ccBYUnRY.s:6413   .text:0000000000001ebc .L0 
     /tmp/ccBYUnRY.s:6417   .text:0000000000001ec0 .L0 
     /tmp/ccBYUnRY.s:6425   .text:0000000000001ec8 .L0 
     /tmp/ccBYUnRY.s:6426   .text:0000000000001ec8 .L0 
     /tmp/ccBYUnRY.s:6429   .text:0000000000001ecc .L0 
     /tmp/ccBYUnRY.s:6434   .text:0000000000001ed8 .L0 
     /tmp/ccBYUnRY.s:6439   .text:0000000000001ee4 .L0 
     /tmp/ccBYUnRY.s:6444   .text:0000000000001ee8 .L0 
     /tmp/ccBYUnRY.s:6448   .text:0000000000001eec .L0 
     /tmp/ccBYUnRY.s:6452   .text:0000000000001ef4 .L0 
     /tmp/ccBYUnRY.s:6453   .text:0000000000001ef4 .L0 
     /tmp/ccBYUnRY.s:6456   .text:0000000000001efc .L0 
     /tmp/ccBYUnRY.s:6459   .text:0000000000001f04 .L0 
     /tmp/ccBYUnRY.s:6460   .text:0000000000001f04 .L0 
     /tmp/ccBYUnRY.s:6469   .text:0000000000001f0c .L0 
     /tmp/ccBYUnRY.s:6473   .text:0000000000001f10 .L0 
     /tmp/ccBYUnRY.s:6476   .text:0000000000001f18 .L0 
     /tmp/ccBYUnRY.s:6477   .text:0000000000001f18 .L0 
     /tmp/ccBYUnRY.s:6482   .text:0000000000001f28 .L0 
     /tmp/ccBYUnRY.s:6489   .text:0000000000001f30 .L0 
     /tmp/ccBYUnRY.s:6490   .text:0000000000001f30 .L0 
     /tmp/ccBYUnRY.s:6492   .text:0000000000001f38 .L0 
     /tmp/ccBYUnRY.s:6494   .text:0000000000001f3c .L0 
     /tmp/ccBYUnRY.s:6500   .text:0000000000001f48 .L0 
     /tmp/ccBYUnRY.s:6501   .text:0000000000001f48 .L0 
     /tmp/ccBYUnRY.s:6503   .text:0000000000001f50 .L0 
     /tmp/ccBYUnRY.s:6505   .text:0000000000001f54 .L0 
     /tmp/ccBYUnRY.s:6511   .text:0000000000001f60 .L0 
     /tmp/ccBYUnRY.s:6512   .text:0000000000001f64 .L0 
     /tmp/ccBYUnRY.s:6513   .text:0000000000001f64 .L0 
     /tmp/ccBYUnRY.s:6515   .text:0000000000001f68 .L0 
     /tmp/ccBYUnRY.s:6516   .text:0000000000001f68 .L0 
     /tmp/ccBYUnRY.s:6519   .text:0000000000001f6c .L0 
     /tmp/ccBYUnRY.s:6522   .text:0000000000001f70 .L0 
     /tmp/ccBYUnRY.s:6525   .text:0000000000001f74 .L0 
     /tmp/ccBYUnRY.s:6527   .text:0000000000001f78 .L0 
     /tmp/ccBYUnRY.s:6532   .text:0000000000001f7c .L0 
     /tmp/ccBYUnRY.s:6535   .text:0000000000001f80 .L0 
     /tmp/ccBYUnRY.s:6546   .text:0000000000001f9c .L0 
     /tmp/ccBYUnRY.s:6557   .text:0000000000001fb8 .L0 
     /tmp/ccBYUnRY.s:6568   .text:0000000000001fd4 .L0 
     /tmp/ccBYUnRY.s:6580   .text:0000000000001ff0 .L0 
     /tmp/ccBYUnRY.s:6588   .text:0000000000002008 .L0 
     /tmp/ccBYUnRY.s:6665   .text:0000000000002008 main
GAS LISTING /tmp/ccBYUnRY.s 			page 207


     /tmp/ccBYUnRY.s:6668   .text:0000000000002008 .L0 
     /tmp/ccBYUnRY.s:6669   .text:0000000000002008 .L0 
     /tmp/ccBYUnRY.s:6670   .text:000000000000200c .L0 
     /tmp/ccBYUnRY.s:6674   .text:0000000000002018 .L0 
     /tmp/ccBYUnRY.s:6675   .text:0000000000002018 .L0 
     /tmp/ccBYUnRY.s:6676   .text:0000000000002018 .L0 
     /tmp/ccBYUnRY.s:6678   .text:000000000000201c .L0 
     /tmp/ccBYUnRY.s:6680   .text:000000000000201c .L0 
     /tmp/ccBYUnRY.s:6681   .text:000000000000201c .L0 
     /tmp/ccBYUnRY.s:6687   .text:0000000000002024 .L0 
src/Code/../../h/Code/InterruptHandling/Riscv.hpp:210    .text:0000000000002024 .L0 
     /tmp/ccBYUnRY.s:6697   .text:0000000000002028 .L0 
     /tmp/ccBYUnRY.s:6698   .text:0000000000002028 .L0 
     /tmp/ccBYUnRY.s:6699   .text:0000000000002028 .L0 
     /tmp/ccBYUnRY.s:6705   .text:000000000000203c .L0 
     /tmp/ccBYUnRY.s:6706   .text:000000000000203c .L0 
     /tmp/ccBYUnRY.s:6710   .text:000000000000204c .L0 
     /tmp/ccBYUnRY.s:6711   .text:000000000000204c .L0 
     /tmp/ccBYUnRY.s:6712   .text:000000000000204c .L0 
     /tmp/ccBYUnRY.s:6718   .text:0000000000002064 .L0 
     /tmp/ccBYUnRY.s:6719   .text:0000000000002064 .L0 
     /tmp/ccBYUnRY.s:6720   .text:0000000000002064 .L0 
     /tmp/ccBYUnRY.s:6726   .text:000000000000207c .L0 
     /tmp/ccBYUnRY.s:6727   .text:000000000000207c .L0 
     /tmp/ccBYUnRY.s:6728   .text:000000000000207c .L0 
     /tmp/ccBYUnRY.s:6736   .text:0000000000002094 .L0 
     /tmp/ccBYUnRY.s:6737   .text:0000000000002094 .L0 
     /tmp/ccBYUnRY.s:6738   .text:0000000000002094 .L0 
     /tmp/ccBYUnRY.s:6745   .text:000000000000209c .L0 
     /tmp/ccBYUnRY.s:6751   .text:00000000000020a0 .L0 
     /tmp/ccBYUnRY.s:6752   .text:00000000000020a0 .L0 
     /tmp/ccBYUnRY.s:6756   .text:00000000000020a8 .L0 
     /tmp/ccBYUnRY.s:6757   .text:00000000000020a8 .L0 
     /tmp/ccBYUnRY.s:6758   .text:00000000000020a8 .L0 
     /tmp/ccBYUnRY.s:6764   .text:00000000000020ac .L0 
     /tmp/ccBYUnRY.s:6765   .text:00000000000020ac .L0 
     /tmp/ccBYUnRY.s:6770   .text:00000000000020b0 .L0 
     /tmp/ccBYUnRY.s:6772   .text:00000000000020b4 .L0 
     /tmp/ccBYUnRY.s:6777   .text:00000000000020c4 .L0 
     /tmp/ccBYUnRY.s:6779   .text:00000000000020c8 .L0 
     /tmp/ccBYUnRY.s:6780   .text:00000000000020c8 .L0 
     /tmp/ccBYUnRY.s:6784   .text:00000000000020d4 .L0 
     /tmp/ccBYUnRY.s:6786   .text:00000000000020d8 .L0 
     /tmp/ccBYUnRY.s:6793   .text:00000000000020ec .L0 
     /tmp/ccBYUnRY.s:6794   .text:00000000000020f0 .L0 
     /tmp/ccBYUnRY.s:6796   .text:00000000000020f4 .L0 
     /tmp/ccBYUnRY.s:6797   .text:00000000000020f4 .L0 
     /tmp/ccBYUnRY.s:6799   .text:00000000000020f8 .L0 
     /tmp/ccBYUnRY.s:6801   .text:00000000000020fc .L0 
     /tmp/ccBYUnRY.s:6803   .text:0000000000002100 .L0 
     /tmp/ccBYUnRY.s:7001   .bss:0000000000000020 _ZN19PeriodicThreadsTest15myOwnWaitForAllE
     /tmp/ccBYUnRY.s:6992   .bss:0000000000000010 _ZN19PeriodicThreadsTest10myOwnMutexE
     /tmp/ccBYUnRY.s:6987   .bss:0000000000000008 _ZN24ConsumerProducerAsyncCPP9threadEndE
     /tmp/ccBYUnRY.s:7043   .bss:0000000000000048 _ZN24ConsumerProducerAsyncCPP10waitForAllE
     /tmp/ccBYUnRY.s:6996   .bss:0000000000000018 _ZN15ThreadSleepTest8finishedE
     /tmp/ccBYUnRY.s:7034   .bss:0000000000000038 _ZN23ConsumerProducerSyncCPP9threadEndE
     /tmp/ccBYUnRY.s:7039   .bss:0000000000000040 _ZN23ConsumerProducerSyncCPP10waitForAllE
GAS LISTING /tmp/ccBYUnRY.s 			page 208


     /tmp/ccBYUnRY.s:6983   .bss:0000000000000004 _ZN21ConsumerProducerSyncC9threadEndE
     /tmp/ccBYUnRY.s:7030   .bss:0000000000000030 _ZN21ConsumerProducerSyncC10waitForAllE
     /tmp/ccBYUnRY.s:7025   .bss:000000000000002d _ZN14ThreadsTestCPP9finishedDE
     /tmp/ccBYUnRY.s:7021   .bss:000000000000002c _ZN14ThreadsTestCPP9finishedCE
     /tmp/ccBYUnRY.s:7017   .bss:000000000000002b _ZN14ThreadsTestCPP9finishedBE
     /tmp/ccBYUnRY.s:7013   .bss:000000000000002a _ZN14ThreadsTestCPP9finishedAE
     /tmp/ccBYUnRY.s:7009   .bss:0000000000000029 _ZN12ThreadsTestC9finishedDE
     /tmp/ccBYUnRY.s:7005   .bss:0000000000000028 _ZN12ThreadsTestC9finishedCE
     /tmp/ccBYUnRY.s:6978   .bss:0000000000000001 _ZN12ThreadsTestC9finishedBE
     /tmp/ccBYUnRY.s:6974   .bss:0000000000000000 _ZN12ThreadsTestC9finishedAE
     /tmp/ccBYUnRY.s:6971   .bss:0000000000000000 .LANCHOR0
     /tmp/ccBYUnRY.s:7053   .text:0000000000002100 .L0 
     /tmp/ccBYUnRY.s:343    .text._ZN14ThreadsTestCPP7WorkerAD2Ev:0000000000000034 .L0 
     /tmp/ccBYUnRY.s:390    .text._ZN14ThreadsTestCPP7WorkerAD0Ev:000000000000004c .L0 
     /tmp/ccBYUnRY.s:427    .text._ZN14ThreadsTestCPP7WorkerBD2Ev:0000000000000034 .L0 
     /tmp/ccBYUnRY.s:474    .text._ZN14ThreadsTestCPP7WorkerBD0Ev:000000000000004c .L0 
     /tmp/ccBYUnRY.s:511    .text._ZN14ThreadsTestCPP7WorkerCD2Ev:0000000000000034 .L0 
     /tmp/ccBYUnRY.s:558    .text._ZN14ThreadsTestCPP7WorkerCD0Ev:000000000000004c .L0 
     /tmp/ccBYUnRY.s:595    .text._ZN14ThreadsTestCPP7WorkerDD2Ev:0000000000000034 .L0 
     /tmp/ccBYUnRY.s:642    .text._ZN14ThreadsTestCPP7WorkerDD0Ev:000000000000004c .L0 
     /tmp/ccBYUnRY.s:680    .text._ZN23ConsumerProducerSyncCPP8ConsumerD2Ev:0000000000000034 .L0 
     /tmp/ccBYUnRY.s:727    .text._ZN23ConsumerProducerSyncCPP8ConsumerD0Ev:000000000000004c .L0 
     /tmp/ccBYUnRY.s:764    .text._ZN23ConsumerProducerSyncCPP8ProducerD2Ev:0000000000000034 .L0 
     /tmp/ccBYUnRY.s:811    .text._ZN23ConsumerProducerSyncCPP8ProducerD0Ev:000000000000004c .L0 
     /tmp/ccBYUnRY.s:848    .text._ZN23ConsumerProducerSyncCPP16ProducerKeyboardD2Ev:0000000000000034 .L0 
     /tmp/ccBYUnRY.s:895    .text._ZN23ConsumerProducerSyncCPP16ProducerKeyboardD0Ev:000000000000004c .L0 
     /tmp/ccBYUnRY.s:933    .text._ZN24ConsumerProducerAsyncCPP8ConsumerD2Ev:0000000000000034 .L0 
     /tmp/ccBYUnRY.s:980    .text._ZN24ConsumerProducerAsyncCPP8ConsumerD0Ev:000000000000004c .L0 
     /tmp/ccBYUnRY.s:1017   .text._ZN24ConsumerProducerAsyncCPP16ProducerKeyboradD2Ev:0000000000000034 .L0 
     /tmp/ccBYUnRY.s:1064   .text._ZN24ConsumerProducerAsyncCPP16ProducerKeyboradD0Ev:000000000000004c .L0 
     /tmp/ccBYUnRY.s:1101   .text._ZN24ConsumerProducerAsyncCPP8ProducerD2Ev:0000000000000034 .L0 
     /tmp/ccBYUnRY.s:1148   .text._ZN24ConsumerProducerAsyncCPP8ProducerD0Ev:000000000000004c .L0 
     /tmp/ccBYUnRY.s:1192   .text._ZN19PeriodicThreadsTest1AD2Ev:0000000000000038 .L0 
     /tmp/ccBYUnRY.s:1243   .text._ZN19PeriodicThreadsTest1AD0Ev:0000000000000050 .L0 
     /tmp/ccBYUnRY.s:1285   .text._ZN19PeriodicThreadsTest1BD2Ev:0000000000000038 .L0 
     /tmp/ccBYUnRY.s:1336   .text._ZN19PeriodicThreadsTest1BD0Ev:0000000000000050 .L0 
     /tmp/ccBYUnRY.s:1378   .text._ZN19PeriodicThreadsTest1CD2Ev:0000000000000038 .L0 
     /tmp/ccBYUnRY.s:1429   .text._ZN19PeriodicThreadsTest1CD0Ev:0000000000000050 .L0 
     /tmp/ccBYUnRY.s:1839   .text._ZN24ConsumerProducerAsyncCPP16ProducerKeyborad3runEv:0000000000000084 .L0 
     /tmp/ccBYUnRY.s:1963   .text._ZN24ConsumerProducerAsyncCPP8Consumer3runEv:00000000000000d0 .L0 
     /tmp/ccBYUnRY.s:2018   .text._ZN19PeriodicThreadsTest1A18periodicActivationEv:0000000000000060 .L0 
     /tmp/ccBYUnRY.s:2073   .text._ZN19PeriodicThreadsTest1B18periodicActivationEv:0000000000000060 .L0 
     /tmp/ccBYUnRY.s:2128   .text._ZN19PeriodicThreadsTest1C18periodicActivationEv:0000000000000060 .L0 
     /tmp/ccBYUnRY.s:2288   .text._ZN19PeriodicThreadsTest1A3runEv:0000000000000064 .L0 
     /tmp/ccBYUnRY.s:2352   .text._ZN19PeriodicThreadsTest1B3runEv:0000000000000064 .L0 
     /tmp/ccBYUnRY.s:2416   .text._ZN19PeriodicThreadsTest1C3runEv:0000000000000064 .L0 
     /tmp/ccBYUnRY.s:2501   .text._ZN24ConsumerProducerAsyncCPP8Producer3runEv:0000000000000094 .L0 
     /tmp/ccBYUnRY.s:3280   .text._ZN14ThreadsTestCPP7WorkerA3runEv:000000000000002c .L0 
     /tmp/ccBYUnRY.s:3444   .text._ZN14ThreadsTestCPP7WorkerB3runEv:000000000000002c .L0 
     /tmp/ccBYUnRY.s:3660   .text._ZN14ThreadsTestCPP7WorkerC3runEv:000000000000002c .L0 
     /tmp/ccBYUnRY.s:3850   .text._ZN14ThreadsTestCPP7WorkerD3runEv:000000000000002c .L0 
     /tmp/ccBYUnRY.s:4693   .text._ZN23ConsumerProducerSyncCPP16ProducerKeyboard3runEv:000000000000002c .L0 
     /tmp/ccBYUnRY.s:4816   .text._ZN23ConsumerProducerSyncCPP8Producer3runEv:000000000000002c .L0 
     /tmp/ccBYUnRY.s:4996   .text._ZN23ConsumerProducerSyncCPP8Consumer3runEv:000000000000002c .L0 
     /tmp/ccBYUnRY.s:33     .rodata.str1.8:0000000000000000 .LC0
     /tmp/ccBYUnRY.s:117    .text:0000000000000074 .L0 
     /tmp/ccBYUnRY.s:36     .rodata.str1.8:0000000000000008 .LC1
GAS LISTING /tmp/ccBYUnRY.s 			page 209


     /tmp/ccBYUnRY.s:129    .text:0000000000000098 .L0 
     /tmp/ccBYUnRY.s:39     .rodata.str1.8:0000000000000010 .LC2
     /tmp/ccBYUnRY.s:144    .text:00000000000000b0 .L0 
     /tmp/ccBYUnRY.s:150    .text:00000000000000c4 .L0 
     /tmp/ccBYUnRY.s:170    .rodata.str1.8:0000000000000020 .LC3
     /tmp/ccBYUnRY.s:250    .text:0000000000000140 .L0 
     /tmp/ccBYUnRY.s:262    .text:0000000000000164 .L0 
     /tmp/ccBYUnRY.s:173    .rodata.str1.8:0000000000000028 .LC4
     /tmp/ccBYUnRY.s:277    .text:000000000000017c .L0 
     /tmp/ccBYUnRY.s:283    .text:0000000000000190 .L0 
     /tmp/ccBYUnRY.s:1504   .text:000000000000022c .L0 
     /tmp/ccBYUnRY.s:1572   .text:0000000000000294 .L0 
     /tmp/ccBYUnRY.s:1672   .text:000000000000033c .L0 
     /tmp/ccBYUnRY.s:2130   .rodata.str1.8:0000000000000038 .LC5
     /tmp/ccBYUnRY.s:2173   .text:0000000000000404 .L0 
     /tmp/ccBYUnRY.s:2133   .rodata.str1.8:0000000000000040 .LC6
     /tmp/ccBYUnRY.s:2185   .text:0000000000000428 .L0 
     /tmp/ccBYUnRY.s:2204   .text:0000000000000454 .L0 
     /tmp/ccBYUnRY.s:2575   .rodata.str1.8:0000000000000048 .LC7
     /tmp/ccBYUnRY.s:2619   .text:0000000000000514 .L0 
     /tmp/ccBYUnRY.s:2631   .text:0000000000000538 .L0 
     /tmp/ccBYUnRY.s:2578   .rodata.str1.8:0000000000000050 .LC8
     /tmp/ccBYUnRY.s:2646   .text:0000000000000558 .L0 
     /tmp/ccBYUnRY.s:2581   .rodata.str1.8:0000000000000060 .LC9
     /tmp/ccBYUnRY.s:2671   .text:0000000000000578 .L0 
     /tmp/ccBYUnRY.s:2683   .text:000000000000059c .L0 
     /tmp/ccBYUnRY.s:2584   .rodata.str1.8:0000000000000068 .LC10
     /tmp/ccBYUnRY.s:2695   .text:00000000000005bc .L0 
     /tmp/ccBYUnRY.s:2708   .text:00000000000005e0 .L0 
     /tmp/ccBYUnRY.s:2715   .text:00000000000005f4 .L0 
     /tmp/ccBYUnRY.s:2727   .text:0000000000000618 .L0 
     /tmp/ccBYUnRY.s:2587   .rodata.str1.8:0000000000000078 .LC11
     /tmp/ccBYUnRY.s:2742   .text:0000000000000638 .L0 
     /tmp/ccBYUnRY.s:2748   .text:000000000000064c .L0 
     /tmp/ccBYUnRY.s:2773   .rodata.str1.8:0000000000000088 .LC12
     /tmp/ccBYUnRY.s:2814   .text:0000000000000694 .L0 
     /tmp/ccBYUnRY.s:2826   .text:00000000000006b8 .L0 
     /tmp/ccBYUnRY.s:2776   .rodata.str1.8:0000000000000090 .LC13
     /tmp/ccBYUnRY.s:2841   .text:00000000000006d8 .L0 
     /tmp/ccBYUnRY.s:2779   .rodata.str1.8:00000000000000a0 .LC14
     /tmp/ccBYUnRY.s:2864   .text:0000000000000704 .L0 
     /tmp/ccBYUnRY.s:2877   .text:0000000000000728 .L0 
     /tmp/ccBYUnRY.s:2884   .text:000000000000073c .L0 
     /tmp/ccBYUnRY.s:2896   .text:0000000000000760 .L0 
     /tmp/ccBYUnRY.s:2782   .rodata.str1.8:00000000000000b0 .LC15
     /tmp/ccBYUnRY.s:2911   .text:0000000000000780 .L0 
     /tmp/ccBYUnRY.s:2917   .text:0000000000000794 .L0 
     /tmp/ccBYUnRY.s:2973   .text:00000000000007d0 .L0 
     /tmp/ccBYUnRY.s:2942   .rodata.str1.8:00000000000000c0 .LC16
     /tmp/ccBYUnRY.s:2979   .text:00000000000007e4 .L0 
     /tmp/ccBYUnRY.s:2985   .text:00000000000007f8 .L0 
     /tmp/ccBYUnRY.s:2945   .rodata.str1.8:00000000000000d8 .LC17
     /tmp/ccBYUnRY.s:2991   .text:000000000000080c .L0 
     /tmp/ccBYUnRY.s:2997   .text:0000000000000820 .L0 
     /tmp/ccBYUnRY.s:2948   .rodata.str1.8:00000000000000f0 .LC18
     /tmp/ccBYUnRY.s:3003   .text:0000000000000834 .L0 
     /tmp/ccBYUnRY.s:3009   .text:0000000000000848 .L0 
GAS LISTING /tmp/ccBYUnRY.s 			page 210


     /tmp/ccBYUnRY.s:2951   .rodata.str1.8:0000000000000108 .LC19
     /tmp/ccBYUnRY.s:3015   .text:000000000000085c .L0 
     /tmp/ccBYUnRY.s:3027   .text:0000000000000878 .L0 
     /tmp/ccBYUnRY.s:3030   .text:0000000000000884 .L0 
     /tmp/ccBYUnRY.s:3033   .text:0000000000000890 .L0 
     /tmp/ccBYUnRY.s:3036   .text:000000000000089c .L0 
     /tmp/ccBYUnRY.s:3195   .text:0000000000000988 .L0 
     /tmp/ccBYUnRY.s:3207   .text:00000000000009ac .L0 
     /tmp/ccBYUnRY.s:3222   .text:00000000000009c4 .L0 
     /tmp/ccBYUnRY.s:3228   .text:00000000000009d8 .L0 
     /tmp/ccBYUnRY.s:3355   .text:0000000000000a54 .L0 
     /tmp/ccBYUnRY.s:3367   .text:0000000000000a78 .L0 
     /tmp/ccBYUnRY.s:3382   .text:0000000000000a90 .L0 
     /tmp/ccBYUnRY.s:3388   .text:0000000000000aa4 .L0 
     /tmp/ccBYUnRY.s:3474   .text:0000000000000aec .L0 
     /tmp/ccBYUnRY.s:3486   .text:0000000000000b10 .L0 
     /tmp/ccBYUnRY.s:3501   .text:0000000000000b30 .L0 
     /tmp/ccBYUnRY.s:3526   .text:0000000000000b50 .L0 
     /tmp/ccBYUnRY.s:3538   .text:0000000000000b74 .L0 
     /tmp/ccBYUnRY.s:3550   .text:0000000000000b94 .L0 
     /tmp/ccBYUnRY.s:3563   .text:0000000000000bb8 .L0 
     /tmp/ccBYUnRY.s:3570   .text:0000000000000bcc .L0 
     /tmp/ccBYUnRY.s:3582   .text:0000000000000bf0 .L0 
     /tmp/ccBYUnRY.s:3597   .text:0000000000000c10 .L0 
     /tmp/ccBYUnRY.s:3603   .text:0000000000000c24 .L0 
     /tmp/ccBYUnRY.s:3690   .text:0000000000000c6c .L0 
     /tmp/ccBYUnRY.s:3702   .text:0000000000000c90 .L0 
     /tmp/ccBYUnRY.s:3717   .text:0000000000000cb0 .L0 
     /tmp/ccBYUnRY.s:3740   .text:0000000000000cdc .L0 
     /tmp/ccBYUnRY.s:3753   .text:0000000000000d00 .L0 
     /tmp/ccBYUnRY.s:3760   .text:0000000000000d14 .L0 
     /tmp/ccBYUnRY.s:3772   .text:0000000000000d38 .L0 
     /tmp/ccBYUnRY.s:3787   .text:0000000000000d58 .L0 
     /tmp/ccBYUnRY.s:3793   .text:0000000000000d6c .L0 
     /tmp/ccBYUnRY.s:3889   .text:0000000000000dc4 .L0 
     /tmp/ccBYUnRY.s:3898   .text:0000000000000dd4 .L0 
     /tmp/ccBYUnRY.s:3917   .text:0000000000000dfc .L0 
     /tmp/ccBYUnRY.s:3926   .text:0000000000000e0c .L0 
     /tmp/ccBYUnRY.s:3945   .text:0000000000000e34 .L0 
     /tmp/ccBYUnRY.s:3954   .text:0000000000000e44 .L0 
     /tmp/ccBYUnRY.s:3973   .text:0000000000000e6c .L0 
     /tmp/ccBYUnRY.s:3982   .text:0000000000000e7c .L0 
     /tmp/ccBYUnRY.s:4018   .text:0000000000000ec0 .L0 
     /tmp/ccBYUnRY.s:4021   .text:0000000000000ecc .L0 
     /tmp/ccBYUnRY.s:4024   .text:0000000000000ed8 .L0 
     /tmp/ccBYUnRY.s:4027   .text:0000000000000ee4 .L0 
     /tmp/ccBYUnRY.s:4181   .rodata.str1.8:0000000000000120 .LC20
     /tmp/ccBYUnRY.s:4237   .text:0000000000000fd0 .L0 
     /tmp/ccBYUnRY.s:4184   .rodata.str1.8:0000000000000140 .LC21
     /tmp/ccBYUnRY.s:4257   .text:0000000000001004 .L0 
     /tmp/ccBYUnRY.s:4187   .rodata.str1.8:0000000000000160 .LC22
     /tmp/ccBYUnRY.s:4275   .text:0000000000001034 .L0 
     /tmp/ccBYUnRY.s:4190   .rodata.str1.8:0000000000000178 .LC23
     /tmp/ccBYUnRY.s:4287   .text:0000000000001058 .L0 
     /tmp/ccBYUnRY.s:4193   .rodata.str1.8:0000000000000190 .LC24
     /tmp/ccBYUnRY.s:4299   .text:000000000000107c .L0 
     /tmp/ccBYUnRY.s:4196   .rodata.str1.8:0000000000000198 .LC25
GAS LISTING /tmp/ccBYUnRY.s 			page 211


     /tmp/ccBYUnRY.s:4322   .text:00000000000010b4 .L0 
     /tmp/ccBYUnRY.s:4199   .rodata.str1.8:00000000000001d0 .LC26
     /tmp/ccBYUnRY.s:4331   .text:00000000000010c8 .L0 
     /tmp/ccBYUnRY.s:4343   .text:00000000000010e4 .L0 
     /tmp/ccBYUnRY.s:4381   .text:0000000000001140 .L0 
     /tmp/ccBYUnRY.s:4386   .text:0000000000001150 .L0 
     /tmp/ccBYUnRY.s:4398   .text:000000000000116c .L0 
     /tmp/ccBYUnRY.s:4426   .text:00000000000011ac .L0 
     /tmp/ccBYUnRY.s:4436   .text:00000000000011c8 .L0 
     /tmp/ccBYUnRY.s:4453   .text:00000000000011e4 .L0 
     /tmp/ccBYUnRY.s:4465   .text:00000000000011fc .L0 
     /tmp/ccBYUnRY.s:4623   .text:00000000000012f0 .L0 
     /tmp/ccBYUnRY.s:4730   .text:0000000000001360 .L0 
     /tmp/ccBYUnRY.s:4868   .text:0000000000001410 .L0 
     /tmp/ccBYUnRY.s:5042   .text:00000000000014f4 .L0 
     /tmp/ccBYUnRY.s:5062   .text:0000000000001528 .L0 
     /tmp/ccBYUnRY.s:5080   .text:0000000000001558 .L0 
     /tmp/ccBYUnRY.s:5092   .text:000000000000157c .L0 
     /tmp/ccBYUnRY.s:5104   .text:00000000000015a0 .L0 
     /tmp/ccBYUnRY.s:4998   .rodata.str1.8:0000000000000200 .LC27
     /tmp/ccBYUnRY.s:5127   .text:00000000000015d8 .L0 
     /tmp/ccBYUnRY.s:5136   .text:00000000000015ec .L0 
     /tmp/ccBYUnRY.s:5159   .text:0000000000001620 .L0 
     /tmp/ccBYUnRY.s:5221   .text:00000000000016a4 .L0 
     /tmp/ccBYUnRY.s:5242   .text:00000000000016c8 .L0 
     /tmp/ccBYUnRY.s:5279   .text:0000000000001718 .L0 
     /tmp/ccBYUnRY.s:5331   .text:000000000000177c .L0 
     /tmp/ccBYUnRY.s:5358   .text:00000000000017ac .L0 
     /tmp/ccBYUnRY.s:5408   .text:0000000000001808 .L0 
     /tmp/ccBYUnRY.s:5640   .text:000000000000193c .L0 
     /tmp/ccBYUnRY.s:5657   .text:0000000000001960 .L0 
     /tmp/ccBYUnRY.s:5661   .text:000000000000196c .L0 
     /tmp/ccBYUnRY.s:5720   .text:00000000000019c4 .L0 
     /tmp/ccBYUnRY.s:5740   .text:00000000000019f8 .L0 
     /tmp/ccBYUnRY.s:5758   .text:0000000000001a28 .L0 
     /tmp/ccBYUnRY.s:5770   .text:0000000000001a4c .L0 
     /tmp/ccBYUnRY.s:5782   .text:0000000000001a70 .L0 
     /tmp/ccBYUnRY.s:5805   .text:0000000000001aa8 .L0 
     /tmp/ccBYUnRY.s:5814   .text:0000000000001abc .L0 
     /tmp/ccBYUnRY.s:5837   .text:0000000000001af0 .L0 
     /tmp/ccBYUnRY.s:5893   .text:0000000000001b68 .L0 
     /tmp/ccBYUnRY.s:5913   .text:0000000000001b8c .L0 
     /tmp/ccBYUnRY.s:5930   .text:0000000000001bb0 .L0 
     /tmp/ccBYUnRY.s:5953   .text:0000000000001bd8 .L0 
     /tmp/ccBYUnRY.s:5986   .text:0000000000001c20 .L0 
     /tmp/ccBYUnRY.s:6023   .text:0000000000001c58 .L0 
     /tmp/ccBYUnRY.s:6035   .text:0000000000001c70 .L0 
     /tmp/ccBYUnRY.s:6302   .text:0000000000001de8 .L0 
     /tmp/ccBYUnRY.s:6317   .text:0000000000001e0c .L0 
     /tmp/ccBYUnRY.s:6336   .text:0000000000001e30 .L0 
     /tmp/ccBYUnRY.s:6358   .text:0000000000001e58 .L0 
     /tmp/ccBYUnRY.s:6380   .text:0000000000001e80 .L0 
     /tmp/ccBYUnRY.s:6477   .text:0000000000001f18 .L0 
     /tmp/ccBYUnRY.s:6490   .text:0000000000001f30 .L0 
     /tmp/ccBYUnRY.s:6501   .text:0000000000001f48 .L0 
     /tmp/ccBYUnRY.s:6681   .text:000000000000201c .L0 
     /tmp/ccBYUnRY.s:6706   .text:000000000000203c .L0 
GAS LISTING /tmp/ccBYUnRY.s 			page 212


     /tmp/ccBYUnRY.s:6713   .text:0000000000002050 .L0 
     /tmp/ccBYUnRY.s:6721   .text:0000000000002068 .L0 
     /tmp/ccBYUnRY.s:6729   .text:0000000000002080 .L0 
     /tmp/ccBYUnRY.s:110    .text:000000000000006c .L9
     /tmp/ccBYUnRY.s:102    .text:0000000000000068 .L5
     /tmp/ccBYUnRY.s:70     .text:0000000000000038 .L6
     /tmp/ccBYUnRY.s:91     .text:0000000000000054 .L7
     /tmp/ccBYUnRY.s:138    .text:00000000000000b0 .L4
     /tmp/ccBYUnRY.s:82     .text:0000000000000044 .L8
     /tmp/ccBYUnRY.s:243    .text:0000000000000138 .L17
     /tmp/ccBYUnRY.s:235    .text:0000000000000134 .L13
     /tmp/ccBYUnRY.s:203    .text:0000000000000104 .L14
     /tmp/ccBYUnRY.s:224    .text:0000000000000120 .L15
     /tmp/ccBYUnRY.s:271    .text:000000000000017c .L12
     /tmp/ccBYUnRY.s:215    .text:0000000000000110 .L16
     /tmp/ccBYUnRY.s:1465   .text:00000000000001e4 .L72
     /tmp/ccBYUnRY.s:1500   .text:0000000000000228 .L73
     /tmp/ccBYUnRY.s:1460   .text:00000000000001dc .L76
     /tmp/ccBYUnRY.s:1569   .text:0000000000000294 .L78
     /tmp/ccBYUnRY.s:1600   .text:00000000000002d8 .L79
     /tmp/ccBYUnRY.s:1564   .text:000000000000028c .L82
     /tmp/ccBYUnRY.s:1668   .text:000000000000033c .L84
     /tmp/ccBYUnRY.s:1701   .text:000000000000037c .L86
     /tmp/ccBYUnRY.s:1724   .text:00000000000003a4 .L85
     /tmp/ccBYUnRY.s:1654   .text:0000000000000324 .L90
     /tmp/ccBYUnRY.s:1662   .text:0000000000000330 .L91
     /tmp/ccBYUnRY.s:1710   .text:000000000000038c .L92
     /tmp/ccBYUnRY.s:2195   .text:0000000000000448 .L112
     /tmp/ccBYUnRY.s:2165   .text:00000000000003fc .L113
     /tmp/ccBYUnRY.s:2546   .text:00000000000004d0 .L131
     /tmp/ccBYUnRY.s:2563   .text:00000000000004e8 .L136
     /tmp/ccBYUnRY.s:2533   .text:00000000000004b0 .L133
     /tmp/ccBYUnRY.s:2639   .text:0000000000000550 .L139
     /tmp/ccBYUnRY.s:2616   .text:0000000000000514 .L143
     /tmp/ccBYUnRY.s:2735   .text:0000000000000630 .L141
     /tmp/ccBYUnRY.s:2712   .text:00000000000005f4 .L144
     /tmp/ccBYUnRY.s:2834   .text:00000000000006d0 .L147
     /tmp/ccBYUnRY.s:2811   .text:0000000000000694 .L151
     /tmp/ccBYUnRY.s:2904   .text:0000000000000778 .L149
     /tmp/ccBYUnRY.s:2881   .text:000000000000073c .L152
     /tmp/ccBYUnRY.s:3024   .text:0000000000000878 .L156
     /tmp/ccBYUnRY.s:3019   .text:0000000000000870 .L154
     /tmp/ccBYUnRY.s:3094   .text:0000000000000908 .L158
     /tmp/ccBYUnRY.s:3111   .text:0000000000000920 .L163
     /tmp/ccBYUnRY.s:3081   .text:00000000000008e8 .L160
     /tmp/ccBYUnRY.s:3188   .text:0000000000000980 .L170
     /tmp/ccBYUnRY.s:3180   .text:000000000000097c .L166
     /tmp/ccBYUnRY.s:3148   .text:000000000000094c .L167
     /tmp/ccBYUnRY.s:3169   .text:0000000000000968 .L168
     /tmp/ccBYUnRY.s:3216   .text:00000000000009c4 .L165
     /tmp/ccBYUnRY.s:3160   .text:0000000000000958 .L169
     /tmp/ccBYUnRY.s:3348   .text:0000000000000a4c .L180
     /tmp/ccBYUnRY.s:3340   .text:0000000000000a48 .L176
     /tmp/ccBYUnRY.s:3308   .text:0000000000000a18 .L177
     /tmp/ccBYUnRY.s:3329   .text:0000000000000a34 .L178
     /tmp/ccBYUnRY.s:3376   .text:0000000000000a90 .L175
     /tmp/ccBYUnRY.s:3320   .text:0000000000000a24 .L179
GAS LISTING /tmp/ccBYUnRY.s 			page 213


     /tmp/ccBYUnRY.s:3494   .text:0000000000000b28 .L186
     /tmp/ccBYUnRY.s:3471   .text:0000000000000aec .L190
     /tmp/ccBYUnRY.s:3590   .text:0000000000000c08 .L188
     /tmp/ccBYUnRY.s:3567   .text:0000000000000bcc .L191
     /tmp/ccBYUnRY.s:3710   .text:0000000000000ca8 .L196
     /tmp/ccBYUnRY.s:3687   .text:0000000000000c6c .L200
     /tmp/ccBYUnRY.s:3780   .text:0000000000000d50 .L198
     /tmp/ccBYUnRY.s:3757   .text:0000000000000d14 .L201
     /tmp/ccBYUnRY.s:4015   .text:0000000000000ec0 .L205
     /tmp/ccBYUnRY.s:3989   .text:0000000000000e90 .L206
     /tmp/ccBYUnRY.s:4008   .text:0000000000000eb8 .L207
     /tmp/ccBYUnRY.s:4039   .text:0000000000000efc .L208
     /tmp/ccBYUnRY.s:4101   .text:0000000000000f8c .L204
     /tmp/ccBYUnRY.s:4035   .text:0000000000000ef8 .L210
     /tmp/ccBYUnRY.s:4319   .text:00000000000010b4 .L236
     /tmp/ccBYUnRY.s:4328   .text:00000000000010c8 .L237
     /tmp/ccBYUnRY.s:4338   .text:00000000000010e0 .L238
     /tmp/ccBYUnRY.s:4335   .text:00000000000010d8 .L223
     /tmp/ccBYUnRY.s:4482   .text:000000000000122c .L221
     /tmp/ccBYUnRY.s:4411   .text:0000000000001190 .L227
     /tmp/ccBYUnRY.s:4438   .text:00000000000011d4 .L225
     /tmp/ccBYUnRY.s:4396   .text:000000000000116c .L233
     /tmp/ccBYUnRY.s:4399   .text:0000000000001174 .L226
     /tmp/ccBYUnRY.s:4461   .text:00000000000011fc .L228
     /tmp/ccBYUnRY.s:4448   .text:00000000000011e0 .L229
     /tmp/ccBYUnRY.s:4479   .text:0000000000001228 .L230
     /tmp/ccBYUnRY.s:4584   .text:00000000000012a8 .L240
     /tmp/ccBYUnRY.s:4619   .text:00000000000012ec .L241
     /tmp/ccBYUnRY.s:4579   .text:00000000000012a0 .L244
     /tmp/ccBYUnRY.s:4727   .text:0000000000001360 .L248
     /tmp/ccBYUnRY.s:4758   .text:00000000000013a4 .L249
     /tmp/ccBYUnRY.s:4722   .text:0000000000001358 .L252
     /tmp/ccBYUnRY.s:4864   .text:0000000000001410 .L256
     /tmp/ccBYUnRY.s:4897   .text:0000000000001450 .L258
     /tmp/ccBYUnRY.s:4922   .text:000000000000147c .L257
     /tmp/ccBYUnRY.s:4850   .text:00000000000013f8 .L262
     /tmp/ccBYUnRY.s:4858   .text:0000000000001404 .L263
     /tmp/ccBYUnRY.s:4906   .text:0000000000001460 .L264
     /tmp/ccBYUnRY.s:5124   .text:00000000000015d8 .L295
     /tmp/ccBYUnRY.s:5133   .text:00000000000015ec .L296
     /tmp/ccBYUnRY.s:5143   .text:0000000000001604 .L297
     /tmp/ccBYUnRY.s:5140   .text:00000000000015fc .L269
     /tmp/ccBYUnRY.s:5431   .text:0000000000001840 .L267
     /tmp/ccBYUnRY.s:5264   .text:00000000000016fc .L274
     /tmp/ccBYUnRY.s:5342   .text:000000000000179c .L271
     /tmp/ccBYUnRY.s:5306   .text:0000000000001754 .L272
     /tmp/ccBYUnRY.s:5238   .text:00000000000016c8 .L298
     /tmp/ccBYUnRY.s:5252   .text:00000000000016e4 .L273
     /tmp/ccBYUnRY.s:5366   .text:00000000000017c4 .L288
     /tmp/ccBYUnRY.s:5353   .text:00000000000017a8 .L276
     /tmp/ccBYUnRY.s:5378   .text:00000000000017d0 .L275
     /tmp/ccBYUnRY.s:5394   .text:00000000000017f4 .L277
     /tmp/ccBYUnRY.s:5374   .text:00000000000017cc .L278
     /tmp/ccBYUnRY.s:5405   .text:0000000000001808 .L279
     /tmp/ccBYUnRY.s:5416   .text:0000000000001820 .L280
     /tmp/ccBYUnRY.s:5428   .text:000000000000183c .L281
     /tmp/ccBYUnRY.s:5648   .text:0000000000001958 .L301
GAS LISTING /tmp/ccBYUnRY.s 			page 214


     /tmp/ccBYUnRY.s:5633   .text:0000000000001930 .L304
     /tmp/ccBYUnRY.s:5652   .text:0000000000001960 .L302
     /tmp/ccBYUnRY.s:5802   .text:0000000000001aa8 .L331
     /tmp/ccBYUnRY.s:5811   .text:0000000000001abc .L332
     /tmp/ccBYUnRY.s:5821   .text:0000000000001ad4 .L333
     /tmp/ccBYUnRY.s:5818   .text:0000000000001acc .L307
     /tmp/ccBYUnRY.s:6098   .text:0000000000001cec .L305
     /tmp/ccBYUnRY.s:5971   .text:0000000000001c04 .L310
     /tmp/ccBYUnRY.s:6005   .text:0000000000001c48 .L309
     /tmp/ccBYUnRY.s:5949   .text:0000000000001bd8 .L334
     /tmp/ccBYUnRY.s:6031   .text:0000000000001c70 .L311
     /tmp/ccBYUnRY.s:6017   .text:0000000000001c54 .L312
     /tmp/ccBYUnRY.s:6043   .text:0000000000001c88 .L313
     /tmp/ccBYUnRY.s:6056   .text:0000000000001c94 .L316
     /tmp/ccBYUnRY.s:6072   .text:0000000000001cb8 .L314
     /tmp/ccBYUnRY.s:6050   .text:0000000000001c90 .L315
     /tmp/ccBYUnRY.s:6083   .text:0000000000001ccc .L317
     /tmp/ccBYUnRY.s:6095   .text:0000000000001ce8 .L318
     /tmp/ccBYUnRY.s:6446   .text:0000000000001eec .L339
     /tmp/ccBYUnRY.s:6464   .text:0000000000001f0c .L348
     /tmp/ccBYUnRY.s:6421   .text:0000000000001ec8 .L355
     /tmp/ccBYUnRY.s:6441   .text:0000000000001ee8 .L338
     /tmp/ccBYUnRY.s:6486   .text:0000000000001f30 .L340
     /tmp/ccBYUnRY.s:6471   .text:0000000000001f10 .L336
     /tmp/ccBYUnRY.s:6498   .text:0000000000001f48 .L341
     /tmp/ccBYUnRY.s:6509   .text:0000000000001f60 .L335
     /tmp/ccBYUnRY.s:6754   .text:00000000000020a8 .L359
     /tmp/ccBYUnRY.s:6747   .text:00000000000020a0 .L357
     /tmp/ccBYUnRY.s:6791   .text:00000000000020ec .L356
     /tmp/ccBYUnRY.s:325    .text._ZN14ThreadsTestCPP7WorkerAD2Ev:0000000000000010 .L0 
     /tmp/ccBYUnRY.s:367    .text._ZN14ThreadsTestCPP7WorkerAD0Ev:0000000000000018 .L0 
     /tmp/ccBYUnRY.s:409    .text._ZN14ThreadsTestCPP7WorkerBD2Ev:0000000000000010 .L0 
     /tmp/ccBYUnRY.s:451    .text._ZN14ThreadsTestCPP7WorkerBD0Ev:0000000000000018 .L0 
     /tmp/ccBYUnRY.s:493    .text._ZN14ThreadsTestCPP7WorkerCD2Ev:0000000000000010 .L0 
     /tmp/ccBYUnRY.s:535    .text._ZN14ThreadsTestCPP7WorkerCD0Ev:0000000000000018 .L0 
     /tmp/ccBYUnRY.s:577    .text._ZN14ThreadsTestCPP7WorkerDD2Ev:0000000000000010 .L0 
     /tmp/ccBYUnRY.s:619    .text._ZN14ThreadsTestCPP7WorkerDD0Ev:0000000000000018 .L0 
     /tmp/ccBYUnRY.s:662    .text._ZN23ConsumerProducerSyncCPP8ConsumerD2Ev:0000000000000010 .L0 
     /tmp/ccBYUnRY.s:704    .text._ZN23ConsumerProducerSyncCPP8ConsumerD0Ev:0000000000000018 .L0 
     /tmp/ccBYUnRY.s:746    .text._ZN23ConsumerProducerSyncCPP8ProducerD2Ev:0000000000000010 .L0 
     /tmp/ccBYUnRY.s:788    .text._ZN23ConsumerProducerSyncCPP8ProducerD0Ev:0000000000000018 .L0 
     /tmp/ccBYUnRY.s:830    .text._ZN23ConsumerProducerSyncCPP16ProducerKeyboardD2Ev:0000000000000010 .L0 
     /tmp/ccBYUnRY.s:872    .text._ZN23ConsumerProducerSyncCPP16ProducerKeyboardD0Ev:0000000000000018 .L0 
     /tmp/ccBYUnRY.s:915    .text._ZN24ConsumerProducerAsyncCPP8ConsumerD2Ev:0000000000000010 .L0 
     /tmp/ccBYUnRY.s:957    .text._ZN24ConsumerProducerAsyncCPP8ConsumerD0Ev:0000000000000018 .L0 
     /tmp/ccBYUnRY.s:999    .text._ZN24ConsumerProducerAsyncCPP16ProducerKeyboradD2Ev:0000000000000010 .L0 
     /tmp/ccBYUnRY.s:1041   .text._ZN24ConsumerProducerAsyncCPP16ProducerKeyboradD0Ev:0000000000000018 .L0 
     /tmp/ccBYUnRY.s:1083   .text._ZN24ConsumerProducerAsyncCPP8ProducerD2Ev:0000000000000010 .L0 
     /tmp/ccBYUnRY.s:1125   .text._ZN24ConsumerProducerAsyncCPP8ProducerD0Ev:0000000000000018 .L0 
     /tmp/ccBYUnRY.s:1171   .text._ZN19PeriodicThreadsTest1AD2Ev:0000000000000010 .L0 
     /tmp/ccBYUnRY.s:1217   .text._ZN19PeriodicThreadsTest1AD0Ev:0000000000000018 .L0 
     /tmp/ccBYUnRY.s:1264   .text._ZN19PeriodicThreadsTest1BD2Ev:0000000000000010 .L0 
     /tmp/ccBYUnRY.s:1310   .text._ZN19PeriodicThreadsTest1BD0Ev:0000000000000018 .L0 
     /tmp/ccBYUnRY.s:1357   .text._ZN19PeriodicThreadsTest1CD2Ev:0000000000000010 .L0 
     /tmp/ccBYUnRY.s:1403   .text._ZN19PeriodicThreadsTest1CD0Ev:0000000000000018 .L0 
     /tmp/ccBYUnRY.s:1808   .text._ZN24ConsumerProducerAsyncCPP16ProducerKeyborad3runEv:0000000000000044 .L0 
     /tmp/ccBYUnRY.s:1804   .text._ZN24ConsumerProducerAsyncCPP16ProducerKeyborad3runEv:0000000000000040 .L94
GAS LISTING /tmp/ccBYUnRY.s 			page 215


     /tmp/ccBYUnRY.s:1782   .text._ZN24ConsumerProducerAsyncCPP16ProducerKeyborad3runEv:0000000000000018 .L95
     /tmp/ccBYUnRY.s:1880   .text._ZN24ConsumerProducerAsyncCPP8Consumer3runEv:0000000000000034 .L0 
     /tmp/ccBYUnRY.s:1876   .text._ZN24ConsumerProducerAsyncCPP8Consumer3runEv:0000000000000034 .L98
     /tmp/ccBYUnRY.s:1925   .text._ZN24ConsumerProducerAsyncCPP8Consumer3runEv:0000000000000090 .L99
     /tmp/ccBYUnRY.s:1869   .text._ZN24ConsumerProducerAsyncCPP8Consumer3runEv:0000000000000028 .L103
     /tmp/ccBYUnRY.s:1909   .text._ZN24ConsumerProducerAsyncCPP8Consumer3runEv:0000000000000074 .L104
     /tmp/ccBYUnRY.s:1984   .text._ZN19PeriodicThreadsTest1A18periodicActivationEv:0000000000000014 .L0 
     /tmp/ccBYUnRY.s:2039   .text._ZN19PeriodicThreadsTest1B18periodicActivationEv:0000000000000014 .L0 
     /tmp/ccBYUnRY.s:2094   .text._ZN19PeriodicThreadsTest1C18periodicActivationEv:0000000000000014 .L0 
     /tmp/ccBYUnRY.s:2270   .text._ZN19PeriodicThreadsTest1A3runEv:0000000000000040 .L0 
     /tmp/ccBYUnRY.s:2267   .text._ZN19PeriodicThreadsTest1A3runEv:0000000000000040 .L116
     /tmp/ccBYUnRY.s:2245   .text._ZN19PeriodicThreadsTest1A3runEv:0000000000000018 .L117
     /tmp/ccBYUnRY.s:2334   .text._ZN19PeriodicThreadsTest1B3runEv:0000000000000040 .L0 
     /tmp/ccBYUnRY.s:2331   .text._ZN19PeriodicThreadsTest1B3runEv:0000000000000040 .L120
     /tmp/ccBYUnRY.s:2309   .text._ZN19PeriodicThreadsTest1B3runEv:0000000000000018 .L121
     /tmp/ccBYUnRY.s:2398   .text._ZN19PeriodicThreadsTest1C3runEv:0000000000000040 .L0 
     /tmp/ccBYUnRY.s:2395   .text._ZN19PeriodicThreadsTest1C3runEv:0000000000000040 .L124
     /tmp/ccBYUnRY.s:2373   .text._ZN19PeriodicThreadsTest1C3runEv:0000000000000018 .L125
     /tmp/ccBYUnRY.s:2446   .text._ZN24ConsumerProducerAsyncCPP8Producer3runEv:0000000000000020 .L0 
     /tmp/ccBYUnRY.s:2476   .text._ZN24ConsumerProducerAsyncCPP8Producer3runEv:000000000000006c .L128
     /tmp/ccBYUnRY.s:2443   .text._ZN24ConsumerProducerAsyncCPP8Producer3runEv:0000000000000020 .L129
     /tmp/ccBYUnRY.s:3876   .text:0000000000000db0 .LEHB0
     /tmp/ccBYUnRY.s:3855   .text:0000000000000d94 .LFB77
     /tmp/ccBYUnRY.s:3879   .text:0000000000000db8 .LEHE0
     /tmp/ccBYUnRY.s:3882   .text:0000000000000dbc .LEHB1
     /tmp/ccBYUnRY.s:3888   .text:0000000000000dc4 .LEHE1
     /tmp/ccBYUnRY.s:4056   .text:0000000000000f1c .L216
     /tmp/ccBYUnRY.s:3899   .text:0000000000000ddc .LEHB2
     /tmp/ccBYUnRY.s:3907   .text:0000000000000df0 .LEHE2
     /tmp/ccBYUnRY.s:3910   .text:0000000000000df4 .LEHB3
     /tmp/ccBYUnRY.s:3916   .text:0000000000000dfc .LEHE3
     /tmp/ccBYUnRY.s:4068   .text:0000000000000f38 .L217
     /tmp/ccBYUnRY.s:3927   .text:0000000000000e14 .LEHB4
     /tmp/ccBYUnRY.s:3935   .text:0000000000000e28 .LEHE4
     /tmp/ccBYUnRY.s:3938   .text:0000000000000e2c .LEHB5
     /tmp/ccBYUnRY.s:3944   .text:0000000000000e34 .LEHE5
     /tmp/ccBYUnRY.s:4079   .text:0000000000000f54 .L218
     /tmp/ccBYUnRY.s:3955   .text:0000000000000e4c .LEHB6
     /tmp/ccBYUnRY.s:3963   .text:0000000000000e60 .LEHE6
     /tmp/ccBYUnRY.s:3966   .text:0000000000000e64 .LEHB7
     /tmp/ccBYUnRY.s:3972   .text:0000000000000e6c .LEHE7
     /tmp/ccBYUnRY.s:4090   .text:0000000000000f70 .L219
     /tmp/ccBYUnRY.s:3983   .text:0000000000000e84 .LEHB8
     /tmp/ccBYUnRY.s:4014   .text:0000000000000ec0 .LEHE8
     /tmp/ccBYUnRY.s:4064   .text:0000000000000f30 .LEHB9
     /tmp/ccBYUnRY.s:4067   .text:0000000000000f38 .LEHE9
     /tmp/ccBYUnRY.s:4075   .text:0000000000000f4c .LEHB10
     /tmp/ccBYUnRY.s:4078   .text:0000000000000f54 .LEHE10
     /tmp/ccBYUnRY.s:4086   .text:0000000000000f68 .LEHB11
     /tmp/ccBYUnRY.s:4089   .text:0000000000000f70 .LEHE11
     /tmp/ccBYUnRY.s:4097   .text:0000000000000f84 .LEHB12
     /tmp/ccBYUnRY.s:4100   .text:0000000000000f8c .LEHE12
     /tmp/ccBYUnRY.s:4238   .text:0000000000000fd8 .LEHB13
     /tmp/ccBYUnRY.s:4206   .text:0000000000000fa4 .LFB81
     /tmp/ccBYUnRY.s:4311   .text:00000000000010a0 .LEHE13
     /tmp/ccBYUnRY.s:4314   .text:00000000000010a8 .LEHB14
     /tmp/ccBYUnRY.s:4317   .text:00000000000010b0 .LEHE14
GAS LISTING /tmp/ccBYUnRY.s 			page 216


     /tmp/ccBYUnRY.s:4508   .text:0000000000001258 .L234
     /tmp/ccBYUnRY.s:4323   .text:00000000000010bc .LEHB15
     /tmp/ccBYUnRY.s:4478   .text:0000000000001228 .LEHE15
     /tmp/ccBYUnRY.s:4517   .text:000000000000126c .LEHB16
     /tmp/ccBYUnRY.s:4520   .text:0000000000001274 .LEHE16
     /tmp/ccBYUnRY.s:5043   .text:00000000000014fc .LEHB17
     /tmp/ccBYUnRY.s:5005   .text:00000000000014bc .LFB97
     /tmp/ccBYUnRY.s:5116   .text:00000000000015c4 .LEHE17
     /tmp/ccBYUnRY.s:5119   .text:00000000000015cc .LEHB18
     /tmp/ccBYUnRY.s:5122   .text:00000000000015d4 .LEHE18
     /tmp/ccBYUnRY.s:5463   .text:0000000000001878 .L289
     /tmp/ccBYUnRY.s:5128   .text:00000000000015e0 .LEHB19
     /tmp/ccBYUnRY.s:5150   .text:0000000000001610 .LEHE19
     /tmp/ccBYUnRY.s:5154   .text:0000000000001618 .LEHB20
     /tmp/ccBYUnRY.s:5157   .text:0000000000001620 .LEHE20
     /tmp/ccBYUnRY.s:5476   .text:0000000000001894 .L290
     /tmp/ccBYUnRY.s:5202   .text:0000000000001684 .LEHB21
     /tmp/ccBYUnRY.s:5205   .text:000000000000168c .LEHE21
     /tmp/ccBYUnRY.s:5213   .text:000000000000169c .LEHB22
     /tmp/ccBYUnRY.s:5219   .text:00000000000016a4 .LEHE22
     /tmp/ccBYUnRY.s:5488   .text:00000000000018b0 .L291
     /tmp/ccBYUnRY.s:5230   .text:00000000000016b8 .LEHB23
     /tmp/ccBYUnRY.s:5288   .text:0000000000001734 .LEHE23
     /tmp/ccBYUnRY.s:5297   .text:0000000000001748 .LEHB24
     /tmp/ccBYUnRY.s:5303   .text:0000000000001750 .LEHE24
     /tmp/ccBYUnRY.s:5500   .text:00000000000018cc .L292
     /tmp/ccBYUnRY.s:5312   .text:0000000000001758 .LEHB25
     /tmp/ccBYUnRY.s:5315   .text:0000000000001760 .LEHE25
     /tmp/ccBYUnRY.s:5324   .text:0000000000001774 .LEHB26
     /tmp/ccBYUnRY.s:5330   .text:000000000000177c .LEHE26
     /tmp/ccBYUnRY.s:5513   .text:00000000000018e8 .L293
     /tmp/ccBYUnRY.s:5345   .text:000000000000179c .LEHB27
     /tmp/ccBYUnRY.s:5427   .text:000000000000183c .LEHE27
     /tmp/ccBYUnRY.s:5472   .text:000000000000188c .LEHB28
     /tmp/ccBYUnRY.s:5475   .text:0000000000001894 .LEHE28
     /tmp/ccBYUnRY.s:5484   .text:00000000000018a8 .LEHB29
     /tmp/ccBYUnRY.s:5487   .text:00000000000018b0 .LEHE29
     /tmp/ccBYUnRY.s:5496   .text:00000000000018c4 .LEHB30
     /tmp/ccBYUnRY.s:5499   .text:00000000000018cc .LEHE30
     /tmp/ccBYUnRY.s:5509   .text:00000000000018e0 .LEHB31
     /tmp/ccBYUnRY.s:5512   .text:00000000000018e8 .LEHE31
     /tmp/ccBYUnRY.s:5521   .text:00000000000018fc .LEHB32
     /tmp/ccBYUnRY.s:5524   .text:0000000000001904 .LEHE32
     /tmp/ccBYUnRY.s:5721   .text:00000000000019cc .LEHB33
     /tmp/ccBYUnRY.s:5683   .text:000000000000198c .LFB112
     /tmp/ccBYUnRY.s:5794   .text:0000000000001a94 .LEHE33
     /tmp/ccBYUnRY.s:5797   .text:0000000000001a9c .LEHB34
     /tmp/ccBYUnRY.s:5800   .text:0000000000001aa4 .LEHE34
     /tmp/ccBYUnRY.s:6130   .text:0000000000001d24 .L325
     /tmp/ccBYUnRY.s:5806   .text:0000000000001ab0 .LEHB35
     /tmp/ccBYUnRY.s:5828   .text:0000000000001ae0 .LEHE35
     /tmp/ccBYUnRY.s:5832   .text:0000000000001ae8 .LEHB36
     /tmp/ccBYUnRY.s:5835   .text:0000000000001af0 .LEHE36
     /tmp/ccBYUnRY.s:6143   .text:0000000000001d40 .L326
     /tmp/ccBYUnRY.s:5879   .text:0000000000001b54 .LEHB37
     /tmp/ccBYUnRY.s:5882   .text:0000000000001b5c .LEHE37
     /tmp/ccBYUnRY.s:5885   .text:0000000000001b60 .LEHB38
GAS LISTING /tmp/ccBYUnRY.s 			page 217


     /tmp/ccBYUnRY.s:5891   .text:0000000000001b68 .LEHE38
     /tmp/ccBYUnRY.s:6154   .text:0000000000001d5c .L327
     /tmp/ccBYUnRY.s:5902   .text:0000000000001b7c .LEHB39
     /tmp/ccBYUnRY.s:5920   .text:0000000000001ba4 .LEHE39
     /tmp/ccBYUnRY.s:5923   .text:0000000000001ba8 .LEHB40
     /tmp/ccBYUnRY.s:5929   .text:0000000000001bb0 .LEHE40
     /tmp/ccBYUnRY.s:6166   .text:0000000000001d78 .L328
     /tmp/ccBYUnRY.s:5941   .text:0000000000001bc8 .LEHB41
     /tmp/ccBYUnRY.s:5993   .text:0000000000001c38 .LEHE41
     /tmp/ccBYUnRY.s:5996   .text:0000000000001c3c .LEHB42
     /tmp/ccBYUnRY.s:6002   .text:0000000000001c44 .LEHE42
     /tmp/ccBYUnRY.s:6177   .text:0000000000001d94 .L329
     /tmp/ccBYUnRY.s:6010   .text:0000000000001c48 .LEHB43
     /tmp/ccBYUnRY.s:6094   .text:0000000000001ce8 .LEHE43
     /tmp/ccBYUnRY.s:6139   .text:0000000000001d38 .LEHB44
     /tmp/ccBYUnRY.s:6142   .text:0000000000001d40 .LEHE44
     /tmp/ccBYUnRY.s:6150   .text:0000000000001d54 .LEHB45
     /tmp/ccBYUnRY.s:6153   .text:0000000000001d5c .LEHE45
     /tmp/ccBYUnRY.s:6162   .text:0000000000001d70 .LEHB46
     /tmp/ccBYUnRY.s:6165   .text:0000000000001d78 .LEHE46
     /tmp/ccBYUnRY.s:6173   .text:0000000000001d8c .LEHB47
     /tmp/ccBYUnRY.s:6176   .text:0000000000001d94 .LEHE47
     /tmp/ccBYUnRY.s:6186   .text:0000000000001da8 .LEHB48
     /tmp/ccBYUnRY.s:6189   .text:0000000000001db0 .LEHE48
     /tmp/ccBYUnRY.s:6291   .text:0000000000001dd0 .LEHB49
     /tmp/ccBYUnRY.s:6269   .text:0000000000001db0 .LFB132
     /tmp/ccBYUnRY.s:6294   .text:0000000000001dd8 .LEHE49
     /tmp/ccBYUnRY.s:6297   .text:0000000000001de0 .LEHB50
     /tmp/ccBYUnRY.s:6300   .text:0000000000001de8 .LEHE50
     /tmp/ccBYUnRY.s:6531   .text:0000000000001f7c .L349
     /tmp/ccBYUnRY.s:6306   .text:0000000000001df4 .LEHB51
     /tmp/ccBYUnRY.s:6309   .text:0000000000001dfc .LEHE51
     /tmp/ccBYUnRY.s:6312   .text:0000000000001e04 .LEHB52
     /tmp/ccBYUnRY.s:6315   .text:0000000000001e0c .LEHE52
     /tmp/ccBYUnRY.s:6543   .text:0000000000001f98 .L350
     /tmp/ccBYUnRY.s:6321   .text:0000000000001e18 .LEHB53
     /tmp/ccBYUnRY.s:6324   .text:0000000000001e20 .LEHE53
     /tmp/ccBYUnRY.s:6331   .text:0000000000001e28 .LEHB54
     /tmp/ccBYUnRY.s:6334   .text:0000000000001e30 .LEHE54
     /tmp/ccBYUnRY.s:6554   .text:0000000000001fb4 .L351
     /tmp/ccBYUnRY.s:6344   .text:0000000000001e40 .LEHB55
     /tmp/ccBYUnRY.s:6347   .text:0000000000001e48 .LEHE55
     /tmp/ccBYUnRY.s:6354   .text:0000000000001e50 .LEHB56
     /tmp/ccBYUnRY.s:6357   .text:0000000000001e58 .LEHE56
     /tmp/ccBYUnRY.s:6565   .text:0000000000001fd0 .L352
     /tmp/ccBYUnRY.s:6366   .text:0000000000001e68 .LEHB57
     /tmp/ccBYUnRY.s:6369   .text:0000000000001e70 .LEHE57
     /tmp/ccBYUnRY.s:6376   .text:0000000000001e78 .LEHB58
     /tmp/ccBYUnRY.s:6379   .text:0000000000001e80 .LEHE58
     /tmp/ccBYUnRY.s:6576   .text:0000000000001fec .L353
     /tmp/ccBYUnRY.s:6398   .text:0000000000001e9c .LEHB59
     /tmp/ccBYUnRY.s:6480   .text:0000000000001f28 .LEHE59
     /tmp/ccBYUnRY.s:6539   .text:0000000000001f90 .LEHB60
     /tmp/ccBYUnRY.s:6542   .text:0000000000001f98 .LEHE60
     /tmp/ccBYUnRY.s:6550   .text:0000000000001fac .LEHB61
     /tmp/ccBYUnRY.s:6553   .text:0000000000001fb4 .LEHE61
     /tmp/ccBYUnRY.s:6561   .text:0000000000001fc8 .LEHB62
GAS LISTING /tmp/ccBYUnRY.s 			page 218


     /tmp/ccBYUnRY.s:6564   .text:0000000000001fd0 .LEHE62
     /tmp/ccBYUnRY.s:6572   .text:0000000000001fe4 .LEHB63
     /tmp/ccBYUnRY.s:6575   .text:0000000000001fec .LEHE63
     /tmp/ccBYUnRY.s:6584   .text:0000000000002000 .LEHB64
     /tmp/ccBYUnRY.s:6587   .text:0000000000002008 .LEHE64
     /tmp/ccBYUnRY.s:17551  .debug_abbrev:0000000000000000 .Ldebug_abbrev0
     /tmp/ccBYUnRY.s:23308  .debug_str:0000000000002945 .LASF503
     /tmp/ccBYUnRY.s:22774  .debug_str:0000000000001022 .LASF504
     /tmp/ccBYUnRY.s:22516  .debug_str:0000000000000330 .LASF505
     /tmp/ccBYUnRY.s:22278  .debug_ranges:0000000000000000 .Ldebug_ranges0
     /tmp/ccBYUnRY.s:22452  .debug_line:0000000000000000 .Ldebug_line0
     /tmp/ccBYUnRY.s:22530  .debug_str:0000000000000407 .LASF0
     /tmp/ccBYUnRY.s:23402  .debug_str:0000000000002e6a .LASF1
     /tmp/ccBYUnRY.s:23310  .debug_str:0000000000002a09 .LASF2
     /tmp/ccBYUnRY.s:23432  .debug_str:0000000000002fcb .LASF3
     /tmp/ccBYUnRY.s:23236  .debug_str:00000000000025bc .LASF4
     /tmp/ccBYUnRY.s:23266  .debug_str:0000000000002761 .LASF5
     /tmp/ccBYUnRY.s:22786  .debug_str:00000000000010b7 .LASF6
     /tmp/ccBYUnRY.s:22926  .debug_str:0000000000001715 .LASF7
     /tmp/ccBYUnRY.s:22884  .debug_str:00000000000014cc .LASF8
     /tmp/ccBYUnRY.s:23148  .debug_str:0000000000002192 .LASF9
     /tmp/ccBYUnRY.s:22574  .debug_str:00000000000005a1 .LASF10
     /tmp/ccBYUnRY.s:23374  .debug_str:0000000000002d3f .LASF11
     /tmp/ccBYUnRY.s:22794  .debug_str:00000000000010fd .LASF12
     /tmp/ccBYUnRY.s:22652  .debug_str:00000000000009ac .LASF13
     /tmp/ccBYUnRY.s:22932  .debug_str:000000000000173b .LASF14
     /tmp/ccBYUnRY.s:22800  .debug_str:0000000000001120 .LASF15
     /tmp/ccBYUnRY.s:23216  .debug_str:00000000000024fc .LASF16
     /tmp/ccBYUnRY.s:22810  .debug_str:000000000000117b .LASF17
     /tmp/ccBYUnRY.s:22738  .debug_str:0000000000000e4c .LASF18
     /tmp/ccBYUnRY.s:22632  .debug_str:000000000000089b .LASF76
     /tmp/ccBYUnRY.s:22894  .debug_str:0000000000001523 .LASF506
     /tmp/ccBYUnRY.s:23368  .debug_str:0000000000002d07 .LASF19
     /tmp/ccBYUnRY.s:22514  .debug_str:0000000000000323 .LASF20
     /tmp/ccBYUnRY.s:22826  .debug_str:000000000000122c .LASF21
     /tmp/ccBYUnRY.s:23180  .debug_str:000000000000235a .LASF22
     /tmp/ccBYUnRY.s:22656  .debug_str:00000000000009e6 .LASF24
     /tmp/ccBYUnRY.s:22836  .debug_str:000000000000128e .LASF23
     /tmp/ccBYUnRY.s:22864  .debug_str:00000000000013e5 .LASF25
     /tmp/ccBYUnRY.s:22854  .debug_str:0000000000001368 .LASF26
     /tmp/ccBYUnRY.s:22934  .debug_str:000000000000174b .LASF27
     /tmp/ccBYUnRY.s:23012  .debug_str:0000000000001ae9 .LASF28
     /tmp/ccBYUnRY.s:23212  .debug_str:00000000000024d1 .LASF29
     /tmp/ccBYUnRY.s:22578  .debug_str:00000000000005e4 .LASF30
     /tmp/ccBYUnRY.s:23044  .debug_str:0000000000001c77 .LASF31
     /tmp/ccBYUnRY.s:22868  .debug_str:000000000000141b .LASF38
     /tmp/ccBYUnRY.s:23218  .debug_str:0000000000002508 .LASF40
     /tmp/ccBYUnRY.s:22672  .debug_str:0000000000000ace .LASF32
     /tmp/ccBYUnRY.s:22730  .debug_str:0000000000000ddb .LASF34
     /tmp/ccBYUnRY.s:23294  .debug_str:000000000000288e .LASF33
     /tmp/ccBYUnRY.s:23392  .debug_str:0000000000002e00 .LASF35
     /tmp/ccBYUnRY.s:23056  .debug_str:0000000000001d49 .LASF36
     /tmp/ccBYUnRY.s:23018  .debug_str:0000000000001b18 .LASF37
     /tmp/ccBYUnRY.s:23462  .debug_str:0000000000003173 .LASF39
     /tmp/ccBYUnRY.s:23418  .debug_str:0000000000002f0b .LASF41
     /tmp/ccBYUnRY.s:23002  .debug_str:0000000000001a56 .LASF42
     /tmp/ccBYUnRY.s:22776  .debug_str:0000000000001034 .LASF43
GAS LISTING /tmp/ccBYUnRY.s 			page 219


     /tmp/ccBYUnRY.s:22600  .debug_str:0000000000000734 .LASF44
     /tmp/ccBYUnRY.s:22978  .debug_str:0000000000001949 .LASF45
     /tmp/ccBYUnRY.s:22778  .debug_str:0000000000001049 .LASF46
     /tmp/ccBYUnRY.s:23032  .debug_str:0000000000001bf3 .LASF47
     /tmp/ccBYUnRY.s:23454  .debug_str:0000000000003125 .LASF48
     /tmp/ccBYUnRY.s:23034  .debug_str:0000000000001c11 .LASF49
     /tmp/ccBYUnRY.s:22990  .debug_str:00000000000019da .LASF50
     /tmp/ccBYUnRY.s:23440  .debug_str:000000000000302c .LASF51
     /tmp/ccBYUnRY.s:22588  .debug_str:000000000000067b .LASF52
     /tmp/ccBYUnRY.s:22584  .debug_str:0000000000000645 .LASF53
     /tmp/ccBYUnRY.s:22762  .debug_str:0000000000000f8f .LASF54
     /tmp/ccBYUnRY.s:22650  .debug_str:000000000000098e .LASF55
     /tmp/ccBYUnRY.s:22460  .debug_str:0000000000000057 .LASF56
     /tmp/ccBYUnRY.s:22540  .debug_str:000000000000046a .LASF57
     /tmp/ccBYUnRY.s:22492  .debug_str:000000000000020a .LASF58
     /tmp/ccBYUnRY.s:23088  .debug_str:0000000000001ec4 .LASF59
     /tmp/ccBYUnRY.s:22872  .debug_str:0000000000001431 .LASF60
     /tmp/ccBYUnRY.s:22734  .debug_str:0000000000000e21 .LASF61
     /tmp/ccBYUnRY.s:23016  .debug_str:0000000000001b0e .LASF62
     /tmp/ccBYUnRY.s:23076  .debug_str:0000000000001e18 .LASF63
     /tmp/ccBYUnRY.s:22474  .debug_str:0000000000000112 .LASF64
     /tmp/ccBYUnRY.s:22850  .debug_str:0000000000001339 .LASF65
     /tmp/ccBYUnRY.s:23070  .debug_str:0000000000001dda .LASF66
     /tmp/ccBYUnRY.s:22670  .debug_str:0000000000000ab5 .LASF67
     /tmp/ccBYUnRY.s:23042  .debug_str:0000000000001c6d .LASF68
     /tmp/ccBYUnRY.s:23036  .debug_str:0000000000001c25 .LASF69
     /tmp/ccBYUnRY.s:23154  .debug_str:00000000000021d0 .LASF70
     /tmp/ccBYUnRY.s:22746  .debug_str:0000000000000ec9 .LASF71
     /tmp/ccBYUnRY.s:22782  .debug_str:0000000000001079 .LASF72
     /tmp/ccBYUnRY.s:22680  .debug_str:0000000000000b4e .LASF73
     /tmp/ccBYUnRY.s:22900  .debug_str:000000000000159c .LASF74
     /tmp/ccBYUnRY.s:23026  .debug_str:0000000000001bb2 .LASF75
     /tmp/ccBYUnRY.s:22536  .debug_str:0000000000000447 .LASF135
     /tmp/ccBYUnRY.s:23152  .debug_str:00000000000021ae .LASF137
     /tmp/ccBYUnRY.s:23134  .debug_str:00000000000020fc .LASF302
     /tmp/ccBYUnRY.s:22754  .debug_str:0000000000000f3a .LASF77
     /tmp/ccBYUnRY.s:22626  .debug_str:0000000000000843 .LASF79
     /tmp/ccBYUnRY.s:22822  .debug_str:000000000000120b .LASF507
     /tmp/ccBYUnRY.s:22986  .debug_str:00000000000019c7 .LASF81
     /tmp/ccBYUnRY.s:23142  .debug_str:0000000000002142 .LASF83
     /tmp/ccBYUnRY.s:22860  .debug_str:00000000000013c8 .LASF78
     /tmp/ccBYUnRY.s:23270  .debug_str:0000000000002783 .LASF80
     /tmp/ccBYUnRY.s:22602  .debug_str:0000000000000743 .LASF82
     /tmp/ccBYUnRY.s:22948  .debug_str:00000000000017e6 .LASF84
     /tmp/ccBYUnRY.s:22890  .debug_str:0000000000001508 .LASF85
     /tmp/ccBYUnRY.s:22468  .debug_str:00000000000000d5 .LASF86
     /tmp/ccBYUnRY.s:22544  .debug_str:0000000000000493 .LASF87
     /tmp/ccBYUnRY.s:22912  .debug_str:0000000000001623 .LASF88
     /tmp/ccBYUnRY.s:23372  .debug_str:0000000000002d28 .LASF89
     /tmp/ccBYUnRY.s:22896  .debug_str:0000000000001532 .LASF90
     /tmp/ccBYUnRY.s:22570  .debug_str:0000000000000569 .LASF91
     /tmp/ccBYUnRY.s:22580  .debug_str:00000000000005f7 .LASF92
     /tmp/ccBYUnRY.s:22488  .debug_str:00000000000001d4 .LASF93
     /tmp/ccBYUnRY.s:23200  .debug_str:0000000000002449 .LASF94
     /tmp/ccBYUnRY.s:22814  .debug_str:000000000000119e .LASF95
     /tmp/ccBYUnRY.s:22904  .debug_str:00000000000015dc .LASF96
     /tmp/ccBYUnRY.s:23416  .debug_str:0000000000002ef9 .LASF97
GAS LISTING /tmp/ccBYUnRY.s 			page 220


     /tmp/ccBYUnRY.s:22970  .debug_str:00000000000018dc .LASF98
     /tmp/ccBYUnRY.s:23170  .debug_str:000000000000229e .LASF99
     /tmp/ccBYUnRY.s:23162  .debug_str:0000000000002219 .LASF100
     /tmp/ccBYUnRY.s:22866  .debug_str:0000000000001408 .LASF101
     /tmp/ccBYUnRY.s:22478  .debug_str:0000000000000134 .LASF102
     /tmp/ccBYUnRY.s:22532  .debug_str:0000000000000414 .LASF103
     /tmp/ccBYUnRY.s:23286  .debug_str:0000000000002815 .LASF104
     /tmp/ccBYUnRY.s:22828  .debug_str:0000000000001238 .LASF105
     /tmp/ccBYUnRY.s:22806  .debug_str:000000000000114f .LASF106
     /tmp/ccBYUnRY.s:22500  .debug_str:0000000000000284 .LASF107
     /tmp/ccBYUnRY.s:23448  .debug_str:00000000000030c2 .LASF108
     /tmp/ccBYUnRY.s:22812  .debug_str:0000000000001191 .LASF109
     /tmp/ccBYUnRY.s:23118  .debug_str:000000000000203a .LASF110
     /tmp/ccBYUnRY.s:22638  .debug_str:00000000000008e8 .LASF111
     /tmp/ccBYUnRY.s:22916  .debug_str:000000000000165e .LASF112
     /tmp/ccBYUnRY.s:22564  .debug_str:0000000000000543 .LASF113
     /tmp/ccBYUnRY.s:23422  .debug_str:0000000000002f4a .LASF114
     /tmp/ccBYUnRY.s:23412  .debug_str:0000000000002ebe .LASF115
     /tmp/ccBYUnRY.s:22640  .debug_str:00000000000008f5 .LASF116
     /tmp/ccBYUnRY.s:22476  .debug_str:000000000000011d .LASF117
     /tmp/ccBYUnRY.s:22966  .debug_str:00000000000018a1 .LASF118
     /tmp/ccBYUnRY.s:23426  .debug_str:0000000000002f99 .LASF119
     /tmp/ccBYUnRY.s:22878  .debug_str:0000000000001484 .LASF120
     /tmp/ccBYUnRY.s:22472  .debug_str:0000000000000106 .LASF121
     /tmp/ccBYUnRY.s:22764  .debug_str:0000000000000fa0 .LASF122
     /tmp/ccBYUnRY.s:23094  .debug_str:0000000000001f1a .LASF123
     /tmp/ccBYUnRY.s:22844  .debug_str:00000000000012e7 .LASF124
     /tmp/ccBYUnRY.s:23388  .debug_str:0000000000002de9 .LASF125
     /tmp/ccBYUnRY.s:23116  .debug_str:000000000000202e .LASF126
     /tmp/ccBYUnRY.s:23090  .debug_str:0000000000001ede .LASF127
     /tmp/ccBYUnRY.s:22548  .debug_str:00000000000004af .LASF128
     /tmp/ccBYUnRY.s:22722  .debug_str:0000000000000d69 .LASF129
     /tmp/ccBYUnRY.s:23214  .debug_str:00000000000024ef .LASF130
     /tmp/ccBYUnRY.s:22568  .debug_str:0000000000000564 .LASF131
     /tmp/ccBYUnRY.s:23062  .debug_str:0000000000001d7b .LASF132
     /tmp/ccBYUnRY.s:22618  .debug_str:00000000000007e5 .LASF508
     /tmp/ccBYUnRY.s:22508  .debug_str:00000000000002bf .LASF141
     /tmp/ccBYUnRY.s:22726  .debug_str:0000000000000d89 .LASF143
     /tmp/ccBYUnRY.s:22852  .debug_str:0000000000001351 .LASF133
     /tmp/ccBYUnRY.s:22456  .debug_str:000000000000002a .LASF134
     /tmp/ccBYUnRY.s:22944  .debug_str:00000000000017ba .LASF136
     /tmp/ccBYUnRY.s:23078  .debug_str:0000000000001e2e .LASF138
     /tmp/ccBYUnRY.s:23460  .debug_str:0000000000003165 .LASF139
     /tmp/ccBYUnRY.s:23316  .debug_str:0000000000002a4b .LASF140
     /tmp/ccBYUnRY.s:23362  .debug_str:0000000000002cc6 .LASF142
     /tmp/ccBYUnRY.s:22704  .debug_str:0000000000000c70 .LASF144
     /tmp/ccBYUnRY.s:23318  .debug_str:0000000000002a64 .LASF153
     /tmp/ccBYUnRY.s:22788  .debug_str:00000000000010be .LASF145
     /tmp/ccBYUnRY.s:22502  .debug_str:0000000000000297 .LASF146
     /tmp/ccBYUnRY.s:23232  .debug_str:0000000000002590 .LASF147
     /tmp/ccBYUnRY.s:22994  .debug_str:00000000000019e8 .LASF148
     /tmp/ccBYUnRY.s:22802  .debug_str:0000000000001130 .LASF149
     /tmp/ccBYUnRY.s:23458  .debug_str:0000000000003151 .LASF150
     /tmp/ccBYUnRY.s:22940  .debug_str:000000000000179c .LASF151
     /tmp/ccBYUnRY.s:22524  .debug_str:00000000000003c0 .LASF152
     /tmp/ccBYUnRY.s:23246  .debug_str:000000000000262c .LASF154
     /tmp/ccBYUnRY.s:23106  .debug_str:0000000000001fc3 .LASF155
GAS LISTING /tmp/ccBYUnRY.s 			page 221


     /tmp/ccBYUnRY.s:23410  .debug_str:0000000000002eae .LASF156
     /tmp/ccBYUnRY.s:23268  .debug_str:0000000000002773 .LASF157
     /tmp/ccBYUnRY.s:23182  .debug_str:0000000000002369 .LASF158
     /tmp/ccBYUnRY.s:23146  .debug_str:000000000000217e .LASF159
     /tmp/ccBYUnRY.s:23192  .debug_str:000000000000240e .LASF160
     /tmp/ccBYUnRY.s:23320  .debug_str:0000000000002a75 .LASF161
     /tmp/ccBYUnRY.s:23210  .debug_str:00000000000024cc .LASF162
     /tmp/ccBYUnRY.s:22750  .debug_str:0000000000000f0a .LASF163
     /tmp/ccBYUnRY.s:22908  .debug_str:0000000000001601 .LASF164
     /tmp/ccBYUnRY.s:23168  .debug_str:0000000000002285 .LASF165
     /tmp/ccBYUnRY.s:22936  .debug_str:000000000000176a .LASF166
     /tmp/ccBYUnRY.s:23108  .debug_str:0000000000001fcd .LASF167
     /tmp/ccBYUnRY.s:22928  .debug_str:000000000000171c .LASF168
     /tmp/ccBYUnRY.s:23464  .debug_str:000000000000317b .LASF169
     /tmp/ccBYUnRY.s:22992  .debug_str:00000000000019e3 .LASF170
     /tmp/ccBYUnRY.s:22824  .debug_str:0000000000001210 .LASF171
     /tmp/ccBYUnRY.s:22504  .debug_str:00000000000002a1 .LASF172
     /tmp/ccBYUnRY.s:22470  .debug_str:00000000000000e8 .LASF173
     /tmp/ccBYUnRY.s:23072  .debug_str:0000000000001de6 .LASF174
     /tmp/ccBYUnRY.s:22462  .debug_str:0000000000000063 .LASF175
     /tmp/ccBYUnRY.s:22968  .debug_str:00000000000018c3 .LASF176
     /tmp/ccBYUnRY.s:23244  .debug_str:0000000000002613 .LASF177
     /tmp/ccBYUnRY.s:22958  .debug_str:0000000000001845 .LASF178
     /tmp/ccBYUnRY.s:22586  .debug_str:0000000000000661 .LASF179
     /tmp/ccBYUnRY.s:22892  .debug_str:0000000000001510 .LASF180
     /tmp/ccBYUnRY.s:22496  .debug_str:000000000000022f .LASF181
     /tmp/ccBYUnRY.s:22834  .debug_str:0000000000001275 .LASF182
     /tmp/ccBYUnRY.s:23048  .debug_str:0000000000001ca1 .LASF183
     /tmp/ccBYUnRY.s:22770  .debug_str:0000000000000ff7 .LASF184
     /tmp/ccBYUnRY.s:23356  .debug_str:0000000000002c88 .LASF185
     /tmp/ccBYUnRY.s:22614  .debug_str:000000000000078b .LASF186
     /tmp/ccBYUnRY.s:22790  .debug_str:00000000000010c3 .LASF187
     /tmp/ccBYUnRY.s:22484  .debug_str:0000000000000192 .LASF188
     /tmp/ccBYUnRY.s:23136  .debug_str:0000000000002104 .LASF189
     /tmp/ccBYUnRY.s:23206  .debug_str:000000000000249c .LASF190
     /tmp/ccBYUnRY.s:22838  .debug_str:00000000000012a4 .LASF191
     /tmp/ccBYUnRY.s:22766  .debug_str:0000000000000fb8 .LASF192
     /tmp/ccBYUnRY.s:23282  .debug_str:0000000000002808 .LASF194
     /tmp/ccBYUnRY.s:23196  .debug_str:0000000000002430 .LASF193
     /tmp/ccBYUnRY.s:22718  .debug_str:0000000000000d52 .LASF195
     /tmp/ccBYUnRY.s:23230  .debug_str:000000000000258b .LASF196
     /tmp/ccBYUnRY.s:23278  .debug_str:00000000000027d8 .LASF197
     /tmp/ccBYUnRY.s:22758  .debug_str:0000000000000f5e .LASF198
     /tmp/ccBYUnRY.s:23358  .debug_str:0000000000002ca4 .LASF199
     /tmp/ccBYUnRY.s:22874  .debug_str:000000000000143a .LASF200
     /tmp/ccBYUnRY.s:22808  .debug_str:000000000000116e .LASF201
     /tmp/ccBYUnRY.s:23038  .debug_str:0000000000001c3b .LASF202
     /tmp/ccBYUnRY.s:22554  .debug_str:00000000000004ce .LASF203
     /tmp/ccBYUnRY.s:22846  .debug_str:00000000000012f3 .LASF204
     /tmp/ccBYUnRY.s:22998  .debug_str:0000000000001a27 .LASF205
     /tmp/ccBYUnRY.s:22510  .debug_str:00000000000002d9 .LASF206
     /tmp/ccBYUnRY.s:23396  .debug_str:0000000000002e40 .LASF207
     /tmp/ccBYUnRY.s:22910  .debug_str:0000000000001612 .LASF208
     /tmp/ccBYUnRY.s:23138  .debug_str:0000000000002113 .LASF209
     /tmp/ccBYUnRY.s:23164  .debug_str:000000000000223a .LASF210
     /tmp/ccBYUnRY.s:23234  .debug_str:0000000000002596 .LASF211
     /tmp/ccBYUnRY.s:22974  .debug_str:000000000000190f .LASF212
GAS LISTING /tmp/ccBYUnRY.s 			page 222


     /tmp/ccBYUnRY.s:22920  .debug_str:00000000000016b7 .LASF213
     /tmp/ccBYUnRY.s:23174  .debug_str:00000000000022ef .LASF214
     /tmp/ccBYUnRY.s:23468  .debug_str:00000000000031c8 .LASF215
     /tmp/ccBYUnRY.s:22756  .debug_str:0000000000000f47 .LASF216
     /tmp/ccBYUnRY.s:23442  .debug_str:0000000000003041 .LASF217
     /tmp/ccBYUnRY.s:22804  .debug_str:0000000000001139 .LASF218
     /tmp/ccBYUnRY.s:23128  .debug_str:00000000000020b5 .LASF219
     /tmp/ccBYUnRY.s:23288  .debug_str:0000000000002835 .LASF220
     /tmp/ccBYUnRY.s:23110  .debug_str:0000000000001ff5 .LASF221
     /tmp/ccBYUnRY.s:23028  .debug_str:0000000000001bca .LASF222
     /tmp/ccBYUnRY.s:22546  .debug_str:00000000000004aa .LASF223
     /tmp/ccBYUnRY.s:23326  .debug_str:0000000000002ac2 .LASF224
     /tmp/ccBYUnRY.s:23476  .debug_str:0000000000003245 .LASF225
     /tmp/ccBYUnRY.s:23254  .debug_str:00000000000026be .LASF226
     /tmp/ccBYUnRY.s:23364  .debug_str:0000000000002cd4 .LASF227
     /tmp/ccBYUnRY.s:23228  .debug_str:0000000000002581 .LASF228
     /tmp/ccBYUnRY.s:23060  .debug_str:0000000000001d6e .LASF249
     /tmp/ccBYUnRY.s:23398  .debug_str:0000000000002e56 .LASF229
     /tmp/ccBYUnRY.s:23086  .debug_str:0000000000001ea7 .LASF231
     /tmp/ccBYUnRY.s:23400  .debug_str:0000000000002e60 .LASF230
     /tmp/ccBYUnRY.s:23384  .debug_str:0000000000002dc2 .LASF232
     /tmp/ccBYUnRY.s:22796  .debug_str:000000000000110c .LASF233
     /tmp/ccBYUnRY.s:23208  .debug_str:00000000000024af .LASF234
     /tmp/ccBYUnRY.s:23404  .debug_str:0000000000002e7d .LASF235
     /tmp/ccBYUnRY.s:23280  .debug_str:00000000000027eb .LASF236
     /tmp/ccBYUnRY.s:23156  .debug_str:00000000000021db .LASF237
     /tmp/ccBYUnRY.s:23304  .debug_str:00000000000028fd .LASF238
     /tmp/ccBYUnRY.s:22610  .debug_str:0000000000000774 .LASF239
     /tmp/ccBYUnRY.s:23188  .debug_str:00000000000023bc .LASF240
     /tmp/ccBYUnRY.s:22608  .debug_str:0000000000000768 .LASF241
     /tmp/ccBYUnRY.s:22590  .debug_str:000000000000068a .LASF242
     /tmp/ccBYUnRY.s:22606  .debug_str:000000000000075c .LASF243
     /tmp/ccBYUnRY.s:23040  .debug_str:0000000000001c4b .LASF244
     /tmp/ccBYUnRY.s:22604  .debug_str:0000000000000750 .LASF245
     /tmp/ccBYUnRY.s:23478  .debug_str:0000000000003254 .LASF246
     /tmp/ccBYUnRY.s:23226  .debug_str:0000000000002577 .LASF247
     /tmp/ccBYUnRY.s:23322  .debug_str:0000000000002a7e .LASF248
     /tmp/ccBYUnRY.s:22720  .debug_str:0000000000000d5a .LASF250
     /tmp/ccBYUnRY.s:22592  .debug_str:00000000000006ac .LASF251
     /tmp/ccBYUnRY.s:22664  .debug_str:0000000000000a8a .LASF252
     /tmp/ccBYUnRY.s:22562  .debug_str:0000000000000524 .LASF253
     /tmp/ccBYUnRY.s:22596  .debug_str:00000000000006f5 .LASF254
     /tmp/ccBYUnRY.s:23300  .debug_str:00000000000028b1 .LASF255
     /tmp/ccBYUnRY.s:23248  .debug_str:0000000000002636 .LASF256
     /tmp/ccBYUnRY.s:23456  .debug_str:000000000000312d .LASF257
     /tmp/ccBYUnRY.s:23186  .debug_str:0000000000002390 .LASF258
     /tmp/ccBYUnRY.s:22706  .debug_str:0000000000000c98 .LASF259
     /tmp/ccBYUnRY.s:22616  .debug_str:00000000000007c3 .LASF266
     /tmp/ccBYUnRY.s:22648  .debug_str:0000000000000985 .LASF260
     /tmp/ccBYUnRY.s:23306  .debug_str:0000000000002925 .LASF269
     /tmp/ccBYUnRY.s:23298  .debug_str:00000000000028a9 .LASF261
     /tmp/ccBYUnRY.s:22646  .debug_str:0000000000000962 .LASF262
     /tmp/ccBYUnRY.s:23144  .debug_str:000000000000215a .LASF263
     /tmp/ccBYUnRY.s:23424  .debug_str:0000000000002f6d .LASF264
     /tmp/ccBYUnRY.s:23074  .debug_str:0000000000001df8 .LASF265
     /tmp/ccBYUnRY.s:23080  .debug_str:0000000000001e41 .LASF267
     /tmp/ccBYUnRY.s:22956  .debug_str:000000000000183c .LASF268
GAS LISTING /tmp/ccBYUnRY.s 			page 223


     /tmp/ccBYUnRY.s:22624  .debug_str:0000000000000823 .LASF270
     /tmp/ccBYUnRY.s:23296  .debug_str:00000000000028a1 .LASF271
     /tmp/ccBYUnRY.s:23292  .debug_str:000000000000286b .LASF272
     /tmp/ccBYUnRY.s:22858  .debug_str:00000000000013a4 .LASF273
     /tmp/ccBYUnRY.s:22732  .debug_str:0000000000000df5 .LASF274
     /tmp/ccBYUnRY.s:23438  .debug_str:000000000000300c .LASF275
     /tmp/ccBYUnRY.s:23082  .debug_str:0000000000001e63 .LASF276
     /tmp/ccBYUnRY.s:22954  .debug_str:0000000000001833 .LASF277
     /tmp/ccBYUnRY.s:23004  .debug_str:0000000000001a5f .LASF278
     /tmp/ccBYUnRY.s:23202  .debug_str:000000000000246d .LASF279
     /tmp/ccBYUnRY.s:22946  .debug_str:00000000000017c3 .LASF280
     /tmp/ccBYUnRY.s:22622  .debug_str:00000000000007ff .LASF281
     /tmp/ccBYUnRY.s:22708  .debug_str:0000000000000cb8 .LASF282
     /tmp/ccBYUnRY.s:22752  .debug_str:0000000000000f1a .LASF283
     /tmp/ccBYUnRY.s:22938  .debug_str:000000000000177a .LASF284
     /tmp/ccBYUnRY.s:22952  .debug_str:000000000000182a .LASF285
     /tmp/ccBYUnRY.s:23346  .debug_str:0000000000002bda .LASF286
     /tmp/ccBYUnRY.s:23370  .debug_str:0000000000002d13 .LASF287
     /tmp/ccBYUnRY.s:22662  .debug_str:0000000000000a5e .LASF288
     /tmp/ccBYUnRY.s:22674  .debug_str:0000000000000adb .LASF289
     /tmp/ccBYUnRY.s:23330  .debug_str:0000000000002ae9 .LASF290
     /tmp/ccBYUnRY.s:23000  .debug_str:0000000000001a4c .LASF291
     /tmp/ccBYUnRY.s:22572  .debug_str:0000000000000580 .LASF292
     /tmp/ccBYUnRY.s:23482  .debug_str:00000000000032b1 .LASF293
     /tmp/ccBYUnRY.s:23178  .debug_str:0000000000002339 .LASF294
     /tmp/ccBYUnRY.s:22560  .debug_str:0000000000000501 .LASF509
     /tmp/ccBYUnRY.s:22520  .debug_str:0000000000000372 .LASF378
     /tmp/ccBYUnRY.s:22988  .debug_str:00000000000019d3 .LASF295
     /tmp/ccBYUnRY.s:23324  .debug_str:0000000000002a9c .LASF296
     /tmp/ccBYUnRY.s:23046  .debug_str:0000000000001c97 .LASF398
     /tmp/ccBYUnRY.s:22458  .debug_str:0000000000000042 .LASF297
     /tmp/ccBYUnRY.s:22506  .debug_str:00000000000002a8 .LASF298
     /tmp/ccBYUnRY.s:22972  .debug_str:00000000000018f9 .LASF299
     /tmp/ccBYUnRY.s:22962  .debug_str:0000000000001869 .LASF300
     /tmp/ccBYUnRY.s:22636  .debug_str:00000000000008c0 .LASF301
     /tmp/ccBYUnRY.s:22702  .debug_str:0000000000000c64 .LASF303
     /tmp/ccBYUnRY.s:22798  .debug_str:0000000000001116 .LASF304
     /tmp/ccBYUnRY.s:22976  .debug_str:0000000000001923 .LASF305
     /tmp/ccBYUnRY.s:23122  .debug_str:0000000000002080 .LASF306
     /tmp/ccBYUnRY.s:22918  .debug_str:0000000000001677 .LASF307
     /tmp/ccBYUnRY.s:22716  .debug_str:0000000000000d49 .LASF308
     /tmp/ccBYUnRY.s:22984  .debug_str:00000000000019a0 .LASF309
     /tmp/ccBYUnRY.s:22630  .debug_str:0000000000000892 .LASF310
     /tmp/ccBYUnRY.s:23204  .debug_str:0000000000002475 .LASF311
     /tmp/ccBYUnRY.s:23342  .debug_str:0000000000002b9a .LASF334
     /tmp/ccBYUnRY.s:23190  .debug_str:00000000000023de .LASF347
     /tmp/ccBYUnRY.s:23382  .debug_str:0000000000002daa .LASF312
     /tmp/ccBYUnRY.s:22594  .debug_str:00000000000006cb .LASF313
     /tmp/ccBYUnRY.s:23240  .debug_str:00000000000025d3 .LASF314
     /tmp/ccBYUnRY.s:23140  .debug_str:0000000000002139 .LASF315
     /tmp/ccBYUnRY.s:22964  .debug_str:0000000000001874 .LASF316
     /tmp/ccBYUnRY.s:23006  .debug_str:0000000000001a7f .LASF317
     /tmp/ccBYUnRY.s:23052  .debug_str:0000000000001cff .LASF318
     /tmp/ccBYUnRY.s:23172  .debug_str:00000000000022b4 .LASF319
     /tmp/ccBYUnRY.s:22760  .debug_str:0000000000000f63 .LASF320
     /tmp/ccBYUnRY.s:22870  .debug_str:0000000000001427 .LASF321
     /tmp/ccBYUnRY.s:23066  .debug_str:0000000000001da7 .LASF322
GAS LISTING /tmp/ccBYUnRY.s 			page 224


     /tmp/ccBYUnRY.s:23430  .debug_str:0000000000002fc2 .LASF323
     /tmp/ccBYUnRY.s:22712  .debug_str:0000000000000d07 .LASF324
     /tmp/ccBYUnRY.s:23350  .debug_str:0000000000002c1a .LASF325
     /tmp/ccBYUnRY.s:22982  .debug_str:000000000000196e .LASF326
     /tmp/ccBYUnRY.s:22740  .debug_str:0000000000000e62 .LASF327
     /tmp/ccBYUnRY.s:23092  .debug_str:0000000000001eee .LASF328
     /tmp/ccBYUnRY.s:23126  .debug_str:00000000000020ab .LASF329
     /tmp/ccBYUnRY.s:22498  .debug_str:000000000000025a .LASF330
     /tmp/ccBYUnRY.s:22862  .debug_str:00000000000013d4 .LASF331
     /tmp/ccBYUnRY.s:22768  .debug_str:0000000000000fc1 .LASF332
     /tmp/ccBYUnRY.s:23378  .debug_str:0000000000002d6c .LASF333
     /tmp/ccBYUnRY.s:23022  .debug_str:0000000000001b5d .LASF335
     /tmp/ccBYUnRY.s:23252  .debug_str:000000000000267a .LASF336
     /tmp/ccBYUnRY.s:22902  .debug_str:00000000000015a7 .LASF337
     /tmp/ccBYUnRY.s:22772  .debug_str:0000000000001010 .LASF338
     /tmp/ccBYUnRY.s:23340  .debug_str:0000000000002b67 .LASF339
     /tmp/ccBYUnRY.s:23466  .debug_str:00000000000031a4 .LASF340
     /tmp/ccBYUnRY.s:23302  .debug_str:00000000000028b9 .LASF341
     /tmp/ccBYUnRY.s:22930  .debug_str:000000000000172b .LASF342
     /tmp/ccBYUnRY.s:23112  .debug_str:0000000000001ffe .LASF343
     /tmp/ccBYUnRY.s:23054  .debug_str:0000000000001d31 .LASF344
     /tmp/ccBYUnRY.s:23336  .debug_str:0000000000002b28 .LASF345
     /tmp/ccBYUnRY.s:23386  .debug_str:0000000000002ddf .LASF346
     /tmp/ccBYUnRY.s:23030  .debug_str:0000000000001bd1 .LASF348
     /tmp/ccBYUnRY.s:23264  .debug_str:0000000000002748 .LASF349
     /tmp/ccBYUnRY.s:22628  .debug_str:0000000000000867 .LASF350
     /tmp/ccBYUnRY.s:22748  .debug_str:0000000000000ee1 .LASF351
     /tmp/ccBYUnRY.s:23444  .debug_str:0000000000003058 .LASF352
     /tmp/ccBYUnRY.s:23344  .debug_str:0000000000002bab .LASF353
     /tmp/ccBYUnRY.s:23446  .debug_str:0000000000003086 .LASF354
     /tmp/ccBYUnRY.s:23050  .debug_str:0000000000001cd2 .LASF355
     /tmp/ccBYUnRY.s:22582  .debug_str:000000000000061a .LASF356
     /tmp/ccBYUnRY.s:23120  .debug_str:0000000000002052 .LASF357
     /tmp/ccBYUnRY.s:23470  .debug_str:00000000000031de .LASF358
     /tmp/ccBYUnRY.s:22512  .debug_str:00000000000002e7 .LASF359
     /tmp/ccBYUnRY.s:23354  .debug_str:0000000000002c5b .LASF360
     /tmp/ccBYUnRY.s:22522  .debug_str:0000000000000395 .LASF361
     /tmp/ccBYUnRY.s:23130  .debug_str:00000000000020cc .LASF362
     /tmp/ccBYUnRY.s:22996  .debug_str:00000000000019f0 .LASF363
     /tmp/ccBYUnRY.s:23100  .debug_str:0000000000001f55 .LASF364
     /tmp/ccBYUnRY.s:22876  .debug_str:000000000000143f .LASF365
     /tmp/ccBYUnRY.s:22848  .debug_str:0000000000001303 .LASF366
     /tmp/ccBYUnRY.s:23428  .debug_str:0000000000002fb0 .LASF367
     /tmp/ccBYUnRY.s:22784  .debug_str:0000000000001083 .LASF368
     /tmp/ccBYUnRY.s:23312  .debug_str:0000000000002a17 .LASF369
     /tmp/ccBYUnRY.s:22898  .debug_str:0000000000001556 .LASF370
     /tmp/ccBYUnRY.s:23406  .debug_str:0000000000002e87 .LASF371
     /tmp/ccBYUnRY.s:23220  .debug_str:0000000000002521 .LASF372
     /tmp/ccBYUnRY.s:23474  .debug_str:000000000000321f .LASF373
     /tmp/ccBYUnRY.s:23434  .debug_str:0000000000002fd1 .LASF374
     /tmp/ccBYUnRY.s:23436  .debug_str:0000000000002fe1 .LASF375
     /tmp/ccBYUnRY.s:23084  .debug_str:0000000000001e85 .LASF376
     /tmp/ccBYUnRY.s:23020  .debug_str:0000000000001b3a .LASF377
     /tmp/ccBYUnRY.s:22678  .debug_str:0000000000000b2f .LASF379
     /tmp/ccBYUnRY.s:22688  .debug_str:0000000000000bb2 .LASF380
     /tmp/ccBYUnRY.s:22528  .debug_str:00000000000003f4 .LASF385
     /tmp/ccBYUnRY.s:23258  .debug_str:00000000000026d1 .LASF386
GAS LISTING /tmp/ccBYUnRY.s 			page 225


     /tmp/ccBYUnRY.s:22518  .debug_str:0000000000000353 .LASF388
     /tmp/ccBYUnRY.s:22682  .debug_str:0000000000000b64 .LASF381
     /tmp/ccBYUnRY.s:22710  .debug_str:0000000000000ce4 .LASF382
     /tmp/ccBYUnRY.s:22780  .debug_str:000000000000105a .LASF383
     /tmp/ccBYUnRY.s:23250  .debug_str:0000000000002659 .LASF384
     /tmp/ccBYUnRY.s:23104  .debug_str:0000000000001f92 .LASF387
     /tmp/ccBYUnRY.s:22880  .debug_str:00000000000014a7 .LASF389
     /tmp/ccBYUnRY.s:23328  .debug_str:0000000000002ac7 .LASF390
     /tmp/ccBYUnRY.s:23452  .debug_str:0000000000003102 .LASF391
     /tmp/ccBYUnRY.s:22634  .debug_str:00000000000008a1 .LASF392
     /tmp/ccBYUnRY.s:22660  .debug_str:0000000000000a3d .LASF393
     /tmp/ccBYUnRY.s:22644  .debug_str:0000000000000931 .LASF394
     /tmp/ccBYUnRY.s:22480  .debug_str:0000000000000153 .LASF395
     /tmp/ccBYUnRY.s:22792  .debug_str:00000000000010df .LASF396
     /tmp/ccBYUnRY.s:23166  .debug_str:000000000000224b .LASF397
     /tmp/ccBYUnRY.s:23360  .debug_str:0000000000002cb7 .LASF399
     /tmp/ccBYUnRY.s:22542  .debug_str:0000000000000483 .LASF400
     /tmp/ccBYUnRY.s:23242  .debug_str:00000000000025fb .LASF510
     /tmp/ccBYUnRY.s:22856  .debug_str:000000000000137a .LASF511
     /tmp/ccBYUnRY.s:23366  .debug_str:0000000000002cde .LASF401
     /tmp/ccBYUnRY.s:23334  .debug_str:0000000000002b16 .LASF402
     /tmp/ccBYUnRY.s:22550  .debug_str:00000000000004bc .LASF403
     /tmp/ccBYUnRY.s:23194  .debug_str:000000000000241d .LASF404
     /tmp/ccBYUnRY.s:23224  .debug_str:0000000000002571 .LASF405
     /tmp/ccBYUnRY.s:22736  .debug_str:0000000000000e36 .LASF406
     /tmp/ccBYUnRY.s:23408  .debug_str:0000000000002e9b .LASF407
     /tmp/ccBYUnRY.s:22668  .debug_str:0000000000000aaf .LASF408
     /tmp/ccBYUnRY.s:23102  .debug_str:0000000000001f8d .LASF409
     /tmp/ccBYUnRY.s:22960  .debug_str:000000000000185f .LASF410
     /tmp/ccBYUnRY.s:22744  .debug_str:0000000000000ea9 .LASF411
     /tmp/ccBYUnRY.s:348    .text._ZN14ThreadsTestCPP7WorkerAD0Ev:0000000000000000 .LFB186
     /tmp/ccBYUnRY.s:388    .text._ZN14ThreadsTestCPP7WorkerAD0Ev:000000000000004c .LFE186
     /tmp/ccBYUnRY.s:19342  .debug_loc:0000000000000000 .LLST9
     /tmp/ccBYUnRY.s:364    .text._ZN14ThreadsTestCPP7WorkerAD0Ev:0000000000000018 .LBB135
     /tmp/ccBYUnRY.s:372    .text._ZN14ThreadsTestCPP7WorkerAD0Ev:000000000000002c .LBE135
     /tmp/ccBYUnRY.s:19360  .debug_loc:000000000000004c .LLST10
     /tmp/ccBYUnRY.s:370    .text._ZN14ThreadsTestCPP7WorkerAD0Ev:000000000000002c .LVL36
     /tmp/ccBYUnRY.s:375    .text._ZN14ThreadsTestCPP7WorkerAD0Ev:0000000000000038 .LVL37
     /tmp/ccBYUnRY.s:22534  .debug_str:0000000000000427 .LASF412
     /tmp/ccBYUnRY.s:310    .text._ZN14ThreadsTestCPP7WorkerAD2Ev:0000000000000000 .LFB184
     /tmp/ccBYUnRY.s:339    .text._ZN14ThreadsTestCPP7WorkerAD2Ev:0000000000000034 .LFE184
     /tmp/ccBYUnRY.s:19371  .debug_loc:0000000000000082 .LLST8
     /tmp/ccBYUnRY.s:328    .text._ZN14ThreadsTestCPP7WorkerAD2Ev:0000000000000024 .LVL33
     /tmp/ccBYUnRY.s:23450  .debug_str:00000000000030e2 .LASF413
     /tmp/ccBYUnRY.s:432    .text._ZN14ThreadsTestCPP7WorkerBD0Ev:0000000000000000 .LFB182
     /tmp/ccBYUnRY.s:472    .text._ZN14ThreadsTestCPP7WorkerBD0Ev:000000000000004c .LFE182
     /tmp/ccBYUnRY.s:19385  .debug_loc:00000000000000bb .LLST12
     /tmp/ccBYUnRY.s:448    .text._ZN14ThreadsTestCPP7WorkerBD0Ev:0000000000000018 .LBB138
     /tmp/ccBYUnRY.s:456    .text._ZN14ThreadsTestCPP7WorkerBD0Ev:000000000000002c .LBE138
     /tmp/ccBYUnRY.s:19403  .debug_loc:0000000000000107 .LLST13
     /tmp/ccBYUnRY.s:454    .text._ZN14ThreadsTestCPP7WorkerBD0Ev:000000000000002c .LVL43
     /tmp/ccBYUnRY.s:459    .text._ZN14ThreadsTestCPP7WorkerBD0Ev:0000000000000038 .LVL44
     /tmp/ccBYUnRY.s:22684  .debug_str:0000000000000b86 .LASF414
     /tmp/ccBYUnRY.s:395    .text._ZN14ThreadsTestCPP7WorkerBD2Ev:0000000000000000 .LFB180
     /tmp/ccBYUnRY.s:423    .text._ZN14ThreadsTestCPP7WorkerBD2Ev:0000000000000034 .LFE180
     /tmp/ccBYUnRY.s:19414  .debug_loc:000000000000013d .LLST11
     /tmp/ccBYUnRY.s:412    .text._ZN14ThreadsTestCPP7WorkerBD2Ev:0000000000000024 .LVL40
GAS LISTING /tmp/ccBYUnRY.s 			page 226


     /tmp/ccBYUnRY.s:23064  .debug_str:0000000000001d87 .LASF415
     /tmp/ccBYUnRY.s:516    .text._ZN14ThreadsTestCPP7WorkerCD0Ev:0000000000000000 .LFB178
     /tmp/ccBYUnRY.s:556    .text._ZN14ThreadsTestCPP7WorkerCD0Ev:000000000000004c .LFE178
     /tmp/ccBYUnRY.s:19428  .debug_loc:0000000000000176 .LLST15
     /tmp/ccBYUnRY.s:532    .text._ZN14ThreadsTestCPP7WorkerCD0Ev:0000000000000018 .LBB141
     /tmp/ccBYUnRY.s:540    .text._ZN14ThreadsTestCPP7WorkerCD0Ev:000000000000002c .LBE141
     /tmp/ccBYUnRY.s:19446  .debug_loc:00000000000001c2 .LLST16
     /tmp/ccBYUnRY.s:538    .text._ZN14ThreadsTestCPP7WorkerCD0Ev:000000000000002c .LVL50
     /tmp/ccBYUnRY.s:543    .text._ZN14ThreadsTestCPP7WorkerCD0Ev:0000000000000038 .LVL51
     /tmp/ccBYUnRY.s:22842  .debug_str:00000000000012c7 .LASF416
     /tmp/ccBYUnRY.s:479    .text._ZN14ThreadsTestCPP7WorkerCD2Ev:0000000000000000 .LFB176
     /tmp/ccBYUnRY.s:507    .text._ZN14ThreadsTestCPP7WorkerCD2Ev:0000000000000034 .LFE176
     /tmp/ccBYUnRY.s:19457  .debug_loc:00000000000001f8 .LLST14
     /tmp/ccBYUnRY.s:496    .text._ZN14ThreadsTestCPP7WorkerCD2Ev:0000000000000024 .LVL47
     /tmp/ccBYUnRY.s:22696  .debug_str:0000000000000beb .LASF417
     /tmp/ccBYUnRY.s:600    .text._ZN14ThreadsTestCPP7WorkerDD0Ev:0000000000000000 .LFB174
     /tmp/ccBYUnRY.s:640    .text._ZN14ThreadsTestCPP7WorkerDD0Ev:000000000000004c .LFE174
     /tmp/ccBYUnRY.s:19471  .debug_loc:0000000000000231 .LLST18
     /tmp/ccBYUnRY.s:616    .text._ZN14ThreadsTestCPP7WorkerDD0Ev:0000000000000018 .LBB144
     /tmp/ccBYUnRY.s:624    .text._ZN14ThreadsTestCPP7WorkerDD0Ev:000000000000002c .LBE144
     /tmp/ccBYUnRY.s:19489  .debug_loc:000000000000027d .LLST19
     /tmp/ccBYUnRY.s:622    .text._ZN14ThreadsTestCPP7WorkerDD0Ev:000000000000002c .LVL57
     /tmp/ccBYUnRY.s:627    .text._ZN14ThreadsTestCPP7WorkerDD0Ev:0000000000000038 .LVL58
     /tmp/ccBYUnRY.s:22482  .debug_str:0000000000000172 .LASF418
     /tmp/ccBYUnRY.s:563    .text._ZN14ThreadsTestCPP7WorkerDD2Ev:0000000000000000 .LFB172
     /tmp/ccBYUnRY.s:591    .text._ZN14ThreadsTestCPP7WorkerDD2Ev:0000000000000034 .LFE172
     /tmp/ccBYUnRY.s:19500  .debug_loc:00000000000002b3 .LLST17
     /tmp/ccBYUnRY.s:580    .text._ZN14ThreadsTestCPP7WorkerDD2Ev:0000000000000024 .LVL54
     /tmp/ccBYUnRY.s:22466  .debug_str:00000000000000a2 .LASF419
     /tmp/ccBYUnRY.s:853    .text._ZN23ConsumerProducerSyncCPP16ProducerKeyboardD0Ev:0000000000000000 .LFB170
     /tmp/ccBYUnRY.s:893    .text._ZN23ConsumerProducerSyncCPP16ProducerKeyboardD0Ev:000000000000004c .LFE170
     /tmp/ccBYUnRY.s:19514  .debug_loc:00000000000002ec .LLST27
     /tmp/ccBYUnRY.s:869    .text._ZN23ConsumerProducerSyncCPP16ProducerKeyboardD0Ev:0000000000000018 .LBB153
     /tmp/ccBYUnRY.s:877    .text._ZN23ConsumerProducerSyncCPP16ProducerKeyboardD0Ev:000000000000002c .LBE153
     /tmp/ccBYUnRY.s:19532  .debug_loc:0000000000000338 .LLST28
     /tmp/ccBYUnRY.s:875    .text._ZN23ConsumerProducerSyncCPP16ProducerKeyboardD0Ev:000000000000002c .LVL78
     /tmp/ccBYUnRY.s:880    .text._ZN23ConsumerProducerSyncCPP16ProducerKeyboardD0Ev:0000000000000038 .LVL79
     /tmp/ccBYUnRY.s:22576  .debug_str:00000000000005b1 .LASF420
     /tmp/ccBYUnRY.s:816    .text._ZN23ConsumerProducerSyncCPP16ProducerKeyboardD2Ev:0000000000000000 .LFB168
     /tmp/ccBYUnRY.s:844    .text._ZN23ConsumerProducerSyncCPP16ProducerKeyboardD2Ev:0000000000000034 .LFE168
     /tmp/ccBYUnRY.s:19543  .debug_loc:000000000000036e .LLST26
     /tmp/ccBYUnRY.s:833    .text._ZN23ConsumerProducerSyncCPP16ProducerKeyboardD2Ev:0000000000000024 .LVL75
     /tmp/ccBYUnRY.s:22922  .debug_str:00000000000016e0 .LASF421
     /tmp/ccBYUnRY.s:769    .text._ZN23ConsumerProducerSyncCPP8ProducerD0Ev:0000000000000000 .LFB166
     /tmp/ccBYUnRY.s:809    .text._ZN23ConsumerProducerSyncCPP8ProducerD0Ev:000000000000004c .LFE166
     /tmp/ccBYUnRY.s:19557  .debug_loc:00000000000003a7 .LLST24
     /tmp/ccBYUnRY.s:785    .text._ZN23ConsumerProducerSyncCPP8ProducerD0Ev:0000000000000018 .LBB150
     /tmp/ccBYUnRY.s:793    .text._ZN23ConsumerProducerSyncCPP8ProducerD0Ev:000000000000002c .LBE150
     /tmp/ccBYUnRY.s:19575  .debug_loc:00000000000003f3 .LLST25
     /tmp/ccBYUnRY.s:791    .text._ZN23ConsumerProducerSyncCPP8ProducerD0Ev:000000000000002c .LVL71
     /tmp/ccBYUnRY.s:796    .text._ZN23ConsumerProducerSyncCPP8ProducerD0Ev:0000000000000038 .LVL72
     /tmp/ccBYUnRY.s:22526  .debug_str:00000000000003ca .LASF422
     /tmp/ccBYUnRY.s:732    .text._ZN23ConsumerProducerSyncCPP8ProducerD2Ev:0000000000000000 .LFB164
     /tmp/ccBYUnRY.s:760    .text._ZN23ConsumerProducerSyncCPP8ProducerD2Ev:0000000000000034 .LFE164
     /tmp/ccBYUnRY.s:19586  .debug_loc:0000000000000429 .LLST23
     /tmp/ccBYUnRY.s:749    .text._ZN23ConsumerProducerSyncCPP8ProducerD2Ev:0000000000000024 .LVL68
     /tmp/ccBYUnRY.s:22454  .debug_str:0000000000000000 .LASF423
GAS LISTING /tmp/ccBYUnRY.s 			page 227


     /tmp/ccBYUnRY.s:685    .text._ZN23ConsumerProducerSyncCPP8ConsumerD0Ev:0000000000000000 .LFB162
     /tmp/ccBYUnRY.s:725    .text._ZN23ConsumerProducerSyncCPP8ConsumerD0Ev:000000000000004c .LFE162
     /tmp/ccBYUnRY.s:19600  .debug_loc:0000000000000462 .LLST21
     /tmp/ccBYUnRY.s:701    .text._ZN23ConsumerProducerSyncCPP8ConsumerD0Ev:0000000000000018 .LBB147
     /tmp/ccBYUnRY.s:709    .text._ZN23ConsumerProducerSyncCPP8ConsumerD0Ev:000000000000002c .LBE147
     /tmp/ccBYUnRY.s:19618  .debug_loc:00000000000004ae .LLST22
     /tmp/ccBYUnRY.s:707    .text._ZN23ConsumerProducerSyncCPP8ConsumerD0Ev:000000000000002c .LVL64
     /tmp/ccBYUnRY.s:712    .text._ZN23ConsumerProducerSyncCPP8ConsumerD0Ev:0000000000000038 .LVL65
     /tmp/ccBYUnRY.s:23274  .debug_str:00000000000027a2 .LASF424
     /tmp/ccBYUnRY.s:647    .text._ZN23ConsumerProducerSyncCPP8ConsumerD2Ev:0000000000000000 .LFB160
     /tmp/ccBYUnRY.s:676    .text._ZN23ConsumerProducerSyncCPP8ConsumerD2Ev:0000000000000034 .LFE160
     /tmp/ccBYUnRY.s:19629  .debug_loc:00000000000004e4 .LLST20
     /tmp/ccBYUnRY.s:665    .text._ZN23ConsumerProducerSyncCPP8ConsumerD2Ev:0000000000000024 .LVL61
     /tmp/ccBYUnRY.s:22676  .debug_str:0000000000000afb .LASF425
     /tmp/ccBYUnRY.s:1022   .text._ZN24ConsumerProducerAsyncCPP16ProducerKeyboradD0Ev:0000000000000000 .LFB158
     /tmp/ccBYUnRY.s:1062   .text._ZN24ConsumerProducerAsyncCPP16ProducerKeyboradD0Ev:000000000000004c .LFE158
     /tmp/ccBYUnRY.s:19643  .debug_loc:000000000000051d .LLST33
     /tmp/ccBYUnRY.s:1038   .text._ZN24ConsumerProducerAsyncCPP16ProducerKeyboradD0Ev:0000000000000018 .LBB159
     /tmp/ccBYUnRY.s:1046   .text._ZN24ConsumerProducerAsyncCPP16ProducerKeyboradD0Ev:000000000000002c .LBE159
     /tmp/ccBYUnRY.s:19661  .debug_loc:0000000000000569 .LLST34
     /tmp/ccBYUnRY.s:1044   .text._ZN24ConsumerProducerAsyncCPP16ProducerKeyboradD0Ev:000000000000002c .LVL92
     /tmp/ccBYUnRY.s:1049   .text._ZN24ConsumerProducerAsyncCPP16ProducerKeyboradD0Ev:0000000000000038 .LVL93
     /tmp/ccBYUnRY.s:23176  .debug_str:0000000000002305 .LASF426
     /tmp/ccBYUnRY.s:985    .text._ZN24ConsumerProducerAsyncCPP16ProducerKeyboradD2Ev:0000000000000000 .LFB156
     /tmp/ccBYUnRY.s:1013   .text._ZN24ConsumerProducerAsyncCPP16ProducerKeyboradD2Ev:0000000000000034 .LFE156
     /tmp/ccBYUnRY.s:19672  .debug_loc:000000000000059f .LLST32
     /tmp/ccBYUnRY.s:1002   .text._ZN24ConsumerProducerAsyncCPP16ProducerKeyboradD2Ev:0000000000000024 .LVL89
     /tmp/ccBYUnRY.s:22950  .debug_str:00000000000017ff .LASF427
     /tmp/ccBYUnRY.s:1106   .text._ZN24ConsumerProducerAsyncCPP8ProducerD0Ev:0000000000000000 .LFB154
     /tmp/ccBYUnRY.s:1146   .text._ZN24ConsumerProducerAsyncCPP8ProducerD0Ev:000000000000004c .LFE154
     /tmp/ccBYUnRY.s:19686  .debug_loc:00000000000005d8 .LLST36
     /tmp/ccBYUnRY.s:1122   .text._ZN24ConsumerProducerAsyncCPP8ProducerD0Ev:0000000000000018 .LBB162
     /tmp/ccBYUnRY.s:1130   .text._ZN24ConsumerProducerAsyncCPP8ProducerD0Ev:000000000000002c .LBE162
     /tmp/ccBYUnRY.s:19704  .debug_loc:0000000000000624 .LLST37
     /tmp/ccBYUnRY.s:1128   .text._ZN24ConsumerProducerAsyncCPP8ProducerD0Ev:000000000000002c .LVL99
     /tmp/ccBYUnRY.s:1133   .text._ZN24ConsumerProducerAsyncCPP8ProducerD0Ev:0000000000000038 .LVL100
     /tmp/ccBYUnRY.s:22654  .debug_str:00000000000009bb .LASF428
     /tmp/ccBYUnRY.s:1069   .text._ZN24ConsumerProducerAsyncCPP8ProducerD2Ev:0000000000000000 .LFB152
     /tmp/ccBYUnRY.s:1097   .text._ZN24ConsumerProducerAsyncCPP8ProducerD2Ev:0000000000000034 .LFE152
     /tmp/ccBYUnRY.s:19715  .debug_loc:000000000000065a .LLST35
     /tmp/ccBYUnRY.s:1086   .text._ZN24ConsumerProducerAsyncCPP8ProducerD2Ev:0000000000000024 .LVL96
     /tmp/ccBYUnRY.s:23420  .debug_str:0000000000002f1f .LASF429
     /tmp/ccBYUnRY.s:938    .text._ZN24ConsumerProducerAsyncCPP8ConsumerD0Ev:0000000000000000 .LFB150
     /tmp/ccBYUnRY.s:978    .text._ZN24ConsumerProducerAsyncCPP8ConsumerD0Ev:000000000000004c .LFE150
     /tmp/ccBYUnRY.s:19729  .debug_loc:0000000000000693 .LLST30
     /tmp/ccBYUnRY.s:954    .text._ZN24ConsumerProducerAsyncCPP8ConsumerD0Ev:0000000000000018 .LBB156
     /tmp/ccBYUnRY.s:962    .text._ZN24ConsumerProducerAsyncCPP8ConsumerD0Ev:000000000000002c .LBE156
     /tmp/ccBYUnRY.s:19747  .debug_loc:00000000000006df .LLST31
     /tmp/ccBYUnRY.s:960    .text._ZN24ConsumerProducerAsyncCPP8ConsumerD0Ev:000000000000002c .LVL85
     /tmp/ccBYUnRY.s:965    .text._ZN24ConsumerProducerAsyncCPP8ConsumerD0Ev:0000000000000038 .LVL86
     /tmp/ccBYUnRY.s:23010  .debug_str:0000000000001abe .LASF430
     /tmp/ccBYUnRY.s:900    .text._ZN24ConsumerProducerAsyncCPP8ConsumerD2Ev:0000000000000000 .LFB148
     /tmp/ccBYUnRY.s:929    .text._ZN24ConsumerProducerAsyncCPP8ConsumerD2Ev:0000000000000034 .LFE148
     /tmp/ccBYUnRY.s:19758  .debug_loc:0000000000000715 .LLST29
     /tmp/ccBYUnRY.s:918    .text._ZN24ConsumerProducerAsyncCPP8ConsumerD2Ev:0000000000000024 .LVL82
     /tmp/ccBYUnRY.s:23290  .debug_str:000000000000284c .LASF431
     /tmp/ccBYUnRY.s:1197   .text._ZN19PeriodicThreadsTest1AD0Ev:0000000000000000 .LFB146
GAS LISTING /tmp/ccBYUnRY.s 			page 228


     /tmp/ccBYUnRY.s:1241   .text._ZN19PeriodicThreadsTest1AD0Ev:0000000000000050 .LFE146
     /tmp/ccBYUnRY.s:19772  .debug_loc:000000000000074e .LLST40
     /tmp/ccBYUnRY.s:1213   .text._ZN19PeriodicThreadsTest1AD0Ev:0000000000000018 .LBB166
     /tmp/ccBYUnRY.s:1224   .text._ZN19PeriodicThreadsTest1AD0Ev:0000000000000030 .LBE166
     /tmp/ccBYUnRY.s:19790  .debug_loc:000000000000079a .LLST41
     /tmp/ccBYUnRY.s:1214   .text._ZN19PeriodicThreadsTest1AD0Ev:0000000000000018 .LBB167
     /tmp/ccBYUnRY.s:1223   .text._ZN19PeriodicThreadsTest1AD0Ev:0000000000000030 .LBE167
     /tmp/ccBYUnRY.s:1221   .text._ZN19PeriodicThreadsTest1AD0Ev:0000000000000030 .LVL107
     /tmp/ccBYUnRY.s:1228   .text._ZN19PeriodicThreadsTest1AD0Ev:000000000000003c .LVL108
     /tmp/ccBYUnRY.s:22886  .debug_str:00000000000014df .LASF432
     /tmp/ccBYUnRY.s:1153   .text._ZN19PeriodicThreadsTest1AD2Ev:0000000000000000 .LFB144
     /tmp/ccBYUnRY.s:1188   .text._ZN19PeriodicThreadsTest1AD2Ev:0000000000000038 .LFE144
     /tmp/ccBYUnRY.s:19801  .debug_loc:00000000000007d0 .LLST38
     /tmp/ccBYUnRY.s:1167   .text._ZN19PeriodicThreadsTest1AD2Ev:0000000000000010 .LBB164
     /tmp/ccBYUnRY.s:1177   .text._ZN19PeriodicThreadsTest1AD2Ev:0000000000000028 .LBE164
     /tmp/ccBYUnRY.s:19815  .debug_loc:0000000000000809 .LLST39
     /tmp/ccBYUnRY.s:1175   .text._ZN19PeriodicThreadsTest1AD2Ev:0000000000000028 .LVL104
     /tmp/ccBYUnRY.s:23332  .debug_str:0000000000002af7 .LASF433
     /tmp/ccBYUnRY.s:1290   .text._ZN19PeriodicThreadsTest1BD0Ev:0000000000000000 .LFB142
     /tmp/ccBYUnRY.s:1334   .text._ZN19PeriodicThreadsTest1BD0Ev:0000000000000050 .LFE142
     /tmp/ccBYUnRY.s:19829  .debug_loc:0000000000000842 .LLST45
     /tmp/ccBYUnRY.s:1306   .text._ZN19PeriodicThreadsTest1BD0Ev:0000000000000018 .LBB171
     /tmp/ccBYUnRY.s:1317   .text._ZN19PeriodicThreadsTest1BD0Ev:0000000000000030 .LBE171
     /tmp/ccBYUnRY.s:19847  .debug_loc:000000000000088e .LLST46
     /tmp/ccBYUnRY.s:1307   .text._ZN19PeriodicThreadsTest1BD0Ev:0000000000000018 .LBB172
     /tmp/ccBYUnRY.s:1316   .text._ZN19PeriodicThreadsTest1BD0Ev:0000000000000030 .LBE172
     /tmp/ccBYUnRY.s:1314   .text._ZN19PeriodicThreadsTest1BD0Ev:0000000000000030 .LVL115
     /tmp/ccBYUnRY.s:1321   .text._ZN19PeriodicThreadsTest1BD0Ev:000000000000003c .LVL116
     /tmp/ccBYUnRY.s:23096  .debug_str:0000000000001f27 .LASF434
     /tmp/ccBYUnRY.s:1248   .text._ZN19PeriodicThreadsTest1BD2Ev:0000000000000000 .LFB140
     /tmp/ccBYUnRY.s:1281   .text._ZN19PeriodicThreadsTest1BD2Ev:0000000000000038 .LFE140
     /tmp/ccBYUnRY.s:19858  .debug_loc:00000000000008c4 .LLST43
     /tmp/ccBYUnRY.s:1261   .text._ZN19PeriodicThreadsTest1BD2Ev:0000000000000010 .LBB169
     /tmp/ccBYUnRY.s:1270   .text._ZN19PeriodicThreadsTest1BD2Ev:0000000000000028 .LBE169
     /tmp/ccBYUnRY.s:19872  .debug_loc:00000000000008fd .LLST44
     /tmp/ccBYUnRY.s:1268   .text._ZN19PeriodicThreadsTest1BD2Ev:0000000000000028 .LVL112
     /tmp/ccBYUnRY.s:23376  .debug_str:0000000000002d4d .LASF435
     /tmp/ccBYUnRY.s:1383   .text._ZN19PeriodicThreadsTest1CD0Ev:0000000000000000 .LFB138
     /tmp/ccBYUnRY.s:1427   .text._ZN19PeriodicThreadsTest1CD0Ev:0000000000000050 .LFE138
     /tmp/ccBYUnRY.s:19886  .debug_loc:0000000000000936 .LLST50
     /tmp/ccBYUnRY.s:1399   .text._ZN19PeriodicThreadsTest1CD0Ev:0000000000000018 .LBB176
     /tmp/ccBYUnRY.s:1410   .text._ZN19PeriodicThreadsTest1CD0Ev:0000000000000030 .LBE176
     /tmp/ccBYUnRY.s:19904  .debug_loc:0000000000000982 .LLST51
     /tmp/ccBYUnRY.s:1400   .text._ZN19PeriodicThreadsTest1CD0Ev:0000000000000018 .LBB177
     /tmp/ccBYUnRY.s:1409   .text._ZN19PeriodicThreadsTest1CD0Ev:0000000000000030 .LBE177
     /tmp/ccBYUnRY.s:1407   .text._ZN19PeriodicThreadsTest1CD0Ev:0000000000000030 .LVL123
     /tmp/ccBYUnRY.s:1414   .text._ZN19PeriodicThreadsTest1CD0Ev:000000000000003c .LVL124
     /tmp/ccBYUnRY.s:22728  .debug_str:0000000000000dbc .LASF436
     /tmp/ccBYUnRY.s:1341   .text._ZN19PeriodicThreadsTest1CD2Ev:0000000000000000 .LFB136
     /tmp/ccBYUnRY.s:1374   .text._ZN19PeriodicThreadsTest1CD2Ev:0000000000000038 .LFE136
     /tmp/ccBYUnRY.s:19915  .debug_loc:00000000000009b8 .LLST48
     /tmp/ccBYUnRY.s:1354   .text._ZN19PeriodicThreadsTest1CD2Ev:0000000000000010 .LBB174
     /tmp/ccBYUnRY.s:1363   .text._ZN19PeriodicThreadsTest1CD2Ev:0000000000000028 .LBE174
     /tmp/ccBYUnRY.s:19929  .debug_loc:00000000000009f1 .LLST49
     /tmp/ccBYUnRY.s:1361   .text._ZN19PeriodicThreadsTest1CD2Ev:0000000000000028 .LVL120
     /tmp/ccBYUnRY.s:23256  .debug_str:00000000000026cc .LASF437
     /tmp/ccBYUnRY.s:6666   .text:0000000000002008 .LFB134
GAS LISTING /tmp/ccBYUnRY.s 			page 229


     /tmp/ccBYUnRY.s:6804   .text:0000000000002100 .LFE134
     /tmp/ccBYUnRY.s:22816  .debug_str:00000000000011b3 .LASF438
     /tmp/ccBYUnRY.s:23114  .debug_str:000000000000201d .LASF439
     /tmp/ccBYUnRY.s:22714  .debug_str:0000000000000d34 .LASF440
     /tmp/ccBYUnRY.s:23008  .debug_str:0000000000001aad .LASF441
     /tmp/ccBYUnRY.s:6683   .text:0000000000002024 .LBB253
     /tmp/ccBYUnRY.s:6695   .text:0000000000002028 .LBE253
     /tmp/ccBYUnRY.s:6734   .text:0000000000002094 .LBB255
     /tmp/ccBYUnRY.s:6749   .text:00000000000020a0 .LBE255
     /tmp/ccBYUnRY.s:19943  .debug_loc:0000000000000a2a .LLST200
     /tmp/ccBYUnRY.s:6760   .text:00000000000020ac .LBB257
     /tmp/ccBYUnRY.s:6768   .text:00000000000020b0 .LBE257
     /tmp/ccBYUnRY.s:19951  .debug_loc:0000000000000a4e .LLST201
     /tmp/ccBYUnRY.s:6703   .text:000000000000203c .LVL761
     /tmp/ccBYUnRY.s:6716   .text:0000000000002064 .LVL762
     /tmp/ccBYUnRY.s:6724   .text:000000000000207c .LVL763
     /tmp/ccBYUnRY.s:6732   .text:0000000000002094 .LVL764
     /tmp/ccBYUnRY.s:6753   .text:00000000000020a8 .LVL766
     /tmp/ccBYUnRY.s:6773   .text:00000000000020bc .LVL769
     /tmp/ccBYUnRY.s:6775   .text:00000000000020c4 .LVL770
     /tmp/ccBYUnRY.s:6781   .text:00000000000020d0 .LVL771
     /tmp/ccBYUnRY.s:6787   .text:00000000000020e0 .LVL772
     /tmp/ccBYUnRY.s:6790   .text:00000000000020ec .LVL773
     /tmp/ccBYUnRY.s:22692  .debug_str:0000000000000bdb .LASF442
     /tmp/ccBYUnRY.s:22486  .debug_str:00000000000001c6 .LASF443
     /tmp/ccBYUnRY.s:10     .text:0000000000000000 .LFB133
     /tmp/ccBYUnRY.s:29     .text:0000000000000018 .LFE133
     /tmp/ccBYUnRY.s:6589   .text:0000000000002008 .LFE132
     /tmp/ccBYUnRY.s:19958  .debug_loc:0000000000000a71 .LLST187
     /tmp/ccBYUnRY.s:19984  .debug_loc:0000000000000ae5 .LLST188
     /tmp/ccBYUnRY.s:20010  .debug_loc:0000000000000b57 .LLST189
     /tmp/ccBYUnRY.s:23272  .debug_str:000000000000279a .LASF444
     /tmp/ccBYUnRY.s:22690  .debug_str:0000000000000bd3 .LASF445
     /tmp/ccBYUnRY.s:20032  .debug_loc:0000000000000bb6 .LLST190
     /tmp/ccBYUnRY.s:20049  .debug_loc:0000000000000c01 .LLST197
     /tmp/ccBYUnRY.s:20060  .debug_loc:0000000000000c37 .LLST198
     /tmp/ccBYUnRY.s:6437   .text:0000000000001ee4 .LVL731
     /tmp/ccBYUnRY.s:6454   .text:0000000000001efc .LVL734
     /tmp/ccBYUnRY.s:6467   .text:0000000000001f0c .LBB252
     /tmp/ccBYUnRY.s:6487   .text:0000000000001f30 .LBE252
     /tmp/ccBYUnRY.s:20071  .debug_loc:0000000000000c6d .LLST199
     /tmp/ccBYUnRY.s:6479   .text:0000000000001f28 .LVL738
     /tmp/ccBYUnRY.s:6327   .text:0000000000001e24 .LBB242
     /tmp/ccBYUnRY.s:6340   .text:0000000000001e3c .LBE242
     /tmp/ccBYUnRY.s:20082  .debug_loc:0000000000000ca3 .LLST191
     /tmp/ccBYUnRY.s:20095  .debug_loc:0000000000000cdb .LLST192
     /tmp/ccBYUnRY.s:6333   .text:0000000000001e30 .LVL712
     /tmp/ccBYUnRY.s:6350   .text:0000000000001e4c .LBB244
     /tmp/ccBYUnRY.s:6362   .text:0000000000001e64 .LBE244
     /tmp/ccBYUnRY.s:20110  .debug_loc:0000000000000d24 .LLST193
     /tmp/ccBYUnRY.s:20123  .debug_loc:0000000000000d5c .LLST194
     /tmp/ccBYUnRY.s:6356   .text:0000000000001e58 .LVL716
     /tmp/ccBYUnRY.s:6372   .text:0000000000001e74 .LBB246
     /tmp/ccBYUnRY.s:6384   .text:0000000000001e8c .LBE246
     /tmp/ccBYUnRY.s:20138  .debug_loc:0000000000000da5 .LLST195
     /tmp/ccBYUnRY.s:20151  .debug_loc:0000000000000ddd .LLST196
     /tmp/ccBYUnRY.s:6378   .text:0000000000001e80 .LVL720
GAS LISTING /tmp/ccBYUnRY.s 			page 230


     /tmp/ccBYUnRY.s:6293   .text:0000000000001dd8 .LVL706
     /tmp/ccBYUnRY.s:6299   .text:0000000000001de8 .LVL707
     /tmp/ccBYUnRY.s:6308   .text:0000000000001dfc .LVL708
     /tmp/ccBYUnRY.s:6314   .text:0000000000001e0c .LVL709
     /tmp/ccBYUnRY.s:6323   .text:0000000000001e20 .LVL710
     /tmp/ccBYUnRY.s:6346   .text:0000000000001e48 .LVL714
     /tmp/ccBYUnRY.s:6368   .text:0000000000001e70 .LVL718
     /tmp/ccBYUnRY.s:6400   .text:0000000000001ea4 .LVL722
     /tmp/ccBYUnRY.s:6405   .text:0000000000001eb0 .LVL723
     /tmp/ccBYUnRY.s:6410   .text:0000000000001ebc .LVL724
     /tmp/ccBYUnRY.s:6537   .text:0000000000001f8c .LVL748
     /tmp/ccBYUnRY.s:6541   .text:0000000000001f98 .LVL749
     /tmp/ccBYUnRY.s:6548   .text:0000000000001fa8 .LVL750
     /tmp/ccBYUnRY.s:6552   .text:0000000000001fb4 .LVL751
     /tmp/ccBYUnRY.s:6559   .text:0000000000001fc4 .LVL752
     /tmp/ccBYUnRY.s:6563   .text:0000000000001fd0 .LVL753
     /tmp/ccBYUnRY.s:6570   .text:0000000000001fe0 .LVL754
     /tmp/ccBYUnRY.s:6574   .text:0000000000001fec .LVL755
     /tmp/ccBYUnRY.s:6582   .text:0000000000001ffc .LVL757
     /tmp/ccBYUnRY.s:6586   .text:0000000000002008 .LVL758
     /tmp/ccBYUnRY.s:2078   .text._ZN19PeriodicThreadsTest1C18periodicActivationEv:0000000000000000 .LFB131
     /tmp/ccBYUnRY.s:2126   .text._ZN19PeriodicThreadsTest1C18periodicActivationEv:0000000000000060 .LFE131
     /tmp/ccBYUnRY.s:20162  .debug_loc:0000000000000e13 .LLST73
     /tmp/ccBYUnRY.s:2098   .text._ZN19PeriodicThreadsTest1C18periodicActivationEv:0000000000000028 .LVL210
     /tmp/ccBYUnRY.s:2103   .text._ZN19PeriodicThreadsTest1C18periodicActivationEv:0000000000000034 .LVL211
     /tmp/ccBYUnRY.s:2108   .text._ZN19PeriodicThreadsTest1C18periodicActivationEv:0000000000000040 .LVL212
     /tmp/ccBYUnRY.s:2113   .text._ZN19PeriodicThreadsTest1C18periodicActivationEv:000000000000004c .LVL213
     /tmp/ccBYUnRY.s:2357   .text._ZN19PeriodicThreadsTest1C3runEv:0000000000000000 .LFB130
     /tmp/ccBYUnRY.s:2414   .text._ZN19PeriodicThreadsTest1C3runEv:0000000000000064 .LFE130
     /tmp/ccBYUnRY.s:20176  .debug_loc:0000000000000e4c .LLST79
     /tmp/ccBYUnRY.s:2387   .text._ZN19PeriodicThreadsTest1C3runEv:0000000000000030 .LVL237
     /tmp/ccBYUnRY.s:2392   .text._ZN19PeriodicThreadsTest1C3runEv:000000000000003c .LVL238
     /tmp/ccBYUnRY.s:2400   .text._ZN19PeriodicThreadsTest1C3runEv:0000000000000050 .LVL239
     /tmp/ccBYUnRY.s:23390  .debug_str:0000000000002df9 .LASF446
     /tmp/ccBYUnRY.s:23158  .debug_str:00000000000021ee .LASF447
     /tmp/ccBYUnRY.s:2023   .text._ZN19PeriodicThreadsTest1B18periodicActivationEv:0000000000000000 .LFB126
     /tmp/ccBYUnRY.s:2071   .text._ZN19PeriodicThreadsTest1B18periodicActivationEv:0000000000000060 .LFE126
     /tmp/ccBYUnRY.s:20194  .debug_loc:0000000000000e98 .LLST72
     /tmp/ccBYUnRY.s:2043   .text._ZN19PeriodicThreadsTest1B18periodicActivationEv:0000000000000028 .LVL204
     /tmp/ccBYUnRY.s:2048   .text._ZN19PeriodicThreadsTest1B18periodicActivationEv:0000000000000034 .LVL205
     /tmp/ccBYUnRY.s:2053   .text._ZN19PeriodicThreadsTest1B18periodicActivationEv:0000000000000040 .LVL206
     /tmp/ccBYUnRY.s:2058   .text._ZN19PeriodicThreadsTest1B18periodicActivationEv:000000000000004c .LVL207
     /tmp/ccBYUnRY.s:2293   .text._ZN19PeriodicThreadsTest1B3runEv:0000000000000000 .LFB125
     /tmp/ccBYUnRY.s:2350   .text._ZN19PeriodicThreadsTest1B3runEv:0000000000000064 .LFE125
     /tmp/ccBYUnRY.s:20208  .debug_loc:0000000000000ed1 .LLST78
     /tmp/ccBYUnRY.s:2323   .text._ZN19PeriodicThreadsTest1B3runEv:0000000000000030 .LVL231
     /tmp/ccBYUnRY.s:2328   .text._ZN19PeriodicThreadsTest1B3runEv:000000000000003c .LVL232
     /tmp/ccBYUnRY.s:2336   .text._ZN19PeriodicThreadsTest1B3runEv:0000000000000050 .LVL233
     /tmp/ccBYUnRY.s:22490  .debug_str:00000000000001eb .LASF448
     /tmp/ccBYUnRY.s:1968   .text._ZN19PeriodicThreadsTest1A18periodicActivationEv:0000000000000000 .LFB121
     /tmp/ccBYUnRY.s:2016   .text._ZN19PeriodicThreadsTest1A18periodicActivationEv:0000000000000060 .LFE121
     /tmp/ccBYUnRY.s:20226  .debug_loc:0000000000000f1d .LLST71
     /tmp/ccBYUnRY.s:1988   .text._ZN19PeriodicThreadsTest1A18periodicActivationEv:0000000000000028 .LVL198
     /tmp/ccBYUnRY.s:1993   .text._ZN19PeriodicThreadsTest1A18periodicActivationEv:0000000000000034 .LVL199
     /tmp/ccBYUnRY.s:1998   .text._ZN19PeriodicThreadsTest1A18periodicActivationEv:0000000000000040 .LVL200
     /tmp/ccBYUnRY.s:2003   .text._ZN19PeriodicThreadsTest1A18periodicActivationEv:000000000000004c .LVL201
     /tmp/ccBYUnRY.s:2229   .text._ZN19PeriodicThreadsTest1A3runEv:0000000000000000 .LFB120
GAS LISTING /tmp/ccBYUnRY.s 			page 231


     /tmp/ccBYUnRY.s:2286   .text._ZN19PeriodicThreadsTest1A3runEv:0000000000000064 .LFE120
     /tmp/ccBYUnRY.s:20240  .debug_loc:0000000000000f56 .LLST77
     /tmp/ccBYUnRY.s:2259   .text._ZN19PeriodicThreadsTest1A3runEv:0000000000000030 .LVL225
     /tmp/ccBYUnRY.s:2264   .text._ZN19PeriodicThreadsTest1A3runEv:000000000000003c .LVL226
     /tmp/ccBYUnRY.s:2272   .text._ZN19PeriodicThreadsTest1A3runEv:0000000000000050 .LVL227
     /tmp/ccBYUnRY.s:23132  .debug_str:00000000000020dd .LASF449
     /tmp/ccBYUnRY.s:22642  .debug_str:0000000000000919 .LASF450
     /tmp/ccBYUnRY.s:22914  .debug_str:0000000000001646 .LASF451
     /tmp/ccBYUnRY.s:6192   .text:0000000000001db0 .LFE112
     /tmp/ccBYUnRY.s:23284  .debug_str:000000000000280f .LASF452
     /tmp/ccBYUnRY.s:20258  .debug_loc:0000000000000fa2 .LLST172
     /tmp/ccBYUnRY.s:22830  .debug_str:000000000000124b .LASF453
     /tmp/ccBYUnRY.s:20269  .debug_loc:0000000000000fd8 .LLST173
     /tmp/ccBYUnRY.s:20280  .debug_loc:000000000000100e .LLST174
     /tmp/ccBYUnRY.s:22888  .debug_str:00000000000014fe .LASF454
     /tmp/ccBYUnRY.s:20291  .debug_loc:0000000000001044 .LLST175
     /tmp/ccBYUnRY.s:22612  .debug_str:0000000000000780 .LASF455
     /tmp/ccBYUnRY.s:20309  .debug_loc:0000000000001090 .LLST176
     /tmp/ccBYUnRY.s:20322  .debug_loc:00000000000010c8 .LLST177
     /tmp/ccBYUnRY.s:20333  .debug_loc:00000000000010fe .LLST182
     /tmp/ccBYUnRY.s:5950   .text:0000000000001bd8 .LBB234
     /tmp/ccBYUnRY.s:20344  .debug_loc:0000000000001134 .LLST183
     /tmp/ccBYUnRY.s:20375  .debug_loc:000000000000119c .LLST184
     /tmp/ccBYUnRY.s:6001   .text:0000000000001c44 .LVL675
     /tmp/ccBYUnRY.s:5967   .text:0000000000001c00 .LVL671
     /tmp/ccBYUnRY.s:5992   .text:0000000000001c38 .LVL673
     /tmp/ccBYUnRY.s:6184   .text:0000000000001da4 .LVL704
     /tmp/ccBYUnRY.s:20394  .debug_loc:00000000000011f8 .LLST185
     /tmp/ccBYUnRY.s:6025   .text:0000000000001c68 .LVL679
     /tmp/ccBYUnRY.s:6052   .text:0000000000001c90 .LBB240
     /tmp/ccBYUnRY.s:6073   .text:0000000000001cb8 .LBE240
     /tmp/ccBYUnRY.s:20405  .debug_loc:000000000000122e .LLST186
     /tmp/ccBYUnRY.s:20412  .debug_loc:0000000000001251 .LLST169
     /tmp/ccBYUnRY.s:20443  .debug_loc:000000000000129b .LLST171
     /tmp/ccBYUnRY.s:5886   .text:0000000000001b60 .LBB229
     /tmp/ccBYUnRY.s:5898   .text:0000000000001b78 .LBE229
     /tmp/ccBYUnRY.s:20474  .debug_loc:00000000000012e5 .LLST178
     /tmp/ccBYUnRY.s:20501  .debug_loc:000000000000133a .LLST179
     /tmp/ccBYUnRY.s:5890   .text:0000000000001b68 .LVL661
     /tmp/ccBYUnRY.s:5924   .text:0000000000001ba8 .LBB231
     /tmp/ccBYUnRY.s:5935   .text:0000000000001bc0 .LBE231
     /tmp/ccBYUnRY.s:20516  .debug_loc:0000000000001383 .LLST180
     /tmp/ccBYUnRY.s:20527  .debug_loc:00000000000013b9 .LLST181
     /tmp/ccBYUnRY.s:5928   .text:0000000000001bb0 .LVL666
     /tmp/ccBYUnRY.s:5723   .text:00000000000019d4 .LVL633
     /tmp/ccBYUnRY.s:5730   .text:00000000000019e8 .LVL634
     /tmp/ccBYUnRY.s:5735   .text:00000000000019f4 .LVL635
     /tmp/ccBYUnRY.s:5742   .text:0000000000001a08 .LVL637
     /tmp/ccBYUnRY.s:5748   .text:0000000000001a18 .LVL638
     /tmp/ccBYUnRY.s:5753   .text:0000000000001a24 .LVL639
     /tmp/ccBYUnRY.s:5760   .text:0000000000001a38 .LVL641
     /tmp/ccBYUnRY.s:5767   .text:0000000000001a4c .LVL642
     /tmp/ccBYUnRY.s:5772   .text:0000000000001a5c .LVL643
     /tmp/ccBYUnRY.s:5779   .text:0000000000001a70 .LVL644
     /tmp/ccBYUnRY.s:5784   .text:0000000000001a80 .LVL645
     /tmp/ccBYUnRY.s:5793   .text:0000000000001a94 .LVL646
     /tmp/ccBYUnRY.s:5799   .text:0000000000001aa4 .LVL647
GAS LISTING /tmp/ccBYUnRY.s 			page 232


     /tmp/ccBYUnRY.s:5808   .text:0000000000001ab8 .LVL648
     /tmp/ccBYUnRY.s:5816   .text:0000000000001acc .LVL649
     /tmp/ccBYUnRY.s:5827   .text:0000000000001ae0 .LVL651
     /tmp/ccBYUnRY.s:5834   .text:0000000000001af0 .LVL653
     /tmp/ccBYUnRY.s:5881   .text:0000000000001b5c .LVL659
     /tmp/ccBYUnRY.s:5904   .text:0000000000001b84 .LVL663
     /tmp/ccBYUnRY.s:5919   .text:0000000000001ba4 .LVL664
     /tmp/ccBYUnRY.s:5943   .text:0000000000001bd0 .LVL668
     /tmp/ccBYUnRY.s:6013   .text:0000000000001c50 .LVL677
     /tmp/ccBYUnRY.s:6082   .text:0000000000001ccc .LVL687
     /tmp/ccBYUnRY.s:6090   .text:0000000000001cdc .LVL688
     /tmp/ccBYUnRY.s:6093   .text:0000000000001ce8 .LVL689
     /tmp/ccBYUnRY.s:6137   .text:0000000000001d34 .LVL694
     /tmp/ccBYUnRY.s:6141   .text:0000000000001d40 .LVL695
     /tmp/ccBYUnRY.s:6148   .text:0000000000001d50 .LVL696
     /tmp/ccBYUnRY.s:6152   .text:0000000000001d5c .LVL697
     /tmp/ccBYUnRY.s:6160   .text:0000000000001d6c .LVL699
     /tmp/ccBYUnRY.s:6164   .text:0000000000001d78 .LVL700
     /tmp/ccBYUnRY.s:6171   .text:0000000000001d88 .LVL701
     /tmp/ccBYUnRY.s:6175   .text:0000000000001d94 .LVL702
     /tmp/ccBYUnRY.s:6188   .text:0000000000001db0 .LVL705
     /tmp/ccBYUnRY.s:1844   .text._ZN24ConsumerProducerAsyncCPP8Consumer3runEv:0000000000000000 .LFB111
     /tmp/ccBYUnRY.s:1961   .text._ZN24ConsumerProducerAsyncCPP8Consumer3runEv:00000000000000d0 .LFE111
     /tmp/ccBYUnRY.s:20538  .debug_loc:00000000000013ef .LLST67
     /tmp/ccBYUnRY.s:20556  .debug_loc:000000000000143b .LLST68
     /tmp/ccBYUnRY.s:20576  .debug_loc:0000000000001498 .LLST69
     /tmp/ccBYUnRY.s:1875   .text._ZN24ConsumerProducerAsyncCPP8Consumer3runEv:0000000000000034 .LVL183
     /tmp/ccBYUnRY.s:1889   .text._ZN24ConsumerProducerAsyncCPP8Consumer3runEv:0000000000000050 .LVL184
     /tmp/ccBYUnRY.s:1900   .text._ZN24ConsumerProducerAsyncCPP8Consumer3runEv:0000000000000064 .LVL187
     /tmp/ccBYUnRY.s:1911   .text._ZN24ConsumerProducerAsyncCPP8Consumer3runEv:0000000000000074 .LBB184
     /tmp/ccBYUnRY.s:1926   .text._ZN24ConsumerProducerAsyncCPP8Consumer3runEv:0000000000000090 .LBE184
     /tmp/ccBYUnRY.s:20583  .debug_loc:00000000000014bb .LLST70
     /tmp/ccBYUnRY.s:1918   .text._ZN24ConsumerProducerAsyncCPP8Consumer3runEv:0000000000000084 .LVL189
     /tmp/ccBYUnRY.s:1924   .text._ZN24ConsumerProducerAsyncCPP8Consumer3runEv:0000000000000090 .LVL191
     /tmp/ccBYUnRY.s:1934   .text._ZN24ConsumerProducerAsyncCPP8Consumer3runEv:00000000000000a0 .LVL192
     /tmp/ccBYUnRY.s:1942   .text._ZN24ConsumerProducerAsyncCPP8Consumer3runEv:00000000000000b4 .LVL193
     /tmp/ccBYUnRY.s:23260  .debug_str:0000000000002702 .LASF456
     /tmp/ccBYUnRY.s:2421   .text._ZN24ConsumerProducerAsyncCPP8Producer3runEv:0000000000000000 .LFB107
     /tmp/ccBYUnRY.s:2499   .text._ZN24ConsumerProducerAsyncCPP8Producer3runEv:0000000000000094 .LFE107
     /tmp/ccBYUnRY.s:20590  .debug_loc:00000000000014de .LLST80
     /tmp/ccBYUnRY.s:20608  .debug_loc:000000000000152a .LLST81
     /tmp/ccBYUnRY.s:2456   .text._ZN24ConsumerProducerAsyncCPP8Producer3runEv:0000000000000044 .LVL244
     /tmp/ccBYUnRY.s:2473   .text._ZN24ConsumerProducerAsyncCPP8Producer3runEv:0000000000000068 .LVL246
     /tmp/ccBYUnRY.s:2482   .text._ZN24ConsumerProducerAsyncCPP8Producer3runEv:000000000000007c .LVL247
     /tmp/ccBYUnRY.s:22818  .debug_str:00000000000011c4 .LASF457
     /tmp/ccBYUnRY.s:1764   .text._ZN24ConsumerProducerAsyncCPP16ProducerKeyborad3runEv:0000000000000000 .LFB103
     /tmp/ccBYUnRY.s:1837   .text._ZN24ConsumerProducerAsyncCPP16ProducerKeyborad3runEv:0000000000000084 .LFE103
     /tmp/ccBYUnRY.s:20628  .debug_loc:0000000000001587 .LLST65
     /tmp/ccBYUnRY.s:20646  .debug_loc:00000000000015d3 .LLST66
     /tmp/ccBYUnRY.s:1787   .text._ZN24ConsumerProducerAsyncCPP16ProducerKeyborad3runEv:0000000000000020 .LVL171
     /tmp/ccBYUnRY.s:1799   .text._ZN24ConsumerProducerAsyncCPP16ProducerKeyborad3runEv:000000000000003c .LVL173
     /tmp/ccBYUnRY.s:1817   .text._ZN24ConsumerProducerAsyncCPP16ProducerKeyborad3runEv:0000000000000060 .LVL177
     /tmp/ccBYUnRY.s:1823   .text._ZN24ConsumerProducerAsyncCPP16ProducerKeyborad3runEv:0000000000000070 .LVL178
     /tmp/ccBYUnRY.s:23222  .debug_str:000000000000252c .LASF458
     /tmp/ccBYUnRY.s:5604   .text:0000000000001904 .LFB99
     /tmp/ccBYUnRY.s:5677   .text:000000000000198c .LFE99
     /tmp/ccBYUnRY.s:23014  .debug_str:0000000000001afa .LASF459
GAS LISTING /tmp/ccBYUnRY.s 			page 233


     /tmp/ccBYUnRY.s:22742  .debug_str:0000000000000e9d .LASF460
     /tmp/ccBYUnRY.s:22724  .debug_str:0000000000000d7c .LASF461
     /tmp/ccBYUnRY.s:5628   .text:0000000000001928 .LBB228
     /tmp/ccBYUnRY.s:5653   .text:0000000000001960 .LBE228
     /tmp/ccBYUnRY.s:20661  .debug_loc:000000000000161c .LLST167
     /tmp/ccBYUnRY.s:5644   .text:0000000000001954 .LVL630
     /tmp/ccBYUnRY.s:2140   .text:00000000000003dc .LFB98
     /tmp/ccBYUnRY.s:2222   .text:0000000000000480 .LFE98
     /tmp/ccBYUnRY.s:20673  .debug_loc:0000000000001653 .LLST74
     /tmp/ccBYUnRY.s:22924  .debug_str:000000000000170a .LASF462
     /tmp/ccBYUnRY.s:20687  .debug_loc:000000000000168c .LLST75
     /tmp/ccBYUnRY.s:20694  .debug_loc:00000000000016af .LLST76
     /tmp/ccBYUnRY.s:2175   .text:0000000000000414 .LVL218
     /tmp/ccBYUnRY.s:2182   .text:0000000000000428 .LVL219
     /tmp/ccBYUnRY.s:2187   .text:0000000000000438 .LVL220
     /tmp/ccBYUnRY.s:2192   .text:0000000000000444 .LVL221
     /tmp/ccBYUnRY.s:5527   .text:0000000000001904 .LFE97
     /tmp/ccBYUnRY.s:20706  .debug_loc:00000000000016e6 .LLST152
     /tmp/ccBYUnRY.s:20717  .debug_loc:000000000000171c .LLST153
     /tmp/ccBYUnRY.s:20732  .debug_loc:0000000000001765 .LLST154
     /tmp/ccBYUnRY.s:20743  .debug_loc:000000000000179b .LLST155
     /tmp/ccBYUnRY.s:23338  .debug_str:0000000000002b58 .LASF463
     /tmp/ccBYUnRY.s:20761  .debug_loc:00000000000017e7 .LLST156
     /tmp/ccBYUnRY.s:22906  .debug_str:00000000000015fc .LASF464
     /tmp/ccBYUnRY.s:20772  .debug_loc:000000000000181d .LLST157
     /tmp/ccBYUnRY.s:20785  .debug_loc:0000000000001855 .LLST160
     /tmp/ccBYUnRY.s:5239   .text:00000000000016c8 .LBB219
     /tmp/ccBYUnRY.s:20800  .debug_loc:000000000000189e .LLST161
     /tmp/ccBYUnRY.s:20815  .debug_loc:00000000000018e7 .LLST162
     /tmp/ccBYUnRY.s:5302   .text:0000000000001750 .LVL590
     /tmp/ccBYUnRY.s:5325   .text:0000000000001774 .LBB223
     /tmp/ccBYUnRY.s:5336   .text:000000000000178c .LBE223
     /tmp/ccBYUnRY.s:20834  .debug_loc:0000000000001943 .LLST163
     /tmp/ccBYUnRY.s:20845  .debug_loc:0000000000001979 .LLST164
     /tmp/ccBYUnRY.s:5329   .text:000000000000177c .LVL594
     /tmp/ccBYUnRY.s:5260   .text:00000000000016f8 .LVL586
     /tmp/ccBYUnRY.s:5287   .text:0000000000001734 .LVL588
     /tmp/ccBYUnRY.s:5314   .text:0000000000001760 .LVL592
     /tmp/ccBYUnRY.s:5507   .text:00000000000018dc .LVL622
     /tmp/ccBYUnRY.s:5519   .text:00000000000018f8 .LVL625
     /tmp/ccBYUnRY.s:5349   .text:00000000000017a4 .LBB225
     /tmp/ccBYUnRY.s:5367   .text:00000000000017c4 .LBE225
     /tmp/ccBYUnRY.s:20860  .debug_loc:00000000000019c2 .LLST165
     /tmp/ccBYUnRY.s:5360   .text:00000000000017bc .LVL598
     /tmp/ccBYUnRY.s:5368   .text:00000000000017c4 .LBB226
     /tmp/ccBYUnRY.s:5395   .text:00000000000017f4 .LBE226
     /tmp/ccBYUnRY.s:20871  .debug_loc:00000000000019f8 .LLST166
     /tmp/ccBYUnRY.s:20878  .debug_loc:0000000000001a1b .LLST149
     /tmp/ccBYUnRY.s:20909  .debug_loc:0000000000001a65 .LLST151
     /tmp/ccBYUnRY.s:5214   .text:000000000000169c .LBB216
     /tmp/ccBYUnRY.s:5226   .text:00000000000016b4 .LBE216
     /tmp/ccBYUnRY.s:20940  .debug_loc:0000000000001aaf .LLST158
     /tmp/ccBYUnRY.s:20967  .debug_loc:0000000000001b04 .LLST159
     /tmp/ccBYUnRY.s:5218   .text:00000000000016a4 .LVL581
     /tmp/ccBYUnRY.s:5045   .text:0000000000001504 .LVL553
     /tmp/ccBYUnRY.s:5052   .text:0000000000001518 .LVL554
     /tmp/ccBYUnRY.s:5057   .text:0000000000001524 .LVL555
GAS LISTING /tmp/ccBYUnRY.s 			page 234


     /tmp/ccBYUnRY.s:5064   .text:0000000000001538 .LVL557
     /tmp/ccBYUnRY.s:5070   .text:0000000000001548 .LVL558
     /tmp/ccBYUnRY.s:5075   .text:0000000000001554 .LVL559
     /tmp/ccBYUnRY.s:5082   .text:0000000000001568 .LVL561
     /tmp/ccBYUnRY.s:5089   .text:000000000000157c .LVL562
     /tmp/ccBYUnRY.s:5094   .text:000000000000158c .LVL563
     /tmp/ccBYUnRY.s:5101   .text:00000000000015a0 .LVL564
     /tmp/ccBYUnRY.s:5106   .text:00000000000015b0 .LVL565
     /tmp/ccBYUnRY.s:5115   .text:00000000000015c4 .LVL566
     /tmp/ccBYUnRY.s:5121   .text:00000000000015d4 .LVL567
     /tmp/ccBYUnRY.s:5130   .text:00000000000015e8 .LVL568
     /tmp/ccBYUnRY.s:5138   .text:00000000000015fc .LVL569
     /tmp/ccBYUnRY.s:5149   .text:0000000000001610 .LVL571
     /tmp/ccBYUnRY.s:5156   .text:0000000000001620 .LVL573
     /tmp/ccBYUnRY.s:5204   .text:000000000000168c .LVL579
     /tmp/ccBYUnRY.s:5232   .text:00000000000016c0 .LVL583
     /tmp/ccBYUnRY.s:5348   .text:00000000000017a4 .LVL596
     /tmp/ccBYUnRY.s:5404   .text:0000000000001808 .LVL605
     /tmp/ccBYUnRY.s:5423   .text:0000000000001830 .LVL607
     /tmp/ccBYUnRY.s:5426   .text:000000000000183c .LVL608
     /tmp/ccBYUnRY.s:5470   .text:0000000000001888 .LVL613
     /tmp/ccBYUnRY.s:5474   .text:0000000000001894 .LVL614
     /tmp/ccBYUnRY.s:5482   .text:00000000000018a4 .LVL616
     /tmp/ccBYUnRY.s:5486   .text:00000000000018b0 .LVL617
     /tmp/ccBYUnRY.s:5494   .text:00000000000018c0 .LVL619
     /tmp/ccBYUnRY.s:5498   .text:00000000000018cc .LVL620
     /tmp/ccBYUnRY.s:5511   .text:00000000000018e8 .LVL623
     /tmp/ccBYUnRY.s:5523   .text:0000000000001904 .LVL626
     /tmp/ccBYUnRY.s:4821   .text:00000000000013c8 .LFB96
     /tmp/ccBYUnRY.s:4960   .text:00000000000014bc .LFE96
     /tmp/ccBYUnRY.s:20982  .debug_loc:0000000000001b4d .LLST141
     /tmp/ccBYUnRY.s:21000  .debug_loc:0000000000001b99 .LLST142
     /tmp/ccBYUnRY.s:21018  .debug_loc:0000000000001be5 .LLST143
     /tmp/ccBYUnRY.s:21036  .debug_loc:0000000000001c31 .LLST144
     /tmp/ccBYUnRY.s:21060  .debug_loc:0000000000001ca1 .LLST145
     /tmp/ccBYUnRY.s:4855   .text:0000000000001400 .LVL535
     /tmp/ccBYUnRY.s:4863   .text:0000000000001410 .LVL537
     /tmp/ccBYUnRY.s:4875   .text:0000000000001428 .LVL538
     /tmp/ccBYUnRY.s:4886   .text:000000000000143c .LVL541
     /tmp/ccBYUnRY.s:4908   .text:0000000000001460 .LBB215
     /tmp/ccBYUnRY.s:4923   .text:000000000000147c .LBE215
     /tmp/ccBYUnRY.s:21067  .debug_loc:0000000000001cc4 .LLST146
     /tmp/ccBYUnRY.s:4915   .text:0000000000001470 .LVL543
     /tmp/ccBYUnRY.s:4921   .text:000000000000147c .LVL545
     /tmp/ccBYUnRY.s:4931   .text:000000000000148c .LVL546
     /tmp/ccBYUnRY.s:4938   .text:000000000000149c .LVL547
     /tmp/ccBYUnRY.s:4967   .text._ZN23ConsumerProducerSyncCPP8Consumer3runEv:0000000000000000 .LFB95
     /tmp/ccBYUnRY.s:4994   .text._ZN23ConsumerProducerSyncCPP8Consumer3runEv:000000000000002c .LFE95
     /tmp/ccBYUnRY.s:21074  .debug_loc:0000000000001ce7 .LLST147
     /tmp/ccBYUnRY.s:4983   .text._ZN23ConsumerProducerSyncCPP8Consumer3runEv:000000000000001c .LVL552
     /tmp/ccBYUnRY.s:23480  .debug_str:0000000000003276 .LASF465
     /tmp/ccBYUnRY.s:4698   .text:0000000000001334 .LFB91
     /tmp/ccBYUnRY.s:4780   .text:00000000000013c8 .LFE91
     /tmp/ccBYUnRY.s:21088  .debug_loc:0000000000001d20 .LLST136
     /tmp/ccBYUnRY.s:21102  .debug_loc:0000000000001d59 .LLST137
     /tmp/ccBYUnRY.s:21120  .debug_loc:0000000000001da5 .LLST138
     /tmp/ccBYUnRY.s:21138  .debug_loc:0000000000001df1 .LLST139
GAS LISTING /tmp/ccBYUnRY.s 			page 235


     /tmp/ccBYUnRY.s:4726   .text:0000000000001360 .LVL523
     /tmp/ccBYUnRY.s:4739   .text:0000000000001380 .LVL524
     /tmp/ccBYUnRY.s:4763   .text:00000000000013b0 .LVL527
     /tmp/ccBYUnRY.s:4787   .text._ZN23ConsumerProducerSyncCPP8Producer3runEv:0000000000000000 .LFB90
     /tmp/ccBYUnRY.s:4814   .text._ZN23ConsumerProducerSyncCPP8Producer3runEv:000000000000002c .LFE90
     /tmp/ccBYUnRY.s:21162  .debug_loc:0000000000001e61 .LLST140
     /tmp/ccBYUnRY.s:4803   .text._ZN23ConsumerProducerSyncCPP8Producer3runEv:000000000000001c .LVL531
     /tmp/ccBYUnRY.s:22658  .debug_str:0000000000000a02 .LASF466
     /tmp/ccBYUnRY.s:4551   .text:0000000000001274 .LFB86
     /tmp/ccBYUnRY.s:4657   .text:0000000000001334 .LFE86
     /tmp/ccBYUnRY.s:21176  .debug_loc:0000000000001e9a .LLST130
     /tmp/ccBYUnRY.s:21194  .debug_loc:0000000000001ee6 .LLST131
     /tmp/ccBYUnRY.s:21212  .debug_loc:0000000000001f32 .LLST132
     /tmp/ccBYUnRY.s:21230  .debug_loc:0000000000001f7e .LLST133
     /tmp/ccBYUnRY.s:21245  .debug_loc:0000000000001fc7 .LLST134
     /tmp/ccBYUnRY.s:4583   .text:00000000000012a8 .LVL505
     /tmp/ccBYUnRY.s:4589   .text:00000000000012b0 .LVL506
     /tmp/ccBYUnRY.s:4600   .text:00000000000012c8 .LVL508
     /tmp/ccBYUnRY.s:4632   .text:000000000000130c .LVL513
     /tmp/ccBYUnRY.s:4637   .text:0000000000001318 .LVL514
     /tmp/ccBYUnRY.s:4664   .text._ZN23ConsumerProducerSyncCPP16ProducerKeyboard3runEv:0000000000000000 .LFB85
     /tmp/ccBYUnRY.s:4691   .text._ZN23ConsumerProducerSyncCPP16ProducerKeyboard3runEv:000000000000002c .LFE85
     /tmp/ccBYUnRY.s:21269  .debug_loc:0000000000002037 .LLST135
     /tmp/ccBYUnRY.s:4680   .text._ZN23ConsumerProducerSyncCPP16ProducerKeyboard3runEv:000000000000001c .LVL519
     /tmp/ccBYUnRY.s:22698  .debug_str:0000000000000c0b .LASF467
     /tmp/ccBYUnRY.s:4522   .text:0000000000001274 .LFE81
     /tmp/ccBYUnRY.s:21283  .debug_loc:0000000000002070 .LLST123
     /tmp/ccBYUnRY.s:21294  .debug_loc:00000000000020a6 .LLST124
     /tmp/ccBYUnRY.s:21305  .debug_loc:00000000000020dc .LLST125
     /tmp/ccBYUnRY.s:21312  .debug_loc:00000000000020ff .LLST126
     /tmp/ccBYUnRY.s:21325  .debug_loc:0000000000002137 .LLST127
     /tmp/ccBYUnRY.s:4390   .text:0000000000001164 .LBB211
     /tmp/ccBYUnRY.s:4439   .text:00000000000011d4 .LBE211
     /tmp/ccBYUnRY.s:21333  .debug_loc:000000000000215b .LLST128
     /tmp/ccBYUnRY.s:4407   .text:000000000000118c .LVL486
     /tmp/ccBYUnRY.s:4444   .text:00000000000011dc .LBB212
     /tmp/ccBYUnRY.s:4462   .text:00000000000011fc .LBE212
     /tmp/ccBYUnRY.s:21340  .debug_loc:000000000000217e .LLST129
     /tmp/ccBYUnRY.s:4455   .text:00000000000011f4 .LVL490
     /tmp/ccBYUnRY.s:4240   .text:0000000000000fe0 .LVL460
     /tmp/ccBYUnRY.s:4247   .text:0000000000000ff4 .LVL461
     /tmp/ccBYUnRY.s:4252   .text:0000000000001000 .LVL462
     /tmp/ccBYUnRY.s:4259   .text:0000000000001014 .LVL464
     /tmp/ccBYUnRY.s:4265   .text:0000000000001024 .LVL465
     /tmp/ccBYUnRY.s:4270   .text:0000000000001030 .LVL466
     /tmp/ccBYUnRY.s:4277   .text:0000000000001044 .LVL468
     /tmp/ccBYUnRY.s:4284   .text:0000000000001058 .LVL469
     /tmp/ccBYUnRY.s:4289   .text:0000000000001068 .LVL470
     /tmp/ccBYUnRY.s:4296   .text:000000000000107c .LVL471
     /tmp/ccBYUnRY.s:4301   .text:000000000000108c .LVL472
     /tmp/ccBYUnRY.s:4310   .text:00000000000010a0 .LVL473
     /tmp/ccBYUnRY.s:4316   .text:00000000000010b0 .LVL474
     /tmp/ccBYUnRY.s:4325   .text:00000000000010c4 .LVL475
     /tmp/ccBYUnRY.s:4333   .text:00000000000010d8 .LVL476
     /tmp/ccBYUnRY.s:4345   .text:00000000000010f4 .LVL478
     /tmp/ccBYUnRY.s:4389   .text:0000000000001164 .LVL483
     /tmp/ccBYUnRY.s:4443   .text:00000000000011dc .LVL488
GAS LISTING /tmp/ccBYUnRY.s 			page 236


     /tmp/ccBYUnRY.s:4467   .text:000000000000120c .LVL493
     /tmp/ccBYUnRY.s:4474   .text:000000000000121c .LVL494
     /tmp/ccBYUnRY.s:4477   .text:0000000000001228 .LVL495
     /tmp/ccBYUnRY.s:4515   .text:0000000000001268 .LVL500
     /tmp/ccBYUnRY.s:4519   .text:0000000000001274 .LVL501
     /tmp/ccBYUnRY.s:1628   .text:00000000000002fc .LFB80
     /tmp/ccBYUnRY.s:1757   .text:00000000000003dc .LFE80
     /tmp/ccBYUnRY.s:21351  .debug_loc:00000000000021b4 .LLST60
     /tmp/ccBYUnRY.s:21369  .debug_loc:0000000000002200 .LLST61
     /tmp/ccBYUnRY.s:21387  .debug_loc:000000000000224c .LLST62
     /tmp/ccBYUnRY.s:21411  .debug_loc:00000000000022bc .LLST63
     /tmp/ccBYUnRY.s:1659   .text:000000000000032c .LVL154
     /tmp/ccBYUnRY.s:1667   .text:000000000000033c .LVL156
     /tmp/ccBYUnRY.s:1679   .text:0000000000000354 .LVL157
     /tmp/ccBYUnRY.s:1690   .text:0000000000000368 .LVL160
     /tmp/ccBYUnRY.s:1712   .text:000000000000038c .LBB181
     /tmp/ccBYUnRY.s:1725   .text:00000000000003a4 .LBE181
     /tmp/ccBYUnRY.s:21418  .debug_loc:00000000000022df .LLST64
     /tmp/ccBYUnRY.s:1717   .text:0000000000000398 .LVL162
     /tmp/ccBYUnRY.s:1723   .text:00000000000003a4 .LVL164
     /tmp/ccBYUnRY.s:1731   .text:00000000000003b0 .LVL165
     /tmp/ccBYUnRY.s:1738   .text:00000000000003c0 .LVL166
     /tmp/ccBYUnRY.s:1540   .text:0000000000000268 .LFB79
     /tmp/ccBYUnRY.s:1622   .text:00000000000002fc .LFE79
     /tmp/ccBYUnRY.s:21425  .debug_loc:0000000000002302 .LLST57
     /tmp/ccBYUnRY.s:21443  .debug_loc:000000000000234e .LLST58
     /tmp/ccBYUnRY.s:21461  .debug_loc:000000000000239a .LLST59
     /tmp/ccBYUnRY.s:1568   .text:0000000000000294 .LVL144
     /tmp/ccBYUnRY.s:1581   .text:00000000000002b4 .LVL145
     /tmp/ccBYUnRY.s:1605   .text:00000000000002e4 .LVL148
     /tmp/ccBYUnRY.s:1434   .text:00000000000001b8 .LFB78
     /tmp/ccBYUnRY.s:1534   .text:0000000000000268 .LFE78
     /tmp/ccBYUnRY.s:21485  .debug_loc:000000000000240a .LLST53
     /tmp/ccBYUnRY.s:21503  .debug_loc:0000000000002456 .LLST54
     /tmp/ccBYUnRY.s:21521  .debug_loc:00000000000024a2 .LLST55
     /tmp/ccBYUnRY.s:21536  .debug_loc:00000000000024eb .LLST56
     /tmp/ccBYUnRY.s:1464   .text:00000000000001e4 .LVL129
     /tmp/ccBYUnRY.s:1470   .text:00000000000001ec .LVL130
     /tmp/ccBYUnRY.s:1481   .text:0000000000000204 .LVL132
     /tmp/ccBYUnRY.s:1512   .text:0000000000000244 .LVL137
     /tmp/ccBYUnRY.s:1517   .text:0000000000000250 .LVL138
     /tmp/ccBYUnRY.s:4117   .text:0000000000000fa4 .LFE77
     /tmp/ccBYUnRY.s:3986   .text:0000000000000e8c .LBB209
     /tmp/ccBYUnRY.s:4009   .text:0000000000000eb8 .LBE209
     /tmp/ccBYUnRY.s:21560  .debug_loc:000000000000255b .LLST118
     /tmp/ccBYUnRY.s:4002   .text:0000000000000eb0 .LVL441
     /tmp/ccBYUnRY.s:4029   .text:0000000000000ef0 .LBB210
     /tmp/ccBYUnRY.s:4058   .text:0000000000000f20 .LBE210
     /tmp/ccBYUnRY.s:21571  .debug_loc:0000000000002591 .LLST119
     /tmp/ccBYUnRY.s:22686  .debug_str:0000000000000ba6 .LASF468
     /tmp/ccBYUnRY.s:22620  .debug_str:00000000000007f3 .LASF512
     /tmp/ccBYUnRY.s:21578  .debug_loc:00000000000025b4 .LLST120
     /tmp/ccBYUnRY.s:23262  .debug_str:000000000000273e .LASF469
     /tmp/ccBYUnRY.s:3883   .text:0000000000000dbc .LBB201
     /tmp/ccBYUnRY.s:3893   .text:0000000000000dd0 .LBE201
     /tmp/ccBYUnRY.s:21589  .debug_loc:00000000000025ea .LLST114
     /tmp/ccBYUnRY.s:3887   .text:0000000000000dc4 .LVL422
GAS LISTING /tmp/ccBYUnRY.s 			page 237


     /tmp/ccBYUnRY.s:3911   .text:0000000000000df4 .LBB203
     /tmp/ccBYUnRY.s:3921   .text:0000000000000e08 .LBE203
     /tmp/ccBYUnRY.s:21600  .debug_loc:0000000000002620 .LLST115
     /tmp/ccBYUnRY.s:3915   .text:0000000000000dfc .LVL427
     /tmp/ccBYUnRY.s:3939   .text:0000000000000e2c .LBB205
     /tmp/ccBYUnRY.s:3949   .text:0000000000000e40 .LBE205
     /tmp/ccBYUnRY.s:21611  .debug_loc:0000000000002656 .LLST116
     /tmp/ccBYUnRY.s:3943   .text:0000000000000e34 .LVL432
     /tmp/ccBYUnRY.s:3967   .text:0000000000000e64 .LBB207
     /tmp/ccBYUnRY.s:3977   .text:0000000000000e78 .LBE207
     /tmp/ccBYUnRY.s:21622  .debug_loc:000000000000268c .LLST117
     /tmp/ccBYUnRY.s:3971   .text:0000000000000e6c .LVL437
     /tmp/ccBYUnRY.s:3878   .text:0000000000000db8 .LVL420
     /tmp/ccBYUnRY.s:3901   .text:0000000000000de4 .LVL424
     /tmp/ccBYUnRY.s:3906   .text:0000000000000df0 .LVL425
     /tmp/ccBYUnRY.s:3929   .text:0000000000000e1c .LVL429
     /tmp/ccBYUnRY.s:3934   .text:0000000000000e28 .LVL430
     /tmp/ccBYUnRY.s:3957   .text:0000000000000e54 .LVL434
     /tmp/ccBYUnRY.s:3962   .text:0000000000000e60 .LVL435
     /tmp/ccBYUnRY.s:3985   .text:0000000000000e8c .LVL439
     /tmp/ccBYUnRY.s:4013   .text:0000000000000ec0 .LVL444
     /tmp/ccBYUnRY.s:4062   .text:0000000000000f2c .LVL451
     /tmp/ccBYUnRY.s:4066   .text:0000000000000f38 .LVL452
     /tmp/ccBYUnRY.s:4073   .text:0000000000000f48 .LVL453
     /tmp/ccBYUnRY.s:4077   .text:0000000000000f54 .LVL454
     /tmp/ccBYUnRY.s:4084   .text:0000000000000f64 .LVL455
     /tmp/ccBYUnRY.s:4088   .text:0000000000000f70 .LVL456
     /tmp/ccBYUnRY.s:4095   .text:0000000000000f80 .LVL457
     /tmp/ccBYUnRY.s:4099   .text:0000000000000f8c .LVL458
     /tmp/ccBYUnRY.s:3665   .text:0000000000000c4c .LFB76
     /tmp/ccBYUnRY.s:3814   .text:0000000000000d94 .LFE76
     /tmp/ccBYUnRY.s:21633  .debug_loc:00000000000026c2 .LLST109
     /tmp/ccBYUnRY.s:21647  .debug_loc:00000000000026fb .LLST110
     /tmp/ccBYUnRY.s:21661  .debug_loc:0000000000002734 .LLST111
     /tmp/ccBYUnRY.s:22694  .debug_str:0000000000000be4 .LASF470
     /tmp/ccBYUnRY.s:21681  .debug_loc:0000000000002791 .LLST112
     /tmp/ccBYUnRY.s:3692   .text:0000000000000c7c .LVL396
     /tmp/ccBYUnRY.s:3699   .text:0000000000000c90 .LVL397
     /tmp/ccBYUnRY.s:3704   .text:0000000000000ca0 .LVL398
     /tmp/ccBYUnRY.s:3719   .text:0000000000000cc0 .LVL401
     /tmp/ccBYUnRY.s:3730   .text:0000000000000ccc .LVL402
     /tmp/ccBYUnRY.s:3735   .text:0000000000000cd8 .LVL403
     /tmp/ccBYUnRY.s:3743   .text:0000000000000cec .LVL406
     /tmp/ccBYUnRY.s:3750   .text:0000000000000d00 .LVL407
     /tmp/ccBYUnRY.s:3755   .text:0000000000000d10 .LVL408
     /tmp/ccBYUnRY.s:3762   .text:0000000000000d24 .LVL409
     /tmp/ccBYUnRY.s:3769   .text:0000000000000d38 .LVL410
     /tmp/ccBYUnRY.s:3774   .text:0000000000000d48 .LVL411
     /tmp/ccBYUnRY.s:3789   .text:0000000000000d68 .LVL414
     /tmp/ccBYUnRY.s:3797   .text:0000000000000d7c .LVL415
     /tmp/ccBYUnRY.s:3449   .text:0000000000000acc .LFB75
     /tmp/ccBYUnRY.s:3624   .text:0000000000000c4c .LFE75
     /tmp/ccBYUnRY.s:21692  .debug_loc:00000000000027c7 .LLST103
     /tmp/ccBYUnRY.s:21706  .debug_loc:0000000000002800 .LLST104
     /tmp/ccBYUnRY.s:21720  .debug_loc:0000000000002839 .LLST105
     /tmp/ccBYUnRY.s:21740  .debug_loc:0000000000002896 .LLST106
     /tmp/ccBYUnRY.s:21748  .debug_loc:00000000000028ba .LLST107
GAS LISTING /tmp/ccBYUnRY.s 			page 238


     /tmp/ccBYUnRY.s:3476   .text:0000000000000afc .LVL365
     /tmp/ccBYUnRY.s:3483   .text:0000000000000b10 .LVL366
     /tmp/ccBYUnRY.s:3488   .text:0000000000000b20 .LVL367
     /tmp/ccBYUnRY.s:3503   .text:0000000000000b40 .LVL370
     /tmp/ccBYUnRY.s:3514   .text:0000000000000b4c .LVL371
     /tmp/ccBYUnRY.s:3528   .text:0000000000000b60 .LVL373
     /tmp/ccBYUnRY.s:3535   .text:0000000000000b74 .LVL374
     /tmp/ccBYUnRY.s:3540   .text:0000000000000b84 .LVL375
     /tmp/ccBYUnRY.s:3545   .text:0000000000000b90 .LVL376
     /tmp/ccBYUnRY.s:3553   .text:0000000000000ba4 .LVL379
     /tmp/ccBYUnRY.s:3560   .text:0000000000000bb8 .LVL380
     /tmp/ccBYUnRY.s:3565   .text:0000000000000bc8 .LVL381
     /tmp/ccBYUnRY.s:3572   .text:0000000000000bdc .LVL382
     /tmp/ccBYUnRY.s:3579   .text:0000000000000bf0 .LVL383
     /tmp/ccBYUnRY.s:3584   .text:0000000000000c00 .LVL384
     /tmp/ccBYUnRY.s:3599   .text:0000000000000c20 .LVL387
     /tmp/ccBYUnRY.s:3607   .text:0000000000000c34 .LVL388
     /tmp/ccBYUnRY.s:3285   .text:00000000000009f8 .LFB74
     /tmp/ccBYUnRY.s:3408   .text:0000000000000acc .LFE74
     /tmp/ccBYUnRY.s:21759  .debug_loc:00000000000028f0 .LLST97
     /tmp/ccBYUnRY.s:21773  .debug_loc:0000000000002929 .LLST98
     /tmp/ccBYUnRY.s:3303   .text:0000000000000a10 .LBB193
     /tmp/ccBYUnRY.s:3379   .text:0000000000000a90 .LBE193
     /tmp/ccBYUnRY.s:21787  .debug_loc:0000000000002962 .LLST99
     /tmp/ccBYUnRY.s:21799  .debug_loc:0000000000002999 .LLST100
     /tmp/ccBYUnRY.s:3326   .text:0000000000000a30 .LBB197
     /tmp/ccBYUnRY.s:3341   .text:0000000000000a48 .LBE197
     /tmp/ccBYUnRY.s:21811  .debug_loc:00000000000029d0 .LLST101
     /tmp/ccBYUnRY.s:3315   .text:0000000000000a20 .LVL347
     /tmp/ccBYUnRY.s:3357   .text:0000000000000a64 .LVL353
     /tmp/ccBYUnRY.s:3364   .text:0000000000000a78 .LVL354
     /tmp/ccBYUnRY.s:3369   .text:0000000000000a88 .LVL355
     /tmp/ccBYUnRY.s:3384   .text:0000000000000aa0 .LVL357
     /tmp/ccBYUnRY.s:3392   .text:0000000000000ab4 .LVL358
     /tmp/ccBYUnRY.s:3125   .text:000000000000092c .LFB73
     /tmp/ccBYUnRY.s:3244   .text:00000000000009f8 .LFE73
     /tmp/ccBYUnRY.s:21822  .debug_loc:0000000000002a06 .LLST91
     /tmp/ccBYUnRY.s:21836  .debug_loc:0000000000002a3f .LLST92
     /tmp/ccBYUnRY.s:3143   .text:0000000000000944 .LBB185
     /tmp/ccBYUnRY.s:3219   .text:00000000000009c4 .LBE185
     /tmp/ccBYUnRY.s:21850  .debug_loc:0000000000002a78 .LLST93
     /tmp/ccBYUnRY.s:21862  .debug_loc:0000000000002aaf .LLST94
     /tmp/ccBYUnRY.s:3166   .text:0000000000000964 .LBB189
     /tmp/ccBYUnRY.s:3181   .text:000000000000097c .LBE189
     /tmp/ccBYUnRY.s:21874  .debug_loc:0000000000002ae6 .LLST95
     /tmp/ccBYUnRY.s:3155   .text:0000000000000954 .LVL330
     /tmp/ccBYUnRY.s:3197   .text:0000000000000998 .LVL336
     /tmp/ccBYUnRY.s:3204   .text:00000000000009ac .LVL337
     /tmp/ccBYUnRY.s:3209   .text:00000000000009bc .LVL338
     /tmp/ccBYUnRY.s:3224   .text:00000000000009d4 .LVL340
     /tmp/ccBYUnRY.s:3821   .text._ZN14ThreadsTestCPP7WorkerD3runEv:0000000000000000 .LFB72
     /tmp/ccBYUnRY.s:3848   .text._ZN14ThreadsTestCPP7WorkerD3runEv:000000000000002c .LFE72
     /tmp/ccBYUnRY.s:21885  .debug_loc:0000000000002b1c .LLST113
     /tmp/ccBYUnRY.s:3837   .text._ZN14ThreadsTestCPP7WorkerD3runEv:000000000000001c .LVL419
     /tmp/ccBYUnRY.s:23394  .debug_str:0000000000002e20 .LASF471
     /tmp/ccBYUnRY.s:3631   .text._ZN14ThreadsTestCPP7WorkerC3runEv:0000000000000000 .LFB68
     /tmp/ccBYUnRY.s:3658   .text._ZN14ThreadsTestCPP7WorkerC3runEv:000000000000002c .LFE68
GAS LISTING /tmp/ccBYUnRY.s 			page 239


     /tmp/ccBYUnRY.s:21899  .debug_loc:0000000000002b55 .LLST108
     /tmp/ccBYUnRY.s:3647   .text._ZN14ThreadsTestCPP7WorkerC3runEv:000000000000001c .LVL392
     /tmp/ccBYUnRY.s:23348  .debug_str:0000000000002bfa .LASF472
     /tmp/ccBYUnRY.s:3415   .text._ZN14ThreadsTestCPP7WorkerB3runEv:0000000000000000 .LFB64
     /tmp/ccBYUnRY.s:3442   .text._ZN14ThreadsTestCPP7WorkerB3runEv:000000000000002c .LFE64
     /tmp/ccBYUnRY.s:21913  .debug_loc:0000000000002b8e .LLST102
     /tmp/ccBYUnRY.s:3431   .text._ZN14ThreadsTestCPP7WorkerB3runEv:000000000000001c .LVL361
     /tmp/ccBYUnRY.s:22598  .debug_str:0000000000000714 .LASF473
     /tmp/ccBYUnRY.s:3251   .text._ZN14ThreadsTestCPP7WorkerA3runEv:0000000000000000 .LFB60
     /tmp/ccBYUnRY.s:3278   .text._ZN14ThreadsTestCPP7WorkerA3runEv:000000000000002c .LFE60
     /tmp/ccBYUnRY.s:21927  .debug_loc:0000000000002bc7 .LLST96
     /tmp/ccBYUnRY.s:3267   .text._ZN14ThreadsTestCPP7WorkerA3runEv:000000000000001c .LVL343
     /tmp/ccBYUnRY.s:22832  .debug_str:0000000000001255 .LASF474
     /tmp/ccBYUnRY.s:3054   .text:00000000000008b8 .LFB56
     /tmp/ccBYUnRY.s:3119   .text:000000000000092c .LFE56
     /tmp/ccBYUnRY.s:21941  .debug_loc:0000000000002c00 .LLST90
     /tmp/ccBYUnRY.s:3086   .text:00000000000008f4 .LVL322
     /tmp/ccBYUnRY.s:3091   .text:0000000000000904 .LVL323
     /tmp/ccBYUnRY.s:3116   .text:0000000000000928 .LVL326
     /tmp/ccBYUnRY.s:2958   .text:00000000000007bc .LFB55
     /tmp/ccBYUnRY.s:3048   .text:00000000000008b8 .LFE55
     /tmp/ccBYUnRY.s:2976   .text:00000000000007e4 .LVL311
     /tmp/ccBYUnRY.s:2981   .text:00000000000007f4 .LVL312
     /tmp/ccBYUnRY.s:2988   .text:000000000000080c .LVL313
     /tmp/ccBYUnRY.s:2993   .text:000000000000081c .LVL314
     /tmp/ccBYUnRY.s:3000   .text:0000000000000834 .LVL315
     /tmp/ccBYUnRY.s:3005   .text:0000000000000844 .LVL316
     /tmp/ccBYUnRY.s:3012   .text:000000000000085c .LVL317
     /tmp/ccBYUnRY.s:3017   .text:000000000000086c .LVL318
     /tmp/ccBYUnRY.s:3023   .text:0000000000000878 .LVL319
     /tmp/ccBYUnRY.s:2789   .text:0000000000000674 .LFB54
     /tmp/ccBYUnRY.s:2938   .text:00000000000007bc .LFE54
     /tmp/ccBYUnRY.s:21963  .debug_loc:0000000000002c5f .LLST87
     /tmp/ccBYUnRY.s:21977  .debug_loc:0000000000002c98 .LLST88
     /tmp/ccBYUnRY.s:21997  .debug_loc:0000000000002cf5 .LLST89
     /tmp/ccBYUnRY.s:2816   .text:00000000000006a4 .LVL289
     /tmp/ccBYUnRY.s:2823   .text:00000000000006b8 .LVL290
     /tmp/ccBYUnRY.s:2828   .text:00000000000006c8 .LVL291
     /tmp/ccBYUnRY.s:2843   .text:00000000000006e8 .LVL294
     /tmp/ccBYUnRY.s:2854   .text:00000000000006f4 .LVL295
     /tmp/ccBYUnRY.s:2859   .text:0000000000000700 .LVL296
     /tmp/ccBYUnRY.s:2867   .text:0000000000000714 .LVL299
     /tmp/ccBYUnRY.s:2874   .text:0000000000000728 .LVL300
     /tmp/ccBYUnRY.s:2879   .text:0000000000000738 .LVL301
     /tmp/ccBYUnRY.s:2886   .text:000000000000074c .LVL302
     /tmp/ccBYUnRY.s:2893   .text:0000000000000760 .LVL303
     /tmp/ccBYUnRY.s:2898   .text:0000000000000770 .LVL304
     /tmp/ccBYUnRY.s:2913   .text:0000000000000790 .LVL307
     /tmp/ccBYUnRY.s:2921   .text:00000000000007a4 .LVL308
     /tmp/ccBYUnRY.s:2594   .text:00000000000004f4 .LFB53
     /tmp/ccBYUnRY.s:2769   .text:0000000000000674 .LFE53
     /tmp/ccBYUnRY.s:22008  .debug_loc:0000000000002d2b .LLST83
     /tmp/ccBYUnRY.s:22022  .debug_loc:0000000000002d64 .LLST84
     /tmp/ccBYUnRY.s:22042  .debug_loc:0000000000002dc1 .LLST85
     /tmp/ccBYUnRY.s:22050  .debug_loc:0000000000002de5 .LLST86
     /tmp/ccBYUnRY.s:2621   .text:0000000000000524 .LVL260
     /tmp/ccBYUnRY.s:2628   .text:0000000000000538 .LVL261
GAS LISTING /tmp/ccBYUnRY.s 			page 240


     /tmp/ccBYUnRY.s:2633   .text:0000000000000548 .LVL262
     /tmp/ccBYUnRY.s:2648   .text:0000000000000568 .LVL265
     /tmp/ccBYUnRY.s:2659   .text:0000000000000574 .LVL266
     /tmp/ccBYUnRY.s:2673   .text:0000000000000588 .LVL268
     /tmp/ccBYUnRY.s:2680   .text:000000000000059c .LVL269
     /tmp/ccBYUnRY.s:2685   .text:00000000000005ac .LVL270
     /tmp/ccBYUnRY.s:2690   .text:00000000000005b8 .LVL271
     /tmp/ccBYUnRY.s:2698   .text:00000000000005cc .LVL274
     /tmp/ccBYUnRY.s:2705   .text:00000000000005e0 .LVL275
     /tmp/ccBYUnRY.s:2710   .text:00000000000005f0 .LVL276
     /tmp/ccBYUnRY.s:2717   .text:0000000000000604 .LVL277
     /tmp/ccBYUnRY.s:2724   .text:0000000000000618 .LVL278
     /tmp/ccBYUnRY.s:2729   .text:0000000000000628 .LVL279
     /tmp/ccBYUnRY.s:2744   .text:0000000000000648 .LVL282
     /tmp/ccBYUnRY.s:2752   .text:000000000000065c .LVL283
     /tmp/ccBYUnRY.s:180    .text:00000000000000e4 .LFB52
     /tmp/ccBYUnRY.s:303    .text:00000000000001b8 .LFE52
     /tmp/ccBYUnRY.s:22061  .debug_loc:0000000000002e1b .LLST4
     /tmp/ccBYUnRY.s:198    .text:00000000000000fc .LBB126
     /tmp/ccBYUnRY.s:274    .text:000000000000017c .LBE126
     /tmp/ccBYUnRY.s:22075  .debug_loc:0000000000002e54 .LLST5
     /tmp/ccBYUnRY.s:22087  .debug_loc:0000000000002e8b .LLST6
     /tmp/ccBYUnRY.s:221    .text:000000000000011c .LBB130
     /tmp/ccBYUnRY.s:236    .text:0000000000000134 .LBE130
     /tmp/ccBYUnRY.s:22099  .debug_loc:0000000000002ec2 .LLST7
     /tmp/ccBYUnRY.s:210    .text:000000000000010c .LVL19
     /tmp/ccBYUnRY.s:252    .text:0000000000000150 .LVL25
     /tmp/ccBYUnRY.s:259    .text:0000000000000164 .LVL26
     /tmp/ccBYUnRY.s:264    .text:0000000000000174 .LVL27
     /tmp/ccBYUnRY.s:279    .text:000000000000018c .LVL29
     /tmp/ccBYUnRY.s:287    .text:00000000000001a0 .LVL30
     /tmp/ccBYUnRY.s:46     .text:0000000000000018 .LFB51
     /tmp/ccBYUnRY.s:166    .text:00000000000000e4 .LFE51
     /tmp/ccBYUnRY.s:22110  .debug_loc:0000000000002ef8 .LLST0
     /tmp/ccBYUnRY.s:65     .text:0000000000000030 .LBB118
     /tmp/ccBYUnRY.s:141    .text:00000000000000b0 .LBE118
     /tmp/ccBYUnRY.s:22124  .debug_loc:0000000000002f31 .LLST1
     /tmp/ccBYUnRY.s:22136  .debug_loc:0000000000002f68 .LLST2
     /tmp/ccBYUnRY.s:88     .text:0000000000000050 .LBB122
     /tmp/ccBYUnRY.s:103    .text:0000000000000068 .LBE122
     /tmp/ccBYUnRY.s:22148  .debug_loc:0000000000002f9f .LLST3
     /tmp/ccBYUnRY.s:77     .text:0000000000000040 .LVL4
     /tmp/ccBYUnRY.s:119    .text:0000000000000084 .LVL10
     /tmp/ccBYUnRY.s:126    .text:0000000000000098 .LVL11
     /tmp/ccBYUnRY.s:131    .text:00000000000000a8 .LVL12
     /tmp/ccBYUnRY.s:146    .text:00000000000000c0 .LVL14
     /tmp/ccBYUnRY.s:2506   .text:0000000000000480 .LFB50
     /tmp/ccBYUnRY.s:2571   .text:00000000000004f4 .LFE50
     /tmp/ccBYUnRY.s:22159  .debug_loc:0000000000002fd5 .LLST82
     /tmp/ccBYUnRY.s:2538   .text:00000000000004bc .LVL252
     /tmp/ccBYUnRY.s:2543   .text:00000000000004cc .LVL253
     /tmp/ccBYUnRY.s:2568   .text:00000000000004f0 .LVL256
     /tmp/ccBYUnRY.s:22666  .debug_str:0000000000000aa9 .LASF475
     /tmp/ccBYUnRY.s:22556  .debug_str:00000000000004f3 .LASF476
     /tmp/ccBYUnRY.s:23380  .debug_str:0000000000002da3 .LASF477
     /tmp/ccBYUnRY.s:23414  .debug_str:0000000000002ed5 .LASF478
     /tmp/ccBYUnRY.s:22538  .debug_str:000000000000045c .LASF479
GAS LISTING /tmp/ccBYUnRY.s 			page 241


     /tmp/ccBYUnRY.s:22700  .debug_str:0000000000000c4f .LASF480
     /tmp/ccBYUnRY.s:23238  .debug_str:00000000000025c3 .LASF481
     /tmp/ccBYUnRY.s:23068  .debug_str:0000000000001dd1 .LASF482
     /tmp/ccBYUnRY.s:22882  .debug_str:00000000000014c6 .LASF483
     /tmp/ccBYUnRY.s:23314  .debug_str:0000000000002a3c .LASF513
     /tmp/ccBYUnRY.s:22494  .debug_str:0000000000000217 .LASF514
     /tmp/ccBYUnRY.s:23124  .debug_str:00000000000020a2 .LASF484
     /tmp/ccBYUnRY.s:22840  .debug_str:00000000000012b7 .LASF485
     /tmp/ccBYUnRY.s:22552  .debug_str:00000000000004c3 .LASF486
     /tmp/ccBYUnRY.s:23184  .debug_str:000000000000237d .LASF487
     /tmp/ccBYUnRY.s:23160  .debug_str:000000000000220d .LASF488
     /tmp/ccBYUnRY.s:23058  .debug_str:0000000000001d5e .LASF489
     /tmp/ccBYUnRY.s:22942  .debug_str:00000000000017b0 .LASF490
     /tmp/ccBYUnRY.s:23352  .debug_str:0000000000002c48 .LASF491
     /tmp/ccBYUnRY.s:23276  .debug_str:00000000000027cc .LASF492
     /tmp/ccBYUnRY.s:23098  .debug_str:0000000000001f46 .LASF493
     /tmp/ccBYUnRY.s:22558  .debug_str:00000000000004f8 .LASF494
     /tmp/ccBYUnRY.s:23024  .debug_str:0000000000001ba1 .LASF495
     /tmp/ccBYUnRY.s:22980  .debug_str:0000000000001965 .LASF496
     /tmp/ccBYUnRY.s:23198  .debug_str:0000000000002436 .LASF497
     /tmp/ccBYUnRY.s:23150  .debug_str:00000000000021a5 .LASF498
     /tmp/ccBYUnRY.s:23472  .debug_str:000000000000320d .LASF499
     /tmp/ccBYUnRY.s:22566  .debug_str:000000000000055a .LASF500
     /tmp/ccBYUnRY.s:22464  .debug_str:000000000000008e .LASF501
     /tmp/ccBYUnRY.s:22820  .debug_str:0000000000001200 .LASF502
     /tmp/ccBYUnRY.s:351    .text._ZN14ThreadsTestCPP7WorkerAD0Ev:0000000000000000 .LVL34
     /tmp/ccBYUnRY.s:383    .text._ZN14ThreadsTestCPP7WorkerAD0Ev:0000000000000044 .LVL38
     /tmp/ccBYUnRY.s:363    .text._ZN14ThreadsTestCPP7WorkerAD0Ev:0000000000000018 .LVL35
     /tmp/ccBYUnRY.s:314    .text._ZN14ThreadsTestCPP7WorkerAD2Ev:0000000000000000 .LVL32
     /tmp/ccBYUnRY.s:435    .text._ZN14ThreadsTestCPP7WorkerBD0Ev:0000000000000000 .LVL41
     /tmp/ccBYUnRY.s:467    .text._ZN14ThreadsTestCPP7WorkerBD0Ev:0000000000000044 .LVL45
     /tmp/ccBYUnRY.s:447    .text._ZN14ThreadsTestCPP7WorkerBD0Ev:0000000000000018 .LVL42
     /tmp/ccBYUnRY.s:398    .text._ZN14ThreadsTestCPP7WorkerBD2Ev:0000000000000000 .LVL39
     /tmp/ccBYUnRY.s:519    .text._ZN14ThreadsTestCPP7WorkerCD0Ev:0000000000000000 .LVL48
     /tmp/ccBYUnRY.s:551    .text._ZN14ThreadsTestCPP7WorkerCD0Ev:0000000000000044 .LVL52
     /tmp/ccBYUnRY.s:531    .text._ZN14ThreadsTestCPP7WorkerCD0Ev:0000000000000018 .LVL49
     /tmp/ccBYUnRY.s:482    .text._ZN14ThreadsTestCPP7WorkerCD2Ev:0000000000000000 .LVL46
     /tmp/ccBYUnRY.s:603    .text._ZN14ThreadsTestCPP7WorkerDD0Ev:0000000000000000 .LVL55
     /tmp/ccBYUnRY.s:635    .text._ZN14ThreadsTestCPP7WorkerDD0Ev:0000000000000044 .LVL59
     /tmp/ccBYUnRY.s:615    .text._ZN14ThreadsTestCPP7WorkerDD0Ev:0000000000000018 .LVL56
     /tmp/ccBYUnRY.s:566    .text._ZN14ThreadsTestCPP7WorkerDD2Ev:0000000000000000 .LVL53
     /tmp/ccBYUnRY.s:856    .text._ZN23ConsumerProducerSyncCPP16ProducerKeyboardD0Ev:0000000000000000 .LVL76
     /tmp/ccBYUnRY.s:888    .text._ZN23ConsumerProducerSyncCPP16ProducerKeyboardD0Ev:0000000000000044 .LVL80
     /tmp/ccBYUnRY.s:868    .text._ZN23ConsumerProducerSyncCPP16ProducerKeyboardD0Ev:0000000000000018 .LVL77
     /tmp/ccBYUnRY.s:819    .text._ZN23ConsumerProducerSyncCPP16ProducerKeyboardD2Ev:0000000000000000 .LVL74
     /tmp/ccBYUnRY.s:772    .text._ZN23ConsumerProducerSyncCPP8ProducerD0Ev:0000000000000000 .LVL69
     /tmp/ccBYUnRY.s:804    .text._ZN23ConsumerProducerSyncCPP8ProducerD0Ev:0000000000000044 .LVL73
     /tmp/ccBYUnRY.s:784    .text._ZN23ConsumerProducerSyncCPP8ProducerD0Ev:0000000000000018 .LVL70
     /tmp/ccBYUnRY.s:735    .text._ZN23ConsumerProducerSyncCPP8ProducerD2Ev:0000000000000000 .LVL67
     /tmp/ccBYUnRY.s:688    .text._ZN23ConsumerProducerSyncCPP8ConsumerD0Ev:0000000000000000 .LVL62
     /tmp/ccBYUnRY.s:720    .text._ZN23ConsumerProducerSyncCPP8ConsumerD0Ev:0000000000000044 .LVL66
     /tmp/ccBYUnRY.s:700    .text._ZN23ConsumerProducerSyncCPP8ConsumerD0Ev:0000000000000018 .LVL63
     /tmp/ccBYUnRY.s:651    .text._ZN23ConsumerProducerSyncCPP8ConsumerD2Ev:0000000000000000 .LVL60
     /tmp/ccBYUnRY.s:1025   .text._ZN24ConsumerProducerAsyncCPP16ProducerKeyboradD0Ev:0000000000000000 .LVL90
     /tmp/ccBYUnRY.s:1057   .text._ZN24ConsumerProducerAsyncCPP16ProducerKeyboradD0Ev:0000000000000044 .LVL94
     /tmp/ccBYUnRY.s:1037   .text._ZN24ConsumerProducerAsyncCPP16ProducerKeyboradD0Ev:0000000000000018 .LVL91
     /tmp/ccBYUnRY.s:988    .text._ZN24ConsumerProducerAsyncCPP16ProducerKeyboradD2Ev:0000000000000000 .LVL88
GAS LISTING /tmp/ccBYUnRY.s 			page 242


     /tmp/ccBYUnRY.s:1109   .text._ZN24ConsumerProducerAsyncCPP8ProducerD0Ev:0000000000000000 .LVL97
     /tmp/ccBYUnRY.s:1141   .text._ZN24ConsumerProducerAsyncCPP8ProducerD0Ev:0000000000000044 .LVL101
     /tmp/ccBYUnRY.s:1121   .text._ZN24ConsumerProducerAsyncCPP8ProducerD0Ev:0000000000000018 .LVL98
     /tmp/ccBYUnRY.s:1072   .text._ZN24ConsumerProducerAsyncCPP8ProducerD2Ev:0000000000000000 .LVL95
     /tmp/ccBYUnRY.s:941    .text._ZN24ConsumerProducerAsyncCPP8ConsumerD0Ev:0000000000000000 .LVL83
     /tmp/ccBYUnRY.s:973    .text._ZN24ConsumerProducerAsyncCPP8ConsumerD0Ev:0000000000000044 .LVL87
     /tmp/ccBYUnRY.s:953    .text._ZN24ConsumerProducerAsyncCPP8ConsumerD0Ev:0000000000000018 .LVL84
     /tmp/ccBYUnRY.s:904    .text._ZN24ConsumerProducerAsyncCPP8ConsumerD2Ev:0000000000000000 .LVL81
     /tmp/ccBYUnRY.s:1200   .text._ZN19PeriodicThreadsTest1AD0Ev:0000000000000000 .LVL105
     /tmp/ccBYUnRY.s:1236   .text._ZN19PeriodicThreadsTest1AD0Ev:0000000000000048 .LVL109
     /tmp/ccBYUnRY.s:1212   .text._ZN19PeriodicThreadsTest1AD0Ev:0000000000000018 .LVL106
     /tmp/ccBYUnRY.s:1157   .text._ZN19PeriodicThreadsTest1AD2Ev:0000000000000000 .LVL102
     /tmp/ccBYUnRY.s:1166   .text._ZN19PeriodicThreadsTest1AD2Ev:0000000000000010 .LVL103
     /tmp/ccBYUnRY.s:1293   .text._ZN19PeriodicThreadsTest1BD0Ev:0000000000000000 .LVL113
     /tmp/ccBYUnRY.s:1329   .text._ZN19PeriodicThreadsTest1BD0Ev:0000000000000048 .LVL117
     /tmp/ccBYUnRY.s:1305   .text._ZN19PeriodicThreadsTest1BD0Ev:0000000000000018 .LVL114
     /tmp/ccBYUnRY.s:1251   .text._ZN19PeriodicThreadsTest1BD2Ev:0000000000000000 .LVL110
     /tmp/ccBYUnRY.s:1260   .text._ZN19PeriodicThreadsTest1BD2Ev:0000000000000010 .LVL111
     /tmp/ccBYUnRY.s:1386   .text._ZN19PeriodicThreadsTest1CD0Ev:0000000000000000 .LVL121
     /tmp/ccBYUnRY.s:1422   .text._ZN19PeriodicThreadsTest1CD0Ev:0000000000000048 .LVL125
     /tmp/ccBYUnRY.s:1398   .text._ZN19PeriodicThreadsTest1CD0Ev:0000000000000018 .LVL122
     /tmp/ccBYUnRY.s:1344   .text._ZN19PeriodicThreadsTest1CD2Ev:0000000000000000 .LVL118
     /tmp/ccBYUnRY.s:1353   .text._ZN19PeriodicThreadsTest1CD2Ev:0000000000000010 .LVL119
     /tmp/ccBYUnRY.s:6746   .text:00000000000020a0 .LVL765
     /tmp/ccBYUnRY.s:6759   .text:00000000000020ac .LVL767
     /tmp/ccBYUnRY.s:6766   .text:00000000000020b0 .LVL768
     /tmp/ccBYUnRY.s:6338   .text:0000000000001e3c .LVL713
     /tmp/ccBYUnRY.s:6420   .text:0000000000001ec8 .LVL727
     /tmp/ccBYUnRY.s:6517   .text:0000000000001f68 .LVL743
     /tmp/ccBYUnRY.s:6528   .text:0000000000001f78 .LVL746
     /tmp/ccBYUnRY.s:6530   .text:0000000000001f7c .LVL747
     /tmp/ccBYUnRY.s:6360   .text:0000000000001e64 .LVL717
     /tmp/ccBYUnRY.s:6418   .text:0000000000001ec4 .LVL726
     /tmp/ccBYUnRY.s:6578   .text:0000000000001ff0 .LVL756
     /tmp/ccBYUnRY.s:6382   .text:0000000000001e8c .LVL721
     /tmp/ccBYUnRY.s:6414   .text:0000000000001ec0 .LVL725
     /tmp/ccBYUnRY.s:6427   .text:0000000000001ecc .LVL728
     /tmp/ccBYUnRY.s:6430   .text:0000000000001ed0 .LVL729
     /tmp/ccBYUnRY.s:6440   .text:0000000000001ee8 .LVL732
     /tmp/ccBYUnRY.s:6523   .text:0000000000001f70 .LVL745
     /tmp/ccBYUnRY.s:6461   .text:0000000000001f08 .LVL735
     /tmp/ccBYUnRY.s:6463   .text:0000000000001f0c .LVL736
     /tmp/ccBYUnRY.s:6470   .text:0000000000001f10 .LVL737
     /tmp/ccBYUnRY.s:6435   .text:0000000000001edc .LVL730
     /tmp/ccBYUnRY.s:6483   .text:0000000000001f2c .LVL739
     /tmp/ccBYUnRY.s:6485   .text:0000000000001f30 .LVL740
     /tmp/ccBYUnRY.s:6520   .text:0000000000001f6c .LVL744
     /tmp/ccBYUnRY.s:6326   .text:0000000000001e24 .LVL711
     /tmp/ccBYUnRY.s:6349   .text:0000000000001e4c .LVL715
     /tmp/ccBYUnRY.s:6371   .text:0000000000001e74 .LVL719
     /tmp/ccBYUnRY.s:2081   .text._ZN19PeriodicThreadsTest1C18periodicActivationEv:0000000000000000 .LVL208
     /tmp/ccBYUnRY.s:2096   .text._ZN19PeriodicThreadsTest1C18periodicActivationEv:0000000000000020 .LVL209
     /tmp/ccBYUnRY.s:2360   .text._ZN19PeriodicThreadsTest1C3runEv:0000000000000000 .LVL235
     /tmp/ccBYUnRY.s:2372   .text._ZN19PeriodicThreadsTest1C3runEv:0000000000000018 .LVL236
     /tmp/ccBYUnRY.s:2409   .text._ZN19PeriodicThreadsTest1C3runEv:000000000000005c .LVL240
     /tmp/ccBYUnRY.s:2026   .text._ZN19PeriodicThreadsTest1B18periodicActivationEv:0000000000000000 .LVL202
     /tmp/ccBYUnRY.s:2041   .text._ZN19PeriodicThreadsTest1B18periodicActivationEv:0000000000000020 .LVL203
GAS LISTING /tmp/ccBYUnRY.s 			page 243


     /tmp/ccBYUnRY.s:2296   .text._ZN19PeriodicThreadsTest1B3runEv:0000000000000000 .LVL229
     /tmp/ccBYUnRY.s:2308   .text._ZN19PeriodicThreadsTest1B3runEv:0000000000000018 .LVL230
     /tmp/ccBYUnRY.s:2345   .text._ZN19PeriodicThreadsTest1B3runEv:000000000000005c .LVL234
     /tmp/ccBYUnRY.s:1971   .text._ZN19PeriodicThreadsTest1A18periodicActivationEv:0000000000000000 .LVL196
     /tmp/ccBYUnRY.s:1986   .text._ZN19PeriodicThreadsTest1A18periodicActivationEv:0000000000000020 .LVL197
     /tmp/ccBYUnRY.s:2232   .text._ZN19PeriodicThreadsTest1A3runEv:0000000000000000 .LVL223
     /tmp/ccBYUnRY.s:2244   .text._ZN19PeriodicThreadsTest1A3runEv:0000000000000018 .LVL224
     /tmp/ccBYUnRY.s:2281   .text._ZN19PeriodicThreadsTest1A3runEv:000000000000005c .LVL228
     /tmp/ccBYUnRY.s:5755   .text:0000000000001a28 .LVL640
     /tmp/ccBYUnRY.s:5830   .text:0000000000001ae4 .LVL652
     /tmp/ccBYUnRY.s:6129   .text:0000000000001d24 .LVL692
     /tmp/ccBYUnRY.s:6133   .text:0000000000001d28 .LVL693
     /tmp/ccBYUnRY.s:5737   .text:00000000000019f8 .LVL636
     /tmp/ccBYUnRY.s:6113   .text:0000000000001d04 .LVL691
     /tmp/ccBYUnRY.s:5822   .text:0000000000001ad4 .LVL650
     /tmp/ccBYUnRY.s:6097   .text:0000000000001cec .LVL690
     /tmp/ccBYUnRY.s:5847   .text:0000000000001b10 .LVL655
     /tmp/ccBYUnRY.s:5859   .text:0000000000001b2c .LVL657
     /tmp/ccBYUnRY.s:5861   .text:0000000000001b30 .LVL658
     /tmp/ccBYUnRY.s:5896   .text:0000000000001b78 .LVL662
     /tmp/ccBYUnRY.s:5948   .text:0000000000001bd8 .LVL669
     /tmp/ccBYUnRY.s:5956   .text:0000000000001be8 .LVL670
     /tmp/ccBYUnRY.s:5995   .text:0000000000001c3c .LVL674
     /tmp/ccBYUnRY.s:6004   .text:0000000000001c48 .LVL676
     /tmp/ccBYUnRY.s:6179   .text:0000000000001d98 .LVL703
     /tmp/ccBYUnRY.s:6018   .text:0000000000001c54 .LVL678
     /tmp/ccBYUnRY.s:6028   .text:0000000000001c6c .LVL680
     /tmp/ccBYUnRY.s:6030   .text:0000000000001c70 .LVL681
     /tmp/ccBYUnRY.s:6047   .text:0000000000001c8c .LVL683
     /tmp/ccBYUnRY.s:6049   .text:0000000000001c90 .LVL684
     /tmp/ccBYUnRY.s:5840   .text:0000000000001afc .LVL654
     /tmp/ccBYUnRY.s:5851   .text:0000000000001b14 .LVL656
     /tmp/ccBYUnRY.s:5884   .text:0000000000001b60 .LVL660
     /tmp/ccBYUnRY.s:6156   .text:0000000000001d60 .LVL698
     /tmp/ccBYUnRY.s:5922   .text:0000000000001ba8 .LVL665
     /tmp/ccBYUnRY.s:5933   .text:0000000000001bc0 .LVL667
     /tmp/ccBYUnRY.s:1847   .text._ZN24ConsumerProducerAsyncCPP8Consumer3runEv:0000000000000000 .LVL180
     /tmp/ccBYUnRY.s:1868   .text._ZN24ConsumerProducerAsyncCPP8Consumer3runEv:0000000000000028 .LVL182
     /tmp/ccBYUnRY.s:1953   .text._ZN24ConsumerProducerAsyncCPP8Consumer3runEv:00000000000000c4 .LVL194
     /tmp/ccBYUnRY.s:1864   .text._ZN24ConsumerProducerAsyncCPP8Consumer3runEv:0000000000000020 .LVL181
     /tmp/ccBYUnRY.s:1894   .text._ZN24ConsumerProducerAsyncCPP8Consumer3runEv:0000000000000058 .LVL185
     /tmp/ccBYUnRY.s:1905   .text._ZN24ConsumerProducerAsyncCPP8Consumer3runEv:000000000000006c .LVL188
     /tmp/ccBYUnRY.s:1956   .text._ZN24ConsumerProducerAsyncCPP8Consumer3runEv:00000000000000c8 .LVL195
     /tmp/ccBYUnRY.s:1898   .text._ZN24ConsumerProducerAsyncCPP8Consumer3runEv:000000000000005c .LVL186
     /tmp/ccBYUnRY.s:1922   .text._ZN24ConsumerProducerAsyncCPP8Consumer3runEv:0000000000000088 .LVL190
     /tmp/ccBYUnRY.s:2424   .text._ZN24ConsumerProducerAsyncCPP8Producer3runEv:0000000000000000 .LVL241
     /tmp/ccBYUnRY.s:2442   .text._ZN24ConsumerProducerAsyncCPP8Producer3runEv:0000000000000020 .LVL243
     /tmp/ccBYUnRY.s:2491   .text._ZN24ConsumerProducerAsyncCPP8Producer3runEv:0000000000000088 .LVL248
     /tmp/ccBYUnRY.s:2439   .text._ZN24ConsumerProducerAsyncCPP8Producer3runEv:000000000000001c .LVL242
     /tmp/ccBYUnRY.s:2461   .text._ZN24ConsumerProducerAsyncCPP8Producer3runEv:000000000000004c .LVL245
     /tmp/ccBYUnRY.s:2494   .text._ZN24ConsumerProducerAsyncCPP8Producer3runEv:000000000000008c .LVL249
     /tmp/ccBYUnRY.s:1767   .text._ZN24ConsumerProducerAsyncCPP16ProducerKeyborad3runEv:0000000000000000 .LVL169
     /tmp/ccBYUnRY.s:1781   .text._ZN24ConsumerProducerAsyncCPP16ProducerKeyborad3runEv:0000000000000018 .LVL170
     /tmp/ccBYUnRY.s:1832   .text._ZN24ConsumerProducerAsyncCPP16ProducerKeyborad3runEv:000000000000007c .LVL179
     /tmp/ccBYUnRY.s:1790   .text._ZN24ConsumerProducerAsyncCPP16ProducerKeyborad3runEv:0000000000000024 .LVL172
     /tmp/ccBYUnRY.s:1803   .text._ZN24ConsumerProducerAsyncCPP16ProducerKeyborad3runEv:0000000000000040 .LVL174
     /tmp/ccBYUnRY.s:1813   .text._ZN24ConsumerProducerAsyncCPP16ProducerKeyborad3runEv:0000000000000054 .LVL175
GAS LISTING /tmp/ccBYUnRY.s 			page 244


     /tmp/ccBYUnRY.s:1815   .text._ZN24ConsumerProducerAsyncCPP16ProducerKeyborad3runEv:0000000000000058 .LVL176
     /tmp/ccBYUnRY.s:5627   .text:0000000000001928 .LVL628
     /tmp/ccBYUnRY.s:5632   .text:0000000000001930 .LVL629
     /tmp/ccBYUnRY.s:5672   .text:0000000000001984 .LVL632
     /tmp/ccBYUnRY.s:2144   .text:00000000000003dc .LVL214
     /tmp/ccBYUnRY.s:2164   .text:00000000000003fc .LVL216
     /tmp/ccBYUnRY.s:2160   .text:00000000000003f8 .LVL215
     /tmp/ccBYUnRY.s:2200   .text:0000000000000450 .LVL222
     /tmp/ccBYUnRY.s:2169   .text:0000000000000400 .LVL217
     /tmp/ccBYUnRY.s:5077   .text:0000000000001558 .LVL560
     /tmp/ccBYUnRY.s:5152   .text:0000000000001614 .LVL572
     /tmp/ccBYUnRY.s:5462   .text:0000000000001878 .LVL611
     /tmp/ccBYUnRY.s:5466   .text:000000000000187c .LVL612
     /tmp/ccBYUnRY.s:5059   .text:0000000000001528 .LVL556
     /tmp/ccBYUnRY.s:5444   .text:0000000000001854 .LVL610
     /tmp/ccBYUnRY.s:5478   .text:0000000000001898 .LVL615
     /tmp/ccBYUnRY.s:5144   .text:0000000000001604 .LVL570
     /tmp/ccBYUnRY.s:5430   .text:0000000000001840 .LVL609
     /tmp/ccBYUnRY.s:5169   .text:0000000000001640 .LVL575
     /tmp/ccBYUnRY.s:5182   .text:000000000000165c .LVL577
     /tmp/ccBYUnRY.s:5224   .text:00000000000016b4 .LVL582
     /tmp/ccBYUnRY.s:5184   .text:0000000000001660 .LVL578
     /tmp/ccBYUnRY.s:5237   .text:00000000000016c8 .LVL584
     /tmp/ccBYUnRY.s:5352   .text:00000000000017a8 .LVL597
     /tmp/ccBYUnRY.s:5502   .text:00000000000018d0 .LVL621
     /tmp/ccBYUnRY.s:5515   .text:00000000000018ec .LVL624
     /tmp/ccBYUnRY.s:5245   .text:00000000000016d8 .LVL585
     /tmp/ccBYUnRY.s:5296   .text:0000000000001748 .LVL589
     /tmp/ccBYUnRY.s:5305   .text:0000000000001754 .LVL591
     /tmp/ccBYUnRY.s:5323   .text:0000000000001774 .LVL593
     /tmp/ccBYUnRY.s:5334   .text:000000000000178c .LVL595
     /tmp/ccBYUnRY.s:5363   .text:00000000000017c0 .LVL599
     /tmp/ccBYUnRY.s:5365   .text:00000000000017c4 .LVL600
     /tmp/ccBYUnRY.s:5371   .text:00000000000017c8 .LVL601
     /tmp/ccBYUnRY.s:5373   .text:00000000000017cc .LVL602
     /tmp/ccBYUnRY.s:5162   .text:000000000000162c .LVL574
     /tmp/ccBYUnRY.s:5174   .text:0000000000001644 .LVL576
     /tmp/ccBYUnRY.s:5212   .text:000000000000169c .LVL580
     /tmp/ccBYUnRY.s:5490   .text:00000000000018b4 .LVL618
     /tmp/ccBYUnRY.s:4824   .text:00000000000013c8 .LVL532
     /tmp/ccBYUnRY.s:4849   .text:00000000000013f8 .LVL534
     /tmp/ccBYUnRY.s:4952   .text:00000000000014b0 .LVL549
     /tmp/ccBYUnRY.s:4949   .text:00000000000014ac .LVL548
     /tmp/ccBYUnRY.s:4844   .text:00000000000013f0 .LVL533
     /tmp/ccBYUnRY.s:4857   .text:0000000000001404 .LVL536
     /tmp/ccBYUnRY.s:4880   .text:0000000000001430 .LVL539
     /tmp/ccBYUnRY.s:4902   .text:0000000000001458 .LVL542
     /tmp/ccBYUnRY.s:4955   .text:00000000000014b4 .LVL550
     /tmp/ccBYUnRY.s:4884   .text:0000000000001434 .LVL540
     /tmp/ccBYUnRY.s:4919   .text:0000000000001474 .LVL544
     /tmp/ccBYUnRY.s:4970   .text._ZN23ConsumerProducerSyncCPP8Consumer3runEv:0000000000000000 .LVL551
     /tmp/ccBYUnRY.s:4701   .text:0000000000001334 .LVL520
     /tmp/ccBYUnRY.s:4721   .text:0000000000001358 .LVL522
     /tmp/ccBYUnRY.s:4772   .text:00000000000013bc .LVL528
     /tmp/ccBYUnRY.s:4716   .text:0000000000001350 .LVL521
     /tmp/ccBYUnRY.s:4744   .text:0000000000001388 .LVL525
     /tmp/ccBYUnRY.s:4757   .text:00000000000013a4 .LVL526
GAS LISTING /tmp/ccBYUnRY.s 			page 245


     /tmp/ccBYUnRY.s:4775   .text:00000000000013c0 .LVL529
     /tmp/ccBYUnRY.s:4790   .text._ZN23ConsumerProducerSyncCPP8Producer3runEv:0000000000000000 .LVL530
     /tmp/ccBYUnRY.s:4554   .text:0000000000001274 .LVL502
     /tmp/ccBYUnRY.s:4578   .text:00000000000012a0 .LVL504
     /tmp/ccBYUnRY.s:4652   .text:000000000000132c .LVL517
     /tmp/ccBYUnRY.s:4646   .text:0000000000001324 .LVL515
     /tmp/ccBYUnRY.s:4572   .text:0000000000001298 .LVL503
     /tmp/ccBYUnRY.s:4592   .text:00000000000012b4 .LVL507
     /tmp/ccBYUnRY.s:4618   .text:00000000000012ec .LVL510
     /tmp/ccBYUnRY.s:4628   .text:0000000000001300 .LVL511
     /tmp/ccBYUnRY.s:4630   .text:0000000000001304 .LVL512
     /tmp/ccBYUnRY.s:4605   .text:00000000000012d0 .LVL509
     /tmp/ccBYUnRY.s:4649   .text:0000000000001328 .LVL516
     /tmp/ccBYUnRY.s:4667   .text._ZN23ConsumerProducerSyncCPP16ProducerKeyboard3runEv:0000000000000000 .LVL518
     /tmp/ccBYUnRY.s:4272   .text:0000000000001034 .LVL467
     /tmp/ccBYUnRY.s:4393   .text:0000000000001168 .LVL484
     /tmp/ccBYUnRY.s:4507   .text:0000000000001258 .LVL498
     /tmp/ccBYUnRY.s:4511   .text:000000000000125c .LVL499
     /tmp/ccBYUnRY.s:4254   .text:0000000000001004 .LVL463
     /tmp/ccBYUnRY.s:4495   .text:0000000000001240 .LVL497
     /tmp/ccBYUnRY.s:4339   .text:00000000000010e0 .LVL477
     /tmp/ccBYUnRY.s:4481   .text:000000000000122c .LVL496
     /tmp/ccBYUnRY.s:4353   .text:0000000000001108 .LVL479
     /tmp/ccBYUnRY.s:4366   .text:0000000000001124 .LVL481
     /tmp/ccBYUnRY.s:4368   .text:0000000000001128 .LVL482
     /tmp/ccBYUnRY.s:4395   .text:000000000000116c .LVL485
     /tmp/ccBYUnRY.s:4447   .text:00000000000011e0 .LVL489
     /tmp/ccBYUnRY.s:4458   .text:00000000000011f8 .LVL491
     /tmp/ccBYUnRY.s:4460   .text:00000000000011fc .LVL492
     /tmp/ccBYUnRY.s:1631   .text:00000000000002fc .LVL151
     /tmp/ccBYUnRY.s:1653   .text:0000000000000324 .LVL153
     /tmp/ccBYUnRY.s:1749   .text:00000000000003d0 .LVL167
     /tmp/ccBYUnRY.s:1648   .text:000000000000031c .LVL152
     /tmp/ccBYUnRY.s:1661   .text:0000000000000330 .LVL155
     /tmp/ccBYUnRY.s:1684   .text:000000000000035c .LVL158
     /tmp/ccBYUnRY.s:1706   .text:0000000000000384 .LVL161
     /tmp/ccBYUnRY.s:1752   .text:00000000000003d4 .LVL168
     /tmp/ccBYUnRY.s:1688   .text:0000000000000360 .LVL159
     /tmp/ccBYUnRY.s:1721   .text:000000000000039c .LVL163
     /tmp/ccBYUnRY.s:1543   .text:0000000000000268 .LVL141
     /tmp/ccBYUnRY.s:1563   .text:000000000000028c .LVL143
     /tmp/ccBYUnRY.s:1614   .text:00000000000002f0 .LVL149
     /tmp/ccBYUnRY.s:1558   .text:0000000000000284 .LVL142
     /tmp/ccBYUnRY.s:1586   .text:00000000000002bc .LVL146
     /tmp/ccBYUnRY.s:1599   .text:00000000000002d8 .LVL147
     /tmp/ccBYUnRY.s:1617   .text:00000000000002f4 .LVL150
     /tmp/ccBYUnRY.s:1438   .text:00000000000001b8 .LVL126
     /tmp/ccBYUnRY.s:1459   .text:00000000000001dc .LVL128
     /tmp/ccBYUnRY.s:1526   .text:000000000000025c .LVL139
     /tmp/ccBYUnRY.s:1453   .text:00000000000001d4 .LVL127
     /tmp/ccBYUnRY.s:1473   .text:00000000000001f0 .LVL131
     /tmp/ccBYUnRY.s:1499   .text:0000000000000228 .LVL134
     /tmp/ccBYUnRY.s:1508   .text:0000000000000238 .LVL135
     /tmp/ccBYUnRY.s:1510   .text:000000000000023c .LVL136
     /tmp/ccBYUnRY.s:1486   .text:000000000000020c .LVL133
     /tmp/ccBYUnRY.s:1529   .text:0000000000000260 .LVL140
     /tmp/ccBYUnRY.s:3990   .text:0000000000000e90 .LVL440
GAS LISTING /tmp/ccBYUnRY.s 			page 246


     /tmp/ccBYUnRY.s:4005   .text:0000000000000eb4 .LVL442
     /tmp/ccBYUnRY.s:4007   .text:0000000000000eb8 .LVL443
     /tmp/ccBYUnRY.s:4032   .text:0000000000000ef4 .LVL445
     /tmp/ccBYUnRY.s:4045   .text:0000000000000f08 .LVL448
     /tmp/ccBYUnRY.s:4053   .text:0000000000000f18 .LVL449
     /tmp/ccBYUnRY.s:4034   .text:0000000000000ef8 .LVL446
     /tmp/ccBYUnRY.s:4055   .text:0000000000000f1c .LVL450
     /tmp/ccBYUnRY.s:4110   .text:0000000000000f98 .LVL459
     /tmp/ccBYUnRY.s:3881   .text:0000000000000dbc .LVL421
     /tmp/ccBYUnRY.s:3891   .text:0000000000000dd0 .LVL423
     /tmp/ccBYUnRY.s:3909   .text:0000000000000df4 .LVL426
     /tmp/ccBYUnRY.s:3919   .text:0000000000000e08 .LVL428
     /tmp/ccBYUnRY.s:3937   .text:0000000000000e2c .LVL431
     /tmp/ccBYUnRY.s:3947   .text:0000000000000e40 .LVL433
     /tmp/ccBYUnRY.s:3965   .text:0000000000000e64 .LVL436
     /tmp/ccBYUnRY.s:3975   .text:0000000000000e78 .LVL438
     /tmp/ccBYUnRY.s:3668   .text:0000000000000c4c .LVL393
     /tmp/ccBYUnRY.s:3686   .text:0000000000000c6c .LVL395
     /tmp/ccBYUnRY.s:3682   .text:0000000000000c64 .LVL394
     /tmp/ccBYUnRY.s:3707   .text:0000000000000ca4 .LVL399
     /tmp/ccBYUnRY.s:3709   .text:0000000000000ca8 .LVL400
     /tmp/ccBYUnRY.s:3777   .text:0000000000000d4c .LVL412
     /tmp/ccBYUnRY.s:3779   .text:0000000000000d50 .LVL413
     /tmp/ccBYUnRY.s:3806   .text:0000000000000d88 .LVL416
     /tmp/ccBYUnRY.s:3737   .text:0000000000000cdc .LVL404
     /tmp/ccBYUnRY.s:3741   .text:0000000000000ce4 .LVL405
     /tmp/ccBYUnRY.s:3809   .text:0000000000000d8c .LVL417
     /tmp/ccBYUnRY.s:3452   .text:0000000000000acc .LVL362
     /tmp/ccBYUnRY.s:3470   .text:0000000000000aec .LVL364
     /tmp/ccBYUnRY.s:3466   .text:0000000000000ae4 .LVL363
     /tmp/ccBYUnRY.s:3491   .text:0000000000000b24 .LVL368
     /tmp/ccBYUnRY.s:3493   .text:0000000000000b28 .LVL369
     /tmp/ccBYUnRY.s:3587   .text:0000000000000c04 .LVL385
     /tmp/ccBYUnRY.s:3589   .text:0000000000000c08 .LVL386
     /tmp/ccBYUnRY.s:3616   .text:0000000000000c40 .LVL389
     /tmp/ccBYUnRY.s:3522   .text:0000000000000b50 .LVL372
     /tmp/ccBYUnRY.s:3547   .text:0000000000000b94 .LVL377
     /tmp/ccBYUnRY.s:3551   .text:0000000000000b9c .LVL378
     /tmp/ccBYUnRY.s:3619   .text:0000000000000c44 .LVL390
     /tmp/ccBYUnRY.s:3288   .text:00000000000009f8 .LVL344
     /tmp/ccBYUnRY.s:3307   .text:0000000000000a18 .LVL346
     /tmp/ccBYUnRY.s:3302   .text:0000000000000a10 .LVL345
     /tmp/ccBYUnRY.s:3403   .text:0000000000000ac4 .LVL359
     /tmp/ccBYUnRY.s:3347   .text:0000000000000a4c .LVL352
     /tmp/ccBYUnRY.s:3375   .text:0000000000000a90 .LVL356
     /tmp/ccBYUnRY.s:3330   .text:0000000000000a34 .LVL349
     /tmp/ccBYUnRY.s:3339   .text:0000000000000a48 .LVL351
     /tmp/ccBYUnRY.s:3128   .text:000000000000092c .LVL327
     /tmp/ccBYUnRY.s:3147   .text:000000000000094c .LVL329
     /tmp/ccBYUnRY.s:3142   .text:0000000000000944 .LVL328
     /tmp/ccBYUnRY.s:3239   .text:00000000000009f0 .LVL341
     /tmp/ccBYUnRY.s:3187   .text:0000000000000980 .LVL335
     /tmp/ccBYUnRY.s:3215   .text:00000000000009c4 .LVL339
     /tmp/ccBYUnRY.s:3170   .text:0000000000000968 .LVL332
     /tmp/ccBYUnRY.s:3179   .text:000000000000097c .LVL334
     /tmp/ccBYUnRY.s:3824   .text._ZN14ThreadsTestCPP7WorkerD3runEv:0000000000000000 .LVL418
     /tmp/ccBYUnRY.s:3634   .text._ZN14ThreadsTestCPP7WorkerC3runEv:0000000000000000 .LVL391
GAS LISTING /tmp/ccBYUnRY.s 			page 247


     /tmp/ccBYUnRY.s:3418   .text._ZN14ThreadsTestCPP7WorkerB3runEv:0000000000000000 .LVL360
     /tmp/ccBYUnRY.s:3254   .text._ZN14ThreadsTestCPP7WorkerA3runEv:0000000000000000 .LVL342
     /tmp/ccBYUnRY.s:3057   .text:00000000000008b8 .LVL320
     /tmp/ccBYUnRY.s:3080   .text:00000000000008e8 .LVL321
     /tmp/ccBYUnRY.s:3104   .text:0000000000000914 .LVL324
     /tmp/ccBYUnRY.s:3110   .text:0000000000000920 .LVL325
     /tmp/ccBYUnRY.s:2792   .text:0000000000000674 .LVL286
     /tmp/ccBYUnRY.s:2810   .text:0000000000000694 .LVL288
     /tmp/ccBYUnRY.s:2806   .text:000000000000068c .LVL287
     /tmp/ccBYUnRY.s:2831   .text:00000000000006cc .LVL292
     /tmp/ccBYUnRY.s:2833   .text:00000000000006d0 .LVL293
     /tmp/ccBYUnRY.s:2901   .text:0000000000000774 .LVL305
     /tmp/ccBYUnRY.s:2903   .text:0000000000000778 .LVL306
     /tmp/ccBYUnRY.s:2930   .text:00000000000007b0 .LVL309
     /tmp/ccBYUnRY.s:2861   .text:0000000000000704 .LVL297
     /tmp/ccBYUnRY.s:2865   .text:000000000000070c .LVL298
     /tmp/ccBYUnRY.s:2933   .text:00000000000007b4 .LVL310
     /tmp/ccBYUnRY.s:2597   .text:00000000000004f4 .LVL257
     /tmp/ccBYUnRY.s:2615   .text:0000000000000514 .LVL259
     /tmp/ccBYUnRY.s:2611   .text:000000000000050c .LVL258
     /tmp/ccBYUnRY.s:2636   .text:000000000000054c .LVL263
     /tmp/ccBYUnRY.s:2638   .text:0000000000000550 .LVL264
     /tmp/ccBYUnRY.s:2732   .text:000000000000062c .LVL280
     /tmp/ccBYUnRY.s:2734   .text:0000000000000630 .LVL281
     /tmp/ccBYUnRY.s:2761   .text:0000000000000668 .LVL284
     /tmp/ccBYUnRY.s:2667   .text:0000000000000578 .LVL267
     /tmp/ccBYUnRY.s:2692   .text:00000000000005bc .LVL272
     /tmp/ccBYUnRY.s:2696   .text:00000000000005c4 .LVL273
     /tmp/ccBYUnRY.s:2764   .text:000000000000066c .LVL285
     /tmp/ccBYUnRY.s:183    .text:00000000000000e4 .LVL16
     /tmp/ccBYUnRY.s:202    .text:0000000000000104 .LVL18
     /tmp/ccBYUnRY.s:197    .text:00000000000000fc .LVL17
     /tmp/ccBYUnRY.s:298    .text:00000000000001b0 .LVL31
     /tmp/ccBYUnRY.s:242    .text:0000000000000138 .LVL24
     /tmp/ccBYUnRY.s:270    .text:000000000000017c .LVL28
     /tmp/ccBYUnRY.s:225    .text:0000000000000120 .LVL21
     /tmp/ccBYUnRY.s:234    .text:0000000000000134 .LVL23
     /tmp/ccBYUnRY.s:50     .text:0000000000000018 .LVL1
     /tmp/ccBYUnRY.s:69     .text:0000000000000038 .LVL3
     /tmp/ccBYUnRY.s:64     .text:0000000000000030 .LVL2
     /tmp/ccBYUnRY.s:161    .text:00000000000000dc .LVL15
     /tmp/ccBYUnRY.s:109    .text:000000000000006c .LVL9
     /tmp/ccBYUnRY.s:137    .text:00000000000000b0 .LVL13
     /tmp/ccBYUnRY.s:92     .text:0000000000000054 .LVL6
     /tmp/ccBYUnRY.s:101    .text:0000000000000068 .LVL8
     /tmp/ccBYUnRY.s:2509   .text:0000000000000480 .LVL250
     /tmp/ccBYUnRY.s:2532   .text:00000000000004b0 .LVL251
     /tmp/ccBYUnRY.s:2556   .text:00000000000004dc .LVL254
     /tmp/ccBYUnRY.s:2562   .text:00000000000004e8 .LVL255
     /tmp/ccBYUnRY.s:7054   .debug_info:0000000000000000 .Ldebug_info0
     /tmp/ccBYUnRY.s:5      .text:0000000000000000 .Ltext0
     /tmp/ccBYUnRY.s:7046   .text:0000000000002100 .Letext0
     /tmp/ccBYUnRY.s:72     .text:0000000000000038 .LBB120
     /tmp/ccBYUnRY.s:105    .text:0000000000000068 .LBE120
     /tmp/ccBYUnRY.s:133    .text:00000000000000a8 .LBB124
     /tmp/ccBYUnRY.s:139    .text:00000000000000b0 .LBE124
     /tmp/ccBYUnRY.s:205    .text:0000000000000104 .LBB128
GAS LISTING /tmp/ccBYUnRY.s 			page 248


     /tmp/ccBYUnRY.s:238    .text:0000000000000134 .LBE128
     /tmp/ccBYUnRY.s:266    .text:0000000000000174 .LBB132
     /tmp/ccBYUnRY.s:272    .text:000000000000017c .LBE132
     /tmp/ccBYUnRY.s:1655   .text:0000000000000324 .LBB179
     /tmp/ccBYUnRY.s:1669   .text:000000000000033c .LBE179
     /tmp/ccBYUnRY.s:1674   .text:0000000000000348 .LBB180
     /tmp/ccBYUnRY.s:1711   .text:000000000000038c .LBE180
     /tmp/ccBYUnRY.s:1870   .text._ZN24ConsumerProducerAsyncCPP8Consumer3runEv:0000000000000028 .LBB182
     /tmp/ccBYUnRY.s:1877   .text._ZN24ConsumerProducerAsyncCPP8Consumer3runEv:0000000000000034 .LBE182
     /tmp/ccBYUnRY.s:1882   .text._ZN24ConsumerProducerAsyncCPP8Consumer3runEv:0000000000000040 .LBB183
     /tmp/ccBYUnRY.s:1910   .text._ZN24ConsumerProducerAsyncCPP8Consumer3runEv:0000000000000074 .LBE183
     /tmp/ccBYUnRY.s:3150   .text:000000000000094c .LBB187
     /tmp/ccBYUnRY.s:3183   .text:000000000000097c .LBE187
     /tmp/ccBYUnRY.s:3211   .text:00000000000009bc .LBB191
     /tmp/ccBYUnRY.s:3217   .text:00000000000009c4 .LBE191
     /tmp/ccBYUnRY.s:3310   .text:0000000000000a18 .LBB195
     /tmp/ccBYUnRY.s:3343   .text:0000000000000a48 .LBE195
     /tmp/ccBYUnRY.s:3371   .text:0000000000000a88 .LBB199
     /tmp/ccBYUnRY.s:3377   .text:0000000000000a90 .LBE199
     /tmp/ccBYUnRY.s:4851   .text:00000000000013f8 .LBB213
     /tmp/ccBYUnRY.s:4865   .text:0000000000001410 .LBE213
     /tmp/ccBYUnRY.s:4870   .text:000000000000141c .LBB214
     /tmp/ccBYUnRY.s:4907   .text:0000000000001460 .LBE214
     /tmp/ccBYUnRY.s:5233   .text:00000000000016c0 .LBB218
     /tmp/ccBYUnRY.s:5343   .text:000000000000179c .LBE218
     /tmp/ccBYUnRY.s:5503   .text:00000000000018d0 .LBB227
     /tmp/ccBYUnRY.s:5525   .text:0000000000001904 .LBE227
     /tmp/ccBYUnRY.s:5247   .text:00000000000016d8 .LBE219
     /tmp/ccBYUnRY.s:5298   .text:0000000000001748 .LBB222
     /tmp/ccBYUnRY.s:5308   .text:0000000000001754 .LBE222
     /tmp/ccBYUnRY.s:5944   .text:0000000000001bd0 .LBB233
     /tmp/ccBYUnRY.s:6008   .text:0000000000001c48 .LBE233
     /tmp/ccBYUnRY.s:6180   .text:0000000000001d98 .LBB241
     /tmp/ccBYUnRY.s:6190   .text:0000000000001db0 .LBE241
     /tmp/ccBYUnRY.s:5958   .text:0000000000001be8 .LBE234
     /tmp/ccBYUnRY.s:5997   .text:0000000000001c3c .LBB237
     /tmp/ccBYUnRY.s:6007   .text:0000000000001c48 .LBE237
     /tmp/ccBYUnRY.s:6014   .text:0000000000001c50 .LBB238
     /tmp/ccBYUnRY.s:6032   .text:0000000000001c70 .LBE238
     /tmp/ccBYUnRY.s:6044   .text:0000000000001c88 .LBB239
     /tmp/ccBYUnRY.s:6051   .text:0000000000001c90 .LBE239
     /tmp/ccBYUnRY.s:6411   .text:0000000000001ebc .LBB248
     /tmp/ccBYUnRY.s:6415   .text:0000000000001ec0 .LBE248
     /tmp/ccBYUnRY.s:6422   .text:0000000000001ec8 .LBB251
     /tmp/ccBYUnRY.s:6466   .text:0000000000001f0c .LBE251
     /tmp/ccBYUnRY.s:6423   .text:0000000000001ec8 .LBB249
     /tmp/ccBYUnRY.s:6442   .text:0000000000001ee8 .LBE249
     /tmp/ccBYUnRY.s:6450   .text:0000000000001ef4 .LBB250
     /tmp/ccBYUnRY.s:6465   .text:0000000000001f0c .LBE250
     /tmp/ccBYUnRY.s:4120   .gcc_except_table:0000000000000000 .LLSDA77
     /tmp/ccBYUnRY.s:4524   .gcc_except_table:00000000000000ae .LLSDA81
     /tmp/ccBYUnRY.s:5529   .gcc_except_table:00000000000000e6 .LLSDA97
     /tmp/ccBYUnRY.s:6194   .gcc_except_table:00000000000001bb .LLSDA112
     /tmp/ccBYUnRY.s:6591   .gcc_except_table:0000000000000290 .LLSDA132
                           .group:0000000000000000 _ZN14ThreadsTestCPP7WorkerAD5Ev
                           .group:0000000000000000 _ZN14ThreadsTestCPP7WorkerBD5Ev
                           .group:0000000000000000 _ZN14ThreadsTestCPP7WorkerCD5Ev
GAS LISTING /tmp/ccBYUnRY.s 			page 249


                           .group:0000000000000000 _ZN14ThreadsTestCPP7WorkerDD5Ev
                           .group:0000000000000000 _ZN23ConsumerProducerSyncCPP8ConsumerD5Ev
                           .group:0000000000000000 _ZN23ConsumerProducerSyncCPP8ProducerD5Ev
                           .group:0000000000000000 _ZN23ConsumerProducerSyncCPP16ProducerKeyboardD5Ev
                           .group:0000000000000000 _ZN24ConsumerProducerAsyncCPP8ConsumerD5Ev
                           .group:0000000000000000 _ZN24ConsumerProducerAsyncCPP16ProducerKeyboradD5Ev
                           .group:0000000000000000 _ZN24ConsumerProducerAsyncCPP8ProducerD5Ev
                           .group:0000000000000000 _ZN19PeriodicThreadsTest1AD5Ev
                           .group:0000000000000000 _ZN19PeriodicThreadsTest1BD5Ev
                           .group:0000000000000000 _ZN19PeriodicThreadsTest1CD5Ev

UNDEFINED SYMBOLS
_Z15thread_dispatchv
_Z11printStringPKc
_Z8printIntiii
_ZN6ThreadD2Ev
_ZdlPv
_ZTV14PeriodicThread
_Z4getcv
_ZN13BufferTestCPP9BufferCPP3putEi
_Z10sem_signalP3sem
_Z4putcc
_ZN13BufferTestCPP9BufferCPP3getEv
_ZN13BufferTestCPP9BufferCPP6getCntEv
_ZN9Semaphore6signalEv
_ZN7Console4putcEc
_ZN9Semaphore4waitEv
_Z10time_sleepm
_ZN6Thread5sleepEm
_Z13thread_createPP6threadPFvPvES2_
_Znwm
_ZN6ThreadC2Ev
_ZN6Thread5startEv
_ZN6Thread8dispatchEv
_Unwind_Resume
__gxx_personality_v0
_Z9getStringPci
_Z11stringToIntPKc
_ZN13BufferTestCPP9BufferCPPC1Ei
_Z8sem_openPP3semj
_Z8sem_waitP3sem
_Z9sem_closeP3sem
_ZN13BufferTestCPP9BufferCPPD1Ev
_ZN9SemaphoreC1Ej
_ZN14PeriodicThreadC2Em
_ZN14PeriodicThread17endPeriodicThreadEv
_ZN5Riscv14supervisorTrapEv
_ZN3TCB13runningThreadE
_Z12idleFunctionPv
_Z24putcKernelThreadFunctionPv
_ZN12KernelBuffer15putcGetInstanceEv
_ZN12KernelBuffer19getNumberOfElementsEv
_ZN12KernelBuffer15getcGetInstanceEv
_ZN12KernelBufferD1Ev
_ZN12KernelBufferdlEPv
