GAS LISTING /tmp/ccBYUnRY.s 			page 1


   1              		.file	"main.cpp"
   2              		.option pic
   3              		.option norelax
   4              		.text
   5              	.Ltext0:
   6              		.align	2
   7              		.globl	_Z8userMainPv
   9              	_Z8userMainPv:
  10              	.LFB133:
  11              		.file 1 "src/Code/main.cpp"
   1:src/Code/main.cpp **** #include "../../h/Code/InterruptHandling/Riscv.hpp"
   2:src/Code/main.cpp **** #include "../../h/Code/Thread/TCB.hpp"
   3:src/Code/main.cpp **** #include "../../h/Code/Console/KernelThreadFunctions.hpp"
   4:src/Code/main.cpp **** #include "../../h/Code/Console/KernelBuffer.hpp"
   5:src/Code/main.cpp **** #include "../../h/Testing/Testing_OS1/Threads_C_API_Test.hpp"
   6:src/Code/main.cpp **** #include "../../h/Testing/Testing_OS1/Threads_CPP_API_Test.hpp"
   7:src/Code/main.cpp **** #include "../../h/Testing/Testing_OS1/Consumer_Producer_C_API_Test.hpp"
   8:src/Code/main.cpp **** #include "../../h/Testing/Testing_OS1/Consumer_Producer_CPP_Sync_API_Test.hpp"
   9:src/Code/main.cpp **** #include "../../h/Testing/Testing_OS1/ThreadSleep_C_API_Test.hpp"
  10:src/Code/main.cpp **** #include "../../h/Testing/Testing_OS1/Consumer_Producer_CPP_API_Test.hpp"
  11:src/Code/main.cpp **** #include "../../h/Testing/Testing_OS1/Periodic_Threads_CPP_API_Test.hpp"
  12:src/Code/main.cpp **** 
  13:src/Code/main.cpp **** void userMain(void* arg) {
  12              		.loc 1 13 26
  13              		.cfi_startproc
  14              	.LVL0:
  15 0000 130101FF 		addi	sp,sp,-16
  16              		.cfi_def_cfa_offset 16
  17 0004 23348100 		sd	s0,8(sp)
  18              		.cfi_offset 8, -8
  19 0008 13040101 		addi	s0,sp,16
  20              		.cfi_def_cfa 8, 0
  14:src/Code/main.cpp ****     //ThreadsTestC::Threads_C_API_test(); // niti C API, sinhrona promena konteksta (prosao)
  15:src/Code/main.cpp ****     //ThreadsTestCPP::Threads_CPP_API_test(); // niti CPP API, sinhrona promena konteksta (prosao)
  16:src/Code/main.cpp **** 
  17:src/Code/main.cpp ****     //ConsumerProducerSyncC::Consumer_Producer_Sync_C_API_Test(); // kompletan C API sa semaforima,
  18:src/Code/main.cpp ****     //ConsumerProducerSyncCPP::Consumer_Producer_Sync_CPP_API_Test(); // kompletan CPP API sa semaf
  19:src/Code/main.cpp **** 
  20:src/Code/main.cpp ****     //ThreadSleepTest::Thread_Sleep_C_API_Test(); // uspavljivanje i budjenje niti, C API test (pro
  21:src/Code/main.cpp ****     //ConsumerProducerAsyncCPP::Consumer_Producer_Async_CPP_API_Test(); // CPP API i asinhrona prom
  22:src/Code/main.cpp **** 
  23:src/Code/main.cpp ****     //PeriodicThreadsTest::Periodic_Threads_CPP_API_Test();  // test periodicnih niti (prosao)
  24:src/Code/main.cpp **** }
  21              		.loc 1 24 1 is_stmt 0
  22 000c 03348100 		ld	s0,8(sp)
  23              		.cfi_restore 8
  24              		.cfi_def_cfa 2, 16
  25 0010 13010101 		addi	sp,sp,16
  26              		.cfi_def_cfa_offset 0
  27 0014 67800000 		jr	ra
  28              		.cfi_endproc
  29              	.LFE133:
  31              		.section	.rodata.str1.8,"aMS",@progbits,1
  32              		.align	3
  33              	.LC0:
  34 0000 413A2069 		.string	"A: i="
  34      3D00
GAS LISTING /tmp/ccBYUnRY.s 			page 2


  35 0006 0000     		.align	3
  36              	.LC1:
  37 0008 0A00     		.string	"\n"
  38 000a 00000000 		.align	3
  38      0000
  39              	.LC2:
  40 0010 41206669 		.string	"A finished!\n"
  40      6E697368 
  40      6564210A 
  40      00
  41              		.text
  42              		.align	2
  43              		.globl	_ZN12ThreadsTestC11workerBodyAEPv
  45              	_ZN12ThreadsTestC11workerBodyAEPv:
  46              	.LFB51:
  47              		.file 2 "src/Code/../../h/Testing/Testing_OS1/Threads_C_API_Test.hpp"
   1:src/Code/../../h/Testing/Testing_OS1/Threads_C_API_Test.hpp **** #ifndef THREADS_C_API_TEST_HPP
   2:src/Code/../../h/Testing/Testing_OS1/Threads_C_API_Test.hpp **** #define THREADS_C_API_TEST_HPP
   3:src/Code/../../h/Testing/Testing_OS1/Threads_C_API_Test.hpp **** 
   4:src/Code/../../h/Testing/Testing_OS1/Threads_C_API_Test.hpp **** #include "../../Code/SystemCalls/syscall_c.h"
   5:src/Code/../../h/Testing/Testing_OS1/Threads_C_API_Test.hpp **** #include "Printing.hpp"
   6:src/Code/../../h/Testing/Testing_OS1/Threads_C_API_Test.hpp **** 
   7:src/Code/../../h/Testing/Testing_OS1/Threads_C_API_Test.hpp **** namespace ThreadsTestC {
   8:src/Code/../../h/Testing/Testing_OS1/Threads_C_API_Test.hpp ****     bool finishedA = false;
   9:src/Code/../../h/Testing/Testing_OS1/Threads_C_API_Test.hpp ****     bool finishedB = false;
  10:src/Code/../../h/Testing/Testing_OS1/Threads_C_API_Test.hpp ****     bool finishedC = false;
  11:src/Code/../../h/Testing/Testing_OS1/Threads_C_API_Test.hpp ****     bool finishedD = false;
  12:src/Code/../../h/Testing/Testing_OS1/Threads_C_API_Test.hpp **** 
  13:src/Code/../../h/Testing/Testing_OS1/Threads_C_API_Test.hpp ****     uint64 fibonacci(uint64 n) {
  14:src/Code/../../h/Testing/Testing_OS1/Threads_C_API_Test.hpp ****         if (n == 0 || n == 1) { return n; }
  15:src/Code/../../h/Testing/Testing_OS1/Threads_C_API_Test.hpp ****         if (n % 10 == 0) { thread_dispatch(); }
  16:src/Code/../../h/Testing/Testing_OS1/Threads_C_API_Test.hpp ****         return fibonacci(n - 1) + fibonacci(n - 2);
  17:src/Code/../../h/Testing/Testing_OS1/Threads_C_API_Test.hpp ****     }
  18:src/Code/../../h/Testing/Testing_OS1/Threads_C_API_Test.hpp **** 
  19:src/Code/../../h/Testing/Testing_OS1/Threads_C_API_Test.hpp ****     void workerBodyA(void* arg) {
  48              		.loc 2 19 33 is_stmt 1
  49              		.cfi_startproc
  50              	.LVL1:
  51 0018 130101FE 		addi	sp,sp,-32
  52              		.cfi_def_cfa_offset 32
  53 001c 233C1100 		sd	ra,24(sp)
  54 0020 23388100 		sd	s0,16(sp)
  55 0024 23349100 		sd	s1,8(sp)
  56 0028 23302101 		sd	s2,0(sp)
  57              		.cfi_offset 1, -8
  58              		.cfi_offset 8, -16
  59              		.cfi_offset 9, -24
  60              		.cfi_offset 18, -32
  61 002c 13040102 		addi	s0,sp,32
  62              		.cfi_def_cfa 8, 0
  20:src/Code/../../h/Testing/Testing_OS1/Threads_C_API_Test.hpp ****         for (uint64 i = 0; i < 10; i++) {
  63              		.loc 2 20 9
  64              	.LVL2:
  65              	.LBB118:
  66              		.loc 2 20 21 is_stmt 0
  67 0030 13090000 		li	s2,0
  68 0034 6F008003 		j	.L9
GAS LISTING /tmp/ccBYUnRY.s 			page 3


  69              	.LVL3:
  70              	.L6:
  71              	.LBB119:
  72              	.LBB120:
  73              	.LBB121:
  21:src/Code/../../h/Testing/Testing_OS1/Threads_C_API_Test.hpp ****             printString("A: i="); printInt(i); printString("\n");
  22:src/Code/../../h/Testing/Testing_OS1/Threads_C_API_Test.hpp ****             for (uint64 j = 0; j < 10000; j++) {
  23:src/Code/../../h/Testing/Testing_OS1/Threads_C_API_Test.hpp ****                 for (uint64 k = 0; k < 30000; k++) { }
  24:src/Code/../../h/Testing/Testing_OS1/Threads_C_API_Test.hpp ****                 thread_dispatch();
  74              		.loc 2 24 17 is_stmt 1 discriminator 2
  75              		.loc 2 24 32 is_stmt 0 discriminator 2
  76 0038 97000000 		call	_Z15thread_dispatchv@plt
  76      E7800000 
  77              	.LVL4:
  78              	.LBE121:
  22:src/Code/../../h/Testing/Testing_OS1/Threads_C_API_Test.hpp ****                 for (uint64 k = 0; k < 30000; k++) { }
  79              		.loc 2 22 13 is_stmt 1 discriminator 2
  80 0040 93841400 		addi	s1,s1,1
  81              	.LVL5:
  82              	.L8:
  22:src/Code/../../h/Testing/Testing_OS1/Threads_C_API_Test.hpp ****                 for (uint64 k = 0; k < 30000; k++) { }
  83              		.loc 2 22 34 discriminator 1
  84 0044 B7270000 		li	a5,8192
  85 0048 9387F770 		addi	a5,a5,1807
  86 004c 63EE9700 		bgtu	s1,a5,.L5
  87              	.LBB123:
  88              	.LBB122:
  23:src/Code/../../h/Testing/Testing_OS1/Threads_C_API_Test.hpp ****                 thread_dispatch();
  89              		.loc 2 23 29 is_stmt 0
  90 0050 13070000 		li	a4,0
  91              	.L7:
  92              	.LVL6:
  23:src/Code/../../h/Testing/Testing_OS1/Threads_C_API_Test.hpp ****                 thread_dispatch();
  93              		.loc 2 23 38 is_stmt 1 discriminator 3
  94 0054 B7770000 		li	a5,28672
  95 0058 9387F752 		addi	a5,a5,1327
  96 005c E3EEE7FC 		bgtu	a4,a5,.L6
  23:src/Code/../../h/Testing/Testing_OS1/Threads_C_API_Test.hpp ****                 thread_dispatch();
  97              		.loc 2 23 17 discriminator 2
  98 0060 13071700 		addi	a4,a4,1
  99              	.LVL7:
 100 0064 6FF01FFF 		j	.L7
 101              	.LVL8:
 102              	.L5:
 103              	.LBE122:
 104              	.LBE123:
 105              	.LBE120:
 106              	.LBE119:
  20:src/Code/../../h/Testing/Testing_OS1/Threads_C_API_Test.hpp ****             printString("A: i="); printInt(i); printString("\n");
 107              		.loc 2 20 9 discriminator 2
 108 0068 13091900 		addi	s2,s2,1
 109              	.LVL9:
 110              	.L9:
  20:src/Code/../../h/Testing/Testing_OS1/Threads_C_API_Test.hpp ****             printString("A: i="); printInt(i); printString("\n");
 111              		.loc 2 20 30 discriminator 1
 112 006c 93079000 		li	a5,9
 113 0070 63E02705 		bgtu	s2,a5,.L4
GAS LISTING /tmp/ccBYUnRY.s 			page 4


 114              	.LBB125:
  21:src/Code/../../h/Testing/Testing_OS1/Threads_C_API_Test.hpp ****             for (uint64 j = 0; j < 10000; j++) {
 115              		.loc 2 21 13
  21:src/Code/../../h/Testing/Testing_OS1/Threads_C_API_Test.hpp ****             for (uint64 j = 0; j < 10000; j++) {
 116              		.loc 2 21 24 is_stmt 0
 117 0074 17050000 		lla	a0,.LC0
 117      13050500 
 118 007c 97000000 		call	_Z11printStringPKc@plt
 118      E7800000 
 119              	.LVL10:
  21:src/Code/../../h/Testing/Testing_OS1/Threads_C_API_Test.hpp ****             for (uint64 j = 0; j < 10000; j++) {
 120              		.loc 2 21 35 is_stmt 1
  21:src/Code/../../h/Testing/Testing_OS1/Threads_C_API_Test.hpp ****             for (uint64 j = 0; j < 10000; j++) {
 121              		.loc 2 21 43 is_stmt 0
 122 0084 13060000 		li	a2,0
 123 0088 9305A000 		li	a1,10
 124 008c 1B050900 		sext.w	a0,s2
 125 0090 97000000 		call	_Z8printIntiii@plt
 125      E7800000 
 126              	.LVL11:
  21:src/Code/../../h/Testing/Testing_OS1/Threads_C_API_Test.hpp ****             for (uint64 j = 0; j < 10000; j++) {
 127              		.loc 2 21 48 is_stmt 1
  21:src/Code/../../h/Testing/Testing_OS1/Threads_C_API_Test.hpp ****             for (uint64 j = 0; j < 10000; j++) {
 128              		.loc 2 21 59 is_stmt 0
 129 0098 17050000 		lla	a0,.LC1
 129      13050500 
 130 00a0 97000000 		call	_Z11printStringPKc@plt
 130      E7800000 
 131              	.LVL12:
  22:src/Code/../../h/Testing/Testing_OS1/Threads_C_API_Test.hpp ****                 for (uint64 k = 0; k < 30000; k++) { }
 132              		.loc 2 22 13 is_stmt 1
 133              	.LBB124:
  22:src/Code/../../h/Testing/Testing_OS1/Threads_C_API_Test.hpp ****                 for (uint64 k = 0; k < 30000; k++) { }
 134              		.loc 2 22 25 is_stmt 0
 135 00a8 93040000 		li	s1,0
 136 00ac 6FF09FF9 		j	.L8
 137              	.LVL13:
 138              	.L4:
 139              	.LBE124:
 140              	.LBE125:
 141              	.LBE118:
  25:src/Code/../../h/Testing/Testing_OS1/Threads_C_API_Test.hpp ****             }
  26:src/Code/../../h/Testing/Testing_OS1/Threads_C_API_Test.hpp ****         }
  27:src/Code/../../h/Testing/Testing_OS1/Threads_C_API_Test.hpp ****         printString("A finished!\n");
 142              		.loc 2 27 9 is_stmt 1
 143              		.loc 2 27 20 is_stmt 0
 144 00b0 17050000 		lla	a0,.LC2
 144      13050500 
 145 00b8 97000000 		call	_Z11printStringPKc@plt
 145      E7800000 
 146              	.LVL14:
  28:src/Code/../../h/Testing/Testing_OS1/Threads_C_API_Test.hpp ****         finishedA = true;
 147              		.loc 2 28 9 is_stmt 1
 148              		.loc 2 28 19 is_stmt 0
 149 00c0 93071000 		li	a5,1
 150 00c4 17070000 		sb	a5,.LANCHOR0,a4
 150      2300F700 
GAS LISTING /tmp/ccBYUnRY.s 			page 5


  29:src/Code/../../h/Testing/Testing_OS1/Threads_C_API_Test.hpp ****     }
 151              		.loc 2 29 5
 152 00cc 83308101 		ld	ra,24(sp)
 153              		.cfi_restore 1
 154 00d0 03340101 		ld	s0,16(sp)
 155              		.cfi_restore 8
 156              		.cfi_def_cfa 2, 32
 157 00d4 83348100 		ld	s1,8(sp)
 158              		.cfi_restore 9
 159 00d8 03390100 		ld	s2,0(sp)
 160              		.cfi_restore 18
 161              	.LVL15:
 162 00dc 13010102 		addi	sp,sp,32
 163              		.cfi_def_cfa_offset 0
 164 00e0 67800000 		jr	ra
 165              		.cfi_endproc
 166              	.LFE51:
 168              		.section	.rodata.str1.8
 169 001d 000000   		.align	3
 170              	.LC3:
 171 0020 423A2069 		.string	"B: i="
 171      3D00
 172 0026 0000     		.align	3
 173              	.LC4:
 174 0028 42206669 		.string	"B finished!\n"
 174      6E697368 
 174      6564210A 
 174      00
 175              		.text
 176              		.align	2
 177              		.globl	_ZN12ThreadsTestC11workerBodyBEPv
 179              	_ZN12ThreadsTestC11workerBodyBEPv:
 180              	.LFB52:
  30:src/Code/../../h/Testing/Testing_OS1/Threads_C_API_Test.hpp **** 
  31:src/Code/../../h/Testing/Testing_OS1/Threads_C_API_Test.hpp ****     void workerBodyB(void* arg) {
 181              		.loc 2 31 33 is_stmt 1
 182              		.cfi_startproc
 183              	.LVL16:
 184 00e4 130101FE 		addi	sp,sp,-32
 185              		.cfi_def_cfa_offset 32
 186 00e8 233C1100 		sd	ra,24(sp)
 187 00ec 23388100 		sd	s0,16(sp)
 188 00f0 23349100 		sd	s1,8(sp)
 189 00f4 23302101 		sd	s2,0(sp)
 190              		.cfi_offset 1, -8
 191              		.cfi_offset 8, -16
 192              		.cfi_offset 9, -24
 193              		.cfi_offset 18, -32
 194 00f8 13040102 		addi	s0,sp,32
 195              		.cfi_def_cfa 8, 0
  32:src/Code/../../h/Testing/Testing_OS1/Threads_C_API_Test.hpp ****         for (uint64 i = 0; i < 16; i++) {
 196              		.loc 2 32 9
 197              	.LVL17:
 198              	.LBB126:
 199              		.loc 2 32 21 is_stmt 0
 200 00fc 13090000 		li	s2,0
 201 0100 6F008003 		j	.L17
GAS LISTING /tmp/ccBYUnRY.s 			page 6


 202              	.LVL18:
 203              	.L14:
 204              	.LBB127:
 205              	.LBB128:
 206              	.LBB129:
  33:src/Code/../../h/Testing/Testing_OS1/Threads_C_API_Test.hpp ****             printString("B: i="); printInt(i); printString("\n");
  34:src/Code/../../h/Testing/Testing_OS1/Threads_C_API_Test.hpp ****             for (uint64 j = 0; j < 10000; j++) {
  35:src/Code/../../h/Testing/Testing_OS1/Threads_C_API_Test.hpp ****                 for (uint64 k = 0; k < 30000; k++) { }
  36:src/Code/../../h/Testing/Testing_OS1/Threads_C_API_Test.hpp ****                 thread_dispatch();
 207              		.loc 2 36 17 is_stmt 1 discriminator 2
 208              		.loc 2 36 32 is_stmt 0 discriminator 2
 209 0104 97000000 		call	_Z15thread_dispatchv@plt
 209      E7800000 
 210              	.LVL19:
 211              	.LBE129:
  34:src/Code/../../h/Testing/Testing_OS1/Threads_C_API_Test.hpp ****                 for (uint64 k = 0; k < 30000; k++) { }
 212              		.loc 2 34 13 is_stmt 1 discriminator 2
 213 010c 93841400 		addi	s1,s1,1
 214              	.LVL20:
 215              	.L16:
  34:src/Code/../../h/Testing/Testing_OS1/Threads_C_API_Test.hpp ****                 for (uint64 k = 0; k < 30000; k++) { }
 216              		.loc 2 34 34 discriminator 1
 217 0110 B7270000 		li	a5,8192
 218 0114 9387F770 		addi	a5,a5,1807
 219 0118 63EE9700 		bgtu	s1,a5,.L13
 220              	.LBB131:
 221              	.LBB130:
  35:src/Code/../../h/Testing/Testing_OS1/Threads_C_API_Test.hpp ****                 thread_dispatch();
 222              		.loc 2 35 29 is_stmt 0
 223 011c 13070000 		li	a4,0
 224              	.L15:
 225              	.LVL21:
  35:src/Code/../../h/Testing/Testing_OS1/Threads_C_API_Test.hpp ****                 thread_dispatch();
 226              		.loc 2 35 38 is_stmt 1 discriminator 3
 227 0120 B7770000 		li	a5,28672
 228 0124 9387F752 		addi	a5,a5,1327
 229 0128 E3EEE7FC 		bgtu	a4,a5,.L14
  35:src/Code/../../h/Testing/Testing_OS1/Threads_C_API_Test.hpp ****                 thread_dispatch();
 230              		.loc 2 35 17 discriminator 2
 231 012c 13071700 		addi	a4,a4,1
 232              	.LVL22:
 233 0130 6FF01FFF 		j	.L15
 234              	.LVL23:
 235              	.L13:
 236              	.LBE130:
 237              	.LBE131:
 238              	.LBE128:
 239              	.LBE127:
  32:src/Code/../../h/Testing/Testing_OS1/Threads_C_API_Test.hpp ****             printString("B: i="); printInt(i); printString("\n");
 240              		.loc 2 32 9 discriminator 2
 241 0134 13091900 		addi	s2,s2,1
 242              	.LVL24:
 243              	.L17:
  32:src/Code/../../h/Testing/Testing_OS1/Threads_C_API_Test.hpp ****             printString("B: i="); printInt(i); printString("\n");
 244              		.loc 2 32 30 discriminator 1
 245 0138 9307F000 		li	a5,15
 246 013c 63E02705 		bgtu	s2,a5,.L12
GAS LISTING /tmp/ccBYUnRY.s 			page 7


 247              	.LBB133:
  33:src/Code/../../h/Testing/Testing_OS1/Threads_C_API_Test.hpp ****             for (uint64 j = 0; j < 10000; j++) {
 248              		.loc 2 33 13
  33:src/Code/../../h/Testing/Testing_OS1/Threads_C_API_Test.hpp ****             for (uint64 j = 0; j < 10000; j++) {
 249              		.loc 2 33 24 is_stmt 0
 250 0140 17050000 		lla	a0,.LC3
 250      13050500 
 251 0148 97000000 		call	_Z11printStringPKc@plt
 251      E7800000 
 252              	.LVL25:
  33:src/Code/../../h/Testing/Testing_OS1/Threads_C_API_Test.hpp ****             for (uint64 j = 0; j < 10000; j++) {
 253              		.loc 2 33 35 is_stmt 1
  33:src/Code/../../h/Testing/Testing_OS1/Threads_C_API_Test.hpp ****             for (uint64 j = 0; j < 10000; j++) {
 254              		.loc 2 33 43 is_stmt 0
 255 0150 13060000 		li	a2,0
 256 0154 9305A000 		li	a1,10
 257 0158 1B050900 		sext.w	a0,s2
 258 015c 97000000 		call	_Z8printIntiii@plt
 258      E7800000 
 259              	.LVL26:
  33:src/Code/../../h/Testing/Testing_OS1/Threads_C_API_Test.hpp ****             for (uint64 j = 0; j < 10000; j++) {
 260              		.loc 2 33 48 is_stmt 1
  33:src/Code/../../h/Testing/Testing_OS1/Threads_C_API_Test.hpp ****             for (uint64 j = 0; j < 10000; j++) {
 261              		.loc 2 33 59 is_stmt 0
 262 0164 17050000 		lla	a0,.LC1
 262      13050500 
 263 016c 97000000 		call	_Z11printStringPKc@plt
 263      E7800000 
 264              	.LVL27:
  34:src/Code/../../h/Testing/Testing_OS1/Threads_C_API_Test.hpp ****                 for (uint64 k = 0; k < 30000; k++) { }
 265              		.loc 2 34 13 is_stmt 1
 266              	.LBB132:
  34:src/Code/../../h/Testing/Testing_OS1/Threads_C_API_Test.hpp ****                 for (uint64 k = 0; k < 30000; k++) { }
 267              		.loc 2 34 25 is_stmt 0
 268 0174 93040000 		li	s1,0
 269 0178 6FF09FF9 		j	.L16
 270              	.LVL28:
 271              	.L12:
 272              	.LBE132:
 273              	.LBE133:
 274              	.LBE126:
  37:src/Code/../../h/Testing/Testing_OS1/Threads_C_API_Test.hpp ****             }
  38:src/Code/../../h/Testing/Testing_OS1/Threads_C_API_Test.hpp ****         }
  39:src/Code/../../h/Testing/Testing_OS1/Threads_C_API_Test.hpp ****         printString("B finished!\n");
 275              		.loc 2 39 9 is_stmt 1
 276              		.loc 2 39 20 is_stmt 0
 277 017c 17050000 		lla	a0,.LC4
 277      13050500 
 278 0184 97000000 		call	_Z11printStringPKc@plt
 278      E7800000 
 279              	.LVL29:
  40:src/Code/../../h/Testing/Testing_OS1/Threads_C_API_Test.hpp ****         finishedB = true;
 280              		.loc 2 40 9 is_stmt 1
 281              		.loc 2 40 19 is_stmt 0
 282 018c 93071000 		li	a5,1
 283 0190 17070000 		sb	a5,.LANCHOR0+1,a4
 283      2300F700 
GAS LISTING /tmp/ccBYUnRY.s 			page 8


  41:src/Code/../../h/Testing/Testing_OS1/Threads_C_API_Test.hpp ****         thread_dispatch();
 284              		.loc 2 41 9 is_stmt 1
 285              		.loc 2 41 24 is_stmt 0
 286 0198 97000000 		call	_Z15thread_dispatchv@plt
 286      E7800000 
 287              	.LVL30:
  42:src/Code/../../h/Testing/Testing_OS1/Threads_C_API_Test.hpp ****     }
 288              		.loc 2 42 5
 289 01a0 83308101 		ld	ra,24(sp)
 290              		.cfi_restore 1
 291 01a4 03340101 		ld	s0,16(sp)
 292              		.cfi_restore 8
 293              		.cfi_def_cfa 2, 32
 294 01a8 83348100 		ld	s1,8(sp)
 295              		.cfi_restore 9
 296 01ac 03390100 		ld	s2,0(sp)
 297              		.cfi_restore 18
 298              	.LVL31:
 299 01b0 13010102 		addi	sp,sp,32
 300              		.cfi_def_cfa_offset 0
 301 01b4 67800000 		jr	ra
 302              		.cfi_endproc
 303              	.LFE52:
 305              		.section	.text._ZN14ThreadsTestCPP7WorkerAD2Ev,"axG",@progbits,_ZN14ThreadsTestCPP7WorkerAD5Ev,com
 306              		.align	2
 307              		.weak	_ZN14ThreadsTestCPP7WorkerAD2Ev
 309              	_ZN14ThreadsTestCPP7WorkerAD2Ev:
 310              	.LFB184:
 311              		.file 3 "src/Code/../../h/Testing/Testing_OS1/Threads_CPP_API_Test.hpp"
   1:src/Code/../../h/Testing/Testing_OS1/Threads_CPP_API_Test.hpp **** #ifndef THREADS_CPP_API_TEST_HPP
   2:src/Code/../../h/Testing/Testing_OS1/Threads_CPP_API_Test.hpp **** #define THREADS_CPP_API_TEST_HPP
   3:src/Code/../../h/Testing/Testing_OS1/Threads_CPP_API_Test.hpp **** 
   4:src/Code/../../h/Testing/Testing_OS1/Threads_CPP_API_Test.hpp **** #include "../../Code/SystemCalls/syscall_cpp.hpp"
   5:src/Code/../../h/Testing/Testing_OS1/Threads_CPP_API_Test.hpp **** #include "Printing.hpp"
   6:src/Code/../../h/Testing/Testing_OS1/Threads_CPP_API_Test.hpp **** 
   7:src/Code/../../h/Testing/Testing_OS1/Threads_CPP_API_Test.hpp **** namespace ThreadsTestCPP {
   8:src/Code/../../h/Testing/Testing_OS1/Threads_CPP_API_Test.hpp ****     bool finishedA = false;
   9:src/Code/../../h/Testing/Testing_OS1/Threads_CPP_API_Test.hpp ****     bool finishedB = false;
  10:src/Code/../../h/Testing/Testing_OS1/Threads_CPP_API_Test.hpp ****     bool finishedC = false;
  11:src/Code/../../h/Testing/Testing_OS1/Threads_CPP_API_Test.hpp ****     bool finishedD = false;
  12:src/Code/../../h/Testing/Testing_OS1/Threads_CPP_API_Test.hpp **** 
  13:src/Code/../../h/Testing/Testing_OS1/Threads_CPP_API_Test.hpp ****     uint64 fibonacci(uint64 n) {
  14:src/Code/../../h/Testing/Testing_OS1/Threads_CPP_API_Test.hpp ****         if (n == 0 || n == 1) { return n; }
  15:src/Code/../../h/Testing/Testing_OS1/Threads_CPP_API_Test.hpp ****         if (n % 10 == 0) { thread_dispatch(); }
  16:src/Code/../../h/Testing/Testing_OS1/Threads_CPP_API_Test.hpp ****         return fibonacci(n - 1) + fibonacci(n - 2);
  17:src/Code/../../h/Testing/Testing_OS1/Threads_CPP_API_Test.hpp ****     }
  18:src/Code/../../h/Testing/Testing_OS1/Threads_CPP_API_Test.hpp **** 
  19:src/Code/../../h/Testing/Testing_OS1/Threads_CPP_API_Test.hpp ****     class WorkerA: public Thread {
 312              		.loc 3 19 11 is_stmt 1
 313              		.cfi_startproc
 314              	.LVL32:
 315 0000 130101FF 		addi	sp,sp,-16
 316              		.cfi_def_cfa_offset 16
 317 0004 23341100 		sd	ra,8(sp)
 318 0008 23308100 		sd	s0,0(sp)
 319              		.cfi_offset 1, -8
 320              		.cfi_offset 8, -16
GAS LISTING /tmp/ccBYUnRY.s 			page 9


 321 000c 13040101 		addi	s0,sp,16
 322              		.cfi_def_cfa 8, 0
 323              	.LBB134:
 324              		.loc 3 19 11 is_stmt 0
 325 0010 97070000 		lla	a5,_ZTVN14ThreadsTestCPP7WorkerAE+16
 325      93870700 
 326 0018 2330F500 		sd	a5,0(a0)
 327 001c 97000000 		call	_ZN6ThreadD2Ev@plt
 327      E7800000 
 328              	.LVL33:
 329              	.LBE134:
 330 0024 83308100 		ld	ra,8(sp)
 331              		.cfi_restore 1
 332 0028 03340100 		ld	s0,0(sp)
 333              		.cfi_restore 8
 334              		.cfi_def_cfa 2, 16
 335 002c 13010101 		addi	sp,sp,16
 336              		.cfi_def_cfa_offset 0
 337 0030 67800000 		jr	ra
 338              		.cfi_endproc
 339              	.LFE184:
 341              		.weak	_ZN14ThreadsTestCPP7WorkerAD1Ev
 342              		.set	_ZN14ThreadsTestCPP7WorkerAD1Ev,_ZN14ThreadsTestCPP7WorkerAD2Ev
 343              		.section	.text._ZN14ThreadsTestCPP7WorkerAD0Ev,"axG",@progbits,_ZN14ThreadsTestCPP7WorkerAD5Ev,com
 344              		.align	2
 345              		.weak	_ZN14ThreadsTestCPP7WorkerAD0Ev
 347              	_ZN14ThreadsTestCPP7WorkerAD0Ev:
 348              	.LFB186:
 349              		.loc 3 19 11 is_stmt 1
 350              		.cfi_startproc
 351              	.LVL34:
 352 0000 130101FE 		addi	sp,sp,-32
 353              		.cfi_def_cfa_offset 32
 354 0004 233C1100 		sd	ra,24(sp)
 355 0008 23388100 		sd	s0,16(sp)
 356 000c 23349100 		sd	s1,8(sp)
 357              		.cfi_offset 1, -8
 358              		.cfi_offset 8, -16
 359              		.cfi_offset 9, -24
 360 0010 13040102 		addi	s0,sp,32
 361              		.cfi_def_cfa 8, 0
 362 0014 93040500 		mv	s1,a0
 363              	.LVL35:
 364              	.LBB135:
 365              	.LBB136:
 366              		.loc 3 19 11 is_stmt 0
 367 0018 97070000 		lla	a5,_ZTVN14ThreadsTestCPP7WorkerAE+16
 367      93870700 
 368 0020 2330F500 		sd	a5,0(a0)
 369 0024 97000000 		call	_ZN6ThreadD2Ev@plt
 369      E7800000 
 370              	.LVL36:
 371              	.LBE136:
 372              	.LBE135:
 373 002c 13850400 		mv	a0,s1
 374 0030 97000000 		call	_ZdlPv@plt
 374      E7800000 
GAS LISTING /tmp/ccBYUnRY.s 			page 10


 375              	.LVL37:
 376 0038 83308101 		ld	ra,24(sp)
 377              		.cfi_restore 1
 378 003c 03340101 		ld	s0,16(sp)
 379              		.cfi_restore 8
 380              		.cfi_def_cfa 2, 32
 381 0040 83348100 		ld	s1,8(sp)
 382              		.cfi_restore 9
 383              	.LVL38:
 384 0044 13010102 		addi	sp,sp,32
 385              		.cfi_def_cfa_offset 0
 386 0048 67800000 		jr	ra
 387              		.cfi_endproc
 388              	.LFE186:
 390              		.section	.text._ZN14ThreadsTestCPP7WorkerBD2Ev,"axG",@progbits,_ZN14ThreadsTestCPP7WorkerBD5Ev,com
 391              		.align	2
 392              		.weak	_ZN14ThreadsTestCPP7WorkerBD2Ev
 394              	_ZN14ThreadsTestCPP7WorkerBD2Ev:
 395              	.LFB180:
  20:src/Code/../../h/Testing/Testing_OS1/Threads_CPP_API_Test.hpp ****         void workerBodyA(void* arg);
  21:src/Code/../../h/Testing/Testing_OS1/Threads_CPP_API_Test.hpp ****     public:
  22:src/Code/../../h/Testing/Testing_OS1/Threads_CPP_API_Test.hpp ****         WorkerA():Thread() {}
  23:src/Code/../../h/Testing/Testing_OS1/Threads_CPP_API_Test.hpp **** 
  24:src/Code/../../h/Testing/Testing_OS1/Threads_CPP_API_Test.hpp ****         void run() override {
  25:src/Code/../../h/Testing/Testing_OS1/Threads_CPP_API_Test.hpp ****             workerBodyA(nullptr);
  26:src/Code/../../h/Testing/Testing_OS1/Threads_CPP_API_Test.hpp ****         }
  27:src/Code/../../h/Testing/Testing_OS1/Threads_CPP_API_Test.hpp ****     };
  28:src/Code/../../h/Testing/Testing_OS1/Threads_CPP_API_Test.hpp **** 
  29:src/Code/../../h/Testing/Testing_OS1/Threads_CPP_API_Test.hpp ****     class WorkerB: public Thread {
 396              		.loc 3 29 11 is_stmt 1
 397              		.cfi_startproc
 398              	.LVL39:
 399 0000 130101FF 		addi	sp,sp,-16
 400              		.cfi_def_cfa_offset 16
 401 0004 23341100 		sd	ra,8(sp)
 402 0008 23308100 		sd	s0,0(sp)
 403              		.cfi_offset 1, -8
 404              		.cfi_offset 8, -16
 405 000c 13040101 		addi	s0,sp,16
 406              		.cfi_def_cfa 8, 0
 407              	.LBB137:
 408              		.loc 3 29 11 is_stmt 0
 409 0010 97070000 		lla	a5,_ZTVN14ThreadsTestCPP7WorkerBE+16
 409      93870700 
 410 0018 2330F500 		sd	a5,0(a0)
 411 001c 97000000 		call	_ZN6ThreadD2Ev@plt
 411      E7800000 
 412              	.LVL40:
 413              	.LBE137:
 414 0024 83308100 		ld	ra,8(sp)
 415              		.cfi_restore 1
 416 0028 03340100 		ld	s0,0(sp)
 417              		.cfi_restore 8
 418              		.cfi_def_cfa 2, 16
 419 002c 13010101 		addi	sp,sp,16
 420              		.cfi_def_cfa_offset 0
 421 0030 67800000 		jr	ra
GAS LISTING /tmp/ccBYUnRY.s 			page 11


 422              		.cfi_endproc
 423              	.LFE180:
 425              		.weak	_ZN14ThreadsTestCPP7WorkerBD1Ev
 426              		.set	_ZN14ThreadsTestCPP7WorkerBD1Ev,_ZN14ThreadsTestCPP7WorkerBD2Ev
 427              		.section	.text._ZN14ThreadsTestCPP7WorkerBD0Ev,"axG",@progbits,_ZN14ThreadsTestCPP7WorkerBD5Ev,com
 428              		.align	2
 429              		.weak	_ZN14ThreadsTestCPP7WorkerBD0Ev
 431              	_ZN14ThreadsTestCPP7WorkerBD0Ev:
 432              	.LFB182:
 433              		.loc 3 29 11 is_stmt 1
 434              		.cfi_startproc
 435              	.LVL41:
 436 0000 130101FE 		addi	sp,sp,-32
 437              		.cfi_def_cfa_offset 32
 438 0004 233C1100 		sd	ra,24(sp)
 439 0008 23388100 		sd	s0,16(sp)
 440 000c 23349100 		sd	s1,8(sp)
 441              		.cfi_offset 1, -8
 442              		.cfi_offset 8, -16
 443              		.cfi_offset 9, -24
 444 0010 13040102 		addi	s0,sp,32
 445              		.cfi_def_cfa 8, 0
 446 0014 93040500 		mv	s1,a0
 447              	.LVL42:
 448              	.LBB138:
 449              	.LBB139:
 450              		.loc 3 29 11 is_stmt 0
 451 0018 97070000 		lla	a5,_ZTVN14ThreadsTestCPP7WorkerBE+16
 451      93870700 
 452 0020 2330F500 		sd	a5,0(a0)
 453 0024 97000000 		call	_ZN6ThreadD2Ev@plt
 453      E7800000 
 454              	.LVL43:
 455              	.LBE139:
 456              	.LBE138:
 457 002c 13850400 		mv	a0,s1
 458 0030 97000000 		call	_ZdlPv@plt
 458      E7800000 
 459              	.LVL44:
 460 0038 83308101 		ld	ra,24(sp)
 461              		.cfi_restore 1
 462 003c 03340101 		ld	s0,16(sp)
 463              		.cfi_restore 8
 464              		.cfi_def_cfa 2, 32
 465 0040 83348100 		ld	s1,8(sp)
 466              		.cfi_restore 9
 467              	.LVL45:
 468 0044 13010102 		addi	sp,sp,32
 469              		.cfi_def_cfa_offset 0
 470 0048 67800000 		jr	ra
 471              		.cfi_endproc
 472              	.LFE182:
 474              		.section	.text._ZN14ThreadsTestCPP7WorkerCD2Ev,"axG",@progbits,_ZN14ThreadsTestCPP7WorkerCD5Ev,com
 475              		.align	2
 476              		.weak	_ZN14ThreadsTestCPP7WorkerCD2Ev
 478              	_ZN14ThreadsTestCPP7WorkerCD2Ev:
 479              	.LFB176:
GAS LISTING /tmp/ccBYUnRY.s 			page 12


  30:src/Code/../../h/Testing/Testing_OS1/Threads_CPP_API_Test.hpp ****         void workerBodyB(void* arg);
  31:src/Code/../../h/Testing/Testing_OS1/Threads_CPP_API_Test.hpp ****     public:
  32:src/Code/../../h/Testing/Testing_OS1/Threads_CPP_API_Test.hpp ****         WorkerB():Thread() {}
  33:src/Code/../../h/Testing/Testing_OS1/Threads_CPP_API_Test.hpp **** 
  34:src/Code/../../h/Testing/Testing_OS1/Threads_CPP_API_Test.hpp ****         void run() override {
  35:src/Code/../../h/Testing/Testing_OS1/Threads_CPP_API_Test.hpp ****             workerBodyB(nullptr);
  36:src/Code/../../h/Testing/Testing_OS1/Threads_CPP_API_Test.hpp ****         }
  37:src/Code/../../h/Testing/Testing_OS1/Threads_CPP_API_Test.hpp ****     };
  38:src/Code/../../h/Testing/Testing_OS1/Threads_CPP_API_Test.hpp **** 
  39:src/Code/../../h/Testing/Testing_OS1/Threads_CPP_API_Test.hpp ****     class WorkerC: public Thread {
 480              		.loc 3 39 11 is_stmt 1
 481              		.cfi_startproc
 482              	.LVL46:
 483 0000 130101FF 		addi	sp,sp,-16
 484              		.cfi_def_cfa_offset 16
 485 0004 23341100 		sd	ra,8(sp)
 486 0008 23308100 		sd	s0,0(sp)
 487              		.cfi_offset 1, -8
 488              		.cfi_offset 8, -16
 489 000c 13040101 		addi	s0,sp,16
 490              		.cfi_def_cfa 8, 0
 491              	.LBB140:
 492              		.loc 3 39 11 is_stmt 0
 493 0010 97070000 		lla	a5,_ZTVN14ThreadsTestCPP7WorkerCE+16
 493      93870700 
 494 0018 2330F500 		sd	a5,0(a0)
 495 001c 97000000 		call	_ZN6ThreadD2Ev@plt
 495      E7800000 
 496              	.LVL47:
 497              	.LBE140:
 498 0024 83308100 		ld	ra,8(sp)
 499              		.cfi_restore 1
 500 0028 03340100 		ld	s0,0(sp)
 501              		.cfi_restore 8
 502              		.cfi_def_cfa 2, 16
 503 002c 13010101 		addi	sp,sp,16
 504              		.cfi_def_cfa_offset 0
 505 0030 67800000 		jr	ra
 506              		.cfi_endproc
 507              	.LFE176:
 509              		.weak	_ZN14ThreadsTestCPP7WorkerCD1Ev
 510              		.set	_ZN14ThreadsTestCPP7WorkerCD1Ev,_ZN14ThreadsTestCPP7WorkerCD2Ev
 511              		.section	.text._ZN14ThreadsTestCPP7WorkerCD0Ev,"axG",@progbits,_ZN14ThreadsTestCPP7WorkerCD5Ev,com
 512              		.align	2
 513              		.weak	_ZN14ThreadsTestCPP7WorkerCD0Ev
 515              	_ZN14ThreadsTestCPP7WorkerCD0Ev:
 516              	.LFB178:
 517              		.loc 3 39 11 is_stmt 1
 518              		.cfi_startproc
 519              	.LVL48:
 520 0000 130101FE 		addi	sp,sp,-32
 521              		.cfi_def_cfa_offset 32
 522 0004 233C1100 		sd	ra,24(sp)
 523 0008 23388100 		sd	s0,16(sp)
 524 000c 23349100 		sd	s1,8(sp)
 525              		.cfi_offset 1, -8
 526              		.cfi_offset 8, -16
GAS LISTING /tmp/ccBYUnRY.s 			page 13


 527              		.cfi_offset 9, -24
 528 0010 13040102 		addi	s0,sp,32
 529              		.cfi_def_cfa 8, 0
 530 0014 93040500 		mv	s1,a0
 531              	.LVL49:
 532              	.LBB141:
 533              	.LBB142:
 534              		.loc 3 39 11 is_stmt 0
 535 0018 97070000 		lla	a5,_ZTVN14ThreadsTestCPP7WorkerCE+16
 535      93870700 
 536 0020 2330F500 		sd	a5,0(a0)
 537 0024 97000000 		call	_ZN6ThreadD2Ev@plt
 537      E7800000 
 538              	.LVL50:
 539              	.LBE142:
 540              	.LBE141:
 541 002c 13850400 		mv	a0,s1
 542 0030 97000000 		call	_ZdlPv@plt
 542      E7800000 
 543              	.LVL51:
 544 0038 83308101 		ld	ra,24(sp)
 545              		.cfi_restore 1
 546 003c 03340101 		ld	s0,16(sp)
 547              		.cfi_restore 8
 548              		.cfi_def_cfa 2, 32
 549 0040 83348100 		ld	s1,8(sp)
 550              		.cfi_restore 9
 551              	.LVL52:
 552 0044 13010102 		addi	sp,sp,32
 553              		.cfi_def_cfa_offset 0
 554 0048 67800000 		jr	ra
 555              		.cfi_endproc
 556              	.LFE178:
 558              		.section	.text._ZN14ThreadsTestCPP7WorkerDD2Ev,"axG",@progbits,_ZN14ThreadsTestCPP7WorkerDD5Ev,com
 559              		.align	2
 560              		.weak	_ZN14ThreadsTestCPP7WorkerDD2Ev
 562              	_ZN14ThreadsTestCPP7WorkerDD2Ev:
 563              	.LFB172:
  40:src/Code/../../h/Testing/Testing_OS1/Threads_CPP_API_Test.hpp ****         void workerBodyC(void* arg);
  41:src/Code/../../h/Testing/Testing_OS1/Threads_CPP_API_Test.hpp ****     public:
  42:src/Code/../../h/Testing/Testing_OS1/Threads_CPP_API_Test.hpp ****         WorkerC():Thread() {}
  43:src/Code/../../h/Testing/Testing_OS1/Threads_CPP_API_Test.hpp **** 
  44:src/Code/../../h/Testing/Testing_OS1/Threads_CPP_API_Test.hpp ****         void run() override {
  45:src/Code/../../h/Testing/Testing_OS1/Threads_CPP_API_Test.hpp ****             workerBodyC(nullptr);
  46:src/Code/../../h/Testing/Testing_OS1/Threads_CPP_API_Test.hpp ****         }
  47:src/Code/../../h/Testing/Testing_OS1/Threads_CPP_API_Test.hpp ****     };
  48:src/Code/../../h/Testing/Testing_OS1/Threads_CPP_API_Test.hpp **** 
  49:src/Code/../../h/Testing/Testing_OS1/Threads_CPP_API_Test.hpp ****     class WorkerD: public Thread {
 564              		.loc 3 49 11 is_stmt 1
 565              		.cfi_startproc
 566              	.LVL53:
 567 0000 130101FF 		addi	sp,sp,-16
 568              		.cfi_def_cfa_offset 16
 569 0004 23341100 		sd	ra,8(sp)
 570 0008 23308100 		sd	s0,0(sp)
 571              		.cfi_offset 1, -8
 572              		.cfi_offset 8, -16
GAS LISTING /tmp/ccBYUnRY.s 			page 14


 573 000c 13040101 		addi	s0,sp,16
 574              		.cfi_def_cfa 8, 0
 575              	.LBB143:
 576              		.loc 3 49 11 is_stmt 0
 577 0010 97070000 		lla	a5,_ZTVN14ThreadsTestCPP7WorkerDE+16
 577      93870700 
 578 0018 2330F500 		sd	a5,0(a0)
 579 001c 97000000 		call	_ZN6ThreadD2Ev@plt
 579      E7800000 
 580              	.LVL54:
 581              	.LBE143:
 582 0024 83308100 		ld	ra,8(sp)
 583              		.cfi_restore 1
 584 0028 03340100 		ld	s0,0(sp)
 585              		.cfi_restore 8
 586              		.cfi_def_cfa 2, 16
 587 002c 13010101 		addi	sp,sp,16
 588              		.cfi_def_cfa_offset 0
 589 0030 67800000 		jr	ra
 590              		.cfi_endproc
 591              	.LFE172:
 593              		.weak	_ZN14ThreadsTestCPP7WorkerDD1Ev
 594              		.set	_ZN14ThreadsTestCPP7WorkerDD1Ev,_ZN14ThreadsTestCPP7WorkerDD2Ev
 595              		.section	.text._ZN14ThreadsTestCPP7WorkerDD0Ev,"axG",@progbits,_ZN14ThreadsTestCPP7WorkerDD5Ev,com
 596              		.align	2
 597              		.weak	_ZN14ThreadsTestCPP7WorkerDD0Ev
 599              	_ZN14ThreadsTestCPP7WorkerDD0Ev:
 600              	.LFB174:
 601              		.loc 3 49 11 is_stmt 1
 602              		.cfi_startproc
 603              	.LVL55:
 604 0000 130101FE 		addi	sp,sp,-32
 605              		.cfi_def_cfa_offset 32
 606 0004 233C1100 		sd	ra,24(sp)
 607 0008 23388100 		sd	s0,16(sp)
 608 000c 23349100 		sd	s1,8(sp)
 609              		.cfi_offset 1, -8
 610              		.cfi_offset 8, -16
 611              		.cfi_offset 9, -24
 612 0010 13040102 		addi	s0,sp,32
 613              		.cfi_def_cfa 8, 0
 614 0014 93040500 		mv	s1,a0
 615              	.LVL56:
 616              	.LBB144:
 617              	.LBB145:
 618              		.loc 3 49 11 is_stmt 0
 619 0018 97070000 		lla	a5,_ZTVN14ThreadsTestCPP7WorkerDE+16
 619      93870700 
 620 0020 2330F500 		sd	a5,0(a0)
 621 0024 97000000 		call	_ZN6ThreadD2Ev@plt
 621      E7800000 
 622              	.LVL57:
 623              	.LBE145:
 624              	.LBE144:
 625 002c 13850400 		mv	a0,s1
 626 0030 97000000 		call	_ZdlPv@plt
 626      E7800000 
GAS LISTING /tmp/ccBYUnRY.s 			page 15


 627              	.LVL58:
 628 0038 83308101 		ld	ra,24(sp)
 629              		.cfi_restore 1
 630 003c 03340101 		ld	s0,16(sp)
 631              		.cfi_restore 8
 632              		.cfi_def_cfa 2, 32
 633 0040 83348100 		ld	s1,8(sp)
 634              		.cfi_restore 9
 635              	.LVL59:
 636 0044 13010102 		addi	sp,sp,32
 637              		.cfi_def_cfa_offset 0
 638 0048 67800000 		jr	ra
 639              		.cfi_endproc
 640              	.LFE174:
 642              		.section	.text._ZN23ConsumerProducerSyncCPP8ConsumerD2Ev,"axG",@progbits,_ZN23ConsumerProducerSync
 643              		.align	2
 644              		.weak	_ZN23ConsumerProducerSyncCPP8ConsumerD2Ev
 646              	_ZN23ConsumerProducerSyncCPP8ConsumerD2Ev:
 647              	.LFB160:
 648              		.file 4 "src/Code/../../h/Testing/Testing_OS1/Consumer_Producer_CPP_Sync_API_Test.hpp"
   1:src/Code/../../h/Testing/Testing_OS1/Consumer_Producer_CPP_Sync_API_Test.hpp **** #ifndef CONSUMER_PRODUCER_CPP_SYNC_API_TEST_HPP
   2:src/Code/../../h/Testing/Testing_OS1/Consumer_Producer_CPP_Sync_API_Test.hpp **** #define CONSUMER_PRODUCER_CPP_SYNC_API_TEST_HPP
   3:src/Code/../../h/Testing/Testing_OS1/Consumer_Producer_CPP_Sync_API_Test.hpp **** 
   4:src/Code/../../h/Testing/Testing_OS1/Consumer_Producer_CPP_Sync_API_Test.hpp **** #include "../../Code/SystemCalls/syscall_cpp.hpp"
   5:src/Code/../../h/Testing/Testing_OS1/Consumer_Producer_CPP_Sync_API_Test.hpp **** #include "Buffer_CPP_API.hpp"
   6:src/Code/../../h/Testing/Testing_OS1/Consumer_Producer_CPP_Sync_API_Test.hpp **** 
   7:src/Code/../../h/Testing/Testing_OS1/Consumer_Producer_CPP_Sync_API_Test.hpp **** namespace ConsumerProducerSyncCPP {
   8:src/Code/../../h/Testing/Testing_OS1/Consumer_Producer_CPP_Sync_API_Test.hpp ****     Semaphore* waitForAll;
   9:src/Code/../../h/Testing/Testing_OS1/Consumer_Producer_CPP_Sync_API_Test.hpp **** 
  10:src/Code/../../h/Testing/Testing_OS1/Consumer_Producer_CPP_Sync_API_Test.hpp ****     struct thread_data {
  11:src/Code/../../h/Testing/Testing_OS1/Consumer_Producer_CPP_Sync_API_Test.hpp ****         int id;
  12:src/Code/../../h/Testing/Testing_OS1/Consumer_Producer_CPP_Sync_API_Test.hpp ****         BufferTestCPP::BufferCPP *buffer;
  13:src/Code/../../h/Testing/Testing_OS1/Consumer_Producer_CPP_Sync_API_Test.hpp ****         Semaphore* wait;
  14:src/Code/../../h/Testing/Testing_OS1/Consumer_Producer_CPP_Sync_API_Test.hpp ****     };
  15:src/Code/../../h/Testing/Testing_OS1/Consumer_Producer_CPP_Sync_API_Test.hpp **** 
  16:src/Code/../../h/Testing/Testing_OS1/Consumer_Producer_CPP_Sync_API_Test.hpp ****     volatile int threadEnd = 0;
  17:src/Code/../../h/Testing/Testing_OS1/Consumer_Producer_CPP_Sync_API_Test.hpp **** 
  18:src/Code/../../h/Testing/Testing_OS1/Consumer_Producer_CPP_Sync_API_Test.hpp ****     class ProducerKeyboard:public Thread {
  19:src/Code/../../h/Testing/Testing_OS1/Consumer_Producer_CPP_Sync_API_Test.hpp ****         thread_data* td;
  20:src/Code/../../h/Testing/Testing_OS1/Consumer_Producer_CPP_Sync_API_Test.hpp ****         void producerKeyboard(void *arg);
  21:src/Code/../../h/Testing/Testing_OS1/Consumer_Producer_CPP_Sync_API_Test.hpp ****     public:
  22:src/Code/../../h/Testing/Testing_OS1/Consumer_Producer_CPP_Sync_API_Test.hpp ****         ProducerKeyboard(thread_data* _td):Thread(), td(_td) {}
  23:src/Code/../../h/Testing/Testing_OS1/Consumer_Producer_CPP_Sync_API_Test.hpp **** 
  24:src/Code/../../h/Testing/Testing_OS1/Consumer_Producer_CPP_Sync_API_Test.hpp ****         void run() override {
  25:src/Code/../../h/Testing/Testing_OS1/Consumer_Producer_CPP_Sync_API_Test.hpp ****             producerKeyboard(td);
  26:src/Code/../../h/Testing/Testing_OS1/Consumer_Producer_CPP_Sync_API_Test.hpp ****         }
  27:src/Code/../../h/Testing/Testing_OS1/Consumer_Producer_CPP_Sync_API_Test.hpp ****     };
  28:src/Code/../../h/Testing/Testing_OS1/Consumer_Producer_CPP_Sync_API_Test.hpp **** 
  29:src/Code/../../h/Testing/Testing_OS1/Consumer_Producer_CPP_Sync_API_Test.hpp ****     void ProducerKeyboard::producerKeyboard(void *arg) {
  30:src/Code/../../h/Testing/Testing_OS1/Consumer_Producer_CPP_Sync_API_Test.hpp ****         struct thread_data *data = (struct thread_data *) arg;
  31:src/Code/../../h/Testing/Testing_OS1/Consumer_Producer_CPP_Sync_API_Test.hpp **** 
  32:src/Code/../../h/Testing/Testing_OS1/Consumer_Producer_CPP_Sync_API_Test.hpp ****         int key;
  33:src/Code/../../h/Testing/Testing_OS1/Consumer_Producer_CPP_Sync_API_Test.hpp ****         int i = 0;
  34:src/Code/../../h/Testing/Testing_OS1/Consumer_Producer_CPP_Sync_API_Test.hpp ****         while ((key = getc()) != 0x1b) {
  35:src/Code/../../h/Testing/Testing_OS1/Consumer_Producer_CPP_Sync_API_Test.hpp ****             data->buffer->put(key);
  36:src/Code/../../h/Testing/Testing_OS1/Consumer_Producer_CPP_Sync_API_Test.hpp ****             i++;
  37:src/Code/../../h/Testing/Testing_OS1/Consumer_Producer_CPP_Sync_API_Test.hpp **** 
GAS LISTING /tmp/ccBYUnRY.s 			page 16


  38:src/Code/../../h/Testing/Testing_OS1/Consumer_Producer_CPP_Sync_API_Test.hpp ****             if (i % (10 * data->id) == 0) {
  39:src/Code/../../h/Testing/Testing_OS1/Consumer_Producer_CPP_Sync_API_Test.hpp ****                 Thread::dispatch();
  40:src/Code/../../h/Testing/Testing_OS1/Consumer_Producer_CPP_Sync_API_Test.hpp ****             }
  41:src/Code/../../h/Testing/Testing_OS1/Consumer_Producer_CPP_Sync_API_Test.hpp ****         }
  42:src/Code/../../h/Testing/Testing_OS1/Consumer_Producer_CPP_Sync_API_Test.hpp **** 
  43:src/Code/../../h/Testing/Testing_OS1/Consumer_Producer_CPP_Sync_API_Test.hpp ****         threadEnd = 1;
  44:src/Code/../../h/Testing/Testing_OS1/Consumer_Producer_CPP_Sync_API_Test.hpp ****         td->buffer->put('!');
  45:src/Code/../../h/Testing/Testing_OS1/Consumer_Producer_CPP_Sync_API_Test.hpp **** 
  46:src/Code/../../h/Testing/Testing_OS1/Consumer_Producer_CPP_Sync_API_Test.hpp ****         data->wait->signal();
  47:src/Code/../../h/Testing/Testing_OS1/Consumer_Producer_CPP_Sync_API_Test.hpp ****     }
  48:src/Code/../../h/Testing/Testing_OS1/Consumer_Producer_CPP_Sync_API_Test.hpp **** 
  49:src/Code/../../h/Testing/Testing_OS1/Consumer_Producer_CPP_Sync_API_Test.hpp ****     class Producer:public Thread {
  50:src/Code/../../h/Testing/Testing_OS1/Consumer_Producer_CPP_Sync_API_Test.hpp ****         thread_data* td;
  51:src/Code/../../h/Testing/Testing_OS1/Consumer_Producer_CPP_Sync_API_Test.hpp ****         void producer(void *arg);
  52:src/Code/../../h/Testing/Testing_OS1/Consumer_Producer_CPP_Sync_API_Test.hpp ****     public:
  53:src/Code/../../h/Testing/Testing_OS1/Consumer_Producer_CPP_Sync_API_Test.hpp ****         Producer(thread_data* _td):Thread(), td(_td) {}
  54:src/Code/../../h/Testing/Testing_OS1/Consumer_Producer_CPP_Sync_API_Test.hpp **** 
  55:src/Code/../../h/Testing/Testing_OS1/Consumer_Producer_CPP_Sync_API_Test.hpp ****         void run() override {
  56:src/Code/../../h/Testing/Testing_OS1/Consumer_Producer_CPP_Sync_API_Test.hpp ****             producer(td);
  57:src/Code/../../h/Testing/Testing_OS1/Consumer_Producer_CPP_Sync_API_Test.hpp ****         }
  58:src/Code/../../h/Testing/Testing_OS1/Consumer_Producer_CPP_Sync_API_Test.hpp ****     };
  59:src/Code/../../h/Testing/Testing_OS1/Consumer_Producer_CPP_Sync_API_Test.hpp **** 
  60:src/Code/../../h/Testing/Testing_OS1/Consumer_Producer_CPP_Sync_API_Test.hpp ****     void Producer::producer(void *arg) {
  61:src/Code/../../h/Testing/Testing_OS1/Consumer_Producer_CPP_Sync_API_Test.hpp ****         struct thread_data *data = (struct thread_data *) arg;
  62:src/Code/../../h/Testing/Testing_OS1/Consumer_Producer_CPP_Sync_API_Test.hpp **** 
  63:src/Code/../../h/Testing/Testing_OS1/Consumer_Producer_CPP_Sync_API_Test.hpp ****         int i = 0;
  64:src/Code/../../h/Testing/Testing_OS1/Consumer_Producer_CPP_Sync_API_Test.hpp ****         while (!threadEnd) {
  65:src/Code/../../h/Testing/Testing_OS1/Consumer_Producer_CPP_Sync_API_Test.hpp ****             data->buffer->put(data->id + '0');
  66:src/Code/../../h/Testing/Testing_OS1/Consumer_Producer_CPP_Sync_API_Test.hpp ****             i++;
  67:src/Code/../../h/Testing/Testing_OS1/Consumer_Producer_CPP_Sync_API_Test.hpp **** 
  68:src/Code/../../h/Testing/Testing_OS1/Consumer_Producer_CPP_Sync_API_Test.hpp ****             if (i % (10 * data->id) == 0) {
  69:src/Code/../../h/Testing/Testing_OS1/Consumer_Producer_CPP_Sync_API_Test.hpp ****                 Thread::dispatch();
  70:src/Code/../../h/Testing/Testing_OS1/Consumer_Producer_CPP_Sync_API_Test.hpp ****             }
  71:src/Code/../../h/Testing/Testing_OS1/Consumer_Producer_CPP_Sync_API_Test.hpp ****         }
  72:src/Code/../../h/Testing/Testing_OS1/Consumer_Producer_CPP_Sync_API_Test.hpp **** 
  73:src/Code/../../h/Testing/Testing_OS1/Consumer_Producer_CPP_Sync_API_Test.hpp ****         data->wait->signal();
  74:src/Code/../../h/Testing/Testing_OS1/Consumer_Producer_CPP_Sync_API_Test.hpp ****     }
  75:src/Code/../../h/Testing/Testing_OS1/Consumer_Producer_CPP_Sync_API_Test.hpp **** 
  76:src/Code/../../h/Testing/Testing_OS1/Consumer_Producer_CPP_Sync_API_Test.hpp ****     class Consumer:public Thread {
 649              		.loc 4 76 11 is_stmt 1
 650              		.cfi_startproc
 651              	.LVL60:
 652 0000 130101FF 		addi	sp,sp,-16
 653              		.cfi_def_cfa_offset 16
 654 0004 23341100 		sd	ra,8(sp)
 655 0008 23308100 		sd	s0,0(sp)
 656              		.cfi_offset 1, -8
 657              		.cfi_offset 8, -16
 658 000c 13040101 		addi	s0,sp,16
 659              		.cfi_def_cfa 8, 0
 660              	.LBB146:
 661              		.loc 4 76 11 is_stmt 0
 662 0010 97070000 		lla	a5,_ZTVN23ConsumerProducerSyncCPP8ConsumerE+16
 662      93870700 
 663 0018 2330F500 		sd	a5,0(a0)
 664 001c 97000000 		call	_ZN6ThreadD2Ev@plt
 664      E7800000 
GAS LISTING /tmp/ccBYUnRY.s 			page 17


 665              	.LVL61:
 666              	.LBE146:
 667 0024 83308100 		ld	ra,8(sp)
 668              		.cfi_restore 1
 669 0028 03340100 		ld	s0,0(sp)
 670              		.cfi_restore 8
 671              		.cfi_def_cfa 2, 16
 672 002c 13010101 		addi	sp,sp,16
 673              		.cfi_def_cfa_offset 0
 674 0030 67800000 		jr	ra
 675              		.cfi_endproc
 676              	.LFE160:
 678              		.weak	_ZN23ConsumerProducerSyncCPP8ConsumerD1Ev
 679              		.set	_ZN23ConsumerProducerSyncCPP8ConsumerD1Ev,_ZN23ConsumerProducerSyncCPP8ConsumerD2Ev
 680              		.section	.text._ZN23ConsumerProducerSyncCPP8ConsumerD0Ev,"axG",@progbits,_ZN23ConsumerProducerSync
 681              		.align	2
 682              		.weak	_ZN23ConsumerProducerSyncCPP8ConsumerD0Ev
 684              	_ZN23ConsumerProducerSyncCPP8ConsumerD0Ev:
 685              	.LFB162:
 686              		.loc 4 76 11 is_stmt 1
 687              		.cfi_startproc
 688              	.LVL62:
 689 0000 130101FE 		addi	sp,sp,-32
 690              		.cfi_def_cfa_offset 32
 691 0004 233C1100 		sd	ra,24(sp)
 692 0008 23388100 		sd	s0,16(sp)
 693 000c 23349100 		sd	s1,8(sp)
 694              		.cfi_offset 1, -8
 695              		.cfi_offset 8, -16
 696              		.cfi_offset 9, -24
 697 0010 13040102 		addi	s0,sp,32
 698              		.cfi_def_cfa 8, 0
 699 0014 93040500 		mv	s1,a0
 700              	.LVL63:
 701              	.LBB147:
 702              	.LBB148:
 703              		.loc 4 76 11 is_stmt 0
 704 0018 97070000 		lla	a5,_ZTVN23ConsumerProducerSyncCPP8ConsumerE+16
 704      93870700 
 705 0020 2330F500 		sd	a5,0(a0)
 706 0024 97000000 		call	_ZN6ThreadD2Ev@plt
 706      E7800000 
 707              	.LVL64:
 708              	.LBE148:
 709              	.LBE147:
 710 002c 13850400 		mv	a0,s1
 711 0030 97000000 		call	_ZdlPv@plt
 711      E7800000 
 712              	.LVL65:
 713 0038 83308101 		ld	ra,24(sp)
 714              		.cfi_restore 1
 715 003c 03340101 		ld	s0,16(sp)
 716              		.cfi_restore 8
 717              		.cfi_def_cfa 2, 32
 718 0040 83348100 		ld	s1,8(sp)
 719              		.cfi_restore 9
 720              	.LVL66:
GAS LISTING /tmp/ccBYUnRY.s 			page 18


 721 0044 13010102 		addi	sp,sp,32
 722              		.cfi_def_cfa_offset 0
 723 0048 67800000 		jr	ra
 724              		.cfi_endproc
 725              	.LFE162:
 727              		.section	.text._ZN23ConsumerProducerSyncCPP8ProducerD2Ev,"axG",@progbits,_ZN23ConsumerProducerSync
 728              		.align	2
 729              		.weak	_ZN23ConsumerProducerSyncCPP8ProducerD2Ev
 731              	_ZN23ConsumerProducerSyncCPP8ProducerD2Ev:
 732              	.LFB164:
  49:src/Code/../../h/Testing/Testing_OS1/Consumer_Producer_CPP_Sync_API_Test.hpp ****         thread_data* td;
 733              		.loc 4 49 11 is_stmt 1
 734              		.cfi_startproc
 735              	.LVL67:
 736 0000 130101FF 		addi	sp,sp,-16
 737              		.cfi_def_cfa_offset 16
 738 0004 23341100 		sd	ra,8(sp)
 739 0008 23308100 		sd	s0,0(sp)
 740              		.cfi_offset 1, -8
 741              		.cfi_offset 8, -16
 742 000c 13040101 		addi	s0,sp,16
 743              		.cfi_def_cfa 8, 0
 744              	.LBB149:
  49:src/Code/../../h/Testing/Testing_OS1/Consumer_Producer_CPP_Sync_API_Test.hpp ****         thread_data* td;
 745              		.loc 4 49 11 is_stmt 0
 746 0010 97070000 		lla	a5,_ZTVN23ConsumerProducerSyncCPP8ProducerE+16
 746      93870700 
 747 0018 2330F500 		sd	a5,0(a0)
 748 001c 97000000 		call	_ZN6ThreadD2Ev@plt
 748      E7800000 
 749              	.LVL68:
 750              	.LBE149:
 751 0024 83308100 		ld	ra,8(sp)
 752              		.cfi_restore 1
 753 0028 03340100 		ld	s0,0(sp)
 754              		.cfi_restore 8
 755              		.cfi_def_cfa 2, 16
 756 002c 13010101 		addi	sp,sp,16
 757              		.cfi_def_cfa_offset 0
 758 0030 67800000 		jr	ra
 759              		.cfi_endproc
 760              	.LFE164:
 762              		.weak	_ZN23ConsumerProducerSyncCPP8ProducerD1Ev
 763              		.set	_ZN23ConsumerProducerSyncCPP8ProducerD1Ev,_ZN23ConsumerProducerSyncCPP8ProducerD2Ev
 764              		.section	.text._ZN23ConsumerProducerSyncCPP8ProducerD0Ev,"axG",@progbits,_ZN23ConsumerProducerSync
 765              		.align	2
 766              		.weak	_ZN23ConsumerProducerSyncCPP8ProducerD0Ev
 768              	_ZN23ConsumerProducerSyncCPP8ProducerD0Ev:
 769              	.LFB166:
  49:src/Code/../../h/Testing/Testing_OS1/Consumer_Producer_CPP_Sync_API_Test.hpp ****         thread_data* td;
 770              		.loc 4 49 11 is_stmt 1
 771              		.cfi_startproc
 772              	.LVL69:
 773 0000 130101FE 		addi	sp,sp,-32
 774              		.cfi_def_cfa_offset 32
 775 0004 233C1100 		sd	ra,24(sp)
 776 0008 23388100 		sd	s0,16(sp)
GAS LISTING /tmp/ccBYUnRY.s 			page 19


 777 000c 23349100 		sd	s1,8(sp)
 778              		.cfi_offset 1, -8
 779              		.cfi_offset 8, -16
 780              		.cfi_offset 9, -24
 781 0010 13040102 		addi	s0,sp,32
 782              		.cfi_def_cfa 8, 0
 783 0014 93040500 		mv	s1,a0
 784              	.LVL70:
 785              	.LBB150:
 786              	.LBB151:
  49:src/Code/../../h/Testing/Testing_OS1/Consumer_Producer_CPP_Sync_API_Test.hpp ****         thread_data* td;
 787              		.loc 4 49 11 is_stmt 0
 788 0018 97070000 		lla	a5,_ZTVN23ConsumerProducerSyncCPP8ProducerE+16
 788      93870700 
 789 0020 2330F500 		sd	a5,0(a0)
 790 0024 97000000 		call	_ZN6ThreadD2Ev@plt
 790      E7800000 
 791              	.LVL71:
 792              	.LBE151:
 793              	.LBE150:
 794 002c 13850400 		mv	a0,s1
 795 0030 97000000 		call	_ZdlPv@plt
 795      E7800000 
 796              	.LVL72:
 797 0038 83308101 		ld	ra,24(sp)
 798              		.cfi_restore 1
 799 003c 03340101 		ld	s0,16(sp)
 800              		.cfi_restore 8
 801              		.cfi_def_cfa 2, 32
 802 0040 83348100 		ld	s1,8(sp)
 803              		.cfi_restore 9
 804              	.LVL73:
 805 0044 13010102 		addi	sp,sp,32
 806              		.cfi_def_cfa_offset 0
 807 0048 67800000 		jr	ra
 808              		.cfi_endproc
 809              	.LFE166:
 811              		.section	.text._ZN23ConsumerProducerSyncCPP16ProducerKeyboardD2Ev,"axG",@progbits,_ZN23ConsumerPro
 812              		.align	2
 813              		.weak	_ZN23ConsumerProducerSyncCPP16ProducerKeyboardD2Ev
 815              	_ZN23ConsumerProducerSyncCPP16ProducerKeyboardD2Ev:
 816              	.LFB168:
  18:src/Code/../../h/Testing/Testing_OS1/Consumer_Producer_CPP_Sync_API_Test.hpp ****         thread_data* td;
 817              		.loc 4 18 11 is_stmt 1
 818              		.cfi_startproc
 819              	.LVL74:
 820 0000 130101FF 		addi	sp,sp,-16
 821              		.cfi_def_cfa_offset 16
 822 0004 23341100 		sd	ra,8(sp)
 823 0008 23308100 		sd	s0,0(sp)
 824              		.cfi_offset 1, -8
 825              		.cfi_offset 8, -16
 826 000c 13040101 		addi	s0,sp,16
 827              		.cfi_def_cfa 8, 0
 828              	.LBB152:
  18:src/Code/../../h/Testing/Testing_OS1/Consumer_Producer_CPP_Sync_API_Test.hpp ****         thread_data* td;
 829              		.loc 4 18 11 is_stmt 0
GAS LISTING /tmp/ccBYUnRY.s 			page 20


 830 0010 97070000 		lla	a5,_ZTVN23ConsumerProducerSyncCPP16ProducerKeyboardE+16
 830      93870700 
 831 0018 2330F500 		sd	a5,0(a0)
 832 001c 97000000 		call	_ZN6ThreadD2Ev@plt
 832      E7800000 
 833              	.LVL75:
 834              	.LBE152:
 835 0024 83308100 		ld	ra,8(sp)
 836              		.cfi_restore 1
 837 0028 03340100 		ld	s0,0(sp)
 838              		.cfi_restore 8
 839              		.cfi_def_cfa 2, 16
 840 002c 13010101 		addi	sp,sp,16
 841              		.cfi_def_cfa_offset 0
 842 0030 67800000 		jr	ra
 843              		.cfi_endproc
 844              	.LFE168:
 846              		.weak	_ZN23ConsumerProducerSyncCPP16ProducerKeyboardD1Ev
 847              		.set	_ZN23ConsumerProducerSyncCPP16ProducerKeyboardD1Ev,_ZN23ConsumerProducerSyncCPP16ProducerKeyb
 848              		.section	.text._ZN23ConsumerProducerSyncCPP16ProducerKeyboardD0Ev,"axG",@progbits,_ZN23ConsumerPro
 849              		.align	2
 850              		.weak	_ZN23ConsumerProducerSyncCPP16ProducerKeyboardD0Ev
 852              	_ZN23ConsumerProducerSyncCPP16ProducerKeyboardD0Ev:
 853              	.LFB170:
  18:src/Code/../../h/Testing/Testing_OS1/Consumer_Producer_CPP_Sync_API_Test.hpp ****         thread_data* td;
 854              		.loc 4 18 11 is_stmt 1
 855              		.cfi_startproc
 856              	.LVL76:
 857 0000 130101FE 		addi	sp,sp,-32
 858              		.cfi_def_cfa_offset 32
 859 0004 233C1100 		sd	ra,24(sp)
 860 0008 23388100 		sd	s0,16(sp)
 861 000c 23349100 		sd	s1,8(sp)
 862              		.cfi_offset 1, -8
 863              		.cfi_offset 8, -16
 864              		.cfi_offset 9, -24
 865 0010 13040102 		addi	s0,sp,32
 866              		.cfi_def_cfa 8, 0
 867 0014 93040500 		mv	s1,a0
 868              	.LVL77:
 869              	.LBB153:
 870              	.LBB154:
  18:src/Code/../../h/Testing/Testing_OS1/Consumer_Producer_CPP_Sync_API_Test.hpp ****         thread_data* td;
 871              		.loc 4 18 11 is_stmt 0
 872 0018 97070000 		lla	a5,_ZTVN23ConsumerProducerSyncCPP16ProducerKeyboardE+16
 872      93870700 
 873 0020 2330F500 		sd	a5,0(a0)
 874 0024 97000000 		call	_ZN6ThreadD2Ev@plt
 874      E7800000 
 875              	.LVL78:
 876              	.LBE154:
 877              	.LBE153:
 878 002c 13850400 		mv	a0,s1
 879 0030 97000000 		call	_ZdlPv@plt
 879      E7800000 
 880              	.LVL79:
 881 0038 83308101 		ld	ra,24(sp)
GAS LISTING /tmp/ccBYUnRY.s 			page 21


 882              		.cfi_restore 1
 883 003c 03340101 		ld	s0,16(sp)
 884              		.cfi_restore 8
 885              		.cfi_def_cfa 2, 32
 886 0040 83348100 		ld	s1,8(sp)
 887              		.cfi_restore 9
 888              	.LVL80:
 889 0044 13010102 		addi	sp,sp,32
 890              		.cfi_def_cfa_offset 0
 891 0048 67800000 		jr	ra
 892              		.cfi_endproc
 893              	.LFE170:
 895              		.section	.text._ZN24ConsumerProducerAsyncCPP8ConsumerD2Ev,"axG",@progbits,_ZN24ConsumerProducerAsy
 896              		.align	2
 897              		.weak	_ZN24ConsumerProducerAsyncCPP8ConsumerD2Ev
 899              	_ZN24ConsumerProducerAsyncCPP8ConsumerD2Ev:
 900              	.LFB148:
 901              		.file 5 "src/Code/../../h/Testing/Testing_OS1/Consumer_Producer_CPP_API_Test.hpp"
   1:src/Code/../../h/Testing/Testing_OS1/Consumer_Producer_CPP_API_Test.hpp **** #ifndef CONSUMER_PRODUCER_CPP_API_TEST_HPP
   2:src/Code/../../h/Testing/Testing_OS1/Consumer_Producer_CPP_API_Test.hpp **** #define CONSUMER_PRODUCER_CPP_API_TEST_HPP
   3:src/Code/../../h/Testing/Testing_OS1/Consumer_Producer_CPP_API_Test.hpp **** 
   4:src/Code/../../h/Testing/Testing_OS1/Consumer_Producer_CPP_API_Test.hpp **** #include "../../Code/SystemCalls/syscall_cpp.hpp"
   5:src/Code/../../h/Testing/Testing_OS1/Consumer_Producer_CPP_API_Test.hpp **** #include "Buffer_CPP_API.hpp"
   6:src/Code/../../h/Testing/Testing_OS1/Consumer_Producer_CPP_API_Test.hpp **** #include "Printing.hpp"
   7:src/Code/../../h/Testing/Testing_OS1/Consumer_Producer_CPP_API_Test.hpp **** 
   8:src/Code/../../h/Testing/Testing_OS1/Consumer_Producer_CPP_API_Test.hpp **** namespace ConsumerProducerAsyncCPP {
   9:src/Code/../../h/Testing/Testing_OS1/Consumer_Producer_CPP_API_Test.hpp **** 
  10:src/Code/../../h/Testing/Testing_OS1/Consumer_Producer_CPP_API_Test.hpp ****     Semaphore *waitForAll;
  11:src/Code/../../h/Testing/Testing_OS1/Consumer_Producer_CPP_API_Test.hpp **** 
  12:src/Code/../../h/Testing/Testing_OS1/Consumer_Producer_CPP_API_Test.hpp ****     struct thread_data {
  13:src/Code/../../h/Testing/Testing_OS1/Consumer_Producer_CPP_API_Test.hpp ****         int id;
  14:src/Code/../../h/Testing/Testing_OS1/Consumer_Producer_CPP_API_Test.hpp ****         BufferTestCPP::BufferCPP *buffer;
  15:src/Code/../../h/Testing/Testing_OS1/Consumer_Producer_CPP_API_Test.hpp ****         Semaphore *sem;
  16:src/Code/../../h/Testing/Testing_OS1/Consumer_Producer_CPP_API_Test.hpp ****     };
  17:src/Code/../../h/Testing/Testing_OS1/Consumer_Producer_CPP_API_Test.hpp **** 
  18:src/Code/../../h/Testing/Testing_OS1/Consumer_Producer_CPP_API_Test.hpp ****     volatile int threadEnd = 0;
  19:src/Code/../../h/Testing/Testing_OS1/Consumer_Producer_CPP_API_Test.hpp **** 
  20:src/Code/../../h/Testing/Testing_OS1/Consumer_Producer_CPP_API_Test.hpp ****     class ProducerKeyborad : public Thread {
  21:src/Code/../../h/Testing/Testing_OS1/Consumer_Producer_CPP_API_Test.hpp ****         thread_data *td;
  22:src/Code/../../h/Testing/Testing_OS1/Consumer_Producer_CPP_API_Test.hpp ****     public:
  23:src/Code/../../h/Testing/Testing_OS1/Consumer_Producer_CPP_API_Test.hpp ****         ProducerKeyborad(thread_data *_td) : Thread(), td(_td) {}
  24:src/Code/../../h/Testing/Testing_OS1/Consumer_Producer_CPP_API_Test.hpp **** 
  25:src/Code/../../h/Testing/Testing_OS1/Consumer_Producer_CPP_API_Test.hpp ****         void run() override {
  26:src/Code/../../h/Testing/Testing_OS1/Consumer_Producer_CPP_API_Test.hpp ****             int key;
  27:src/Code/../../h/Testing/Testing_OS1/Consumer_Producer_CPP_API_Test.hpp ****             int i = 0;
  28:src/Code/../../h/Testing/Testing_OS1/Consumer_Producer_CPP_API_Test.hpp ****             while ((key = getc()) != 0x1b) {
  29:src/Code/../../h/Testing/Testing_OS1/Consumer_Producer_CPP_API_Test.hpp ****                 td->buffer->put(key);
  30:src/Code/../../h/Testing/Testing_OS1/Consumer_Producer_CPP_API_Test.hpp ****                 i++;
  31:src/Code/../../h/Testing/Testing_OS1/Consumer_Producer_CPP_API_Test.hpp ****             }
  32:src/Code/../../h/Testing/Testing_OS1/Consumer_Producer_CPP_API_Test.hpp **** 
  33:src/Code/../../h/Testing/Testing_OS1/Consumer_Producer_CPP_API_Test.hpp ****             threadEnd = 1;
  34:src/Code/../../h/Testing/Testing_OS1/Consumer_Producer_CPP_API_Test.hpp ****             td->buffer->put('!');
  35:src/Code/../../h/Testing/Testing_OS1/Consumer_Producer_CPP_API_Test.hpp **** 
  36:src/Code/../../h/Testing/Testing_OS1/Consumer_Producer_CPP_API_Test.hpp ****             td->sem->signal();
  37:src/Code/../../h/Testing/Testing_OS1/Consumer_Producer_CPP_API_Test.hpp ****         }
  38:src/Code/../../h/Testing/Testing_OS1/Consumer_Producer_CPP_API_Test.hpp ****     };
  39:src/Code/../../h/Testing/Testing_OS1/Consumer_Producer_CPP_API_Test.hpp **** 
GAS LISTING /tmp/ccBYUnRY.s 			page 22


  40:src/Code/../../h/Testing/Testing_OS1/Consumer_Producer_CPP_API_Test.hpp ****     class Producer : public Thread {
  41:src/Code/../../h/Testing/Testing_OS1/Consumer_Producer_CPP_API_Test.hpp ****         thread_data *td;
  42:src/Code/../../h/Testing/Testing_OS1/Consumer_Producer_CPP_API_Test.hpp ****     public:
  43:src/Code/../../h/Testing/Testing_OS1/Consumer_Producer_CPP_API_Test.hpp ****         Producer(thread_data *_td) : Thread(), td(_td) {}
  44:src/Code/../../h/Testing/Testing_OS1/Consumer_Producer_CPP_API_Test.hpp **** 
  45:src/Code/../../h/Testing/Testing_OS1/Consumer_Producer_CPP_API_Test.hpp ****         void run() override {
  46:src/Code/../../h/Testing/Testing_OS1/Consumer_Producer_CPP_API_Test.hpp ****             int i = 0;
  47:src/Code/../../h/Testing/Testing_OS1/Consumer_Producer_CPP_API_Test.hpp ****             while (!threadEnd) {
  48:src/Code/../../h/Testing/Testing_OS1/Consumer_Producer_CPP_API_Test.hpp ****                 td->buffer->put(td->id + '0');
  49:src/Code/../../h/Testing/Testing_OS1/Consumer_Producer_CPP_API_Test.hpp ****                 i++;
  50:src/Code/../../h/Testing/Testing_OS1/Consumer_Producer_CPP_API_Test.hpp ****                 Thread::sleep((i+td->id)%5);
  51:src/Code/../../h/Testing/Testing_OS1/Consumer_Producer_CPP_API_Test.hpp ****             }
  52:src/Code/../../h/Testing/Testing_OS1/Consumer_Producer_CPP_API_Test.hpp **** 
  53:src/Code/../../h/Testing/Testing_OS1/Consumer_Producer_CPP_API_Test.hpp ****             td->sem->signal();
  54:src/Code/../../h/Testing/Testing_OS1/Consumer_Producer_CPP_API_Test.hpp ****         }
  55:src/Code/../../h/Testing/Testing_OS1/Consumer_Producer_CPP_API_Test.hpp ****     };
  56:src/Code/../../h/Testing/Testing_OS1/Consumer_Producer_CPP_API_Test.hpp **** 
  57:src/Code/../../h/Testing/Testing_OS1/Consumer_Producer_CPP_API_Test.hpp ****     class Consumer : public Thread {
 902              		.loc 5 57 11 is_stmt 1
 903              		.cfi_startproc
 904              	.LVL81:
 905 0000 130101FF 		addi	sp,sp,-16
 906              		.cfi_def_cfa_offset 16
 907 0004 23341100 		sd	ra,8(sp)
 908 0008 23308100 		sd	s0,0(sp)
 909              		.cfi_offset 1, -8
 910              		.cfi_offset 8, -16
 911 000c 13040101 		addi	s0,sp,16
 912              		.cfi_def_cfa 8, 0
 913              	.LBB155:
 914              		.loc 5 57 11 is_stmt 0
 915 0010 97070000 		lla	a5,_ZTVN24ConsumerProducerAsyncCPP8ConsumerE+16
 915      93870700 
 916 0018 2330F500 		sd	a5,0(a0)
 917 001c 97000000 		call	_ZN6ThreadD2Ev@plt
 917      E7800000 
 918              	.LVL82:
 919              	.LBE155:
 920 0024 83308100 		ld	ra,8(sp)
 921              		.cfi_restore 1
 922 0028 03340100 		ld	s0,0(sp)
 923              		.cfi_restore 8
 924              		.cfi_def_cfa 2, 16
 925 002c 13010101 		addi	sp,sp,16
 926              		.cfi_def_cfa_offset 0
 927 0030 67800000 		jr	ra
 928              		.cfi_endproc
 929              	.LFE148:
 931              		.weak	_ZN24ConsumerProducerAsyncCPP8ConsumerD1Ev
 932              		.set	_ZN24ConsumerProducerAsyncCPP8ConsumerD1Ev,_ZN24ConsumerProducerAsyncCPP8ConsumerD2Ev
 933              		.section	.text._ZN24ConsumerProducerAsyncCPP8ConsumerD0Ev,"axG",@progbits,_ZN24ConsumerProducerAsy
 934              		.align	2
 935              		.weak	_ZN24ConsumerProducerAsyncCPP8ConsumerD0Ev
 937              	_ZN24ConsumerProducerAsyncCPP8ConsumerD0Ev:
 938              	.LFB150:
 939              		.loc 5 57 11 is_stmt 1
 940              		.cfi_startproc
GAS LISTING /tmp/ccBYUnRY.s 			page 23


 941              	.LVL83:
 942 0000 130101FE 		addi	sp,sp,-32
 943              		.cfi_def_cfa_offset 32
 944 0004 233C1100 		sd	ra,24(sp)
 945 0008 23388100 		sd	s0,16(sp)
 946 000c 23349100 		sd	s1,8(sp)
 947              		.cfi_offset 1, -8
 948              		.cfi_offset 8, -16
 949              		.cfi_offset 9, -24
 950 0010 13040102 		addi	s0,sp,32
 951              		.cfi_def_cfa 8, 0
 952 0014 93040500 		mv	s1,a0
 953              	.LVL84:
 954              	.LBB156:
 955              	.LBB157:
 956              		.loc 5 57 11 is_stmt 0
 957 0018 97070000 		lla	a5,_ZTVN24ConsumerProducerAsyncCPP8ConsumerE+16
 957      93870700 
 958 0020 2330F500 		sd	a5,0(a0)
 959 0024 97000000 		call	_ZN6ThreadD2Ev@plt
 959      E7800000 
 960              	.LVL85:
 961              	.LBE157:
 962              	.LBE156:
 963 002c 13850400 		mv	a0,s1
 964 0030 97000000 		call	_ZdlPv@plt
 964      E7800000 
 965              	.LVL86:
 966 0038 83308101 		ld	ra,24(sp)
 967              		.cfi_restore 1
 968 003c 03340101 		ld	s0,16(sp)
 969              		.cfi_restore 8
 970              		.cfi_def_cfa 2, 32
 971 0040 83348100 		ld	s1,8(sp)
 972              		.cfi_restore 9
 973              	.LVL87:
 974 0044 13010102 		addi	sp,sp,32
 975              		.cfi_def_cfa_offset 0
 976 0048 67800000 		jr	ra
 977              		.cfi_endproc
 978              	.LFE150:
 980              		.section	.text._ZN24ConsumerProducerAsyncCPP16ProducerKeyboradD2Ev,"axG",@progbits,_ZN24ConsumerPr
 981              		.align	2
 982              		.weak	_ZN24ConsumerProducerAsyncCPP16ProducerKeyboradD2Ev
 984              	_ZN24ConsumerProducerAsyncCPP16ProducerKeyboradD2Ev:
 985              	.LFB156:
  20:src/Code/../../h/Testing/Testing_OS1/Consumer_Producer_CPP_API_Test.hpp ****         thread_data *td;
 986              		.loc 5 20 11 is_stmt 1
 987              		.cfi_startproc
 988              	.LVL88:
 989 0000 130101FF 		addi	sp,sp,-16
 990              		.cfi_def_cfa_offset 16
 991 0004 23341100 		sd	ra,8(sp)
 992 0008 23308100 		sd	s0,0(sp)
 993              		.cfi_offset 1, -8
 994              		.cfi_offset 8, -16
 995 000c 13040101 		addi	s0,sp,16
GAS LISTING /tmp/ccBYUnRY.s 			page 24


 996              		.cfi_def_cfa 8, 0
 997              	.LBB158:
  20:src/Code/../../h/Testing/Testing_OS1/Consumer_Producer_CPP_API_Test.hpp ****         thread_data *td;
 998              		.loc 5 20 11 is_stmt 0
 999 0010 97070000 		lla	a5,_ZTVN24ConsumerProducerAsyncCPP16ProducerKeyboradE+16
 999      93870700 
 1000 0018 2330F500 		sd	a5,0(a0)
 1001 001c 97000000 		call	_ZN6ThreadD2Ev@plt
 1001      E7800000 
 1002              	.LVL89:
 1003              	.LBE158:
 1004 0024 83308100 		ld	ra,8(sp)
 1005              		.cfi_restore 1
 1006 0028 03340100 		ld	s0,0(sp)
 1007              		.cfi_restore 8
 1008              		.cfi_def_cfa 2, 16
 1009 002c 13010101 		addi	sp,sp,16
 1010              		.cfi_def_cfa_offset 0
 1011 0030 67800000 		jr	ra
 1012              		.cfi_endproc
 1013              	.LFE156:
 1015              		.weak	_ZN24ConsumerProducerAsyncCPP16ProducerKeyboradD1Ev
 1016              		.set	_ZN24ConsumerProducerAsyncCPP16ProducerKeyboradD1Ev,_ZN24ConsumerProducerAsyncCPP16ProducerKe
 1017              		.section	.text._ZN24ConsumerProducerAsyncCPP16ProducerKeyboradD0Ev,"axG",@progbits,_ZN24ConsumerPr
 1018              		.align	2
 1019              		.weak	_ZN24ConsumerProducerAsyncCPP16ProducerKeyboradD0Ev
 1021              	_ZN24ConsumerProducerAsyncCPP16ProducerKeyboradD0Ev:
 1022              	.LFB158:
  20:src/Code/../../h/Testing/Testing_OS1/Consumer_Producer_CPP_API_Test.hpp ****         thread_data *td;
 1023              		.loc 5 20 11 is_stmt 1
 1024              		.cfi_startproc
 1025              	.LVL90:
 1026 0000 130101FE 		addi	sp,sp,-32
 1027              		.cfi_def_cfa_offset 32
 1028 0004 233C1100 		sd	ra,24(sp)
 1029 0008 23388100 		sd	s0,16(sp)
 1030 000c 23349100 		sd	s1,8(sp)
 1031              		.cfi_offset 1, -8
 1032              		.cfi_offset 8, -16
 1033              		.cfi_offset 9, -24
 1034 0010 13040102 		addi	s0,sp,32
 1035              		.cfi_def_cfa 8, 0
 1036 0014 93040500 		mv	s1,a0
 1037              	.LVL91:
 1038              	.LBB159:
 1039              	.LBB160:
  20:src/Code/../../h/Testing/Testing_OS1/Consumer_Producer_CPP_API_Test.hpp ****         thread_data *td;
 1040              		.loc 5 20 11 is_stmt 0
 1041 0018 97070000 		lla	a5,_ZTVN24ConsumerProducerAsyncCPP16ProducerKeyboradE+16
 1041      93870700 
 1042 0020 2330F500 		sd	a5,0(a0)
 1043 0024 97000000 		call	_ZN6ThreadD2Ev@plt
 1043      E7800000 
 1044              	.LVL92:
 1045              	.LBE160:
 1046              	.LBE159:
 1047 002c 13850400 		mv	a0,s1
GAS LISTING /tmp/ccBYUnRY.s 			page 25


 1048 0030 97000000 		call	_ZdlPv@plt
 1048      E7800000 
 1049              	.LVL93:
 1050 0038 83308101 		ld	ra,24(sp)
 1051              		.cfi_restore 1
 1052 003c 03340101 		ld	s0,16(sp)
 1053              		.cfi_restore 8
 1054              		.cfi_def_cfa 2, 32
 1055 0040 83348100 		ld	s1,8(sp)
 1056              		.cfi_restore 9
 1057              	.LVL94:
 1058 0044 13010102 		addi	sp,sp,32
 1059              		.cfi_def_cfa_offset 0
 1060 0048 67800000 		jr	ra
 1061              		.cfi_endproc
 1062              	.LFE158:
 1064              		.section	.text._ZN24ConsumerProducerAsyncCPP8ProducerD2Ev,"axG",@progbits,_ZN24ConsumerProducerAsy
 1065              		.align	2
 1066              		.weak	_ZN24ConsumerProducerAsyncCPP8ProducerD2Ev
 1068              	_ZN24ConsumerProducerAsyncCPP8ProducerD2Ev:
 1069              	.LFB152:
  40:src/Code/../../h/Testing/Testing_OS1/Consumer_Producer_CPP_API_Test.hpp ****         thread_data *td;
 1070              		.loc 5 40 11 is_stmt 1
 1071              		.cfi_startproc
 1072              	.LVL95:
 1073 0000 130101FF 		addi	sp,sp,-16
 1074              		.cfi_def_cfa_offset 16
 1075 0004 23341100 		sd	ra,8(sp)
 1076 0008 23308100 		sd	s0,0(sp)
 1077              		.cfi_offset 1, -8
 1078              		.cfi_offset 8, -16
 1079 000c 13040101 		addi	s0,sp,16
 1080              		.cfi_def_cfa 8, 0
 1081              	.LBB161:
  40:src/Code/../../h/Testing/Testing_OS1/Consumer_Producer_CPP_API_Test.hpp ****         thread_data *td;
 1082              		.loc 5 40 11 is_stmt 0
 1083 0010 97070000 		lla	a5,_ZTVN24ConsumerProducerAsyncCPP8ProducerE+16
 1083      93870700 
 1084 0018 2330F500 		sd	a5,0(a0)
 1085 001c 97000000 		call	_ZN6ThreadD2Ev@plt
 1085      E7800000 
 1086              	.LVL96:
 1087              	.LBE161:
 1088 0024 83308100 		ld	ra,8(sp)
 1089              		.cfi_restore 1
 1090 0028 03340100 		ld	s0,0(sp)
 1091              		.cfi_restore 8
 1092              		.cfi_def_cfa 2, 16
 1093 002c 13010101 		addi	sp,sp,16
 1094              		.cfi_def_cfa_offset 0
 1095 0030 67800000 		jr	ra
 1096              		.cfi_endproc
 1097              	.LFE152:
 1099              		.weak	_ZN24ConsumerProducerAsyncCPP8ProducerD1Ev
 1100              		.set	_ZN24ConsumerProducerAsyncCPP8ProducerD1Ev,_ZN24ConsumerProducerAsyncCPP8ProducerD2Ev
 1101              		.section	.text._ZN24ConsumerProducerAsyncCPP8ProducerD0Ev,"axG",@progbits,_ZN24ConsumerProducerAsy
 1102              		.align	2
GAS LISTING /tmp/ccBYUnRY.s 			page 26


 1103              		.weak	_ZN24ConsumerProducerAsyncCPP8ProducerD0Ev
 1105              	_ZN24ConsumerProducerAsyncCPP8ProducerD0Ev:
 1106              	.LFB154:
  40:src/Code/../../h/Testing/Testing_OS1/Consumer_Producer_CPP_API_Test.hpp ****         thread_data *td;
 1107              		.loc 5 40 11 is_stmt 1
 1108              		.cfi_startproc
 1109              	.LVL97:
 1110 0000 130101FE 		addi	sp,sp,-32
 1111              		.cfi_def_cfa_offset 32
 1112 0004 233C1100 		sd	ra,24(sp)
 1113 0008 23388100 		sd	s0,16(sp)
 1114 000c 23349100 		sd	s1,8(sp)
 1115              		.cfi_offset 1, -8
 1116              		.cfi_offset 8, -16
 1117              		.cfi_offset 9, -24
 1118 0010 13040102 		addi	s0,sp,32
 1119              		.cfi_def_cfa 8, 0
 1120 0014 93040500 		mv	s1,a0
 1121              	.LVL98:
 1122              	.LBB162:
 1123              	.LBB163:
  40:src/Code/../../h/Testing/Testing_OS1/Consumer_Producer_CPP_API_Test.hpp ****         thread_data *td;
 1124              		.loc 5 40 11 is_stmt 0
 1125 0018 97070000 		lla	a5,_ZTVN24ConsumerProducerAsyncCPP8ProducerE+16
 1125      93870700 
 1126 0020 2330F500 		sd	a5,0(a0)
 1127 0024 97000000 		call	_ZN6ThreadD2Ev@plt
 1127      E7800000 
 1128              	.LVL99:
 1129              	.LBE163:
 1130              	.LBE162:
 1131 002c 13850400 		mv	a0,s1
 1132 0030 97000000 		call	_ZdlPv@plt
 1132      E7800000 
 1133              	.LVL100:
 1134 0038 83308101 		ld	ra,24(sp)
 1135              		.cfi_restore 1
 1136 003c 03340101 		ld	s0,16(sp)
 1137              		.cfi_restore 8
 1138              		.cfi_def_cfa 2, 32
 1139 0040 83348100 		ld	s1,8(sp)
 1140              		.cfi_restore 9
 1141              	.LVL101:
 1142 0044 13010102 		addi	sp,sp,32
 1143              		.cfi_def_cfa_offset 0
 1144 0048 67800000 		jr	ra
 1145              		.cfi_endproc
 1146              	.LFE154:
 1148              		.section	.text._ZN19PeriodicThreadsTest1AD2Ev,"axG",@progbits,_ZN19PeriodicThreadsTest1AD5Ev,comda
 1149              		.align	2
 1150              		.weak	_ZN19PeriodicThreadsTest1AD2Ev
 1152              	_ZN19PeriodicThreadsTest1AD2Ev:
 1153              	.LFB144:
 1154              		.file 6 "src/Code/../../h/Testing/Testing_OS1/Periodic_Threads_CPP_API_Test.hpp"
   1:src/Code/../../h/Testing/Testing_OS1/Periodic_Threads_CPP_API_Test.hpp **** #ifndef PERIODIC_THREADS_CPP_API_TEST_HPP
   2:src/Code/../../h/Testing/Testing_OS1/Periodic_Threads_CPP_API_Test.hpp **** #define PERIODIC_THREADS_CPP_API_TEST_HPP
   3:src/Code/../../h/Testing/Testing_OS1/Periodic_Threads_CPP_API_Test.hpp **** 
GAS LISTING /tmp/ccBYUnRY.s 			page 27


   4:src/Code/../../h/Testing/Testing_OS1/Periodic_Threads_CPP_API_Test.hpp **** #include "../../Code/SystemCalls/syscall_cpp.hpp"
   5:src/Code/../../h/Testing/Testing_OS1/Periodic_Threads_CPP_API_Test.hpp **** 
   6:src/Code/../../h/Testing/Testing_OS1/Periodic_Threads_CPP_API_Test.hpp **** namespace PeriodicThreadsTest {
   7:src/Code/../../h/Testing/Testing_OS1/Periodic_Threads_CPP_API_Test.hpp ****     Semaphore* myOwnMutex;
   8:src/Code/../../h/Testing/Testing_OS1/Periodic_Threads_CPP_API_Test.hpp ****     Semaphore* myOwnWaitForAll;
   9:src/Code/../../h/Testing/Testing_OS1/Periodic_Threads_CPP_API_Test.hpp **** 
  10:src/Code/../../h/Testing/Testing_OS1/Periodic_Threads_CPP_API_Test.hpp ****     class A : public PeriodicThread {
 1155              		.loc 6 10 11 is_stmt 1
 1156              		.cfi_startproc
 1157              	.LVL102:
 1158 0000 130101FF 		addi	sp,sp,-16
 1159              		.cfi_def_cfa_offset 16
 1160 0004 23341100 		sd	ra,8(sp)
 1161 0008 23308100 		sd	s0,0(sp)
 1162              		.cfi_offset 1, -8
 1163              		.cfi_offset 8, -16
 1164 000c 13040101 		addi	s0,sp,16
 1165              		.cfi_def_cfa 8, 0
 1166              	.LVL103:
 1167              	.LBB164:
 1168              	.LBB165:
 1169              		.file 7 "src/Code/../../h/Code/Console/../SystemCalls/syscall_cpp.hpp"
   1:src/Code/../../h/Code/Console/../SystemCalls/syscall_cpp.hpp **** #ifndef SYSCALL_CPP_H
   2:src/Code/../../h/Code/Console/../SystemCalls/syscall_cpp.hpp **** #define SYSCALL_CPP_H
   3:src/Code/../../h/Code/Console/../SystemCalls/syscall_cpp.hpp **** 
   4:src/Code/../../h/Code/Console/../SystemCalls/syscall_cpp.hpp **** #include "syscall_c.h"
   5:src/Code/../../h/Code/Console/../SystemCalls/syscall_cpp.hpp **** 
   6:src/Code/../../h/Code/Console/../SystemCalls/syscall_cpp.hpp **** void* operator new(size_t n);
   7:src/Code/../../h/Code/Console/../SystemCalls/syscall_cpp.hpp **** void* operator new[](size_t n);
   8:src/Code/../../h/Code/Console/../SystemCalls/syscall_cpp.hpp **** void operator delete(void* ptr);
   9:src/Code/../../h/Code/Console/../SystemCalls/syscall_cpp.hpp **** void operator delete[](void* ptr);
  10:src/Code/../../h/Code/Console/../SystemCalls/syscall_cpp.hpp **** 
  11:src/Code/../../h/Code/Console/../SystemCalls/syscall_cpp.hpp **** class Thread {
  12:src/Code/../../h/Code/Console/../SystemCalls/syscall_cpp.hpp **** public:
  13:src/Code/../../h/Code/Console/../SystemCalls/syscall_cpp.hpp ****     Thread(void (*body)(void*), void* arg);
  14:src/Code/../../h/Code/Console/../SystemCalls/syscall_cpp.hpp ****     virtual ~Thread();
  15:src/Code/../../h/Code/Console/../SystemCalls/syscall_cpp.hpp **** 
  16:src/Code/../../h/Code/Console/../SystemCalls/syscall_cpp.hpp ****     int start();
  17:src/Code/../../h/Code/Console/../SystemCalls/syscall_cpp.hpp **** 
  18:src/Code/../../h/Code/Console/../SystemCalls/syscall_cpp.hpp ****     static void dispatch();
  19:src/Code/../../h/Code/Console/../SystemCalls/syscall_cpp.hpp ****     static int sleep(time_t time);
  20:src/Code/../../h/Code/Console/../SystemCalls/syscall_cpp.hpp **** 
  21:src/Code/../../h/Code/Console/../SystemCalls/syscall_cpp.hpp ****     int getThreadId();
  22:src/Code/../../h/Code/Console/../SystemCalls/syscall_cpp.hpp **** 
  23:src/Code/../../h/Code/Console/../SystemCalls/syscall_cpp.hpp **** protected:
  24:src/Code/../../h/Code/Console/../SystemCalls/syscall_cpp.hpp ****     Thread();
  25:src/Code/../../h/Code/Console/../SystemCalls/syscall_cpp.hpp ****     virtual void run() {}
  26:src/Code/../../h/Code/Console/../SystemCalls/syscall_cpp.hpp **** 
  27:src/Code/../../h/Code/Console/../SystemCalls/syscall_cpp.hpp **** private:
  28:src/Code/../../h/Code/Console/../SystemCalls/syscall_cpp.hpp ****     static void callRunForThisThread(void* thisPointer);
  29:src/Code/../../h/Code/Console/../SystemCalls/syscall_cpp.hpp **** 
  30:src/Code/../../h/Code/Console/../SystemCalls/syscall_cpp.hpp ****     thread_t myHandle;
  31:src/Code/../../h/Code/Console/../SystemCalls/syscall_cpp.hpp **** };
  32:src/Code/../../h/Code/Console/../SystemCalls/syscall_cpp.hpp **** 
  33:src/Code/../../h/Code/Console/../SystemCalls/syscall_cpp.hpp **** class Semaphore {
  34:src/Code/../../h/Code/Console/../SystemCalls/syscall_cpp.hpp **** public:
  35:src/Code/../../h/Code/Console/../SystemCalls/syscall_cpp.hpp ****     explicit Semaphore(unsigned init = 1);
GAS LISTING /tmp/ccBYUnRY.s 			page 28


  36:src/Code/../../h/Code/Console/../SystemCalls/syscall_cpp.hpp ****     virtual ~Semaphore();
  37:src/Code/../../h/Code/Console/../SystemCalls/syscall_cpp.hpp **** 
  38:src/Code/../../h/Code/Console/../SystemCalls/syscall_cpp.hpp ****     int wait();
  39:src/Code/../../h/Code/Console/../SystemCalls/syscall_cpp.hpp ****     int signal();
  40:src/Code/../../h/Code/Console/../SystemCalls/syscall_cpp.hpp **** 
  41:src/Code/../../h/Code/Console/../SystemCalls/syscall_cpp.hpp **** private:
  42:src/Code/../../h/Code/Console/../SystemCalls/syscall_cpp.hpp ****     sem_t myHandle;
  43:src/Code/../../h/Code/Console/../SystemCalls/syscall_cpp.hpp **** };
  44:src/Code/../../h/Code/Console/../SystemCalls/syscall_cpp.hpp **** 
  45:src/Code/../../h/Code/Console/../SystemCalls/syscall_cpp.hpp **** class PeriodicThread : public Thread {
 1170              		.loc 7 45 7 is_stmt 0
 1171 0010 97070000 		la	a5,_ZTV14PeriodicThread
 1171      83B70700 
 1172 0018 93870701 		addi	a5,a5,16
 1173 001c 2330F500 		sd	a5,0(a0)
 1174 0020 97000000 		call	_ZN6ThreadD2Ev@plt
 1174      E7800000 
 1175              	.LVL104:
 1176              	.LBE165:
 1177              	.LBE164:
 1178              		.loc 6 10 11
 1179 0028 83308100 		ld	ra,8(sp)
 1180              		.cfi_restore 1
 1181 002c 03340100 		ld	s0,0(sp)
 1182              		.cfi_restore 8
 1183              		.cfi_def_cfa 2, 16
 1184 0030 13010101 		addi	sp,sp,16
 1185              		.cfi_def_cfa_offset 0
 1186 0034 67800000 		jr	ra
 1187              		.cfi_endproc
 1188              	.LFE144:
 1190              		.weak	_ZN19PeriodicThreadsTest1AD1Ev
 1191              		.set	_ZN19PeriodicThreadsTest1AD1Ev,_ZN19PeriodicThreadsTest1AD2Ev
 1192              		.section	.text._ZN19PeriodicThreadsTest1AD0Ev,"axG",@progbits,_ZN19PeriodicThreadsTest1AD5Ev,comda
 1193              		.align	2
 1194              		.weak	_ZN19PeriodicThreadsTest1AD0Ev
 1196              	_ZN19PeriodicThreadsTest1AD0Ev:
 1197              	.LFB146:
 1198              		.loc 6 10 11 is_stmt 1
 1199              		.cfi_startproc
 1200              	.LVL105:
 1201 0000 130101FE 		addi	sp,sp,-32
 1202              		.cfi_def_cfa_offset 32
 1203 0004 233C1100 		sd	ra,24(sp)
 1204 0008 23388100 		sd	s0,16(sp)
 1205 000c 23349100 		sd	s1,8(sp)
 1206              		.cfi_offset 1, -8
 1207              		.cfi_offset 8, -16
 1208              		.cfi_offset 9, -24
 1209 0010 13040102 		addi	s0,sp,32
 1210              		.cfi_def_cfa 8, 0
 1211 0014 93040500 		mv	s1,a0
 1212              	.LVL106:
 1213              	.LBB166:
 1214              	.LBB167:
 1215              	.LBB168:
 1216              		.loc 7 45 7 is_stmt 0
GAS LISTING /tmp/ccBYUnRY.s 			page 29


 1217 0018 97070000 		la	a5,_ZTV14PeriodicThread
 1217      83B70700 
 1218 0020 93870701 		addi	a5,a5,16
 1219 0024 2330F500 		sd	a5,0(a0)
 1220 0028 97000000 		call	_ZN6ThreadD2Ev@plt
 1220      E7800000 
 1221              	.LVL107:
 1222              	.LBE168:
 1223              	.LBE167:
 1224              	.LBE166:
 1225              		.loc 6 10 11
 1226 0030 13850400 		mv	a0,s1
 1227 0034 97000000 		call	_ZdlPv@plt
 1227      E7800000 
 1228              	.LVL108:
 1229 003c 83308101 		ld	ra,24(sp)
 1230              		.cfi_restore 1
 1231 0040 03340101 		ld	s0,16(sp)
 1232              		.cfi_restore 8
 1233              		.cfi_def_cfa 2, 32
 1234 0044 83348100 		ld	s1,8(sp)
 1235              		.cfi_restore 9
 1236              	.LVL109:
 1237 0048 13010102 		addi	sp,sp,32
 1238              		.cfi_def_cfa_offset 0
 1239 004c 67800000 		jr	ra
 1240              		.cfi_endproc
 1241              	.LFE146:
 1243              		.section	.text._ZN19PeriodicThreadsTest1BD2Ev,"axG",@progbits,_ZN19PeriodicThreadsTest1BD5Ev,comda
 1244              		.align	2
 1245              		.weak	_ZN19PeriodicThreadsTest1BD2Ev
 1247              	_ZN19PeriodicThreadsTest1BD2Ev:
 1248              	.LFB140:
  11:src/Code/../../h/Testing/Testing_OS1/Periodic_Threads_CPP_API_Test.hpp ****     public:
  12:src/Code/../../h/Testing/Testing_OS1/Periodic_Threads_CPP_API_Test.hpp ****         explicit A(time_t period) : PeriodicThread(period) {}
  13:src/Code/../../h/Testing/Testing_OS1/Periodic_Threads_CPP_API_Test.hpp **** 
  14:src/Code/../../h/Testing/Testing_OS1/Periodic_Threads_CPP_API_Test.hpp ****     protected:
  15:src/Code/../../h/Testing/Testing_OS1/Periodic_Threads_CPP_API_Test.hpp ****         void run() override {
  16:src/Code/../../h/Testing/Testing_OS1/Periodic_Threads_CPP_API_Test.hpp ****             while (!shouldThisThreadEnd) {
  17:src/Code/../../h/Testing/Testing_OS1/Periodic_Threads_CPP_API_Test.hpp ****                 periodicActivation();
  18:src/Code/../../h/Testing/Testing_OS1/Periodic_Threads_CPP_API_Test.hpp ****                 time_sleep(sleepTime);
  19:src/Code/../../h/Testing/Testing_OS1/Periodic_Threads_CPP_API_Test.hpp ****             }
  20:src/Code/../../h/Testing/Testing_OS1/Periodic_Threads_CPP_API_Test.hpp ****             myOwnWaitForAll->signal();
  21:src/Code/../../h/Testing/Testing_OS1/Periodic_Threads_CPP_API_Test.hpp ****         }
  22:src/Code/../../h/Testing/Testing_OS1/Periodic_Threads_CPP_API_Test.hpp **** 
  23:src/Code/../../h/Testing/Testing_OS1/Periodic_Threads_CPP_API_Test.hpp ****     private:
  24:src/Code/../../h/Testing/Testing_OS1/Periodic_Threads_CPP_API_Test.hpp ****         void periodicActivation() override {
  25:src/Code/../../h/Testing/Testing_OS1/Periodic_Threads_CPP_API_Test.hpp ****             myOwnMutex->wait();
  26:src/Code/../../h/Testing/Testing_OS1/Periodic_Threads_CPP_API_Test.hpp ****             putc('A');
  27:src/Code/../../h/Testing/Testing_OS1/Periodic_Threads_CPP_API_Test.hpp ****             putc('\n');
  28:src/Code/../../h/Testing/Testing_OS1/Periodic_Threads_CPP_API_Test.hpp ****             myOwnMutex->signal();
  29:src/Code/../../h/Testing/Testing_OS1/Periodic_Threads_CPP_API_Test.hpp ****         }
  30:src/Code/../../h/Testing/Testing_OS1/Periodic_Threads_CPP_API_Test.hpp ****     };
  31:src/Code/../../h/Testing/Testing_OS1/Periodic_Threads_CPP_API_Test.hpp **** 
  32:src/Code/../../h/Testing/Testing_OS1/Periodic_Threads_CPP_API_Test.hpp ****     class B : public PeriodicThread {
 1249              		.loc 6 32 11 is_stmt 1
 1250              		.cfi_startproc
GAS LISTING /tmp/ccBYUnRY.s 			page 30


 1251              	.LVL110:
 1252 0000 130101FF 		addi	sp,sp,-16
 1253              		.cfi_def_cfa_offset 16
 1254 0004 23341100 		sd	ra,8(sp)
 1255 0008 23308100 		sd	s0,0(sp)
 1256              		.cfi_offset 1, -8
 1257              		.cfi_offset 8, -16
 1258 000c 13040101 		addi	s0,sp,16
 1259              		.cfi_def_cfa 8, 0
 1260              	.LVL111:
 1261              	.LBB169:
 1262              	.LBB170:
 1263              		.loc 7 45 7 is_stmt 0
 1264 0010 97070000 		la	a5,_ZTV14PeriodicThread
 1264      83B70700 
 1265 0018 93870701 		addi	a5,a5,16
 1266 001c 2330F500 		sd	a5,0(a0)
 1267 0020 97000000 		call	_ZN6ThreadD2Ev@plt
 1267      E7800000 
 1268              	.LVL112:
 1269              	.LBE170:
 1270              	.LBE169:
 1271              		.loc 6 32 11
 1272 0028 83308100 		ld	ra,8(sp)
 1273              		.cfi_restore 1
 1274 002c 03340100 		ld	s0,0(sp)
 1275              		.cfi_restore 8
 1276              		.cfi_def_cfa 2, 16
 1277 0030 13010101 		addi	sp,sp,16
 1278              		.cfi_def_cfa_offset 0
 1279 0034 67800000 		jr	ra
 1280              		.cfi_endproc
 1281              	.LFE140:
 1283              		.weak	_ZN19PeriodicThreadsTest1BD1Ev
 1284              		.set	_ZN19PeriodicThreadsTest1BD1Ev,_ZN19PeriodicThreadsTest1BD2Ev
 1285              		.section	.text._ZN19PeriodicThreadsTest1BD0Ev,"axG",@progbits,_ZN19PeriodicThreadsTest1BD5Ev,comda
 1286              		.align	2
 1287              		.weak	_ZN19PeriodicThreadsTest1BD0Ev
 1289              	_ZN19PeriodicThreadsTest1BD0Ev:
 1290              	.LFB142:
 1291              		.loc 6 32 11 is_stmt 1
 1292              		.cfi_startproc
 1293              	.LVL113:
 1294 0000 130101FE 		addi	sp,sp,-32
 1295              		.cfi_def_cfa_offset 32
 1296 0004 233C1100 		sd	ra,24(sp)
 1297 0008 23388100 		sd	s0,16(sp)
 1298 000c 23349100 		sd	s1,8(sp)
 1299              		.cfi_offset 1, -8
 1300              		.cfi_offset 8, -16
 1301              		.cfi_offset 9, -24
 1302 0010 13040102 		addi	s0,sp,32
 1303              		.cfi_def_cfa 8, 0
 1304 0014 93040500 		mv	s1,a0
 1305              	.LVL114:
 1306              	.LBB171:
 1307              	.LBB172:
GAS LISTING /tmp/ccBYUnRY.s 			page 31


 1308              	.LBB173:
 1309              		.loc 7 45 7 is_stmt 0
 1310 0018 97070000 		la	a5,_ZTV14PeriodicThread
 1310      83B70700 
 1311 0020 93870701 		addi	a5,a5,16
 1312 0024 2330F500 		sd	a5,0(a0)
 1313 0028 97000000 		call	_ZN6ThreadD2Ev@plt
 1313      E7800000 
 1314              	.LVL115:
 1315              	.LBE173:
 1316              	.LBE172:
 1317              	.LBE171:
 1318              		.loc 6 32 11
 1319 0030 13850400 		mv	a0,s1
 1320 0034 97000000 		call	_ZdlPv@plt
 1320      E7800000 
 1321              	.LVL116:
 1322 003c 83308101 		ld	ra,24(sp)
 1323              		.cfi_restore 1
 1324 0040 03340101 		ld	s0,16(sp)
 1325              		.cfi_restore 8
 1326              		.cfi_def_cfa 2, 32
 1327 0044 83348100 		ld	s1,8(sp)
 1328              		.cfi_restore 9
 1329              	.LVL117:
 1330 0048 13010102 		addi	sp,sp,32
 1331              		.cfi_def_cfa_offset 0
 1332 004c 67800000 		jr	ra
 1333              		.cfi_endproc
 1334              	.LFE142:
 1336              		.section	.text._ZN19PeriodicThreadsTest1CD2Ev,"axG",@progbits,_ZN19PeriodicThreadsTest1CD5Ev,comda
 1337              		.align	2
 1338              		.weak	_ZN19PeriodicThreadsTest1CD2Ev
 1340              	_ZN19PeriodicThreadsTest1CD2Ev:
 1341              	.LFB136:
  33:src/Code/../../h/Testing/Testing_OS1/Periodic_Threads_CPP_API_Test.hpp ****     public:
  34:src/Code/../../h/Testing/Testing_OS1/Periodic_Threads_CPP_API_Test.hpp ****         explicit B(time_t period) : PeriodicThread(period) {}
  35:src/Code/../../h/Testing/Testing_OS1/Periodic_Threads_CPP_API_Test.hpp **** 
  36:src/Code/../../h/Testing/Testing_OS1/Periodic_Threads_CPP_API_Test.hpp ****     protected:
  37:src/Code/../../h/Testing/Testing_OS1/Periodic_Threads_CPP_API_Test.hpp ****         void run() override {
  38:src/Code/../../h/Testing/Testing_OS1/Periodic_Threads_CPP_API_Test.hpp ****             while (!shouldThisThreadEnd) {
  39:src/Code/../../h/Testing/Testing_OS1/Periodic_Threads_CPP_API_Test.hpp ****                 periodicActivation();
  40:src/Code/../../h/Testing/Testing_OS1/Periodic_Threads_CPP_API_Test.hpp ****                 time_sleep(sleepTime);
  41:src/Code/../../h/Testing/Testing_OS1/Periodic_Threads_CPP_API_Test.hpp ****             }
  42:src/Code/../../h/Testing/Testing_OS1/Periodic_Threads_CPP_API_Test.hpp ****             myOwnWaitForAll->signal();
  43:src/Code/../../h/Testing/Testing_OS1/Periodic_Threads_CPP_API_Test.hpp ****         }
  44:src/Code/../../h/Testing/Testing_OS1/Periodic_Threads_CPP_API_Test.hpp **** 
  45:src/Code/../../h/Testing/Testing_OS1/Periodic_Threads_CPP_API_Test.hpp ****     private:
  46:src/Code/../../h/Testing/Testing_OS1/Periodic_Threads_CPP_API_Test.hpp ****         void periodicActivation() override {
  47:src/Code/../../h/Testing/Testing_OS1/Periodic_Threads_CPP_API_Test.hpp ****             myOwnMutex->wait();
  48:src/Code/../../h/Testing/Testing_OS1/Periodic_Threads_CPP_API_Test.hpp ****             putc('B');
  49:src/Code/../../h/Testing/Testing_OS1/Periodic_Threads_CPP_API_Test.hpp ****             putc('\n');
  50:src/Code/../../h/Testing/Testing_OS1/Periodic_Threads_CPP_API_Test.hpp ****             myOwnMutex->signal();
  51:src/Code/../../h/Testing/Testing_OS1/Periodic_Threads_CPP_API_Test.hpp ****         }
  52:src/Code/../../h/Testing/Testing_OS1/Periodic_Threads_CPP_API_Test.hpp ****     };
  53:src/Code/../../h/Testing/Testing_OS1/Periodic_Threads_CPP_API_Test.hpp **** 
  54:src/Code/../../h/Testing/Testing_OS1/Periodic_Threads_CPP_API_Test.hpp ****     class C : public PeriodicThread {
GAS LISTING /tmp/ccBYUnRY.s 			page 32


 1342              		.loc 6 54 11 is_stmt 1
 1343              		.cfi_startproc
 1344              	.LVL118:
 1345 0000 130101FF 		addi	sp,sp,-16
 1346              		.cfi_def_cfa_offset 16
 1347 0004 23341100 		sd	ra,8(sp)
 1348 0008 23308100 		sd	s0,0(sp)
 1349              		.cfi_offset 1, -8
 1350              		.cfi_offset 8, -16
 1351 000c 13040101 		addi	s0,sp,16
 1352              		.cfi_def_cfa 8, 0
 1353              	.LVL119:
 1354              	.LBB174:
 1355              	.LBB175:
 1356              		.loc 7 45 7 is_stmt 0
 1357 0010 97070000 		la	a5,_ZTV14PeriodicThread
 1357      83B70700 
 1358 0018 93870701 		addi	a5,a5,16
 1359 001c 2330F500 		sd	a5,0(a0)
 1360 0020 97000000 		call	_ZN6ThreadD2Ev@plt
 1360      E7800000 
 1361              	.LVL120:
 1362              	.LBE175:
 1363              	.LBE174:
 1364              		.loc 6 54 11
 1365 0028 83308100 		ld	ra,8(sp)
 1366              		.cfi_restore 1
 1367 002c 03340100 		ld	s0,0(sp)
 1368              		.cfi_restore 8
 1369              		.cfi_def_cfa 2, 16
 1370 0030 13010101 		addi	sp,sp,16
 1371              		.cfi_def_cfa_offset 0
 1372 0034 67800000 		jr	ra
 1373              		.cfi_endproc
 1374              	.LFE136:
 1376              		.weak	_ZN19PeriodicThreadsTest1CD1Ev
 1377              		.set	_ZN19PeriodicThreadsTest1CD1Ev,_ZN19PeriodicThreadsTest1CD2Ev
 1378              		.section	.text._ZN19PeriodicThreadsTest1CD0Ev,"axG",@progbits,_ZN19PeriodicThreadsTest1CD5Ev,comda
 1379              		.align	2
 1380              		.weak	_ZN19PeriodicThreadsTest1CD0Ev
 1382              	_ZN19PeriodicThreadsTest1CD0Ev:
 1383              	.LFB138:
 1384              		.loc 6 54 11 is_stmt 1
 1385              		.cfi_startproc
 1386              	.LVL121:
 1387 0000 130101FE 		addi	sp,sp,-32
 1388              		.cfi_def_cfa_offset 32
 1389 0004 233C1100 		sd	ra,24(sp)
 1390 0008 23388100 		sd	s0,16(sp)
 1391 000c 23349100 		sd	s1,8(sp)
 1392              		.cfi_offset 1, -8
 1393              		.cfi_offset 8, -16
 1394              		.cfi_offset 9, -24
 1395 0010 13040102 		addi	s0,sp,32
 1396              		.cfi_def_cfa 8, 0
 1397 0014 93040500 		mv	s1,a0
 1398              	.LVL122:
GAS LISTING /tmp/ccBYUnRY.s 			page 33


 1399              	.LBB176:
 1400              	.LBB177:
 1401              	.LBB178:
 1402              		.loc 7 45 7 is_stmt 0
 1403 0018 97070000 		la	a5,_ZTV14PeriodicThread
 1403      83B70700 
 1404 0020 93870701 		addi	a5,a5,16
 1405 0024 2330F500 		sd	a5,0(a0)
 1406 0028 97000000 		call	_ZN6ThreadD2Ev@plt
 1406      E7800000 
 1407              	.LVL123:
 1408              	.LBE178:
 1409              	.LBE177:
 1410              	.LBE176:
 1411              		.loc 6 54 11
 1412 0030 13850400 		mv	a0,s1
 1413 0034 97000000 		call	_ZdlPv@plt
 1413      E7800000 
 1414              	.LVL124:
 1415 003c 83308101 		ld	ra,24(sp)
 1416              		.cfi_restore 1
 1417 0040 03340101 		ld	s0,16(sp)
 1418              		.cfi_restore 8
 1419              		.cfi_def_cfa 2, 32
 1420 0044 83348100 		ld	s1,8(sp)
 1421              		.cfi_restore 9
 1422              	.LVL125:
 1423 0048 13010102 		addi	sp,sp,32
 1424              		.cfi_def_cfa_offset 0
 1425 004c 67800000 		jr	ra
 1426              		.cfi_endproc
 1427              	.LFE138:
 1429              		.text
 1430              		.align	2
 1431              		.globl	_ZN21ConsumerProducerSyncC16producerKeyboardEPv
 1433              	_ZN21ConsumerProducerSyncC16producerKeyboardEPv:
 1434              	.LFB78:
 1435              		.file 8 "src/Code/../../h/Testing/Testing_OS1/Consumer_Producer_C_API_Test.hpp"
   1:src/Code/../../h/Testing/Testing_OS1/Consumer_Producer_C_API_Test.hpp **** #ifndef CONSUMER_PRODUCER_C_API_TEST_HPP
   2:src/Code/../../h/Testing/Testing_OS1/Consumer_Producer_C_API_Test.hpp **** #define CONSUMER_PRODUCER_C_API_TEST_HPP
   3:src/Code/../../h/Testing/Testing_OS1/Consumer_Producer_C_API_Test.hpp **** 
   4:src/Code/../../h/Testing/Testing_OS1/Consumer_Producer_C_API_Test.hpp **** #include "../../Code/SystemCalls/syscall_c.h"
   5:src/Code/../../h/Testing/Testing_OS1/Consumer_Producer_C_API_Test.hpp **** #include "Buffer.hpp"
   6:src/Code/../../h/Testing/Testing_OS1/Consumer_Producer_C_API_Test.hpp **** #include "Buffer_CPP_API.hpp"
   7:src/Code/../../h/Testing/Testing_OS1/Consumer_Producer_C_API_Test.hpp **** 
   8:src/Code/../../h/Testing/Testing_OS1/Consumer_Producer_C_API_Test.hpp **** namespace ConsumerProducerSyncC {
   9:src/Code/../../h/Testing/Testing_OS1/Consumer_Producer_C_API_Test.hpp ****     sem_t waitForAll;
  10:src/Code/../../h/Testing/Testing_OS1/Consumer_Producer_C_API_Test.hpp **** 
  11:src/Code/../../h/Testing/Testing_OS1/Consumer_Producer_C_API_Test.hpp ****     struct thread_data {
  12:src/Code/../../h/Testing/Testing_OS1/Consumer_Producer_C_API_Test.hpp ****         int id;
  13:src/Code/../../h/Testing/Testing_OS1/Consumer_Producer_C_API_Test.hpp ****         BufferTestCPP::BufferCPP *buffer;
  14:src/Code/../../h/Testing/Testing_OS1/Consumer_Producer_C_API_Test.hpp ****         sem_t wait;
  15:src/Code/../../h/Testing/Testing_OS1/Consumer_Producer_C_API_Test.hpp ****     };
  16:src/Code/../../h/Testing/Testing_OS1/Consumer_Producer_C_API_Test.hpp **** 
  17:src/Code/../../h/Testing/Testing_OS1/Consumer_Producer_C_API_Test.hpp ****     volatile int threadEnd = 0;
  18:src/Code/../../h/Testing/Testing_OS1/Consumer_Producer_C_API_Test.hpp **** 
  19:src/Code/../../h/Testing/Testing_OS1/Consumer_Producer_C_API_Test.hpp ****     void producerKeyboard(void *arg) {
GAS LISTING /tmp/ccBYUnRY.s 			page 34


 1436              		.loc 8 19 38 is_stmt 1
 1437              		.cfi_startproc
 1438              	.LVL126:
 1439 01b8 130101FE 		addi	sp,sp,-32
 1440              		.cfi_def_cfa_offset 32
 1441 01bc 233C1100 		sd	ra,24(sp)
 1442 01c0 23388100 		sd	s0,16(sp)
 1443 01c4 23349100 		sd	s1,8(sp)
 1444 01c8 23302101 		sd	s2,0(sp)
 1445              		.cfi_offset 1, -8
 1446              		.cfi_offset 8, -16
 1447              		.cfi_offset 9, -24
 1448              		.cfi_offset 18, -32
 1449 01cc 13040102 		addi	s0,sp,32
 1450              		.cfi_def_cfa 8, 0
 1451 01d0 93040500 		mv	s1,a0
  20:src/Code/../../h/Testing/Testing_OS1/Consumer_Producer_C_API_Test.hpp ****         struct thread_data *data = (struct thread_data *) arg;
 1452              		.loc 8 20 9
 1453              	.LVL127:
  21:src/Code/../../h/Testing/Testing_OS1/Consumer_Producer_C_API_Test.hpp **** 
  22:src/Code/../../h/Testing/Testing_OS1/Consumer_Producer_C_API_Test.hpp ****         int key;
 1454              		.loc 8 22 9
  23:src/Code/../../h/Testing/Testing_OS1/Consumer_Producer_C_API_Test.hpp ****         int i = 0;
 1455              		.loc 8 23 9
 1456              		.loc 8 23 13 is_stmt 0
 1457 01d4 13090000 		li	s2,0
 1458 01d8 6F00C000 		j	.L72
 1459              	.LVL128:
 1460              	.L76:
  24:src/Code/../../h/Testing/Testing_OS1/Consumer_Producer_C_API_Test.hpp ****         while ((key = getc()) != 0x1b) {
  25:src/Code/../../h/Testing/Testing_OS1/Consumer_Producer_C_API_Test.hpp ****             data->buffer->put(key);
  26:src/Code/../../h/Testing/Testing_OS1/Consumer_Producer_C_API_Test.hpp ****             i++;
  27:src/Code/../../h/Testing/Testing_OS1/Consumer_Producer_C_API_Test.hpp **** 
  28:src/Code/../../h/Testing/Testing_OS1/Consumer_Producer_C_API_Test.hpp ****             if (i % (10 * data->id) == 0) {
  29:src/Code/../../h/Testing/Testing_OS1/Consumer_Producer_C_API_Test.hpp ****                 thread_dispatch();
 1461              		.loc 8 29 17 is_stmt 1
 1462              		.loc 8 29 32 is_stmt 0
 1463 01dc 97000000 		call	_Z15thread_dispatchv@plt
 1463      E7800000 
 1464              	.LVL129:
 1465              	.L72:
  24:src/Code/../../h/Testing/Testing_OS1/Consumer_Producer_C_API_Test.hpp ****         while ((key = getc()) != 0x1b) {
 1466              		.loc 8 24 9 is_stmt 1
  24:src/Code/../../h/Testing/Testing_OS1/Consumer_Producer_C_API_Test.hpp ****         while ((key = getc()) != 0x1b) {
 1467              		.loc 8 24 31
  24:src/Code/../../h/Testing/Testing_OS1/Consumer_Producer_C_API_Test.hpp ****         while ((key = getc()) != 0x1b) {
 1468              		.loc 8 24 27 is_stmt 0
 1469 01e4 97000000 		call	_Z4getcv@plt
 1469      E7800000 
 1470              	.LVL130:
  24:src/Code/../../h/Testing/Testing_OS1/Consumer_Producer_C_API_Test.hpp ****         while ((key = getc()) != 0x1b) {
 1471              		.loc 8 24 21
 1472 01ec 9B050500 		sext.w	a1,a0
 1473              	.LVL131:
  24:src/Code/../../h/Testing/Testing_OS1/Consumer_Producer_C_API_Test.hpp ****         while ((key = getc()) != 0x1b) {
 1474              		.loc 8 24 31
 1475 01f0 9307B001 		li	a5,27
GAS LISTING /tmp/ccBYUnRY.s 			page 35


 1476 01f4 638AF502 		beq	a1,a5,.L73
  25:src/Code/../../h/Testing/Testing_OS1/Consumer_Producer_C_API_Test.hpp ****             i++;
 1477              		.loc 8 25 13 is_stmt 1
  25:src/Code/../../h/Testing/Testing_OS1/Consumer_Producer_C_API_Test.hpp ****             i++;
 1478              		.loc 8 25 30 is_stmt 0
 1479 01f8 03B58400 		ld	a0,8(s1)
 1480 01fc 97000000 		call	_ZN13BufferTestCPP9BufferCPP3putEi@plt
 1480      E7800000 
 1481              	.LVL132:
  26:src/Code/../../h/Testing/Testing_OS1/Consumer_Producer_C_API_Test.hpp **** 
 1482              		.loc 8 26 13 is_stmt 1
  26:src/Code/../../h/Testing/Testing_OS1/Consumer_Producer_C_API_Test.hpp **** 
 1483              		.loc 8 26 14 is_stmt 0
 1484 0204 1B071900 		addiw	a4,s2,1
 1485 0208 1B090700 		sext.w	s2,a4
 1486              	.LVL133:
  28:src/Code/../../h/Testing/Testing_OS1/Consumer_Producer_C_API_Test.hpp ****                 thread_dispatch();
 1487              		.loc 8 28 13 is_stmt 1
  28:src/Code/../../h/Testing/Testing_OS1/Consumer_Producer_C_API_Test.hpp ****                 thread_dispatch();
 1488              		.loc 8 28 33 is_stmt 0
 1489 020c 83A60400 		lw	a3,0(s1)
  28:src/Code/../../h/Testing/Testing_OS1/Consumer_Producer_C_API_Test.hpp ****                 thread_dispatch();
 1490              		.loc 8 28 25
 1491 0210 9B972600 		slliw	a5,a3,2
 1492 0214 BB87D700 		addw	a5,a5,a3
 1493 0218 9B971700 		slliw	a5,a5,1
  28:src/Code/../../h/Testing/Testing_OS1/Consumer_Producer_C_API_Test.hpp ****                 thread_dispatch();
 1494              		.loc 8 28 19
 1495 021c BB67F702 		remw	a5,a4,a5
  28:src/Code/../../h/Testing/Testing_OS1/Consumer_Producer_C_API_Test.hpp ****                 thread_dispatch();
 1496              		.loc 8 28 13
 1497 0220 E39207FC 		bnez	a5,.L72
 1498 0224 6FF09FFB 		j	.L76
 1499              	.LVL134:
 1500              	.L73:
  30:src/Code/../../h/Testing/Testing_OS1/Consumer_Producer_C_API_Test.hpp ****             }
  31:src/Code/../../h/Testing/Testing_OS1/Consumer_Producer_C_API_Test.hpp ****         }
  32:src/Code/../../h/Testing/Testing_OS1/Consumer_Producer_C_API_Test.hpp **** 
  33:src/Code/../../h/Testing/Testing_OS1/Consumer_Producer_C_API_Test.hpp ****         threadEnd = 1;
 1501              		.loc 8 33 9 is_stmt 1
 1502              		.loc 8 33 19 is_stmt 0
 1503 0228 93071000 		li	a5,1
 1504 022c 17070000 		sw	a5,.LANCHOR0+4,a4
 1504      2320F700 
  34:src/Code/../../h/Testing/Testing_OS1/Consumer_Producer_C_API_Test.hpp ****         data->buffer->put('!');
 1505              		.loc 8 34 9 is_stmt 1
 1506              		.loc 8 34 26 is_stmt 0
 1507 0234 93051002 		li	a1,33
 1508              	.LVL135:
 1509 0238 03B58400 		ld	a0,8(s1)
 1510              	.LVL136:
 1511 023c 97000000 		call	_ZN13BufferTestCPP9BufferCPP3putEi@plt
 1511      E7800000 
 1512              	.LVL137:
  35:src/Code/../../h/Testing/Testing_OS1/Consumer_Producer_C_API_Test.hpp **** 
  36:src/Code/../../h/Testing/Testing_OS1/Consumer_Producer_C_API_Test.hpp ****         sem_signal(data->wait);
 1513              		.loc 8 36 9 is_stmt 1
GAS LISTING /tmp/ccBYUnRY.s 			page 36


 1514              		.loc 8 36 19 is_stmt 0
 1515 0244 03B50401 		ld	a0,16(s1)
 1516 0248 97000000 		call	_Z10sem_signalP3sem@plt
 1516      E7800000 
 1517              	.LVL138:
  37:src/Code/../../h/Testing/Testing_OS1/Consumer_Producer_C_API_Test.hpp ****     }
 1518              		.loc 8 37 5
 1519 0250 83308101 		ld	ra,24(sp)
 1520              		.cfi_restore 1
 1521 0254 03340101 		ld	s0,16(sp)
 1522              		.cfi_restore 8
 1523              		.cfi_def_cfa 2, 32
 1524 0258 83348100 		ld	s1,8(sp)
 1525              		.cfi_restore 9
 1526              	.LVL139:
 1527 025c 03390100 		ld	s2,0(sp)
 1528              		.cfi_restore 18
 1529              	.LVL140:
 1530 0260 13010102 		addi	sp,sp,32
 1531              		.cfi_def_cfa_offset 0
 1532 0264 67800000 		jr	ra
 1533              		.cfi_endproc
 1534              	.LFE78:
 1536              		.align	2
 1537              		.globl	_ZN21ConsumerProducerSyncC8producerEPv
 1539              	_ZN21ConsumerProducerSyncC8producerEPv:
 1540              	.LFB79:
  38:src/Code/../../h/Testing/Testing_OS1/Consumer_Producer_C_API_Test.hpp **** 
  39:src/Code/../../h/Testing/Testing_OS1/Consumer_Producer_C_API_Test.hpp ****     void producer(void *arg) {
 1541              		.loc 8 39 30 is_stmt 1
 1542              		.cfi_startproc
 1543              	.LVL141:
 1544 0268 130101FE 		addi	sp,sp,-32
 1545              		.cfi_def_cfa_offset 32
 1546 026c 233C1100 		sd	ra,24(sp)
 1547 0270 23388100 		sd	s0,16(sp)
 1548 0274 23349100 		sd	s1,8(sp)
 1549 0278 23302101 		sd	s2,0(sp)
 1550              		.cfi_offset 1, -8
 1551              		.cfi_offset 8, -16
 1552              		.cfi_offset 9, -24
 1553              		.cfi_offset 18, -32
 1554 027c 13040102 		addi	s0,sp,32
 1555              		.cfi_def_cfa 8, 0
 1556 0280 93040500 		mv	s1,a0
  40:src/Code/../../h/Testing/Testing_OS1/Consumer_Producer_C_API_Test.hpp ****         struct thread_data *data = (struct thread_data *) arg;
 1557              		.loc 8 40 9
 1558              	.LVL142:
  41:src/Code/../../h/Testing/Testing_OS1/Consumer_Producer_C_API_Test.hpp **** 
  42:src/Code/../../h/Testing/Testing_OS1/Consumer_Producer_C_API_Test.hpp ****         int i = 0;
 1559              		.loc 8 42 9
 1560              		.loc 8 42 13 is_stmt 0
 1561 0284 13090000 		li	s2,0
 1562 0288 6F00C000 		j	.L78
 1563              	.LVL143:
 1564              	.L82:
  43:src/Code/../../h/Testing/Testing_OS1/Consumer_Producer_C_API_Test.hpp ****         while (!threadEnd) {
GAS LISTING /tmp/ccBYUnRY.s 			page 37


  44:src/Code/../../h/Testing/Testing_OS1/Consumer_Producer_C_API_Test.hpp ****             data->buffer->put(data->id + '0');
  45:src/Code/../../h/Testing/Testing_OS1/Consumer_Producer_C_API_Test.hpp ****             i++;
  46:src/Code/../../h/Testing/Testing_OS1/Consumer_Producer_C_API_Test.hpp **** 
  47:src/Code/../../h/Testing/Testing_OS1/Consumer_Producer_C_API_Test.hpp ****             if (i % (10 * data->id) == 0) {
  48:src/Code/../../h/Testing/Testing_OS1/Consumer_Producer_C_API_Test.hpp ****                 thread_dispatch();
 1565              		.loc 8 48 17 is_stmt 1
 1566              		.loc 8 48 32 is_stmt 0
 1567 028c 97000000 		call	_Z15thread_dispatchv@plt
 1567      E7800000 
 1568              	.LVL144:
 1569              	.L78:
  43:src/Code/../../h/Testing/Testing_OS1/Consumer_Producer_C_API_Test.hpp ****         while (!threadEnd) {
 1570              		.loc 8 43 9 is_stmt 1
  43:src/Code/../../h/Testing/Testing_OS1/Consumer_Producer_C_API_Test.hpp ****         while (!threadEnd) {
 1571              		.loc 8 43 16
 1572 0294 97070000 		lw	a5,.LANCHOR0+4
 1572      83A70700 
 1573 029c 639E0702 		bnez	a5,.L79
  44:src/Code/../../h/Testing/Testing_OS1/Consumer_Producer_C_API_Test.hpp ****             i++;
 1574              		.loc 8 44 13
  44:src/Code/../../h/Testing/Testing_OS1/Consumer_Producer_C_API_Test.hpp ****             i++;
 1575              		.loc 8 44 37 is_stmt 0
 1576 02a0 83A50400 		lw	a1,0(s1)
  44:src/Code/../../h/Testing/Testing_OS1/Consumer_Producer_C_API_Test.hpp ****             i++;
 1577              		.loc 8 44 30
 1578 02a4 9B850503 		addiw	a1,a1,48
 1579 02a8 03B58400 		ld	a0,8(s1)
 1580 02ac 97000000 		call	_ZN13BufferTestCPP9BufferCPP3putEi@plt
 1580      E7800000 
 1581              	.LVL145:
  45:src/Code/../../h/Testing/Testing_OS1/Consumer_Producer_C_API_Test.hpp **** 
 1582              		.loc 8 45 13 is_stmt 1
  45:src/Code/../../h/Testing/Testing_OS1/Consumer_Producer_C_API_Test.hpp **** 
 1583              		.loc 8 45 14 is_stmt 0
 1584 02b4 1B071900 		addiw	a4,s2,1
 1585 02b8 1B090700 		sext.w	s2,a4
 1586              	.LVL146:
  47:src/Code/../../h/Testing/Testing_OS1/Consumer_Producer_C_API_Test.hpp ****                 thread_dispatch();
 1587              		.loc 8 47 13 is_stmt 1
  47:src/Code/../../h/Testing/Testing_OS1/Consumer_Producer_C_API_Test.hpp ****                 thread_dispatch();
 1588              		.loc 8 47 33 is_stmt 0
 1589 02bc 83A60400 		lw	a3,0(s1)
  47:src/Code/../../h/Testing/Testing_OS1/Consumer_Producer_C_API_Test.hpp ****                 thread_dispatch();
 1590              		.loc 8 47 25
 1591 02c0 9B972600 		slliw	a5,a3,2
 1592 02c4 BB87D700 		addw	a5,a5,a3
 1593 02c8 9B971700 		slliw	a5,a5,1
  47:src/Code/../../h/Testing/Testing_OS1/Consumer_Producer_C_API_Test.hpp ****                 thread_dispatch();
 1594              		.loc 8 47 19
 1595 02cc BB67F702 		remw	a5,a4,a5
  47:src/Code/../../h/Testing/Testing_OS1/Consumer_Producer_C_API_Test.hpp ****                 thread_dispatch();
 1596              		.loc 8 47 13
 1597 02d0 E39207FC 		bnez	a5,.L78
 1598 02d4 6FF09FFB 		j	.L82
 1599              	.LVL147:
 1600              	.L79:
  49:src/Code/../../h/Testing/Testing_OS1/Consumer_Producer_C_API_Test.hpp ****             }
GAS LISTING /tmp/ccBYUnRY.s 			page 38


  50:src/Code/../../h/Testing/Testing_OS1/Consumer_Producer_C_API_Test.hpp ****         }
  51:src/Code/../../h/Testing/Testing_OS1/Consumer_Producer_C_API_Test.hpp **** 
  52:src/Code/../../h/Testing/Testing_OS1/Consumer_Producer_C_API_Test.hpp ****         sem_signal(data->wait);
 1601              		.loc 8 52 9 is_stmt 1
 1602              		.loc 8 52 19 is_stmt 0
 1603 02d8 03B50401 		ld	a0,16(s1)
 1604 02dc 97000000 		call	_Z10sem_signalP3sem@plt
 1604      E7800000 
 1605              	.LVL148:
  53:src/Code/../../h/Testing/Testing_OS1/Consumer_Producer_C_API_Test.hpp ****     }
 1606              		.loc 8 53 5
 1607 02e4 83308101 		ld	ra,24(sp)
 1608              		.cfi_restore 1
 1609 02e8 03340101 		ld	s0,16(sp)
 1610              		.cfi_restore 8
 1611              		.cfi_def_cfa 2, 32
 1612 02ec 83348100 		ld	s1,8(sp)
 1613              		.cfi_restore 9
 1614              	.LVL149:
 1615 02f0 03390100 		ld	s2,0(sp)
 1616              		.cfi_restore 18
 1617              	.LVL150:
 1618 02f4 13010102 		addi	sp,sp,32
 1619              		.cfi_def_cfa_offset 0
 1620 02f8 67800000 		jr	ra
 1621              		.cfi_endproc
 1622              	.LFE79:
 1624              		.align	2
 1625              		.globl	_ZN21ConsumerProducerSyncC8consumerEPv
 1627              	_ZN21ConsumerProducerSyncC8consumerEPv:
 1628              	.LFB80:
  54:src/Code/../../h/Testing/Testing_OS1/Consumer_Producer_C_API_Test.hpp **** 
  55:src/Code/../../h/Testing/Testing_OS1/Consumer_Producer_C_API_Test.hpp ****     void consumer(void *arg) {
 1629              		.loc 8 55 30 is_stmt 1
 1630              		.cfi_startproc
 1631              	.LVL151:
 1632 02fc 130101FD 		addi	sp,sp,-48
 1633              		.cfi_def_cfa_offset 48
 1634 0300 23341102 		sd	ra,40(sp)
 1635 0304 23308102 		sd	s0,32(sp)
 1636 0308 233C9100 		sd	s1,24(sp)
 1637 030c 23382101 		sd	s2,16(sp)
 1638 0310 23343101 		sd	s3,8(sp)
 1639              		.cfi_offset 1, -8
 1640              		.cfi_offset 8, -16
 1641              		.cfi_offset 9, -24
 1642              		.cfi_offset 18, -32
 1643              		.cfi_offset 19, -40
 1644 0314 13040103 		addi	s0,sp,48
 1645              		.cfi_def_cfa 8, 0
 1646 0318 13090500 		mv	s2,a0
  56:src/Code/../../h/Testing/Testing_OS1/Consumer_Producer_C_API_Test.hpp ****         struct thread_data *data = (struct thread_data *) arg;
 1647              		.loc 8 56 9
 1648              	.LVL152:
  57:src/Code/../../h/Testing/Testing_OS1/Consumer_Producer_C_API_Test.hpp **** 
  58:src/Code/../../h/Testing/Testing_OS1/Consumer_Producer_C_API_Test.hpp ****         int i = 0;
 1649              		.loc 8 58 9
GAS LISTING /tmp/ccBYUnRY.s 			page 39


 1650              		.loc 8 58 13 is_stmt 0
 1651 031c 93090000 		li	s3,0
 1652 0320 6F00C001 		j	.L84
 1653              	.LVL153:
 1654              	.L90:
 1655              	.LBB179:
  59:src/Code/../../h/Testing/Testing_OS1/Consumer_Producer_C_API_Test.hpp ****         while (!threadEnd) {
  60:src/Code/../../h/Testing/Testing_OS1/Consumer_Producer_C_API_Test.hpp ****             int key = data->buffer->get();
  61:src/Code/../../h/Testing/Testing_OS1/Consumer_Producer_C_API_Test.hpp ****             i++;
  62:src/Code/../../h/Testing/Testing_OS1/Consumer_Producer_C_API_Test.hpp **** 
  63:src/Code/../../h/Testing/Testing_OS1/Consumer_Producer_C_API_Test.hpp ****             putc(key);
  64:src/Code/../../h/Testing/Testing_OS1/Consumer_Producer_C_API_Test.hpp **** 
  65:src/Code/../../h/Testing/Testing_OS1/Consumer_Producer_C_API_Test.hpp ****             if (i % (5 * data->id) == 0) {
  66:src/Code/../../h/Testing/Testing_OS1/Consumer_Producer_C_API_Test.hpp ****                 thread_dispatch();
 1656              		.loc 8 66 17 is_stmt 1
 1657              		.loc 8 66 32 is_stmt 0
 1658 0324 97000000 		call	_Z15thread_dispatchv@plt
 1658      E7800000 
 1659              	.LVL154:
 1660 032c 6F000005 		j	.L86
 1661              	.LVL155:
 1662              	.L91:
  67:src/Code/../../h/Testing/Testing_OS1/Consumer_Producer_C_API_Test.hpp ****             }
  68:src/Code/../../h/Testing/Testing_OS1/Consumer_Producer_C_API_Test.hpp **** 
  69:src/Code/../../h/Testing/Testing_OS1/Consumer_Producer_C_API_Test.hpp ****             if (i % 80 == 0) {
  70:src/Code/../../h/Testing/Testing_OS1/Consumer_Producer_C_API_Test.hpp ****                 putc('\n');
 1663              		.loc 8 70 17 is_stmt 1
 1664              		.loc 8 70 21 is_stmt 0
 1665 0330 1305A000 		li	a0,10
 1666 0334 97000000 		call	_Z4putcc@plt
 1666      E7800000 
 1667              	.LVL156:
 1668              	.L84:
 1669              	.LBE179:
  59:src/Code/../../h/Testing/Testing_OS1/Consumer_Producer_C_API_Test.hpp ****         while (!threadEnd) {
 1670              		.loc 8 59 9 is_stmt 1
  59:src/Code/../../h/Testing/Testing_OS1/Consumer_Producer_C_API_Test.hpp ****         while (!threadEnd) {
 1671              		.loc 8 59 16
 1672 033c 97070000 		lw	a5,.LANCHOR0+4
 1672      83A70700 
 1673 0344 63900706 		bnez	a5,.L85
 1674              	.LBB180:
  60:src/Code/../../h/Testing/Testing_OS1/Consumer_Producer_C_API_Test.hpp ****             i++;
 1675              		.loc 8 60 13
  60:src/Code/../../h/Testing/Testing_OS1/Consumer_Producer_C_API_Test.hpp ****             i++;
 1676              		.loc 8 60 40 is_stmt 0
 1677 0348 03358900 		ld	a0,8(s2)
 1678 034c 97000000 		call	_ZN13BufferTestCPP9BufferCPP3getEv@plt
 1678      E7800000 
 1679              	.LVL157:
  61:src/Code/../../h/Testing/Testing_OS1/Consumer_Producer_C_API_Test.hpp **** 
 1680              		.loc 8 61 13 is_stmt 1
  61:src/Code/../../h/Testing/Testing_OS1/Consumer_Producer_C_API_Test.hpp **** 
 1681              		.loc 8 61 14 is_stmt 0
 1682 0354 9B841900 		addiw	s1,s3,1
 1683 0358 9B890400 		sext.w	s3,s1
 1684              	.LVL158:
GAS LISTING /tmp/ccBYUnRY.s 			page 40


  63:src/Code/../../h/Testing/Testing_OS1/Consumer_Producer_C_API_Test.hpp **** 
 1685              		.loc 8 63 13 is_stmt 1
  63:src/Code/../../h/Testing/Testing_OS1/Consumer_Producer_C_API_Test.hpp **** 
 1686              		.loc 8 63 17 is_stmt 0
 1687 035c 1375F50F 		andi	a0,a0,0xff
 1688              	.LVL159:
 1689 0360 97000000 		call	_Z4putcc@plt
 1689      E7800000 
 1690              	.LVL160:
  65:src/Code/../../h/Testing/Testing_OS1/Consumer_Producer_C_API_Test.hpp ****                 thread_dispatch();
 1691              		.loc 8 65 13 is_stmt 1
  65:src/Code/../../h/Testing/Testing_OS1/Consumer_Producer_C_API_Test.hpp ****                 thread_dispatch();
 1692              		.loc 8 65 32 is_stmt 0
 1693 0368 03270900 		lw	a4,0(s2)
  65:src/Code/../../h/Testing/Testing_OS1/Consumer_Producer_C_API_Test.hpp ****                 thread_dispatch();
 1694              		.loc 8 65 24
 1695 036c 9B172700 		slliw	a5,a4,2
 1696 0370 BB87E700 		addw	a5,a5,a4
  65:src/Code/../../h/Testing/Testing_OS1/Consumer_Producer_C_API_Test.hpp ****                 thread_dispatch();
 1697              		.loc 8 65 19
 1698 0374 BBE7F402 		remw	a5,s1,a5
  65:src/Code/../../h/Testing/Testing_OS1/Consumer_Producer_C_API_Test.hpp ****                 thread_dispatch();
 1699              		.loc 8 65 13
 1700 0378 E38607FA 		beqz	a5,.L90
 1701              	.L86:
  69:src/Code/../../h/Testing/Testing_OS1/Consumer_Producer_C_API_Test.hpp ****                 putc('\n');
 1702              		.loc 8 69 13 is_stmt 1
  69:src/Code/../../h/Testing/Testing_OS1/Consumer_Producer_C_API_Test.hpp ****                 putc('\n');
 1703              		.loc 8 69 19 is_stmt 0
 1704 037c 93070005 		li	a5,80
 1705 0380 BBE4F402 		remw	s1,s1,a5
 1706              	.LVL161:
  69:src/Code/../../h/Testing/Testing_OS1/Consumer_Producer_C_API_Test.hpp ****                 putc('\n');
 1707              		.loc 8 69 13
 1708 0384 E39C04FA 		bnez	s1,.L84
 1709 0388 6FF09FFA 		j	.L91
 1710              	.L92:
 1711              	.LBE180:
 1712              	.LBB181:
  71:src/Code/../../h/Testing/Testing_OS1/Consumer_Producer_C_API_Test.hpp ****             }
  72:src/Code/../../h/Testing/Testing_OS1/Consumer_Producer_C_API_Test.hpp ****         }
  73:src/Code/../../h/Testing/Testing_OS1/Consumer_Producer_C_API_Test.hpp **** 
  74:src/Code/../../h/Testing/Testing_OS1/Consumer_Producer_C_API_Test.hpp ****         while (data->buffer->getCnt() > 0) {
  75:src/Code/../../h/Testing/Testing_OS1/Consumer_Producer_C_API_Test.hpp ****             int key = data->buffer->get();
 1713              		.loc 8 75 13 is_stmt 1
 1714              		.loc 8 75 40 is_stmt 0
 1715 038c 03358900 		ld	a0,8(s2)
 1716 0390 97000000 		call	_ZN13BufferTestCPP9BufferCPP3getEv@plt
 1716      E7800000 
 1717              	.LVL162:
  76:src/Code/../../h/Testing/Testing_OS1/Consumer_Producer_C_API_Test.hpp ****             putc(key);
 1718              		.loc 8 76 13 is_stmt 1
 1719              		.loc 8 76 17 is_stmt 0
 1720 0398 1375F50F 		andi	a0,a0,0xff
 1721              	.LVL163:
 1722 039c 97000000 		call	_Z4putcc@plt
 1722      E7800000 
GAS LISTING /tmp/ccBYUnRY.s 			page 41


 1723              	.LVL164:
 1724              	.L85:
 1725              	.LBE181:
  74:src/Code/../../h/Testing/Testing_OS1/Consumer_Producer_C_API_Test.hpp ****             int key = data->buffer->get();
 1726              		.loc 8 74 9 is_stmt 1
  74:src/Code/../../h/Testing/Testing_OS1/Consumer_Producer_C_API_Test.hpp ****             int key = data->buffer->get();
 1727              		.loc 8 74 39
  74:src/Code/../../h/Testing/Testing_OS1/Consumer_Producer_C_API_Test.hpp ****             int key = data->buffer->get();
 1728              		.loc 8 74 36 is_stmt 0
 1729 03a4 03358900 		ld	a0,8(s2)
 1730 03a8 97000000 		call	_ZN13BufferTestCPP9BufferCPP6getCntEv@plt
 1730      E7800000 
 1731              	.LVL165:
  74:src/Code/../../h/Testing/Testing_OS1/Consumer_Producer_C_API_Test.hpp ****             int key = data->buffer->get();
 1732              		.loc 8 74 39
 1733 03b0 E34EA0FC 		bgtz	a0,.L92
  77:src/Code/../../h/Testing/Testing_OS1/Consumer_Producer_C_API_Test.hpp ****         }
  78:src/Code/../../h/Testing/Testing_OS1/Consumer_Producer_C_API_Test.hpp **** 
  79:src/Code/../../h/Testing/Testing_OS1/Consumer_Producer_C_API_Test.hpp ****         sem_signal(data->wait);
 1734              		.loc 8 79 9 is_stmt 1
 1735              		.loc 8 79 19 is_stmt 0
 1736 03b4 03350901 		ld	a0,16(s2)
 1737 03b8 97000000 		call	_Z10sem_signalP3sem@plt
 1737      E7800000 
 1738              	.LVL166:
  80:src/Code/../../h/Testing/Testing_OS1/Consumer_Producer_C_API_Test.hpp ****     }
 1739              		.loc 8 80 5
 1740 03c0 83308102 		ld	ra,40(sp)
 1741              		.cfi_restore 1
 1742 03c4 03340102 		ld	s0,32(sp)
 1743              		.cfi_restore 8
 1744              		.cfi_def_cfa 2, 48
 1745 03c8 83348101 		ld	s1,24(sp)
 1746              		.cfi_restore 9
 1747 03cc 03390101 		ld	s2,16(sp)
 1748              		.cfi_restore 18
 1749              	.LVL167:
 1750 03d0 83398100 		ld	s3,8(sp)
 1751              		.cfi_restore 19
 1752              	.LVL168:
 1753 03d4 13010103 		addi	sp,sp,48
 1754              		.cfi_def_cfa_offset 0
 1755 03d8 67800000 		jr	ra
 1756              		.cfi_endproc
 1757              	.LFE80:
 1759              		.section	.text._ZN24ConsumerProducerAsyncCPP16ProducerKeyborad3runEv,"axG",@progbits,_ZN24Consumer
 1760              		.align	2
 1761              		.weak	_ZN24ConsumerProducerAsyncCPP16ProducerKeyborad3runEv
 1763              	_ZN24ConsumerProducerAsyncCPP16ProducerKeyborad3runEv:
 1764              	.LFB103:
  25:src/Code/../../h/Testing/Testing_OS1/Consumer_Producer_CPP_API_Test.hpp ****             int key;
 1765              		.loc 5 25 14 is_stmt 1
 1766              		.cfi_startproc
 1767              	.LVL169:
 1768 0000 130101FE 		addi	sp,sp,-32
 1769              		.cfi_def_cfa_offset 32
 1770 0004 233C1100 		sd	ra,24(sp)
GAS LISTING /tmp/ccBYUnRY.s 			page 42


 1771 0008 23388100 		sd	s0,16(sp)
 1772 000c 23349100 		sd	s1,8(sp)
 1773              		.cfi_offset 1, -8
 1774              		.cfi_offset 8, -16
 1775              		.cfi_offset 9, -24
 1776 0010 13040102 		addi	s0,sp,32
 1777              		.cfi_def_cfa 8, 0
 1778 0014 93040500 		mv	s1,a0
  26:src/Code/../../h/Testing/Testing_OS1/Consumer_Producer_CPP_API_Test.hpp ****             int i = 0;
 1779              		.loc 5 26 13
  27:src/Code/../../h/Testing/Testing_OS1/Consumer_Producer_CPP_API_Test.hpp ****             while ((key = getc()) != 0x1b) {
 1780              		.loc 5 27 13
 1781              	.LVL170:
 1782              	.L95:
  28:src/Code/../../h/Testing/Testing_OS1/Consumer_Producer_CPP_API_Test.hpp ****                 td->buffer->put(key);
 1783              		.loc 5 28 13
  28:src/Code/../../h/Testing/Testing_OS1/Consumer_Producer_CPP_API_Test.hpp ****                 td->buffer->put(key);
 1784              		.loc 5 28 35
  28:src/Code/../../h/Testing/Testing_OS1/Consumer_Producer_CPP_API_Test.hpp ****                 td->buffer->put(key);
 1785              		.loc 5 28 31 is_stmt 0
 1786 0018 97000000 		call	_Z4getcv@plt
 1786      E7800000 
 1787              	.LVL171:
  28:src/Code/../../h/Testing/Testing_OS1/Consumer_Producer_CPP_API_Test.hpp ****                 td->buffer->put(key);
 1788              		.loc 5 28 25
 1789 0020 9B050500 		sext.w	a1,a0
 1790              	.LVL172:
  28:src/Code/../../h/Testing/Testing_OS1/Consumer_Producer_CPP_API_Test.hpp ****                 td->buffer->put(key);
 1791              		.loc 5 28 35
 1792 0024 9307B001 		li	a5,27
 1793 0028 638CF500 		beq	a1,a5,.L94
  29:src/Code/../../h/Testing/Testing_OS1/Consumer_Producer_CPP_API_Test.hpp ****                 i++;
 1794              		.loc 5 29 17 is_stmt 1
 1795 002c 83B70401 		ld	a5,16(s1)
  29:src/Code/../../h/Testing/Testing_OS1/Consumer_Producer_CPP_API_Test.hpp ****                 i++;
 1796              		.loc 5 29 32 is_stmt 0
 1797 0030 03B58700 		ld	a0,8(a5)
 1798 0034 97000000 		call	_ZN13BufferTestCPP9BufferCPP3putEi@plt
 1798      E7800000 
 1799              	.LVL173:
  30:src/Code/../../h/Testing/Testing_OS1/Consumer_Producer_CPP_API_Test.hpp ****             }
 1800              		.loc 5 30 17 is_stmt 1
  28:src/Code/../../h/Testing/Testing_OS1/Consumer_Producer_CPP_API_Test.hpp ****                 td->buffer->put(key);
 1801              		.loc 5 28 13 is_stmt 0
 1802 003c 6FF0DFFD 		j	.L95
 1803              	.LVL174:
 1804              	.L94:
  33:src/Code/../../h/Testing/Testing_OS1/Consumer_Producer_CPP_API_Test.hpp ****             td->buffer->put('!');
 1805              		.loc 5 33 13 is_stmt 1
  33:src/Code/../../h/Testing/Testing_OS1/Consumer_Producer_CPP_API_Test.hpp ****             td->buffer->put('!');
 1806              		.loc 5 33 23 is_stmt 0
 1807 0040 93071000 		li	a5,1
 1808 0044 17070000 		sw	a5,.LANCHOR0+8,a4
 1808      2320F700 
  34:src/Code/../../h/Testing/Testing_OS1/Consumer_Producer_CPP_API_Test.hpp **** 
 1809              		.loc 5 34 13 is_stmt 1
 1810 004c 83B70401 		ld	a5,16(s1)
GAS LISTING /tmp/ccBYUnRY.s 			page 43


  34:src/Code/../../h/Testing/Testing_OS1/Consumer_Producer_CPP_API_Test.hpp **** 
 1811              		.loc 5 34 28 is_stmt 0
 1812 0050 93051002 		li	a1,33
 1813              	.LVL175:
 1814 0054 03B58700 		ld	a0,8(a5)
 1815              	.LVL176:
 1816 0058 97000000 		call	_ZN13BufferTestCPP9BufferCPP3putEi@plt
 1816      E7800000 
 1817              	.LVL177:
  36:src/Code/../../h/Testing/Testing_OS1/Consumer_Producer_CPP_API_Test.hpp ****         }
 1818              		.loc 5 36 13 is_stmt 1
 1819 0060 83B70401 		ld	a5,16(s1)
  36:src/Code/../../h/Testing/Testing_OS1/Consumer_Producer_CPP_API_Test.hpp ****         }
 1820              		.loc 5 36 28 is_stmt 0
 1821 0064 03B50701 		ld	a0,16(a5)
 1822 0068 97000000 		call	_ZN9Semaphore6signalEv@plt
 1822      E7800000 
 1823              	.LVL178:
  37:src/Code/../../h/Testing/Testing_OS1/Consumer_Producer_CPP_API_Test.hpp ****     };
 1824              		.loc 5 37 9
 1825 0070 83308101 		ld	ra,24(sp)
 1826              		.cfi_restore 1
 1827 0074 03340101 		ld	s0,16(sp)
 1828              		.cfi_restore 8
 1829              		.cfi_def_cfa 2, 32
 1830 0078 83348100 		ld	s1,8(sp)
 1831              		.cfi_restore 9
 1832              	.LVL179:
 1833 007c 13010102 		addi	sp,sp,32
 1834              		.cfi_def_cfa_offset 0
 1835 0080 67800000 		jr	ra
 1836              		.cfi_endproc
 1837              	.LFE103:
 1839              		.section	.text._ZN24ConsumerProducerAsyncCPP8Consumer3runEv,"axG",@progbits,_ZN24ConsumerProducerA
 1840              		.align	2
 1841              		.weak	_ZN24ConsumerProducerAsyncCPP8Consumer3runEv
 1843              	_ZN24ConsumerProducerAsyncCPP8Consumer3runEv:
 1844              	.LFB111:
  58:src/Code/../../h/Testing/Testing_OS1/Consumer_Producer_CPP_API_Test.hpp ****         thread_data *td;
  59:src/Code/../../h/Testing/Testing_OS1/Consumer_Producer_CPP_API_Test.hpp ****     public:
  60:src/Code/../../h/Testing/Testing_OS1/Consumer_Producer_CPP_API_Test.hpp ****         Consumer(thread_data *_td) : Thread(), td(_td) {}
  61:src/Code/../../h/Testing/Testing_OS1/Consumer_Producer_CPP_API_Test.hpp **** 
  62:src/Code/../../h/Testing/Testing_OS1/Consumer_Producer_CPP_API_Test.hpp ****         void run() override {
 1845              		.loc 5 62 14 is_stmt 1
 1846              		.cfi_startproc
 1847              	.LVL180:
 1848 0000 130101FD 		addi	sp,sp,-48
 1849              		.cfi_def_cfa_offset 48
 1850 0004 23341102 		sd	ra,40(sp)
 1851 0008 23308102 		sd	s0,32(sp)
 1852 000c 233C9100 		sd	s1,24(sp)
 1853 0010 23382101 		sd	s2,16(sp)
 1854 0014 23343101 		sd	s3,8(sp)
 1855              		.cfi_offset 1, -8
 1856              		.cfi_offset 8, -16
 1857              		.cfi_offset 9, -24
 1858              		.cfi_offset 18, -32
GAS LISTING /tmp/ccBYUnRY.s 			page 44


 1859              		.cfi_offset 19, -40
 1860 0018 13040103 		addi	s0,sp,48
 1861              		.cfi_def_cfa 8, 0
 1862 001c 13090500 		mv	s2,a0
  63:src/Code/../../h/Testing/Testing_OS1/Consumer_Producer_CPP_API_Test.hpp ****             int i = 0;
 1863              		.loc 5 63 13
 1864              	.LVL181:
 1865              		.loc 5 63 17 is_stmt 0
 1866 0020 93090000 		li	s3,0
 1867 0024 6F000001 		j	.L98
 1868              	.LVL182:
 1869              	.L103:
 1870              	.LBB182:
  64:src/Code/../../h/Testing/Testing_OS1/Consumer_Producer_CPP_API_Test.hpp ****             while (!threadEnd) {
  65:src/Code/../../h/Testing/Testing_OS1/Consumer_Producer_CPP_API_Test.hpp ****                 int key = td->buffer->get();
  66:src/Code/../../h/Testing/Testing_OS1/Consumer_Producer_CPP_API_Test.hpp ****                 i++;
  67:src/Code/../../h/Testing/Testing_OS1/Consumer_Producer_CPP_API_Test.hpp **** 
  68:src/Code/../../h/Testing/Testing_OS1/Consumer_Producer_CPP_API_Test.hpp ****                 Console::putc(key);
  69:src/Code/../../h/Testing/Testing_OS1/Consumer_Producer_CPP_API_Test.hpp **** 
  70:src/Code/../../h/Testing/Testing_OS1/Consumer_Producer_CPP_API_Test.hpp ****                 if (i % 80 == 0) {
  71:src/Code/../../h/Testing/Testing_OS1/Consumer_Producer_CPP_API_Test.hpp ****                     Console::putc('\n');
 1871              		.loc 5 71 21 is_stmt 1
 1872              		.loc 5 71 34 is_stmt 0
 1873 0028 1305A000 		li	a0,10
 1874 002c 97000000 		call	_ZN7Console4putcEc@plt
 1874      E7800000 
 1875              	.LVL183:
 1876              	.L98:
 1877              	.LBE182:
  64:src/Code/../../h/Testing/Testing_OS1/Consumer_Producer_CPP_API_Test.hpp ****             while (!threadEnd) {
 1878              		.loc 5 64 13 is_stmt 1
  64:src/Code/../../h/Testing/Testing_OS1/Consumer_Producer_CPP_API_Test.hpp ****             while (!threadEnd) {
 1879              		.loc 5 64 20
 1880 0034 97070000 		lw	a5,.LANCHOR0+8
 1880      83A70700 
 1881 003c 639A0704 		bnez	a5,.L99
 1882              	.LBB183:
  65:src/Code/../../h/Testing/Testing_OS1/Consumer_Producer_CPP_API_Test.hpp ****                 i++;
 1883              		.loc 5 65 17
  65:src/Code/../../h/Testing/Testing_OS1/Consumer_Producer_CPP_API_Test.hpp ****                 i++;
 1884              		.loc 5 65 27 is_stmt 0
 1885 0040 83370901 		ld	a5,16(s2)
  65:src/Code/../../h/Testing/Testing_OS1/Consumer_Producer_CPP_API_Test.hpp ****                 i++;
 1886              		.loc 5 65 42
 1887 0044 03B58700 		ld	a0,8(a5)
 1888 0048 97000000 		call	_ZN13BufferTestCPP9BufferCPP3getEv@plt
 1888      E7800000 
 1889              	.LVL184:
  66:src/Code/../../h/Testing/Testing_OS1/Consumer_Producer_CPP_API_Test.hpp **** 
 1890              		.loc 5 66 17 is_stmt 1
  66:src/Code/../../h/Testing/Testing_OS1/Consumer_Producer_CPP_API_Test.hpp **** 
 1891              		.loc 5 66 18 is_stmt 0
 1892 0050 9B841900 		addiw	s1,s3,1
 1893 0054 9B890400 		sext.w	s3,s1
 1894              	.LVL185:
  68:src/Code/../../h/Testing/Testing_OS1/Consumer_Producer_CPP_API_Test.hpp **** 
 1895              		.loc 5 68 17 is_stmt 1
GAS LISTING /tmp/ccBYUnRY.s 			page 45


  68:src/Code/../../h/Testing/Testing_OS1/Consumer_Producer_CPP_API_Test.hpp **** 
 1896              		.loc 5 68 30 is_stmt 0
 1897 0058 1375F50F 		andi	a0,a0,0xff
 1898              	.LVL186:
 1899 005c 97000000 		call	_ZN7Console4putcEc@plt
 1899      E7800000 
 1900              	.LVL187:
  70:src/Code/../../h/Testing/Testing_OS1/Consumer_Producer_CPP_API_Test.hpp ****                     Console::putc('\n');
 1901              		.loc 5 70 17 is_stmt 1
  70:src/Code/../../h/Testing/Testing_OS1/Consumer_Producer_CPP_API_Test.hpp ****                     Console::putc('\n');
 1902              		.loc 5 70 23 is_stmt 0
 1903 0064 93070005 		li	a5,80
 1904 0068 BBE4F402 		remw	s1,s1,a5
 1905              	.LVL188:
  70:src/Code/../../h/Testing/Testing_OS1/Consumer_Producer_CPP_API_Test.hpp ****                     Console::putc('\n');
 1906              		.loc 5 70 17
 1907 006c E39404FC 		bnez	s1,.L98
 1908 0070 6FF09FFB 		j	.L103
 1909              	.L104:
 1910              	.LBE183:
 1911              	.LBB184:
  72:src/Code/../../h/Testing/Testing_OS1/Consumer_Producer_CPP_API_Test.hpp ****                 }
  73:src/Code/../../h/Testing/Testing_OS1/Consumer_Producer_CPP_API_Test.hpp ****             }
  74:src/Code/../../h/Testing/Testing_OS1/Consumer_Producer_CPP_API_Test.hpp **** 
  75:src/Code/../../h/Testing/Testing_OS1/Consumer_Producer_CPP_API_Test.hpp ****             while (td->buffer->getCnt() > 0) {
  76:src/Code/../../h/Testing/Testing_OS1/Consumer_Producer_CPP_API_Test.hpp ****                 int key = td->buffer->get();
 1912              		.loc 5 76 17 is_stmt 1
 1913              		.loc 5 76 27 is_stmt 0
 1914 0074 83370901 		ld	a5,16(s2)
 1915              		.loc 5 76 42
 1916 0078 03B58700 		ld	a0,8(a5)
 1917 007c 97000000 		call	_ZN13BufferTestCPP9BufferCPP3getEv@plt
 1917      E7800000 
 1918              	.LVL189:
  77:src/Code/../../h/Testing/Testing_OS1/Consumer_Producer_CPP_API_Test.hpp ****                 Console::putc(key);
 1919              		.loc 5 77 17 is_stmt 1
 1920              		.loc 5 77 30 is_stmt 0
 1921 0084 1375F50F 		andi	a0,a0,0xff
 1922              	.LVL190:
 1923 0088 97000000 		call	_ZN7Console4putcEc@plt
 1923      E7800000 
 1924              	.LVL191:
 1925              	.L99:
 1926              	.LBE184:
  75:src/Code/../../h/Testing/Testing_OS1/Consumer_Producer_CPP_API_Test.hpp ****                 int key = td->buffer->get();
 1927              		.loc 5 75 13 is_stmt 1
  75:src/Code/../../h/Testing/Testing_OS1/Consumer_Producer_CPP_API_Test.hpp ****                 int key = td->buffer->get();
 1928              		.loc 5 75 41
  75:src/Code/../../h/Testing/Testing_OS1/Consumer_Producer_CPP_API_Test.hpp ****                 int key = td->buffer->get();
 1929              		.loc 5 75 20 is_stmt 0
 1930 0090 83370901 		ld	a5,16(s2)
  75:src/Code/../../h/Testing/Testing_OS1/Consumer_Producer_CPP_API_Test.hpp ****                 int key = td->buffer->get();
 1931              		.loc 5 75 38
 1932 0094 03B58700 		ld	a0,8(a5)
 1933 0098 97000000 		call	_ZN13BufferTestCPP9BufferCPP6getCntEv@plt
 1933      E7800000 
 1934              	.LVL192:
GAS LISTING /tmp/ccBYUnRY.s 			page 46


  75:src/Code/../../h/Testing/Testing_OS1/Consumer_Producer_CPP_API_Test.hpp ****                 int key = td->buffer->get();
 1935              		.loc 5 75 41
 1936 00a0 E34AA0FC 		bgtz	a0,.L104
  78:src/Code/../../h/Testing/Testing_OS1/Consumer_Producer_CPP_API_Test.hpp ****             }
  79:src/Code/../../h/Testing/Testing_OS1/Consumer_Producer_CPP_API_Test.hpp **** 
  80:src/Code/../../h/Testing/Testing_OS1/Consumer_Producer_CPP_API_Test.hpp ****             td->sem->signal();
 1937              		.loc 5 80 13 is_stmt 1
 1938 00a4 83370901 		ld	a5,16(s2)
 1939              		.loc 5 80 28 is_stmt 0
 1940 00a8 03B50701 		ld	a0,16(a5)
 1941 00ac 97000000 		call	_ZN9Semaphore6signalEv@plt
 1941      E7800000 
 1942              	.LVL193:
  81:src/Code/../../h/Testing/Testing_OS1/Consumer_Producer_CPP_API_Test.hpp ****         }
 1943              		.loc 5 81 9
 1944 00b4 83308102 		ld	ra,40(sp)
 1945              		.cfi_restore 1
 1946 00b8 03340102 		ld	s0,32(sp)
 1947              		.cfi_restore 8
 1948              		.cfi_def_cfa 2, 48
 1949 00bc 83348101 		ld	s1,24(sp)
 1950              		.cfi_restore 9
 1951 00c0 03390101 		ld	s2,16(sp)
 1952              		.cfi_restore 18
 1953              	.LVL194:
 1954 00c4 83398100 		ld	s3,8(sp)
 1955              		.cfi_restore 19
 1956              	.LVL195:
 1957 00c8 13010103 		addi	sp,sp,48
 1958              		.cfi_def_cfa_offset 0
 1959 00cc 67800000 		jr	ra
 1960              		.cfi_endproc
 1961              	.LFE111:
 1963              		.section	.text._ZN19PeriodicThreadsTest1A18periodicActivationEv,"axG",@progbits,_ZN19PeriodicThrea
 1964              		.align	2
 1965              		.weak	_ZN19PeriodicThreadsTest1A18periodicActivationEv
 1967              	_ZN19PeriodicThreadsTest1A18periodicActivationEv:
 1968              	.LFB121:
  24:src/Code/../../h/Testing/Testing_OS1/Periodic_Threads_CPP_API_Test.hpp ****             myOwnMutex->wait();
 1969              		.loc 6 24 14 is_stmt 1
 1970              		.cfi_startproc
 1971              	.LVL196:
 1972 0000 130101FE 		addi	sp,sp,-32
 1973              		.cfi_def_cfa_offset 32
 1974 0004 233C1100 		sd	ra,24(sp)
 1975 0008 23388100 		sd	s0,16(sp)
 1976 000c 23349100 		sd	s1,8(sp)
 1977              		.cfi_offset 1, -8
 1978              		.cfi_offset 8, -16
 1979              		.cfi_offset 9, -24
 1980 0010 13040102 		addi	s0,sp,32
 1981              		.cfi_def_cfa 8, 0
  25:src/Code/../../h/Testing/Testing_OS1/Periodic_Threads_CPP_API_Test.hpp ****             putc('A');
 1982              		.loc 6 25 13
  25:src/Code/../../h/Testing/Testing_OS1/Periodic_Threads_CPP_API_Test.hpp ****             putc('A');
 1983              		.loc 6 25 29 is_stmt 0
 1984 0014 97040000 		lla	s1,.LANCHOR0
GAS LISTING /tmp/ccBYUnRY.s 			page 47


 1984      93840400 
 1985 001c 03B50401 		ld	a0,16(s1)
 1986              	.LVL197:
 1987 0020 97000000 		call	_ZN9Semaphore4waitEv@plt
 1987      E7800000 
 1988              	.LVL198:
  26:src/Code/../../h/Testing/Testing_OS1/Periodic_Threads_CPP_API_Test.hpp ****             putc('\n');
 1989              		.loc 6 26 13 is_stmt 1
  26:src/Code/../../h/Testing/Testing_OS1/Periodic_Threads_CPP_API_Test.hpp ****             putc('\n');
 1990              		.loc 6 26 17 is_stmt 0
 1991 0028 13051004 		li	a0,65
 1992 002c 97000000 		call	_Z4putcc@plt
 1992      E7800000 
 1993              	.LVL199:
  27:src/Code/../../h/Testing/Testing_OS1/Periodic_Threads_CPP_API_Test.hpp ****             myOwnMutex->signal();
 1994              		.loc 6 27 13 is_stmt 1
  27:src/Code/../../h/Testing/Testing_OS1/Periodic_Threads_CPP_API_Test.hpp ****             myOwnMutex->signal();
 1995              		.loc 6 27 17 is_stmt 0
 1996 0034 1305A000 		li	a0,10
 1997 0038 97000000 		call	_Z4putcc@plt
 1997      E7800000 
 1998              	.LVL200:
  28:src/Code/../../h/Testing/Testing_OS1/Periodic_Threads_CPP_API_Test.hpp ****         }
 1999              		.loc 6 28 13 is_stmt 1
  28:src/Code/../../h/Testing/Testing_OS1/Periodic_Threads_CPP_API_Test.hpp ****         }
 2000              		.loc 6 28 31 is_stmt 0
 2001 0040 03B50401 		ld	a0,16(s1)
 2002 0044 97000000 		call	_ZN9Semaphore6signalEv@plt
 2002      E7800000 
 2003              	.LVL201:
  29:src/Code/../../h/Testing/Testing_OS1/Periodic_Threads_CPP_API_Test.hpp ****     };
 2004              		.loc 6 29 9
 2005 004c 83308101 		ld	ra,24(sp)
 2006              		.cfi_restore 1
 2007 0050 03340101 		ld	s0,16(sp)
 2008              		.cfi_restore 8
 2009              		.cfi_def_cfa 2, 32
 2010 0054 83348100 		ld	s1,8(sp)
 2011              		.cfi_restore 9
 2012 0058 13010102 		addi	sp,sp,32
 2013              		.cfi_def_cfa_offset 0
 2014 005c 67800000 		jr	ra
 2015              		.cfi_endproc
 2016              	.LFE121:
 2018              		.section	.text._ZN19PeriodicThreadsTest1B18periodicActivationEv,"axG",@progbits,_ZN19PeriodicThrea
 2019              		.align	2
 2020              		.weak	_ZN19PeriodicThreadsTest1B18periodicActivationEv
 2022              	_ZN19PeriodicThreadsTest1B18periodicActivationEv:
 2023              	.LFB126:
  46:src/Code/../../h/Testing/Testing_OS1/Periodic_Threads_CPP_API_Test.hpp ****             myOwnMutex->wait();
 2024              		.loc 6 46 14 is_stmt 1
 2025              		.cfi_startproc
 2026              	.LVL202:
 2027 0000 130101FE 		addi	sp,sp,-32
 2028              		.cfi_def_cfa_offset 32
 2029 0004 233C1100 		sd	ra,24(sp)
 2030 0008 23388100 		sd	s0,16(sp)
GAS LISTING /tmp/ccBYUnRY.s 			page 48


 2031 000c 23349100 		sd	s1,8(sp)
 2032              		.cfi_offset 1, -8
 2033              		.cfi_offset 8, -16
 2034              		.cfi_offset 9, -24
 2035 0010 13040102 		addi	s0,sp,32
 2036              		.cfi_def_cfa 8, 0
  47:src/Code/../../h/Testing/Testing_OS1/Periodic_Threads_CPP_API_Test.hpp ****             putc('B');
 2037              		.loc 6 47 13
  47:src/Code/../../h/Testing/Testing_OS1/Periodic_Threads_CPP_API_Test.hpp ****             putc('B');
 2038              		.loc 6 47 29 is_stmt 0
 2039 0014 97040000 		lla	s1,.LANCHOR0
 2039      93840400 
 2040 001c 03B50401 		ld	a0,16(s1)
 2041              	.LVL203:
 2042 0020 97000000 		call	_ZN9Semaphore4waitEv@plt
 2042      E7800000 
 2043              	.LVL204:
  48:src/Code/../../h/Testing/Testing_OS1/Periodic_Threads_CPP_API_Test.hpp ****             putc('\n');
 2044              		.loc 6 48 13 is_stmt 1
  48:src/Code/../../h/Testing/Testing_OS1/Periodic_Threads_CPP_API_Test.hpp ****             putc('\n');
 2045              		.loc 6 48 17 is_stmt 0
 2046 0028 13052004 		li	a0,66
 2047 002c 97000000 		call	_Z4putcc@plt
 2047      E7800000 
 2048              	.LVL205:
  49:src/Code/../../h/Testing/Testing_OS1/Periodic_Threads_CPP_API_Test.hpp ****             myOwnMutex->signal();
 2049              		.loc 6 49 13 is_stmt 1
  49:src/Code/../../h/Testing/Testing_OS1/Periodic_Threads_CPP_API_Test.hpp ****             myOwnMutex->signal();
 2050              		.loc 6 49 17 is_stmt 0
 2051 0034 1305A000 		li	a0,10
 2052 0038 97000000 		call	_Z4putcc@plt
 2052      E7800000 
 2053              	.LVL206:
  50:src/Code/../../h/Testing/Testing_OS1/Periodic_Threads_CPP_API_Test.hpp ****         }
 2054              		.loc 6 50 13 is_stmt 1
  50:src/Code/../../h/Testing/Testing_OS1/Periodic_Threads_CPP_API_Test.hpp ****         }
 2055              		.loc 6 50 31 is_stmt 0
 2056 0040 03B50401 		ld	a0,16(s1)
 2057 0044 97000000 		call	_ZN9Semaphore6signalEv@plt
 2057      E7800000 
 2058              	.LVL207:
  51:src/Code/../../h/Testing/Testing_OS1/Periodic_Threads_CPP_API_Test.hpp ****     };
 2059              		.loc 6 51 9
 2060 004c 83308101 		ld	ra,24(sp)
 2061              		.cfi_restore 1
 2062 0050 03340101 		ld	s0,16(sp)
 2063              		.cfi_restore 8
 2064              		.cfi_def_cfa 2, 32
 2065 0054 83348100 		ld	s1,8(sp)
 2066              		.cfi_restore 9
 2067 0058 13010102 		addi	sp,sp,32
 2068              		.cfi_def_cfa_offset 0
 2069 005c 67800000 		jr	ra
 2070              		.cfi_endproc
 2071              	.LFE126:
 2073              		.section	.text._ZN19PeriodicThreadsTest1C18periodicActivationEv,"axG",@progbits,_ZN19PeriodicThrea
 2074              		.align	2
GAS LISTING /tmp/ccBYUnRY.s 			page 49


 2075              		.weak	_ZN19PeriodicThreadsTest1C18periodicActivationEv
 2077              	_ZN19PeriodicThreadsTest1C18periodicActivationEv:
 2078              	.LFB131:
  55:src/Code/../../h/Testing/Testing_OS1/Periodic_Threads_CPP_API_Test.hpp ****     public:
  56:src/Code/../../h/Testing/Testing_OS1/Periodic_Threads_CPP_API_Test.hpp ****         explicit C(time_t period) : PeriodicThread(period) {}
  57:src/Code/../../h/Testing/Testing_OS1/Periodic_Threads_CPP_API_Test.hpp **** 
  58:src/Code/../../h/Testing/Testing_OS1/Periodic_Threads_CPP_API_Test.hpp ****     protected:
  59:src/Code/../../h/Testing/Testing_OS1/Periodic_Threads_CPP_API_Test.hpp ****         void run() override {
  60:src/Code/../../h/Testing/Testing_OS1/Periodic_Threads_CPP_API_Test.hpp ****             while (!shouldThisThreadEnd) {
  61:src/Code/../../h/Testing/Testing_OS1/Periodic_Threads_CPP_API_Test.hpp ****                 periodicActivation();
  62:src/Code/../../h/Testing/Testing_OS1/Periodic_Threads_CPP_API_Test.hpp ****                 time_sleep(sleepTime);
  63:src/Code/../../h/Testing/Testing_OS1/Periodic_Threads_CPP_API_Test.hpp ****             }
  64:src/Code/../../h/Testing/Testing_OS1/Periodic_Threads_CPP_API_Test.hpp ****             myOwnWaitForAll->signal();
  65:src/Code/../../h/Testing/Testing_OS1/Periodic_Threads_CPP_API_Test.hpp ****         }
  66:src/Code/../../h/Testing/Testing_OS1/Periodic_Threads_CPP_API_Test.hpp **** 
  67:src/Code/../../h/Testing/Testing_OS1/Periodic_Threads_CPP_API_Test.hpp ****     private:
  68:src/Code/../../h/Testing/Testing_OS1/Periodic_Threads_CPP_API_Test.hpp ****         void periodicActivation() override {
 2079              		.loc 6 68 14 is_stmt 1
 2080              		.cfi_startproc
 2081              	.LVL208:
 2082 0000 130101FE 		addi	sp,sp,-32
 2083              		.cfi_def_cfa_offset 32
 2084 0004 233C1100 		sd	ra,24(sp)
 2085 0008 23388100 		sd	s0,16(sp)
 2086 000c 23349100 		sd	s1,8(sp)
 2087              		.cfi_offset 1, -8
 2088              		.cfi_offset 8, -16
 2089              		.cfi_offset 9, -24
 2090 0010 13040102 		addi	s0,sp,32
 2091              		.cfi_def_cfa 8, 0
  69:src/Code/../../h/Testing/Testing_OS1/Periodic_Threads_CPP_API_Test.hpp ****             myOwnMutex->wait();
 2092              		.loc 6 69 13
 2093              		.loc 6 69 29 is_stmt 0
 2094 0014 97040000 		lla	s1,.LANCHOR0
 2094      93840400 
 2095 001c 03B50401 		ld	a0,16(s1)
 2096              	.LVL209:
 2097 0020 97000000 		call	_ZN9Semaphore4waitEv@plt
 2097      E7800000 
 2098              	.LVL210:
  70:src/Code/../../h/Testing/Testing_OS1/Periodic_Threads_CPP_API_Test.hpp ****             putc('C');
 2099              		.loc 6 70 13 is_stmt 1
 2100              		.loc 6 70 17 is_stmt 0
 2101 0028 13053004 		li	a0,67
 2102 002c 97000000 		call	_Z4putcc@plt
 2102      E7800000 
 2103              	.LVL211:
  71:src/Code/../../h/Testing/Testing_OS1/Periodic_Threads_CPP_API_Test.hpp ****             putc('\n');
 2104              		.loc 6 71 13 is_stmt 1
 2105              		.loc 6 71 17 is_stmt 0
 2106 0034 1305A000 		li	a0,10
 2107 0038 97000000 		call	_Z4putcc@plt
 2107      E7800000 
 2108              	.LVL212:
  72:src/Code/../../h/Testing/Testing_OS1/Periodic_Threads_CPP_API_Test.hpp ****             myOwnMutex->signal();
 2109              		.loc 6 72 13 is_stmt 1
 2110              		.loc 6 72 31 is_stmt 0
GAS LISTING /tmp/ccBYUnRY.s 			page 50


 2111 0040 03B50401 		ld	a0,16(s1)
 2112 0044 97000000 		call	_ZN9Semaphore6signalEv@plt
 2112      E7800000 
 2113              	.LVL213:
  73:src/Code/../../h/Testing/Testing_OS1/Periodic_Threads_CPP_API_Test.hpp ****         }
 2114              		.loc 6 73 9
 2115 004c 83308101 		ld	ra,24(sp)
 2116              		.cfi_restore 1
 2117 0050 03340101 		ld	s0,16(sp)
 2118              		.cfi_restore 8
 2119              		.cfi_def_cfa 2, 32
 2120 0054 83348100 		ld	s1,8(sp)
 2121              		.cfi_restore 9
 2122 0058 13010102 		addi	sp,sp,32
 2123              		.cfi_def_cfa_offset 0
 2124 005c 67800000 		jr	ra
 2125              		.cfi_endproc
 2126              	.LFE131:
 2128              		.section	.rodata.str1.8
 2129 0035 000000   		.align	3
 2130              	.LC5:
 2131 0038 48656C6C 		.string	"Hello "
 2131      6F2000
 2132 003f 00       		.align	3
 2133              	.LC6:
 2134 0040 20210A00 		.string	" !\n"
 2135              		.text
 2136              		.align	2
 2137              		.globl	_ZN15ThreadSleepTest9sleepyRunEPv
 2139              	_ZN15ThreadSleepTest9sleepyRunEPv:
 2140              	.LFB98:
 2141              		.file 9 "src/Code/../../h/Testing/Testing_OS1/ThreadSleep_C_API_Test.hpp"
   1:src/Code/../../h/Testing/Testing_OS1/ThreadSleep_C_API_Test.hpp **** #ifndef THREADSLEEP_C_API_TEST_HPP
   2:src/Code/../../h/Testing/Testing_OS1/ThreadSleep_C_API_Test.hpp **** #define THREADSLEEP_C_API_TEST_HPP
   3:src/Code/../../h/Testing/Testing_OS1/ThreadSleep_C_API_Test.hpp **** 
   4:src/Code/../../h/Testing/Testing_OS1/ThreadSleep_C_API_Test.hpp **** #include "../../Code/SystemCalls/syscall_c.h"
   5:src/Code/../../h/Testing/Testing_OS1/ThreadSleep_C_API_Test.hpp **** #include "Printing.hpp"
   6:src/Code/../../h/Testing/Testing_OS1/ThreadSleep_C_API_Test.hpp **** 
   7:src/Code/../../h/Testing/Testing_OS1/ThreadSleep_C_API_Test.hpp **** namespace ThreadSleepTest {
   8:src/Code/../../h/Testing/Testing_OS1/ThreadSleep_C_API_Test.hpp ****     bool finished[2];
   9:src/Code/../../h/Testing/Testing_OS1/ThreadSleep_C_API_Test.hpp **** 
  10:src/Code/../../h/Testing/Testing_OS1/ThreadSleep_C_API_Test.hpp ****     void sleepyRun(void *arg) {
 2142              		.loc 9 10 31 is_stmt 1
 2143              		.cfi_startproc
 2144              	.LVL214:
 2145 03dc 130101FE 		addi	sp,sp,-32
 2146              		.cfi_def_cfa_offset 32
 2147 03e0 233C1100 		sd	ra,24(sp)
 2148 03e4 23388100 		sd	s0,16(sp)
 2149 03e8 23349100 		sd	s1,8(sp)
 2150 03ec 23302101 		sd	s2,0(sp)
 2151              		.cfi_offset 1, -8
 2152              		.cfi_offset 8, -16
 2153              		.cfi_offset 9, -24
 2154              		.cfi_offset 18, -32
 2155 03f0 13040102 		addi	s0,sp,32
 2156              		.cfi_def_cfa 8, 0
GAS LISTING /tmp/ccBYUnRY.s 			page 51


  11:src/Code/../../h/Testing/Testing_OS1/ThreadSleep_C_API_Test.hpp ****         time_t sleep_time = *((time_t *) arg);
 2157              		.loc 9 11 9
 2158              		.loc 9 11 16 is_stmt 0
 2159 03f4 03390500 		ld	s2,0(a0)
 2160              	.LVL215:
  12:src/Code/../../h/Testing/Testing_OS1/ThreadSleep_C_API_Test.hpp ****         int i = 6;
 2161              		.loc 9 12 9 is_stmt 1
 2162              		.loc 9 12 13 is_stmt 0
 2163 03f8 93046000 		li	s1,6
 2164              	.LVL216:
 2165              	.L113:
  13:src/Code/../../h/Testing/Testing_OS1/ThreadSleep_C_API_Test.hpp ****         while (--i > 0) {
 2166              		.loc 9 13 9 is_stmt 1
 2167              		.loc 9 13 20
 2168 03fc 9B84F4FF 		addiw	s1,s1,-1
 2169              	.LVL217:
 2170 0400 63549004 		blez	s1,.L112
  14:src/Code/../../h/Testing/Testing_OS1/ThreadSleep_C_API_Test.hpp **** 
  15:src/Code/../../h/Testing/Testing_OS1/ThreadSleep_C_API_Test.hpp ****             printString("Hello ");
 2171              		.loc 9 15 13
 2172              		.loc 9 15 24 is_stmt 0
 2173 0404 17050000 		lla	a0,.LC5
 2173      13050500 
 2174 040c 97000000 		call	_Z11printStringPKc@plt
 2174      E7800000 
 2175              	.LVL218:
  16:src/Code/../../h/Testing/Testing_OS1/ThreadSleep_C_API_Test.hpp ****             printInt(sleep_time);
 2176              		.loc 9 16 13 is_stmt 1
 2177              		.loc 9 16 21 is_stmt 0
 2178 0414 13060000 		li	a2,0
 2179 0418 9305A000 		li	a1,10
 2180 041c 1B050900 		sext.w	a0,s2
 2181 0420 97000000 		call	_Z8printIntiii@plt
 2181      E7800000 
 2182              	.LVL219:
  17:src/Code/../../h/Testing/Testing_OS1/ThreadSleep_C_API_Test.hpp ****             printString(" !\n");
 2183              		.loc 9 17 13 is_stmt 1
 2184              		.loc 9 17 24 is_stmt 0
 2185 0428 17050000 		lla	a0,.LC6
 2185      13050500 
 2186 0430 97000000 		call	_Z11printStringPKc@plt
 2186      E7800000 
 2187              	.LVL220:
  18:src/Code/../../h/Testing/Testing_OS1/ThreadSleep_C_API_Test.hpp ****             time_sleep(sleep_time);
 2188              		.loc 9 18 13 is_stmt 1
 2189              		.loc 9 18 23 is_stmt 0
 2190 0438 13050900 		mv	a0,s2
 2191 043c 97000000 		call	_Z10time_sleepm@plt
 2191      E7800000 
 2192              	.LVL221:
  13:src/Code/../../h/Testing/Testing_OS1/ThreadSleep_C_API_Test.hpp **** 
 2193              		.loc 9 13 9
 2194 0444 6FF09FFB 		j	.L113
 2195              	.L112:
  19:src/Code/../../h/Testing/Testing_OS1/ThreadSleep_C_API_Test.hpp ****         }
  20:src/Code/../../h/Testing/Testing_OS1/ThreadSleep_C_API_Test.hpp ****         finished[sleep_time/10-1] = true;
 2196              		.loc 9 20 9 is_stmt 1
GAS LISTING /tmp/ccBYUnRY.s 			page 52


 2197              		.loc 9 20 28 is_stmt 0
 2198 0448 9307A000 		li	a5,10
 2199 044c 3359F902 		divu	s2,s2,a5
 2200              	.LVL222:
 2201              		.loc 9 20 31
 2202 0450 1309F9FF 		addi	s2,s2,-1
 2203              		.loc 9 20 35
 2204 0454 97070000 		lla	a5,.LANCHOR0
 2204      93870700 
 2205 045c 33892701 		add	s2,a5,s2
 2206 0460 93071000 		li	a5,1
 2207 0464 230CF900 		sb	a5,24(s2)
  21:src/Code/../../h/Testing/Testing_OS1/ThreadSleep_C_API_Test.hpp ****     }
 2208              		.loc 9 21 5
 2209 0468 83308101 		ld	ra,24(sp)
 2210              		.cfi_restore 1
 2211 046c 03340101 		ld	s0,16(sp)
 2212              		.cfi_restore 8
 2213              		.cfi_def_cfa 2, 32
 2214 0470 83348100 		ld	s1,8(sp)
 2215              		.cfi_restore 9
 2216 0474 03390100 		ld	s2,0(sp)
 2217              		.cfi_restore 18
 2218 0478 13010102 		addi	sp,sp,32
 2219              		.cfi_def_cfa_offset 0
 2220 047c 67800000 		jr	ra
 2221              		.cfi_endproc
 2222              	.LFE98:
 2224              		.section	.text._ZN19PeriodicThreadsTest1A3runEv,"axG",@progbits,_ZN19PeriodicThreadsTest1A3runEv,c
 2225              		.align	2
 2226              		.weak	_ZN19PeriodicThreadsTest1A3runEv
 2228              	_ZN19PeriodicThreadsTest1A3runEv:
 2229              	.LFB120:
  15:src/Code/../../h/Testing/Testing_OS1/Periodic_Threads_CPP_API_Test.hpp ****             while (!shouldThisThreadEnd) {
 2230              		.loc 6 15 14 is_stmt 1
 2231              		.cfi_startproc
 2232              	.LVL223:
 2233 0000 130101FE 		addi	sp,sp,-32
 2234              		.cfi_def_cfa_offset 32
 2235 0004 233C1100 		sd	ra,24(sp)
 2236 0008 23388100 		sd	s0,16(sp)
 2237 000c 23349100 		sd	s1,8(sp)
 2238              		.cfi_offset 1, -8
 2239              		.cfi_offset 8, -16
 2240              		.cfi_offset 9, -24
 2241 0010 13040102 		addi	s0,sp,32
 2242              		.cfi_def_cfa 8, 0
 2243 0014 93040500 		mv	s1,a0
 2244              	.LVL224:
 2245              	.L117:
  16:src/Code/../../h/Testing/Testing_OS1/Periodic_Threads_CPP_API_Test.hpp ****                 periodicActivation();
 2246              		.loc 6 16 13
  16:src/Code/../../h/Testing/Testing_OS1/Periodic_Threads_CPP_API_Test.hpp ****                 periodicActivation();
 2247              		.loc 6 16 20
  16:src/Code/../../h/Testing/Testing_OS1/Periodic_Threads_CPP_API_Test.hpp ****                 periodicActivation();
 2248              		.loc 6 16 21 is_stmt 0
 2249 0018 83C78401 		lbu	a5,24(s1)
GAS LISTING /tmp/ccBYUnRY.s 			page 53


  16:src/Code/../../h/Testing/Testing_OS1/Periodic_Threads_CPP_API_Test.hpp ****                 periodicActivation();
 2250              		.loc 6 16 20
 2251 001c 63920702 		bnez	a5,.L116
  17:src/Code/../../h/Testing/Testing_OS1/Periodic_Threads_CPP_API_Test.hpp ****                 time_sleep(sleepTime);
 2252              		.loc 6 17 17 is_stmt 1
  17:src/Code/../../h/Testing/Testing_OS1/Periodic_Threads_CPP_API_Test.hpp ****                 time_sleep(sleepTime);
 2253              		.loc 6 17 36 is_stmt 0
 2254 0020 83B70400 		ld	a5,0(s1)
 2255 0024 83B78701 		ld	a5,24(a5)
  17:src/Code/../../h/Testing/Testing_OS1/Periodic_Threads_CPP_API_Test.hpp ****                 time_sleep(sleepTime);
 2256              		.loc 6 17 35
 2257 0028 13850400 		mv	a0,s1
 2258 002c E7800700 		jalr	a5
 2259              	.LVL225:
  18:src/Code/../../h/Testing/Testing_OS1/Periodic_Threads_CPP_API_Test.hpp ****             }
 2260              		.loc 6 18 17 is_stmt 1
  18:src/Code/../../h/Testing/Testing_OS1/Periodic_Threads_CPP_API_Test.hpp ****             }
 2261              		.loc 6 18 27 is_stmt 0
 2262 0030 03B50401 		ld	a0,16(s1)
 2263 0034 97000000 		call	_Z10time_sleepm@plt
 2263      E7800000 
 2264              	.LVL226:
  16:src/Code/../../h/Testing/Testing_OS1/Periodic_Threads_CPP_API_Test.hpp ****                 periodicActivation();
 2265              		.loc 6 16 13
 2266 003c 6FF0DFFD 		j	.L117
 2267              	.L116:
  20:src/Code/../../h/Testing/Testing_OS1/Periodic_Threads_CPP_API_Test.hpp ****         }
 2268              		.loc 6 20 13 is_stmt 1
  20:src/Code/../../h/Testing/Testing_OS1/Periodic_Threads_CPP_API_Test.hpp ****         }
 2269              		.loc 6 20 36 is_stmt 0
 2270 0040 17050000 		ld	a0,.LANCHOR0+32
 2270      03350500 
 2271 0048 97000000 		call	_ZN9Semaphore6signalEv@plt
 2271      E7800000 
 2272              	.LVL227:
  21:src/Code/../../h/Testing/Testing_OS1/Periodic_Threads_CPP_API_Test.hpp **** 
 2273              		.loc 6 21 9
 2274 0050 83308101 		ld	ra,24(sp)
 2275              		.cfi_restore 1
 2276 0054 03340101 		ld	s0,16(sp)
 2277              		.cfi_restore 8
 2278              		.cfi_def_cfa 2, 32
 2279 0058 83348100 		ld	s1,8(sp)
 2280              		.cfi_restore 9
 2281              	.LVL228:
 2282 005c 13010102 		addi	sp,sp,32
 2283              		.cfi_def_cfa_offset 0
 2284 0060 67800000 		jr	ra
 2285              		.cfi_endproc
 2286              	.LFE120:
 2288              		.section	.text._ZN19PeriodicThreadsTest1B3runEv,"axG",@progbits,_ZN19PeriodicThreadsTest1B3runEv,c
 2289              		.align	2
 2290              		.weak	_ZN19PeriodicThreadsTest1B3runEv
 2292              	_ZN19PeriodicThreadsTest1B3runEv:
 2293              	.LFB125:
  37:src/Code/../../h/Testing/Testing_OS1/Periodic_Threads_CPP_API_Test.hpp ****             while (!shouldThisThreadEnd) {
 2294              		.loc 6 37 14 is_stmt 1
GAS LISTING /tmp/ccBYUnRY.s 			page 54


 2295              		.cfi_startproc
 2296              	.LVL229:
 2297 0000 130101FE 		addi	sp,sp,-32
 2298              		.cfi_def_cfa_offset 32
 2299 0004 233C1100 		sd	ra,24(sp)
 2300 0008 23388100 		sd	s0,16(sp)
 2301 000c 23349100 		sd	s1,8(sp)
 2302              		.cfi_offset 1, -8
 2303              		.cfi_offset 8, -16
 2304              		.cfi_offset 9, -24
 2305 0010 13040102 		addi	s0,sp,32
 2306              		.cfi_def_cfa 8, 0
 2307 0014 93040500 		mv	s1,a0
 2308              	.LVL230:
 2309              	.L121:
  38:src/Code/../../h/Testing/Testing_OS1/Periodic_Threads_CPP_API_Test.hpp ****                 periodicActivation();
 2310              		.loc 6 38 13
  38:src/Code/../../h/Testing/Testing_OS1/Periodic_Threads_CPP_API_Test.hpp ****                 periodicActivation();
 2311              		.loc 6 38 20
  38:src/Code/../../h/Testing/Testing_OS1/Periodic_Threads_CPP_API_Test.hpp ****                 periodicActivation();
 2312              		.loc 6 38 21 is_stmt 0
 2313 0018 83C78401 		lbu	a5,24(s1)
  38:src/Code/../../h/Testing/Testing_OS1/Periodic_Threads_CPP_API_Test.hpp ****                 periodicActivation();
 2314              		.loc 6 38 20
 2315 001c 63920702 		bnez	a5,.L120
  39:src/Code/../../h/Testing/Testing_OS1/Periodic_Threads_CPP_API_Test.hpp ****                 time_sleep(sleepTime);
 2316              		.loc 6 39 17 is_stmt 1
  39:src/Code/../../h/Testing/Testing_OS1/Periodic_Threads_CPP_API_Test.hpp ****                 time_sleep(sleepTime);
 2317              		.loc 6 39 36 is_stmt 0
 2318 0020 83B70400 		ld	a5,0(s1)
 2319 0024 83B78701 		ld	a5,24(a5)
  39:src/Code/../../h/Testing/Testing_OS1/Periodic_Threads_CPP_API_Test.hpp ****                 time_sleep(sleepTime);
 2320              		.loc 6 39 35
 2321 0028 13850400 		mv	a0,s1
 2322 002c E7800700 		jalr	a5
 2323              	.LVL231:
  40:src/Code/../../h/Testing/Testing_OS1/Periodic_Threads_CPP_API_Test.hpp ****             }
 2324              		.loc 6 40 17 is_stmt 1
  40:src/Code/../../h/Testing/Testing_OS1/Periodic_Threads_CPP_API_Test.hpp ****             }
 2325              		.loc 6 40 27 is_stmt 0
 2326 0030 03B50401 		ld	a0,16(s1)
 2327 0034 97000000 		call	_Z10time_sleepm@plt
 2327      E7800000 
 2328              	.LVL232:
  38:src/Code/../../h/Testing/Testing_OS1/Periodic_Threads_CPP_API_Test.hpp ****                 periodicActivation();
 2329              		.loc 6 38 13
 2330 003c 6FF0DFFD 		j	.L121
 2331              	.L120:
  42:src/Code/../../h/Testing/Testing_OS1/Periodic_Threads_CPP_API_Test.hpp ****         }
 2332              		.loc 6 42 13 is_stmt 1
  42:src/Code/../../h/Testing/Testing_OS1/Periodic_Threads_CPP_API_Test.hpp ****         }
 2333              		.loc 6 42 36 is_stmt 0
 2334 0040 17050000 		ld	a0,.LANCHOR0+32
 2334      03350500 
 2335 0048 97000000 		call	_ZN9Semaphore6signalEv@plt
 2335      E7800000 
 2336              	.LVL233:
GAS LISTING /tmp/ccBYUnRY.s 			page 55


  43:src/Code/../../h/Testing/Testing_OS1/Periodic_Threads_CPP_API_Test.hpp **** 
 2337              		.loc 6 43 9
 2338 0050 83308101 		ld	ra,24(sp)
 2339              		.cfi_restore 1
 2340 0054 03340101 		ld	s0,16(sp)
 2341              		.cfi_restore 8
 2342              		.cfi_def_cfa 2, 32
 2343 0058 83348100 		ld	s1,8(sp)
 2344              		.cfi_restore 9
 2345              	.LVL234:
 2346 005c 13010102 		addi	sp,sp,32
 2347              		.cfi_def_cfa_offset 0
 2348 0060 67800000 		jr	ra
 2349              		.cfi_endproc
 2350              	.LFE125:
 2352              		.section	.text._ZN19PeriodicThreadsTest1C3runEv,"axG",@progbits,_ZN19PeriodicThreadsTest1C3runEv,c
 2353              		.align	2
 2354              		.weak	_ZN19PeriodicThreadsTest1C3runEv
 2356              	_ZN19PeriodicThreadsTest1C3runEv:
 2357              	.LFB130:
  59:src/Code/../../h/Testing/Testing_OS1/Periodic_Threads_CPP_API_Test.hpp ****             while (!shouldThisThreadEnd) {
 2358              		.loc 6 59 14 is_stmt 1
 2359              		.cfi_startproc
 2360              	.LVL235:
 2361 0000 130101FE 		addi	sp,sp,-32
 2362              		.cfi_def_cfa_offset 32
 2363 0004 233C1100 		sd	ra,24(sp)
 2364 0008 23388100 		sd	s0,16(sp)
 2365 000c 23349100 		sd	s1,8(sp)
 2366              		.cfi_offset 1, -8
 2367              		.cfi_offset 8, -16
 2368              		.cfi_offset 9, -24
 2369 0010 13040102 		addi	s0,sp,32
 2370              		.cfi_def_cfa 8, 0
 2371 0014 93040500 		mv	s1,a0
 2372              	.LVL236:
 2373              	.L125:
  60:src/Code/../../h/Testing/Testing_OS1/Periodic_Threads_CPP_API_Test.hpp ****                 periodicActivation();
 2374              		.loc 6 60 13
  60:src/Code/../../h/Testing/Testing_OS1/Periodic_Threads_CPP_API_Test.hpp ****                 periodicActivation();
 2375              		.loc 6 60 20
  60:src/Code/../../h/Testing/Testing_OS1/Periodic_Threads_CPP_API_Test.hpp ****                 periodicActivation();
 2376              		.loc 6 60 21 is_stmt 0
 2377 0018 83C78401 		lbu	a5,24(s1)
  60:src/Code/../../h/Testing/Testing_OS1/Periodic_Threads_CPP_API_Test.hpp ****                 periodicActivation();
 2378              		.loc 6 60 20
 2379 001c 63920702 		bnez	a5,.L124
  61:src/Code/../../h/Testing/Testing_OS1/Periodic_Threads_CPP_API_Test.hpp ****                 time_sleep(sleepTime);
 2380              		.loc 6 61 17 is_stmt 1
  61:src/Code/../../h/Testing/Testing_OS1/Periodic_Threads_CPP_API_Test.hpp ****                 time_sleep(sleepTime);
 2381              		.loc 6 61 36 is_stmt 0
 2382 0020 83B70400 		ld	a5,0(s1)
 2383 0024 83B78701 		ld	a5,24(a5)
  61:src/Code/../../h/Testing/Testing_OS1/Periodic_Threads_CPP_API_Test.hpp ****                 time_sleep(sleepTime);
 2384              		.loc 6 61 35
 2385 0028 13850400 		mv	a0,s1
 2386 002c E7800700 		jalr	a5
GAS LISTING /tmp/ccBYUnRY.s 			page 56


 2387              	.LVL237:
  62:src/Code/../../h/Testing/Testing_OS1/Periodic_Threads_CPP_API_Test.hpp ****             }
 2388              		.loc 6 62 17 is_stmt 1
  62:src/Code/../../h/Testing/Testing_OS1/Periodic_Threads_CPP_API_Test.hpp ****             }
 2389              		.loc 6 62 27 is_stmt 0
 2390 0030 03B50401 		ld	a0,16(s1)
 2391 0034 97000000 		call	_Z10time_sleepm@plt
 2391      E7800000 
 2392              	.LVL238:
  60:src/Code/../../h/Testing/Testing_OS1/Periodic_Threads_CPP_API_Test.hpp ****                 periodicActivation();
 2393              		.loc 6 60 13
 2394 003c 6FF0DFFD 		j	.L125
 2395              	.L124:
  64:src/Code/../../h/Testing/Testing_OS1/Periodic_Threads_CPP_API_Test.hpp ****         }
 2396              		.loc 6 64 13 is_stmt 1
  64:src/Code/../../h/Testing/Testing_OS1/Periodic_Threads_CPP_API_Test.hpp ****         }
 2397              		.loc 6 64 36 is_stmt 0
 2398 0040 17050000 		ld	a0,.LANCHOR0+32
 2398      03350500 
 2399 0048 97000000 		call	_ZN9Semaphore6signalEv@plt
 2399      E7800000 
 2400              	.LVL239:
  65:src/Code/../../h/Testing/Testing_OS1/Periodic_Threads_CPP_API_Test.hpp **** 
 2401              		.loc 6 65 9
 2402 0050 83308101 		ld	ra,24(sp)
 2403              		.cfi_restore 1
 2404 0054 03340101 		ld	s0,16(sp)
 2405              		.cfi_restore 8
 2406              		.cfi_def_cfa 2, 32
 2407 0058 83348100 		ld	s1,8(sp)
 2408              		.cfi_restore 9
 2409              	.LVL240:
 2410 005c 13010102 		addi	sp,sp,32
 2411              		.cfi_def_cfa_offset 0
 2412 0060 67800000 		jr	ra
 2413              		.cfi_endproc
 2414              	.LFE130:
 2416              		.section	.text._ZN24ConsumerProducerAsyncCPP8Producer3runEv,"axG",@progbits,_ZN24ConsumerProducerA
 2417              		.align	2
 2418              		.weak	_ZN24ConsumerProducerAsyncCPP8Producer3runEv
 2420              	_ZN24ConsumerProducerAsyncCPP8Producer3runEv:
 2421              	.LFB107:
  45:src/Code/../../h/Testing/Testing_OS1/Consumer_Producer_CPP_API_Test.hpp ****             int i = 0;
 2422              		.loc 5 45 14 is_stmt 1
 2423              		.cfi_startproc
 2424              	.LVL241:
 2425 0000 130101FE 		addi	sp,sp,-32
 2426              		.cfi_def_cfa_offset 32
 2427 0004 233C1100 		sd	ra,24(sp)
 2428 0008 23388100 		sd	s0,16(sp)
 2429 000c 23349100 		sd	s1,8(sp)
 2430 0010 23302101 		sd	s2,0(sp)
 2431              		.cfi_offset 1, -8
 2432              		.cfi_offset 8, -16
 2433              		.cfi_offset 9, -24
 2434              		.cfi_offset 18, -32
 2435 0014 13040102 		addi	s0,sp,32
GAS LISTING /tmp/ccBYUnRY.s 			page 57


 2436              		.cfi_def_cfa 8, 0
 2437 0018 93040500 		mv	s1,a0
  46:src/Code/../../h/Testing/Testing_OS1/Consumer_Producer_CPP_API_Test.hpp ****             while (!threadEnd) {
 2438              		.loc 5 46 13
 2439              	.LVL242:
  46:src/Code/../../h/Testing/Testing_OS1/Consumer_Producer_CPP_API_Test.hpp ****             while (!threadEnd) {
 2440              		.loc 5 46 17 is_stmt 0
 2441 001c 13090000 		li	s2,0
 2442              	.LVL243:
 2443              	.L129:
  47:src/Code/../../h/Testing/Testing_OS1/Consumer_Producer_CPP_API_Test.hpp ****                 td->buffer->put(td->id + '0');
 2444              		.loc 5 47 13 is_stmt 1
  47:src/Code/../../h/Testing/Testing_OS1/Consumer_Producer_CPP_API_Test.hpp ****                 td->buffer->put(td->id + '0');
 2445              		.loc 5 47 20
 2446 0020 97070000 		lw	a5,.LANCHOR0+8
 2446      83A70700 
 2447 0028 63920704 		bnez	a5,.L128
  48:src/Code/../../h/Testing/Testing_OS1/Consumer_Producer_CPP_API_Test.hpp ****                 i++;
 2448              		.loc 5 48 17
 2449 002c 83B70401 		ld	a5,16(s1)
  48:src/Code/../../h/Testing/Testing_OS1/Consumer_Producer_CPP_API_Test.hpp ****                 i++;
 2450              		.loc 5 48 37 is_stmt 0
 2451 0030 83A50700 		lw	a1,0(a5)
  48:src/Code/../../h/Testing/Testing_OS1/Consumer_Producer_CPP_API_Test.hpp ****                 i++;
 2452              		.loc 5 48 32
 2453 0034 9B850503 		addiw	a1,a1,48
 2454 0038 03B58700 		ld	a0,8(a5)
 2455 003c 97000000 		call	_ZN13BufferTestCPP9BufferCPP3putEi@plt
 2455      E7800000 
 2456              	.LVL244:
  49:src/Code/../../h/Testing/Testing_OS1/Consumer_Producer_CPP_API_Test.hpp ****                 Thread::sleep((i+td->id)%5);
 2457              		.loc 5 49 17 is_stmt 1
  49:src/Code/../../h/Testing/Testing_OS1/Consumer_Producer_CPP_API_Test.hpp ****                 Thread::sleep((i+td->id)%5);
 2458              		.loc 5 49 18 is_stmt 0
 2459 0044 1B071900 		addiw	a4,s2,1
 2460 0048 1B090700 		sext.w	s2,a4
 2461              	.LVL245:
  50:src/Code/../../h/Testing/Testing_OS1/Consumer_Producer_CPP_API_Test.hpp ****             }
 2462              		.loc 5 50 17 is_stmt 1
  50:src/Code/../../h/Testing/Testing_OS1/Consumer_Producer_CPP_API_Test.hpp ****             }
 2463              		.loc 5 50 34 is_stmt 0
 2464 004c 83B70401 		ld	a5,16(s1)
  50:src/Code/../../h/Testing/Testing_OS1/Consumer_Producer_CPP_API_Test.hpp ****             }
 2465              		.loc 5 50 38
 2466 0050 83A70700 		lw	a5,0(a5)
  50:src/Code/../../h/Testing/Testing_OS1/Consumer_Producer_CPP_API_Test.hpp ****             }
 2467              		.loc 5 50 33
 2468 0054 BB87E700 		addw	a5,a5,a4
  50:src/Code/../../h/Testing/Testing_OS1/Consumer_Producer_CPP_API_Test.hpp ****             }
 2469              		.loc 5 50 30
 2470 0058 13055000 		li	a0,5
 2471 005c 3BE5A702 		remw	a0,a5,a0
 2472 0060 97000000 		call	_ZN6Thread5sleepEm@plt
 2472      E7800000 
 2473              	.LVL246:
  47:src/Code/../../h/Testing/Testing_OS1/Consumer_Producer_CPP_API_Test.hpp ****                 td->buffer->put(td->id + '0');
 2474              		.loc 5 47 13
GAS LISTING /tmp/ccBYUnRY.s 			page 58


 2475 0068 6FF09FFB 		j	.L129
 2476              	.L128:
  53:src/Code/../../h/Testing/Testing_OS1/Consumer_Producer_CPP_API_Test.hpp ****         }
 2477              		.loc 5 53 13 is_stmt 1
 2478 006c 83B70401 		ld	a5,16(s1)
  53:src/Code/../../h/Testing/Testing_OS1/Consumer_Producer_CPP_API_Test.hpp ****         }
 2479              		.loc 5 53 28 is_stmt 0
 2480 0070 03B50701 		ld	a0,16(a5)
 2481 0074 97000000 		call	_ZN9Semaphore6signalEv@plt
 2481      E7800000 
 2482              	.LVL247:
  54:src/Code/../../h/Testing/Testing_OS1/Consumer_Producer_CPP_API_Test.hpp ****     };
 2483              		.loc 5 54 9
 2484 007c 83308101 		ld	ra,24(sp)
 2485              		.cfi_restore 1
 2486 0080 03340101 		ld	s0,16(sp)
 2487              		.cfi_restore 8
 2488              		.cfi_def_cfa 2, 32
 2489 0084 83348100 		ld	s1,8(sp)
 2490              		.cfi_restore 9
 2491              	.LVL248:
 2492 0088 03390100 		ld	s2,0(sp)
 2493              		.cfi_restore 18
 2494              	.LVL249:
 2495 008c 13010102 		addi	sp,sp,32
 2496              		.cfi_def_cfa_offset 0
 2497 0090 67800000 		jr	ra
 2498              		.cfi_endproc
 2499              	.LFE107:
 2501              		.text
 2502              		.align	2
 2503              		.globl	_ZN12ThreadsTestC9fibonacciEm
 2505              	_ZN12ThreadsTestC9fibonacciEm:
 2506              	.LFB50:
  13:src/Code/../../h/Testing/Testing_OS1/Threads_C_API_Test.hpp ****         if (n == 0 || n == 1) { return n; }
 2507              		.loc 2 13 32 is_stmt 1
 2508              		.cfi_startproc
 2509              	.LVL250:
 2510 0480 130101FE 		addi	sp,sp,-32
 2511              		.cfi_def_cfa_offset 32
 2512 0484 233C1100 		sd	ra,24(sp)
 2513 0488 23388100 		sd	s0,16(sp)
 2514 048c 23349100 		sd	s1,8(sp)
 2515 0490 23302101 		sd	s2,0(sp)
 2516              		.cfi_offset 1, -8
 2517              		.cfi_offset 8, -16
 2518              		.cfi_offset 9, -24
 2519              		.cfi_offset 18, -32
 2520 0494 13040102 		addi	s0,sp,32
 2521              		.cfi_def_cfa 8, 0
 2522 0498 93040500 		mv	s1,a0
  14:src/Code/../../h/Testing/Testing_OS1/Threads_C_API_Test.hpp ****         if (n % 10 == 0) { thread_dispatch(); }
 2523              		.loc 2 14 9
 2524 049c 93071000 		li	a5,1
 2525 04a0 63F8A702 		bleu	a0,a5,.L131
  15:src/Code/../../h/Testing/Testing_OS1/Threads_C_API_Test.hpp ****         return fibonacci(n - 1) + fibonacci(n - 2);
 2526              		.loc 2 15 9
GAS LISTING /tmp/ccBYUnRY.s 			page 59


  15:src/Code/../../h/Testing/Testing_OS1/Threads_C_API_Test.hpp ****         return fibonacci(n - 1) + fibonacci(n - 2);
 2527              		.loc 2 15 15 is_stmt 0
 2528 04a4 9307A000 		li	a5,10
 2529 04a8 B377F502 		remu	a5,a0,a5
  15:src/Code/../../h/Testing/Testing_OS1/Threads_C_API_Test.hpp ****         return fibonacci(n - 1) + fibonacci(n - 2);
 2530              		.loc 2 15 9
 2531 04ac 638E0702 		beqz	a5,.L136
 2532              	.LVL251:
 2533              	.L133:
  16:src/Code/../../h/Testing/Testing_OS1/Threads_C_API_Test.hpp ****     }
 2534              		.loc 2 16 9 is_stmt 1
  16:src/Code/../../h/Testing/Testing_OS1/Threads_C_API_Test.hpp ****     }
 2535              		.loc 2 16 25 is_stmt 0
 2536 04b0 1385F4FF 		addi	a0,s1,-1
 2537 04b4 97000000 		call	_ZN12ThreadsTestC9fibonacciEm
 2537      E7800000 
 2538              	.LVL252:
 2539 04bc 13090500 		mv	s2,a0
  16:src/Code/../../h/Testing/Testing_OS1/Threads_C_API_Test.hpp ****     }
 2540              		.loc 2 16 44
 2541 04c0 1385E4FF 		addi	a0,s1,-2
 2542 04c4 97000000 		call	_ZN12ThreadsTestC9fibonacciEm
 2542      E7800000 
 2543              	.LVL253:
  16:src/Code/../../h/Testing/Testing_OS1/Threads_C_API_Test.hpp ****     }
 2544              		.loc 2 16 50
 2545 04cc 3305A900 		add	a0,s2,a0
 2546              	.L131:
  17:src/Code/../../h/Testing/Testing_OS1/Threads_C_API_Test.hpp **** 
 2547              		.loc 2 17 5
 2548 04d0 83308101 		ld	ra,24(sp)
 2549              		.cfi_remember_state
 2550              		.cfi_restore 1
 2551 04d4 03340101 		ld	s0,16(sp)
 2552              		.cfi_restore 8
 2553              		.cfi_def_cfa 2, 32
 2554 04d8 83348100 		ld	s1,8(sp)
 2555              		.cfi_restore 9
 2556              	.LVL254:
 2557 04dc 03390100 		ld	s2,0(sp)
 2558              		.cfi_restore 18
 2559 04e0 13010102 		addi	sp,sp,32
 2560              		.cfi_def_cfa_offset 0
 2561 04e4 67800000 		jr	ra
 2562              	.LVL255:
 2563              	.L136:
 2564              		.cfi_restore_state
  15:src/Code/../../h/Testing/Testing_OS1/Threads_C_API_Test.hpp ****         return fibonacci(n - 1) + fibonacci(n - 2);
 2565              		.loc 2 15 28 is_stmt 1 discriminator 1
  15:src/Code/../../h/Testing/Testing_OS1/Threads_C_API_Test.hpp ****         return fibonacci(n - 1) + fibonacci(n - 2);
 2566              		.loc 2 15 43 is_stmt 0 discriminator 1
 2567 04e8 97000000 		call	_Z15thread_dispatchv@plt
 2567      E7800000 
 2568              	.LVL256:
 2569 04f0 6FF01FFC 		j	.L133
 2570              		.cfi_endproc
 2571              	.LFE50:
GAS LISTING /tmp/ccBYUnRY.s 			page 60


 2573              		.section	.rodata.str1.8
 2574 0044 00000000 		.align	3
 2575              	.LC7:
 2576 0048 433A2069 		.string	"C: i="
 2576      3D00
 2577 004e 0000     		.align	3
 2578              	.LC8:
 2579 0050 433A2064 		.string	"C: dispatch\n"
 2579      69737061 
 2579      7463680A 
 2579      00
 2580 005d 000000   		.align	3
 2581              	.LC9:
 2582 0060 433A2074 		.string	"C: t1="
 2582      313D00
 2583 0067 00       		.align	3
 2584              	.LC10:
 2585 0068 433A2066 		.string	"C: fibonaci="
 2585      69626F6E 
 2585      6163693D 
 2585      00
 2586 0075 000000   		.align	3
 2587              	.LC11:
 2588 0078 43206669 		.string	"C finished!\n"
 2588      6E697368 
 2588      6564210A 
 2588      00
 2589              		.text
 2590              		.align	2
 2591              		.globl	_ZN12ThreadsTestC11workerBodyCEPv
 2593              	_ZN12ThreadsTestC11workerBodyCEPv:
 2594              	.LFB53:
  43:src/Code/../../h/Testing/Testing_OS1/Threads_C_API_Test.hpp **** 
  44:src/Code/../../h/Testing/Testing_OS1/Threads_C_API_Test.hpp ****     void workerBodyC(void* arg) {
 2595              		.loc 2 44 33 is_stmt 1
 2596              		.cfi_startproc
 2597              	.LVL257:
 2598 04f4 130101FE 		addi	sp,sp,-32
 2599              		.cfi_def_cfa_offset 32
 2600 04f8 233C1100 		sd	ra,24(sp)
 2601 04fc 23388100 		sd	s0,16(sp)
 2602 0500 23349100 		sd	s1,8(sp)
 2603 0504 23302101 		sd	s2,0(sp)
 2604              		.cfi_offset 1, -8
 2605              		.cfi_offset 8, -16
 2606              		.cfi_offset 9, -24
 2607              		.cfi_offset 18, -32
 2608 0508 13040102 		addi	s0,sp,32
 2609              		.cfi_def_cfa 8, 0
  45:src/Code/../../h/Testing/Testing_OS1/Threads_C_API_Test.hpp ****         uint8 i = 0;
 2610              		.loc 2 45 9
 2611              	.LVL258:
 2612              		.loc 2 45 15 is_stmt 0
 2613 050c 93040000 		li	s1,0
 2614 0510 6F000004 		j	.L139
 2615              	.LVL259:
 2616              	.L143:
GAS LISTING /tmp/ccBYUnRY.s 			page 61


  46:src/Code/../../h/Testing/Testing_OS1/Threads_C_API_Test.hpp ****         for (; i < 3; i++) {
  47:src/Code/../../h/Testing/Testing_OS1/Threads_C_API_Test.hpp ****             printString("C: i="); printInt(i); printString("\n");
 2617              		.loc 2 47 13 is_stmt 1 discriminator 1
 2618              		.loc 2 47 24 is_stmt 0 discriminator 1
 2619 0514 17050000 		lla	a0,.LC7
 2619      13050500 
 2620 051c 97000000 		call	_Z11printStringPKc@plt
 2620      E7800000 
 2621              	.LVL260:
 2622              		.loc 2 47 35 is_stmt 1 discriminator 1
 2623              		.loc 2 47 43 is_stmt 0 discriminator 1
 2624 0524 13060000 		li	a2,0
 2625 0528 9305A000 		li	a1,10
 2626 052c 13850400 		mv	a0,s1
 2627 0530 97000000 		call	_Z8printIntiii@plt
 2627      E7800000 
 2628              	.LVL261:
 2629              		.loc 2 47 48 is_stmt 1 discriminator 1
 2630              		.loc 2 47 59 is_stmt 0 discriminator 1
 2631 0538 17050000 		lla	a0,.LC1
 2631      13050500 
 2632 0540 97000000 		call	_Z11printStringPKc@plt
 2632      E7800000 
 2633              	.LVL262:
  46:src/Code/../../h/Testing/Testing_OS1/Threads_C_API_Test.hpp ****         for (; i < 3; i++) {
 2634              		.loc 2 46 9 is_stmt 1 discriminator 1
 2635 0548 9B841400 		addiw	s1,s1,1
 2636              	.LVL263:
 2637 054c 93F4F40F 		andi	s1,s1,0xff
 2638              	.LVL264:
 2639              	.L139:
  46:src/Code/../../h/Testing/Testing_OS1/Threads_C_API_Test.hpp ****         for (; i < 3; i++) {
 2640              		.loc 2 46 9 discriminator 2
  46:src/Code/../../h/Testing/Testing_OS1/Threads_C_API_Test.hpp ****         for (; i < 3; i++) {
 2641              		.loc 2 46 18 discriminator 2
 2642 0550 93072000 		li	a5,2
 2643 0554 E3F097FC 		bleu	s1,a5,.L143
  48:src/Code/../../h/Testing/Testing_OS1/Threads_C_API_Test.hpp ****         }
  49:src/Code/../../h/Testing/Testing_OS1/Threads_C_API_Test.hpp **** 
  50:src/Code/../../h/Testing/Testing_OS1/Threads_C_API_Test.hpp ****         printString("C: dispatch\n");
 2644              		.loc 2 50 9
 2645              		.loc 2 50 20 is_stmt 0
 2646 0558 17050000 		lla	a0,.LC8
 2646      13050500 
 2647 0560 97000000 		call	_Z11printStringPKc@plt
 2647      E7800000 
 2648              	.LVL265:
  51:src/Code/../../h/Testing/Testing_OS1/Threads_C_API_Test.hpp ****         __asm__ ("li t1, 7");
 2649              		.loc 2 51 9 is_stmt 1
 2650              		.loc 2 51 29 is_stmt 0
 2651              	#APP
 2652              	# 51 "src/Code/../../h/Testing/Testing_OS1/Threads_C_API_Test.hpp" 1
  52              	        thread_dispatch();
 2653              		li t1, 7
 2654              	# 0 "" 2
 2655              		.loc 2 52 9 is_stmt 1
 2656              		.loc 2 52 24 is_stmt 0
GAS LISTING /tmp/ccBYUnRY.s 			page 62


 2657              	#NO_APP
 2658 056c 97000000 		call	_Z15thread_dispatchv@plt
 2658      E7800000 
 2659              	.LVL266:
  53:src/Code/../../h/Testing/Testing_OS1/Threads_C_API_Test.hpp **** 
  54:src/Code/../../h/Testing/Testing_OS1/Threads_C_API_Test.hpp ****         uint64 t1 = 0;
 2660              		.loc 2 54 9 is_stmt 1
  55:src/Code/../../h/Testing/Testing_OS1/Threads_C_API_Test.hpp ****         __asm__ ("mv %[t1], t1" : [t1] "=r"(t1));
 2661              		.loc 2 55 9
 2662              		.loc 2 55 49 is_stmt 0
 2663              	#APP
 2664              	# 55 "src/Code/../../h/Testing/Testing_OS1/Threads_C_API_Test.hpp" 1
  56              	
 2665              		mv s2, t1
 2666              	# 0 "" 2
 2667              	.LVL267:
  57:src/Code/../../h/Testing/Testing_OS1/Threads_C_API_Test.hpp ****         printString("C: t1="); printInt(t1); printString("\n");
 2668              		.loc 2 57 9 is_stmt 1
 2669              		.loc 2 57 20 is_stmt 0
 2670              	#NO_APP
 2671 0578 17050000 		lla	a0,.LC9
 2671      13050500 
 2672 0580 97000000 		call	_Z11printStringPKc@plt
 2672      E7800000 
 2673              	.LVL268:
 2674              		.loc 2 57 32 is_stmt 1
 2675              		.loc 2 57 40 is_stmt 0
 2676 0588 13060000 		li	a2,0
 2677 058c 9305A000 		li	a1,10
 2678 0590 1B050900 		sext.w	a0,s2
 2679 0594 97000000 		call	_Z8printIntiii@plt
 2679      E7800000 
 2680              	.LVL269:
 2681              		.loc 2 57 46 is_stmt 1
 2682              		.loc 2 57 57 is_stmt 0
 2683 059c 17050000 		lla	a0,.LC1
 2683      13050500 
 2684 05a4 97000000 		call	_Z11printStringPKc@plt
 2684      E7800000 
 2685              	.LVL270:
  58:src/Code/../../h/Testing/Testing_OS1/Threads_C_API_Test.hpp **** 
  59:src/Code/../../h/Testing/Testing_OS1/Threads_C_API_Test.hpp ****         uint64 result = fibonacci(12);
 2686              		.loc 2 59 9 is_stmt 1
 2687              		.loc 2 59 34 is_stmt 0
 2688 05ac 1305C000 		li	a0,12
 2689 05b0 97000000 		call	_ZN12ThreadsTestC9fibonacciEm
 2689      E7800000 
 2690              	.LVL271:
 2691 05b8 13090500 		mv	s2,a0
 2692              	.LVL272:
  60:src/Code/../../h/Testing/Testing_OS1/Threads_C_API_Test.hpp ****         printString("C: fibonaci="); printInt(result); printString("\n");
 2693              		.loc 2 60 9 is_stmt 1
 2694              		.loc 2 60 20 is_stmt 0
 2695 05bc 17050000 		lla	a0,.LC10
 2695      13050500 
 2696              	.LVL273:
 2697 05c4 97000000 		call	_Z11printStringPKc@plt
GAS LISTING /tmp/ccBYUnRY.s 			page 63


 2697      E7800000 
 2698              	.LVL274:
 2699              		.loc 2 60 38 is_stmt 1
 2700              		.loc 2 60 46 is_stmt 0
 2701 05cc 13060000 		li	a2,0
 2702 05d0 9305A000 		li	a1,10
 2703 05d4 1B050900 		sext.w	a0,s2
 2704 05d8 97000000 		call	_Z8printIntiii@plt
 2704      E7800000 
 2705              	.LVL275:
 2706              		.loc 2 60 56 is_stmt 1
 2707              		.loc 2 60 67 is_stmt 0
 2708 05e0 17050000 		lla	a0,.LC1
 2708      13050500 
 2709 05e8 97000000 		call	_Z11printStringPKc@plt
 2709      E7800000 
 2710              	.LVL276:
 2711 05f0 6F000004 		j	.L141
 2712              	.L144:
  61:src/Code/../../h/Testing/Testing_OS1/Threads_C_API_Test.hpp **** 
  62:src/Code/../../h/Testing/Testing_OS1/Threads_C_API_Test.hpp ****         for (; i < 6; i++) {
  63:src/Code/../../h/Testing/Testing_OS1/Threads_C_API_Test.hpp ****             printString("C: i="); printInt(i); printString("\n");
 2713              		.loc 2 63 13 is_stmt 1 discriminator 1
 2714              		.loc 2 63 24 is_stmt 0 discriminator 1
 2715 05f4 17050000 		lla	a0,.LC7
 2715      13050500 
 2716 05fc 97000000 		call	_Z11printStringPKc@plt
 2716      E7800000 
 2717              	.LVL277:
 2718              		.loc 2 63 35 is_stmt 1 discriminator 1
 2719              		.loc 2 63 43 is_stmt 0 discriminator 1
 2720 0604 13060000 		li	a2,0
 2721 0608 9305A000 		li	a1,10
 2722 060c 13850400 		mv	a0,s1
 2723 0610 97000000 		call	_Z8printIntiii@plt
 2723      E7800000 
 2724              	.LVL278:
 2725              		.loc 2 63 48 is_stmt 1 discriminator 1
 2726              		.loc 2 63 59 is_stmt 0 discriminator 1
 2727 0618 17050000 		lla	a0,.LC1
 2727      13050500 
 2728 0620 97000000 		call	_Z11printStringPKc@plt
 2728      E7800000 
 2729              	.LVL279:
  62:src/Code/../../h/Testing/Testing_OS1/Threads_C_API_Test.hpp ****             printString("C: i="); printInt(i); printString("\n");
 2730              		.loc 2 62 9 is_stmt 1 discriminator 1
 2731 0628 9B841400 		addiw	s1,s1,1
 2732              	.LVL280:
 2733 062c 93F4F40F 		andi	s1,s1,0xff
 2734              	.LVL281:
 2735              	.L141:
  62:src/Code/../../h/Testing/Testing_OS1/Threads_C_API_Test.hpp ****             printString("C: i="); printInt(i); printString("\n");
 2736              		.loc 2 62 9 discriminator 2
  62:src/Code/../../h/Testing/Testing_OS1/Threads_C_API_Test.hpp ****             printString("C: i="); printInt(i); printString("\n");
 2737              		.loc 2 62 18 discriminator 2
 2738 0630 93075000 		li	a5,5
 2739 0634 E3F097FC 		bleu	s1,a5,.L144
GAS LISTING /tmp/ccBYUnRY.s 			page 64


  64:src/Code/../../h/Testing/Testing_OS1/Threads_C_API_Test.hpp ****         }
  65:src/Code/../../h/Testing/Testing_OS1/Threads_C_API_Test.hpp **** 
  66:src/Code/../../h/Testing/Testing_OS1/Threads_C_API_Test.hpp ****         printString("C finished!\n");
 2740              		.loc 2 66 9
 2741              		.loc 2 66 20 is_stmt 0
 2742 0638 17050000 		lla	a0,.LC11
 2742      13050500 
 2743 0640 97000000 		call	_Z11printStringPKc@plt
 2743      E7800000 
 2744              	.LVL282:
  67:src/Code/../../h/Testing/Testing_OS1/Threads_C_API_Test.hpp ****         finishedC = true;
 2745              		.loc 2 67 9 is_stmt 1
 2746              		.loc 2 67 19 is_stmt 0
 2747 0648 93071000 		li	a5,1
 2748 064c 17070000 		sb	a5,.LANCHOR0+40,a4
 2748      2300F700 
  68:src/Code/../../h/Testing/Testing_OS1/Threads_C_API_Test.hpp ****         thread_dispatch();
 2749              		.loc 2 68 9 is_stmt 1
 2750              		.loc 2 68 24 is_stmt 0
 2751 0654 97000000 		call	_Z15thread_dispatchv@plt
 2751      E7800000 
 2752              	.LVL283:
  69:src/Code/../../h/Testing/Testing_OS1/Threads_C_API_Test.hpp ****     }
 2753              		.loc 2 69 5
 2754 065c 83308101 		ld	ra,24(sp)
 2755              		.cfi_restore 1
 2756 0660 03340101 		ld	s0,16(sp)
 2757              		.cfi_restore 8
 2758              		.cfi_def_cfa 2, 32
 2759 0664 83348100 		ld	s1,8(sp)
 2760              		.cfi_restore 9
 2761              	.LVL284:
 2762 0668 03390100 		ld	s2,0(sp)
 2763              		.cfi_restore 18
 2764              	.LVL285:
 2765 066c 13010102 		addi	sp,sp,32
 2766              		.cfi_def_cfa_offset 0
 2767 0670 67800000 		jr	ra
 2768              		.cfi_endproc
 2769              	.LFE53:
 2771              		.section	.rodata.str1.8
 2772 0085 000000   		.align	3
 2773              	.LC12:
 2774 0088 443A2069 		.string	"D: i="
 2774      3D00
 2775 008e 0000     		.align	3
 2776              	.LC13:
 2777 0090 443A2064 		.string	"D: dispatch\n"
 2777      69737061 
 2777      7463680A 
 2777      00
 2778 009d 000000   		.align	3
 2779              	.LC14:
 2780 00a0 443A2066 		.string	"D: fibonaci="
 2780      69626F6E 
 2780      6163693D 
 2780      00
GAS LISTING /tmp/ccBYUnRY.s 			page 65


 2781 00ad 000000   		.align	3
 2782              	.LC15:
 2783 00b0 44206669 		.string	"D finished!\n"
 2783      6E697368 
 2783      6564210A 
 2783      00
 2784              		.text
 2785              		.align	2
 2786              		.globl	_ZN12ThreadsTestC11workerBodyDEPv
 2788              	_ZN12ThreadsTestC11workerBodyDEPv:
 2789              	.LFB54:
  70:src/Code/../../h/Testing/Testing_OS1/Threads_C_API_Test.hpp **** 
  71:src/Code/../../h/Testing/Testing_OS1/Threads_C_API_Test.hpp ****     void workerBodyD(void* arg) {
 2790              		.loc 2 71 33 is_stmt 1
 2791              		.cfi_startproc
 2792              	.LVL286:
 2793 0674 130101FE 		addi	sp,sp,-32
 2794              		.cfi_def_cfa_offset 32
 2795 0678 233C1100 		sd	ra,24(sp)
 2796 067c 23388100 		sd	s0,16(sp)
 2797 0680 23349100 		sd	s1,8(sp)
 2798 0684 23302101 		sd	s2,0(sp)
 2799              		.cfi_offset 1, -8
 2800              		.cfi_offset 8, -16
 2801              		.cfi_offset 9, -24
 2802              		.cfi_offset 18, -32
 2803 0688 13040102 		addi	s0,sp,32
 2804              		.cfi_def_cfa 8, 0
  72:src/Code/../../h/Testing/Testing_OS1/Threads_C_API_Test.hpp ****         uint8 i = 10;
 2805              		.loc 2 72 9
 2806              	.LVL287:
 2807              		.loc 2 72 15 is_stmt 0
 2808 068c 9304A000 		li	s1,10
 2809 0690 6F000004 		j	.L147
 2810              	.LVL288:
 2811              	.L151:
  73:src/Code/../../h/Testing/Testing_OS1/Threads_C_API_Test.hpp ****         for (; i < 13; i++) {
  74:src/Code/../../h/Testing/Testing_OS1/Threads_C_API_Test.hpp ****             printString("D: i="); printInt(i); printString("\n");
 2812              		.loc 2 74 13 is_stmt 1 discriminator 1
 2813              		.loc 2 74 24 is_stmt 0 discriminator 1
 2814 0694 17050000 		lla	a0,.LC12
 2814      13050500 
 2815 069c 97000000 		call	_Z11printStringPKc@plt
 2815      E7800000 
 2816              	.LVL289:
 2817              		.loc 2 74 35 is_stmt 1 discriminator 1
 2818              		.loc 2 74 43 is_stmt 0 discriminator 1
 2819 06a4 13060000 		li	a2,0
 2820 06a8 9305A000 		li	a1,10
 2821 06ac 13850400 		mv	a0,s1
 2822 06b0 97000000 		call	_Z8printIntiii@plt
 2822      E7800000 
 2823              	.LVL290:
 2824              		.loc 2 74 48 is_stmt 1 discriminator 1
 2825              		.loc 2 74 59 is_stmt 0 discriminator 1
 2826 06b8 17050000 		lla	a0,.LC1
 2826      13050500 
GAS LISTING /tmp/ccBYUnRY.s 			page 66


 2827 06c0 97000000 		call	_Z11printStringPKc@plt
 2827      E7800000 
 2828              	.LVL291:
  73:src/Code/../../h/Testing/Testing_OS1/Threads_C_API_Test.hpp ****         for (; i < 13; i++) {
 2829              		.loc 2 73 9 is_stmt 1 discriminator 1
 2830 06c8 9B841400 		addiw	s1,s1,1
 2831              	.LVL292:
 2832 06cc 93F4F40F 		andi	s1,s1,0xff
 2833              	.LVL293:
 2834              	.L147:
  73:src/Code/../../h/Testing/Testing_OS1/Threads_C_API_Test.hpp ****         for (; i < 13; i++) {
 2835              		.loc 2 73 9 discriminator 2
  73:src/Code/../../h/Testing/Testing_OS1/Threads_C_API_Test.hpp ****         for (; i < 13; i++) {
 2836              		.loc 2 73 18 discriminator 2
 2837 06d0 9307C000 		li	a5,12
 2838 06d4 E3F097FC 		bleu	s1,a5,.L151
  75:src/Code/../../h/Testing/Testing_OS1/Threads_C_API_Test.hpp ****         }
  76:src/Code/../../h/Testing/Testing_OS1/Threads_C_API_Test.hpp **** 
  77:src/Code/../../h/Testing/Testing_OS1/Threads_C_API_Test.hpp ****         printString("D: dispatch\n");
 2839              		.loc 2 77 9
 2840              		.loc 2 77 20 is_stmt 0
 2841 06d8 17050000 		lla	a0,.LC13
 2841      13050500 
 2842 06e0 97000000 		call	_Z11printStringPKc@plt
 2842      E7800000 
 2843              	.LVL294:
  78:src/Code/../../h/Testing/Testing_OS1/Threads_C_API_Test.hpp ****         __asm__ ("li t1, 5");
 2844              		.loc 2 78 9 is_stmt 1
 2845              		.loc 2 78 29 is_stmt 0
 2846              	#APP
 2847              	# 78 "src/Code/../../h/Testing/Testing_OS1/Threads_C_API_Test.hpp" 1
  79              	        thread_dispatch();
 2848              		li t1, 5
 2849              	# 0 "" 2
 2850              		.loc 2 79 9 is_stmt 1
 2851              		.loc 2 79 24 is_stmt 0
 2852              	#NO_APP
 2853 06ec 97000000 		call	_Z15thread_dispatchv@plt
 2853      E7800000 
 2854              	.LVL295:
  80:src/Code/../../h/Testing/Testing_OS1/Threads_C_API_Test.hpp **** 
  81:src/Code/../../h/Testing/Testing_OS1/Threads_C_API_Test.hpp ****         uint64 result = fibonacci(16);
 2855              		.loc 2 81 9 is_stmt 1
 2856              		.loc 2 81 34 is_stmt 0
 2857 06f4 13050001 		li	a0,16
 2858 06f8 97000000 		call	_ZN12ThreadsTestC9fibonacciEm
 2858      E7800000 
 2859              	.LVL296:
 2860 0700 13090500 		mv	s2,a0
 2861              	.LVL297:
  82:src/Code/../../h/Testing/Testing_OS1/Threads_C_API_Test.hpp ****         printString("D: fibonaci="); printInt(result); printString("\n");
 2862              		.loc 2 82 9 is_stmt 1
 2863              		.loc 2 82 20 is_stmt 0
 2864 0704 17050000 		lla	a0,.LC14
 2864      13050500 
 2865              	.LVL298:
 2866 070c 97000000 		call	_Z11printStringPKc@plt
GAS LISTING /tmp/ccBYUnRY.s 			page 67


 2866      E7800000 
 2867              	.LVL299:
 2868              		.loc 2 82 38 is_stmt 1
 2869              		.loc 2 82 46 is_stmt 0
 2870 0714 13060000 		li	a2,0
 2871 0718 9305A000 		li	a1,10
 2872 071c 1B050900 		sext.w	a0,s2
 2873 0720 97000000 		call	_Z8printIntiii@plt
 2873      E7800000 
 2874              	.LVL300:
 2875              		.loc 2 82 56 is_stmt 1
 2876              		.loc 2 82 67 is_stmt 0
 2877 0728 17050000 		lla	a0,.LC1
 2877      13050500 
 2878 0730 97000000 		call	_Z11printStringPKc@plt
 2878      E7800000 
 2879              	.LVL301:
 2880 0738 6F000004 		j	.L149
 2881              	.L152:
  83:src/Code/../../h/Testing/Testing_OS1/Threads_C_API_Test.hpp **** 
  84:src/Code/../../h/Testing/Testing_OS1/Threads_C_API_Test.hpp ****         for (; i < 16; i++) {
  85:src/Code/../../h/Testing/Testing_OS1/Threads_C_API_Test.hpp ****             printString("D: i="); printInt(i); printString("\n");
 2882              		.loc 2 85 13 is_stmt 1 discriminator 1
 2883              		.loc 2 85 24 is_stmt 0 discriminator 1
 2884 073c 17050000 		lla	a0,.LC12
 2884      13050500 
 2885 0744 97000000 		call	_Z11printStringPKc@plt
 2885      E7800000 
 2886              	.LVL302:
 2887              		.loc 2 85 35 is_stmt 1 discriminator 1
 2888              		.loc 2 85 43 is_stmt 0 discriminator 1
 2889 074c 13060000 		li	a2,0
 2890 0750 9305A000 		li	a1,10
 2891 0754 13850400 		mv	a0,s1
 2892 0758 97000000 		call	_Z8printIntiii@plt
 2892      E7800000 
 2893              	.LVL303:
 2894              		.loc 2 85 48 is_stmt 1 discriminator 1
 2895              		.loc 2 85 59 is_stmt 0 discriminator 1
 2896 0760 17050000 		lla	a0,.LC1
 2896      13050500 
 2897 0768 97000000 		call	_Z11printStringPKc@plt
 2897      E7800000 
 2898              	.LVL304:
  84:src/Code/../../h/Testing/Testing_OS1/Threads_C_API_Test.hpp ****             printString("D: i="); printInt(i); printString("\n");
 2899              		.loc 2 84 9 is_stmt 1 discriminator 1
 2900 0770 9B841400 		addiw	s1,s1,1
 2901              	.LVL305:
 2902 0774 93F4F40F 		andi	s1,s1,0xff
 2903              	.LVL306:
 2904              	.L149:
  84:src/Code/../../h/Testing/Testing_OS1/Threads_C_API_Test.hpp ****             printString("D: i="); printInt(i); printString("\n");
 2905              		.loc 2 84 9 discriminator 2
  84:src/Code/../../h/Testing/Testing_OS1/Threads_C_API_Test.hpp ****             printString("D: i="); printInt(i); printString("\n");
 2906              		.loc 2 84 18 discriminator 2
 2907 0778 9307F000 		li	a5,15
 2908 077c E3F097FC 		bleu	s1,a5,.L152
GAS LISTING /tmp/ccBYUnRY.s 			page 68


  86:src/Code/../../h/Testing/Testing_OS1/Threads_C_API_Test.hpp ****         }
  87:src/Code/../../h/Testing/Testing_OS1/Threads_C_API_Test.hpp **** 
  88:src/Code/../../h/Testing/Testing_OS1/Threads_C_API_Test.hpp ****         printString("D finished!\n");
 2909              		.loc 2 88 9
 2910              		.loc 2 88 20 is_stmt 0
 2911 0780 17050000 		lla	a0,.LC15
 2911      13050500 
 2912 0788 97000000 		call	_Z11printStringPKc@plt
 2912      E7800000 
 2913              	.LVL307:
  89:src/Code/../../h/Testing/Testing_OS1/Threads_C_API_Test.hpp ****         finishedD = true;
 2914              		.loc 2 89 9 is_stmt 1
 2915              		.loc 2 89 19 is_stmt 0
 2916 0790 93071000 		li	a5,1
 2917 0794 17070000 		sb	a5,.LANCHOR0+41,a4
 2917      2300F700 
  90:src/Code/../../h/Testing/Testing_OS1/Threads_C_API_Test.hpp ****         thread_dispatch();
 2918              		.loc 2 90 9 is_stmt 1
 2919              		.loc 2 90 24 is_stmt 0
 2920 079c 97000000 		call	_Z15thread_dispatchv@plt
 2920      E7800000 
 2921              	.LVL308:
  91:src/Code/../../h/Testing/Testing_OS1/Threads_C_API_Test.hpp ****     }
 2922              		.loc 2 91 5
 2923 07a4 83308101 		ld	ra,24(sp)
 2924              		.cfi_restore 1
 2925 07a8 03340101 		ld	s0,16(sp)
 2926              		.cfi_restore 8
 2927              		.cfi_def_cfa 2, 32
 2928 07ac 83348100 		ld	s1,8(sp)
 2929              		.cfi_restore 9
 2930              	.LVL309:
 2931 07b0 03390100 		ld	s2,0(sp)
 2932              		.cfi_restore 18
 2933              	.LVL310:
 2934 07b4 13010102 		addi	sp,sp,32
 2935              		.cfi_def_cfa_offset 0
 2936 07b8 67800000 		jr	ra
 2937              		.cfi_endproc
 2938              	.LFE54:
 2940              		.section	.rodata.str1.8
 2941 00bd 000000   		.align	3
 2942              	.LC16:
 2943 00c0 54687265 		.string	"ThreadA created\n"
 2943      61644120 
 2943      63726561 
 2943      7465640A 
 2943      00
 2944 00d1 00000000 		.align	3
 2944      000000
 2945              	.LC17:
 2946 00d8 54687265 		.string	"ThreadB created\n"
 2946      61644220 
 2946      63726561 
 2946      7465640A 
 2946      00
 2947 00e9 00000000 		.align	3
GAS LISTING /tmp/ccBYUnRY.s 			page 69


 2947      000000
 2948              	.LC18:
 2949 00f0 54687265 		.string	"ThreadC created\n"
 2949      61644320 
 2949      63726561 
 2949      7465640A 
 2949      00
 2950 0101 00000000 		.align	3
 2950      000000
 2951              	.LC19:
 2952 0108 54687265 		.string	"ThreadD created\n"
 2952      61644420 
 2952      63726561 
 2952      7465640A 
 2952      00
 2953              		.text
 2954              		.align	2
 2955              		.globl	_ZN12ThreadsTestC18Threads_C_API_testEv
 2957              	_ZN12ThreadsTestC18Threads_C_API_testEv:
 2958              	.LFB55:
  92:src/Code/../../h/Testing/Testing_OS1/Threads_C_API_Test.hpp **** 
  93:src/Code/../../h/Testing/Testing_OS1/Threads_C_API_Test.hpp **** 
  94:src/Code/../../h/Testing/Testing_OS1/Threads_C_API_Test.hpp ****     void Threads_C_API_test() {
 2959              		.loc 2 94 31 is_stmt 1
 2960              		.cfi_startproc
 2961 07bc 130101FD 		addi	sp,sp,-48
 2962              		.cfi_def_cfa_offset 48
 2963 07c0 23341102 		sd	ra,40(sp)
 2964 07c4 23308102 		sd	s0,32(sp)
 2965              		.cfi_offset 1, -8
 2966              		.cfi_offset 8, -16
 2967 07c8 13040103 		addi	s0,sp,48
 2968              		.cfi_def_cfa 8, 0
  95:src/Code/../../h/Testing/Testing_OS1/Threads_C_API_Test.hpp ****         thread_t threads[4];
 2969              		.loc 2 95 9
  96:src/Code/../../h/Testing/Testing_OS1/Threads_C_API_Test.hpp ****         thread_create(&threads[0], workerBodyA, nullptr);
 2970              		.loc 2 96 9
 2971              		.loc 2 96 22 is_stmt 0
 2972 07cc 13060000 		li	a2,0
 2973 07d0 97050000 		lla	a1,_ZN12ThreadsTestC11workerBodyAEPv
 2973      93850500 
 2974 07d8 130504FD 		addi	a0,s0,-48
 2975 07dc 97000000 		call	_Z13thread_createPP6threadPFvPvES2_@plt
 2975      E7800000 
 2976              	.LVL311:
  97:src/Code/../../h/Testing/Testing_OS1/Threads_C_API_Test.hpp ****         printString("ThreadA created\n");
 2977              		.loc 2 97 9 is_stmt 1
 2978              		.loc 2 97 20 is_stmt 0
 2979 07e4 17050000 		lla	a0,.LC16
 2979      13050500 
 2980 07ec 97000000 		call	_Z11printStringPKc@plt
 2980      E7800000 
 2981              	.LVL312:
  98:src/Code/../../h/Testing/Testing_OS1/Threads_C_API_Test.hpp **** 
  99:src/Code/../../h/Testing/Testing_OS1/Threads_C_API_Test.hpp ****         thread_create(&threads[1], workerBodyB, nullptr);
 2982              		.loc 2 99 9 is_stmt 1
 2983              		.loc 2 99 22 is_stmt 0
GAS LISTING /tmp/ccBYUnRY.s 			page 70


 2984 07f4 13060000 		li	a2,0
 2985 07f8 97050000 		lla	a1,_ZN12ThreadsTestC11workerBodyBEPv
 2985      93850500 
 2986 0800 130584FD 		addi	a0,s0,-40
 2987 0804 97000000 		call	_Z13thread_createPP6threadPFvPvES2_@plt
 2987      E7800000 
 2988              	.LVL313:
 100:src/Code/../../h/Testing/Testing_OS1/Threads_C_API_Test.hpp ****         printString("ThreadB created\n");
 2989              		.loc 2 100 9 is_stmt 1
 2990              		.loc 2 100 20 is_stmt 0
 2991 080c 17050000 		lla	a0,.LC17
 2991      13050500 
 2992 0814 97000000 		call	_Z11printStringPKc@plt
 2992      E7800000 
 2993              	.LVL314:
 101:src/Code/../../h/Testing/Testing_OS1/Threads_C_API_Test.hpp **** 
 102:src/Code/../../h/Testing/Testing_OS1/Threads_C_API_Test.hpp ****         thread_create(&threads[2], workerBodyC, nullptr);
 2994              		.loc 2 102 9 is_stmt 1
 2995              		.loc 2 102 22 is_stmt 0
 2996 081c 13060000 		li	a2,0
 2997 0820 97050000 		lla	a1,_ZN12ThreadsTestC11workerBodyCEPv
 2997      93850500 
 2998 0828 130504FE 		addi	a0,s0,-32
 2999 082c 97000000 		call	_Z13thread_createPP6threadPFvPvES2_@plt
 2999      E7800000 
 3000              	.LVL315:
 103:src/Code/../../h/Testing/Testing_OS1/Threads_C_API_Test.hpp ****         printString("ThreadC created\n");
 3001              		.loc 2 103 9 is_stmt 1
 3002              		.loc 2 103 20 is_stmt 0
 3003 0834 17050000 		lla	a0,.LC18
 3003      13050500 
 3004 083c 97000000 		call	_Z11printStringPKc@plt
 3004      E7800000 
 3005              	.LVL316:
 104:src/Code/../../h/Testing/Testing_OS1/Threads_C_API_Test.hpp **** 
 105:src/Code/../../h/Testing/Testing_OS1/Threads_C_API_Test.hpp ****         thread_create(&threads[3], workerBodyD, nullptr);
 3006              		.loc 2 105 9 is_stmt 1
 3007              		.loc 2 105 22 is_stmt 0
 3008 0844 13060000 		li	a2,0
 3009 0848 97050000 		lla	a1,_ZN12ThreadsTestC11workerBodyDEPv
 3009      93850500 
 3010 0850 130584FE 		addi	a0,s0,-24
 3011 0854 97000000 		call	_Z13thread_createPP6threadPFvPvES2_@plt
 3011      E7800000 
 3012              	.LVL317:
 106:src/Code/../../h/Testing/Testing_OS1/Threads_C_API_Test.hpp ****         printString("ThreadD created\n");
 3013              		.loc 2 106 9 is_stmt 1
 3014              		.loc 2 106 20 is_stmt 0
 3015 085c 17050000 		lla	a0,.LC19
 3015      13050500 
 3016 0864 97000000 		call	_Z11printStringPKc@plt
 3016      E7800000 
 3017              	.LVL318:
 3018 086c 6F00C000 		j	.L156
 3019              	.L154:
 107:src/Code/../../h/Testing/Testing_OS1/Threads_C_API_Test.hpp **** 
 108:src/Code/../../h/Testing/Testing_OS1/Threads_C_API_Test.hpp ****         while (!(finishedA && finishedB && finishedC && finishedD)) {
GAS LISTING /tmp/ccBYUnRY.s 			page 71


 109:src/Code/../../h/Testing/Testing_OS1/Threads_C_API_Test.hpp ****             thread_dispatch();
 3020              		.loc 2 109 13 is_stmt 1
 3021              		.loc 2 109 28 is_stmt 0
 3022 0870 97000000 		call	_Z15thread_dispatchv@plt
 3022      E7800000 
 3023              	.LVL319:
 3024              	.L156:
 108:src/Code/../../h/Testing/Testing_OS1/Threads_C_API_Test.hpp ****             thread_dispatch();
 3025              		.loc 2 108 9 is_stmt 1
 108:src/Code/../../h/Testing/Testing_OS1/Threads_C_API_Test.hpp ****             thread_dispatch();
 3026              		.loc 2 108 16
 3027 0878 97070000 		lbu	a5,.LANCHOR0
 3027      83C70700 
 3028 0880 E38807FE 		beqz	a5,.L154
 108:src/Code/../../h/Testing/Testing_OS1/Threads_C_API_Test.hpp ****             thread_dispatch();
 3029              		.loc 2 108 28 is_stmt 0 discriminator 1
 3030 0884 97070000 		lbu	a5,.LANCHOR0+1
 3030      83C70700 
 3031 088c E38207FE 		beqz	a5,.L154
 108:src/Code/../../h/Testing/Testing_OS1/Threads_C_API_Test.hpp ****             thread_dispatch();
 3032              		.loc 2 108 41 discriminator 2
 3033 0890 97070000 		lbu	a5,.LANCHOR0+40
 3033      83C70700 
 3034 0898 E38C07FC 		beqz	a5,.L154
 108:src/Code/../../h/Testing/Testing_OS1/Threads_C_API_Test.hpp ****             thread_dispatch();
 3035              		.loc 2 108 16 discriminator 3
 3036 089c 97070000 		lbu	a5,.LANCHOR0+41
 3036      83C70700 
 3037 08a4 E38607FC 		beqz	a5,.L154
 110:src/Code/../../h/Testing/Testing_OS1/Threads_C_API_Test.hpp ****         }
 111:src/Code/../../h/Testing/Testing_OS1/Threads_C_API_Test.hpp **** 
 112:src/Code/../../h/Testing/Testing_OS1/Threads_C_API_Test.hpp ****     }
 3038              		.loc 2 112 5
 3039 08a8 83308102 		ld	ra,40(sp)
 3040              		.cfi_restore 1
 3041 08ac 03340102 		ld	s0,32(sp)
 3042              		.cfi_restore 8
 3043              		.cfi_def_cfa 2, 48
 3044 08b0 13010103 		addi	sp,sp,48
 3045              		.cfi_def_cfa_offset 0
 3046 08b4 67800000 		jr	ra
 3047              		.cfi_endproc
 3048              	.LFE55:
 3050              		.align	2
 3051              		.globl	_ZN14ThreadsTestCPP9fibonacciEm
 3053              	_ZN14ThreadsTestCPP9fibonacciEm:
 3054              	.LFB56:
  13:src/Code/../../h/Testing/Testing_OS1/Threads_CPP_API_Test.hpp ****         if (n == 0 || n == 1) { return n; }
 3055              		.loc 3 13 32 is_stmt 1
 3056              		.cfi_startproc
 3057              	.LVL320:
 3058 08b8 130101FE 		addi	sp,sp,-32
 3059              		.cfi_def_cfa_offset 32
 3060 08bc 233C1100 		sd	ra,24(sp)
 3061 08c0 23388100 		sd	s0,16(sp)
 3062 08c4 23349100 		sd	s1,8(sp)
 3063 08c8 23302101 		sd	s2,0(sp)
GAS LISTING /tmp/ccBYUnRY.s 			page 72


 3064              		.cfi_offset 1, -8
 3065              		.cfi_offset 8, -16
 3066              		.cfi_offset 9, -24
 3067              		.cfi_offset 18, -32
 3068 08cc 13040102 		addi	s0,sp,32
 3069              		.cfi_def_cfa 8, 0
 3070 08d0 93040500 		mv	s1,a0
  14:src/Code/../../h/Testing/Testing_OS1/Threads_CPP_API_Test.hpp ****         if (n % 10 == 0) { thread_dispatch(); }
 3071              		.loc 3 14 9
 3072 08d4 93071000 		li	a5,1
 3073 08d8 63F8A702 		bleu	a0,a5,.L158
  15:src/Code/../../h/Testing/Testing_OS1/Threads_CPP_API_Test.hpp ****         return fibonacci(n - 1) + fibonacci(n - 2);
 3074              		.loc 3 15 9
  15:src/Code/../../h/Testing/Testing_OS1/Threads_CPP_API_Test.hpp ****         return fibonacci(n - 1) + fibonacci(n - 2);
 3075              		.loc 3 15 15 is_stmt 0
 3076 08dc 9307A000 		li	a5,10
 3077 08e0 B377F502 		remu	a5,a0,a5
  15:src/Code/../../h/Testing/Testing_OS1/Threads_CPP_API_Test.hpp ****         return fibonacci(n - 1) + fibonacci(n - 2);
 3078              		.loc 3 15 9
 3079 08e4 638E0702 		beqz	a5,.L163
 3080              	.LVL321:
 3081              	.L160:
  16:src/Code/../../h/Testing/Testing_OS1/Threads_CPP_API_Test.hpp ****     }
 3082              		.loc 3 16 9 is_stmt 1
  16:src/Code/../../h/Testing/Testing_OS1/Threads_CPP_API_Test.hpp ****     }
 3083              		.loc 3 16 25 is_stmt 0
 3084 08e8 1385F4FF 		addi	a0,s1,-1
 3085 08ec 97000000 		call	_ZN14ThreadsTestCPP9fibonacciEm
 3085      E7800000 
 3086              	.LVL322:
 3087 08f4 13090500 		mv	s2,a0
  16:src/Code/../../h/Testing/Testing_OS1/Threads_CPP_API_Test.hpp ****     }
 3088              		.loc 3 16 44
 3089 08f8 1385E4FF 		addi	a0,s1,-2
 3090 08fc 97000000 		call	_ZN14ThreadsTestCPP9fibonacciEm
 3090      E7800000 
 3091              	.LVL323:
  16:src/Code/../../h/Testing/Testing_OS1/Threads_CPP_API_Test.hpp ****     }
 3092              		.loc 3 16 50
 3093 0904 3305A900 		add	a0,s2,a0
 3094              	.L158:
  17:src/Code/../../h/Testing/Testing_OS1/Threads_CPP_API_Test.hpp **** 
 3095              		.loc 3 17 5
 3096 0908 83308101 		ld	ra,24(sp)
 3097              		.cfi_remember_state
 3098              		.cfi_restore 1
 3099 090c 03340101 		ld	s0,16(sp)
 3100              		.cfi_restore 8
 3101              		.cfi_def_cfa 2, 32
 3102 0910 83348100 		ld	s1,8(sp)
 3103              		.cfi_restore 9
 3104              	.LVL324:
 3105 0914 03390100 		ld	s2,0(sp)
 3106              		.cfi_restore 18
 3107 0918 13010102 		addi	sp,sp,32
 3108              		.cfi_def_cfa_offset 0
 3109 091c 67800000 		jr	ra
GAS LISTING /tmp/ccBYUnRY.s 			page 73


 3110              	.LVL325:
 3111              	.L163:
 3112              		.cfi_restore_state
  15:src/Code/../../h/Testing/Testing_OS1/Threads_CPP_API_Test.hpp ****         return fibonacci(n - 1) + fibonacci(n - 2);
 3113              		.loc 3 15 28 is_stmt 1 discriminator 1
  15:src/Code/../../h/Testing/Testing_OS1/Threads_CPP_API_Test.hpp ****         return fibonacci(n - 1) + fibonacci(n - 2);
 3114              		.loc 3 15 43 is_stmt 0 discriminator 1
 3115 0920 97000000 		call	_Z15thread_dispatchv@plt
 3115      E7800000 
 3116              	.LVL326:
 3117 0928 6FF01FFC 		j	.L160
 3118              		.cfi_endproc
 3119              	.LFE56:
 3121              		.align	2
 3122              		.globl	_ZN14ThreadsTestCPP7WorkerA11workerBodyAEPv
 3124              	_ZN14ThreadsTestCPP7WorkerA11workerBodyAEPv:
 3125              	.LFB73:
  50:src/Code/../../h/Testing/Testing_OS1/Threads_CPP_API_Test.hpp ****         void workerBodyD(void* arg);
  51:src/Code/../../h/Testing/Testing_OS1/Threads_CPP_API_Test.hpp ****     public:
  52:src/Code/../../h/Testing/Testing_OS1/Threads_CPP_API_Test.hpp ****         WorkerD():Thread() {}
  53:src/Code/../../h/Testing/Testing_OS1/Threads_CPP_API_Test.hpp **** 
  54:src/Code/../../h/Testing/Testing_OS1/Threads_CPP_API_Test.hpp ****         void run() override {
  55:src/Code/../../h/Testing/Testing_OS1/Threads_CPP_API_Test.hpp ****             workerBodyD(nullptr);
  56:src/Code/../../h/Testing/Testing_OS1/Threads_CPP_API_Test.hpp ****         }
  57:src/Code/../../h/Testing/Testing_OS1/Threads_CPP_API_Test.hpp ****     };
  58:src/Code/../../h/Testing/Testing_OS1/Threads_CPP_API_Test.hpp ****     void WorkerA::workerBodyA(void *arg) {
 3126              		.loc 3 58 42 is_stmt 1
 3127              		.cfi_startproc
 3128              	.LVL327:
 3129 092c 130101FE 		addi	sp,sp,-32
 3130              		.cfi_def_cfa_offset 32
 3131 0930 233C1100 		sd	ra,24(sp)
 3132 0934 23388100 		sd	s0,16(sp)
 3133 0938 23349100 		sd	s1,8(sp)
 3134 093c 23302101 		sd	s2,0(sp)
 3135              		.cfi_offset 1, -8
 3136              		.cfi_offset 8, -16
 3137              		.cfi_offset 9, -24
 3138              		.cfi_offset 18, -32
 3139 0940 13040102 		addi	s0,sp,32
 3140              		.cfi_def_cfa 8, 0
  59:src/Code/../../h/Testing/Testing_OS1/Threads_CPP_API_Test.hpp ****         for (uint64 i = 0; i < 10; i++) {
 3141              		.loc 3 59 9
 3142              	.LVL328:
 3143              	.LBB185:
 3144              		.loc 3 59 21 is_stmt 0
 3145 0944 13090000 		li	s2,0
 3146 0948 6F008003 		j	.L170
 3147              	.LVL329:
 3148              	.L167:
 3149              	.LBB186:
 3150              	.LBB187:
 3151              	.LBB188:
  60:src/Code/../../h/Testing/Testing_OS1/Threads_CPP_API_Test.hpp ****             printString("A: i="); printInt(i); printString("\n");
  61:src/Code/../../h/Testing/Testing_OS1/Threads_CPP_API_Test.hpp ****             for (uint64 j = 0; j < 10000; j++) {
  62:src/Code/../../h/Testing/Testing_OS1/Threads_CPP_API_Test.hpp ****                 for (uint64 k = 0; k < 30000; k++) { }
  63:src/Code/../../h/Testing/Testing_OS1/Threads_CPP_API_Test.hpp ****                 thread_dispatch();
GAS LISTING /tmp/ccBYUnRY.s 			page 74


 3152              		.loc 3 63 17 is_stmt 1 discriminator 2
 3153              		.loc 3 63 32 is_stmt 0 discriminator 2
 3154 094c 97000000 		call	_Z15thread_dispatchv@plt
 3154      E7800000 
 3155              	.LVL330:
 3156              	.LBE188:
  61:src/Code/../../h/Testing/Testing_OS1/Threads_CPP_API_Test.hpp ****                 for (uint64 k = 0; k < 30000; k++) { }
 3157              		.loc 3 61 13 is_stmt 1 discriminator 2
 3158 0954 93841400 		addi	s1,s1,1
 3159              	.LVL331:
 3160              	.L169:
  61:src/Code/../../h/Testing/Testing_OS1/Threads_CPP_API_Test.hpp ****                 for (uint64 k = 0; k < 30000; k++) { }
 3161              		.loc 3 61 34 discriminator 1
 3162 0958 B7270000 		li	a5,8192
 3163 095c 9387F770 		addi	a5,a5,1807
 3164 0960 63EE9700 		bgtu	s1,a5,.L166
 3165              	.LBB190:
 3166              	.LBB189:
  62:src/Code/../../h/Testing/Testing_OS1/Threads_CPP_API_Test.hpp ****                 thread_dispatch();
 3167              		.loc 3 62 29 is_stmt 0
 3168 0964 13070000 		li	a4,0
 3169              	.L168:
 3170              	.LVL332:
  62:src/Code/../../h/Testing/Testing_OS1/Threads_CPP_API_Test.hpp ****                 thread_dispatch();
 3171              		.loc 3 62 38 is_stmt 1 discriminator 3
 3172 0968 B7770000 		li	a5,28672
 3173 096c 9387F752 		addi	a5,a5,1327
 3174 0970 E3EEE7FC 		bgtu	a4,a5,.L167
  62:src/Code/../../h/Testing/Testing_OS1/Threads_CPP_API_Test.hpp ****                 thread_dispatch();
 3175              		.loc 3 62 17 discriminator 2
 3176 0974 13071700 		addi	a4,a4,1
 3177              	.LVL333:
 3178 0978 6FF01FFF 		j	.L168
 3179              	.LVL334:
 3180              	.L166:
 3181              	.LBE189:
 3182              	.LBE190:
 3183              	.LBE187:
 3184              	.LBE186:
  59:src/Code/../../h/Testing/Testing_OS1/Threads_CPP_API_Test.hpp ****             printString("A: i="); printInt(i); printString("\n");
 3185              		.loc 3 59 9 discriminator 2
 3186 097c 13091900 		addi	s2,s2,1
 3187              	.LVL335:
 3188              	.L170:
  59:src/Code/../../h/Testing/Testing_OS1/Threads_CPP_API_Test.hpp ****             printString("A: i="); printInt(i); printString("\n");
 3189              		.loc 3 59 30 discriminator 1
 3190 0980 93079000 		li	a5,9
 3191 0984 63E02705 		bgtu	s2,a5,.L165
 3192              	.LBB192:
  60:src/Code/../../h/Testing/Testing_OS1/Threads_CPP_API_Test.hpp ****             for (uint64 j = 0; j < 10000; j++) {
 3193              		.loc 3 60 13
  60:src/Code/../../h/Testing/Testing_OS1/Threads_CPP_API_Test.hpp ****             for (uint64 j = 0; j < 10000; j++) {
 3194              		.loc 3 60 24 is_stmt 0
 3195 0988 17050000 		lla	a0,.LC0
 3195      13050500 
 3196 0990 97000000 		call	_Z11printStringPKc@plt
 3196      E7800000 
GAS LISTING /tmp/ccBYUnRY.s 			page 75


 3197              	.LVL336:
  60:src/Code/../../h/Testing/Testing_OS1/Threads_CPP_API_Test.hpp ****             for (uint64 j = 0; j < 10000; j++) {
 3198              		.loc 3 60 35 is_stmt 1
  60:src/Code/../../h/Testing/Testing_OS1/Threads_CPP_API_Test.hpp ****             for (uint64 j = 0; j < 10000; j++) {
 3199              		.loc 3 60 43 is_stmt 0
 3200 0998 13060000 		li	a2,0
 3201 099c 9305A000 		li	a1,10
 3202 09a0 1B050900 		sext.w	a0,s2
 3203 09a4 97000000 		call	_Z8printIntiii@plt
 3203      E7800000 
 3204              	.LVL337:
  60:src/Code/../../h/Testing/Testing_OS1/Threads_CPP_API_Test.hpp ****             for (uint64 j = 0; j < 10000; j++) {
 3205              		.loc 3 60 48 is_stmt 1
  60:src/Code/../../h/Testing/Testing_OS1/Threads_CPP_API_Test.hpp ****             for (uint64 j = 0; j < 10000; j++) {
 3206              		.loc 3 60 59 is_stmt 0
 3207 09ac 17050000 		lla	a0,.LC1
 3207      13050500 
 3208 09b4 97000000 		call	_Z11printStringPKc@plt
 3208      E7800000 
 3209              	.LVL338:
  61:src/Code/../../h/Testing/Testing_OS1/Threads_CPP_API_Test.hpp ****                 for (uint64 k = 0; k < 30000; k++) { }
 3210              		.loc 3 61 13 is_stmt 1
 3211              	.LBB191:
  61:src/Code/../../h/Testing/Testing_OS1/Threads_CPP_API_Test.hpp ****                 for (uint64 k = 0; k < 30000; k++) { }
 3212              		.loc 3 61 25 is_stmt 0
 3213 09bc 93040000 		li	s1,0
 3214 09c0 6FF09FF9 		j	.L169
 3215              	.LVL339:
 3216              	.L165:
 3217              	.LBE191:
 3218              	.LBE192:
 3219              	.LBE185:
  64:src/Code/../../h/Testing/Testing_OS1/Threads_CPP_API_Test.hpp ****             }
  65:src/Code/../../h/Testing/Testing_OS1/Threads_CPP_API_Test.hpp ****         }
  66:src/Code/../../h/Testing/Testing_OS1/Threads_CPP_API_Test.hpp ****         printString("A finished!\n");
 3220              		.loc 3 66 9 is_stmt 1
 3221              		.loc 3 66 20 is_stmt 0
 3222 09c4 17050000 		lla	a0,.LC2
 3222      13050500 
 3223 09cc 97000000 		call	_Z11printStringPKc@plt
 3223      E7800000 
 3224              	.LVL340:
  67:src/Code/../../h/Testing/Testing_OS1/Threads_CPP_API_Test.hpp ****         finishedA = true;
 3225              		.loc 3 67 9 is_stmt 1
 3226              		.loc 3 67 19 is_stmt 0
 3227 09d4 93071000 		li	a5,1
 3228 09d8 17070000 		sb	a5,.LANCHOR0+42,a4
 3228      2300F700 
  68:src/Code/../../h/Testing/Testing_OS1/Threads_CPP_API_Test.hpp ****     }
 3229              		.loc 3 68 5
 3230 09e0 83308101 		ld	ra,24(sp)
 3231              		.cfi_restore 1
 3232 09e4 03340101 		ld	s0,16(sp)
 3233              		.cfi_restore 8
 3234              		.cfi_def_cfa 2, 32
 3235 09e8 83348100 		ld	s1,8(sp)
 3236              		.cfi_restore 9
GAS LISTING /tmp/ccBYUnRY.s 			page 76


 3237 09ec 03390100 		ld	s2,0(sp)
 3238              		.cfi_restore 18
 3239              	.LVL341:
 3240 09f0 13010102 		addi	sp,sp,32
 3241              		.cfi_def_cfa_offset 0
 3242 09f4 67800000 		jr	ra
 3243              		.cfi_endproc
 3244              	.LFE73:
 3246              		.section	.text._ZN14ThreadsTestCPP7WorkerA3runEv,"axG",@progbits,_ZN14ThreadsTestCPP7WorkerA3runEv
 3247              		.align	2
 3248              		.weak	_ZN14ThreadsTestCPP7WorkerA3runEv
 3250              	_ZN14ThreadsTestCPP7WorkerA3runEv:
 3251              	.LFB60:
  24:src/Code/../../h/Testing/Testing_OS1/Threads_CPP_API_Test.hpp ****             workerBodyA(nullptr);
 3252              		.loc 3 24 14 is_stmt 1
 3253              		.cfi_startproc
 3254              	.LVL342:
 3255 0000 130101FF 		addi	sp,sp,-16
 3256              		.cfi_def_cfa_offset 16
 3257 0004 23341100 		sd	ra,8(sp)
 3258 0008 23308100 		sd	s0,0(sp)
 3259              		.cfi_offset 1, -8
 3260              		.cfi_offset 8, -16
 3261 000c 13040101 		addi	s0,sp,16
 3262              		.cfi_def_cfa 8, 0
  25:src/Code/../../h/Testing/Testing_OS1/Threads_CPP_API_Test.hpp ****         }
 3263              		.loc 3 25 13
  25:src/Code/../../h/Testing/Testing_OS1/Threads_CPP_API_Test.hpp ****         }
 3264              		.loc 3 25 24 is_stmt 0
 3265 0010 93050000 		li	a1,0
 3266 0014 97000000 		call	_ZN14ThreadsTestCPP7WorkerA11workerBodyAEPv
 3266      E7800000 
 3267              	.LVL343:
  26:src/Code/../../h/Testing/Testing_OS1/Threads_CPP_API_Test.hpp ****     };
 3268              		.loc 3 26 9
 3269 001c 83308100 		ld	ra,8(sp)
 3270              		.cfi_restore 1
 3271 0020 03340100 		ld	s0,0(sp)
 3272              		.cfi_restore 8
 3273              		.cfi_def_cfa 2, 16
 3274 0024 13010101 		addi	sp,sp,16
 3275              		.cfi_def_cfa_offset 0
 3276 0028 67800000 		jr	ra
 3277              		.cfi_endproc
 3278              	.LFE60:
 3280              		.text
 3281              		.align	2
 3282              		.globl	_ZN14ThreadsTestCPP7WorkerB11workerBodyBEPv
 3284              	_ZN14ThreadsTestCPP7WorkerB11workerBodyBEPv:
 3285              	.LFB74:
  69:src/Code/../../h/Testing/Testing_OS1/Threads_CPP_API_Test.hpp **** 
  70:src/Code/../../h/Testing/Testing_OS1/Threads_CPP_API_Test.hpp ****     void WorkerB::workerBodyB(void *arg) {
 3286              		.loc 3 70 42 is_stmt 1
 3287              		.cfi_startproc
 3288              	.LVL344:
 3289 09f8 130101FE 		addi	sp,sp,-32
 3290              		.cfi_def_cfa_offset 32
GAS LISTING /tmp/ccBYUnRY.s 			page 77


 3291 09fc 233C1100 		sd	ra,24(sp)
 3292 0a00 23388100 		sd	s0,16(sp)
 3293 0a04 23349100 		sd	s1,8(sp)
 3294 0a08 23302101 		sd	s2,0(sp)
 3295              		.cfi_offset 1, -8
 3296              		.cfi_offset 8, -16
 3297              		.cfi_offset 9, -24
 3298              		.cfi_offset 18, -32
 3299 0a0c 13040102 		addi	s0,sp,32
 3300              		.cfi_def_cfa 8, 0
  71:src/Code/../../h/Testing/Testing_OS1/Threads_CPP_API_Test.hpp ****         for (uint64 i = 0; i < 16; i++) {
 3301              		.loc 3 71 9
 3302              	.LVL345:
 3303              	.LBB193:
 3304              		.loc 3 71 21 is_stmt 0
 3305 0a10 13090000 		li	s2,0
 3306 0a14 6F008003 		j	.L180
 3307              	.LVL346:
 3308              	.L177:
 3309              	.LBB194:
 3310              	.LBB195:
 3311              	.LBB196:
  72:src/Code/../../h/Testing/Testing_OS1/Threads_CPP_API_Test.hpp ****             printString("B: i="); printInt(i); printString("\n");
  73:src/Code/../../h/Testing/Testing_OS1/Threads_CPP_API_Test.hpp ****             for (uint64 j = 0; j < 10000; j++) {
  74:src/Code/../../h/Testing/Testing_OS1/Threads_CPP_API_Test.hpp ****                 for (uint64 k = 0; k < 30000; k++) {  }
  75:src/Code/../../h/Testing/Testing_OS1/Threads_CPP_API_Test.hpp ****                 thread_dispatch();
 3312              		.loc 3 75 17 is_stmt 1 discriminator 2
 3313              		.loc 3 75 32 is_stmt 0 discriminator 2
 3314 0a18 97000000 		call	_Z15thread_dispatchv@plt
 3314      E7800000 
 3315              	.LVL347:
 3316              	.LBE196:
  73:src/Code/../../h/Testing/Testing_OS1/Threads_CPP_API_Test.hpp ****                 for (uint64 k = 0; k < 30000; k++) {  }
 3317              		.loc 3 73 13 is_stmt 1 discriminator 2
 3318 0a20 93841400 		addi	s1,s1,1
 3319              	.LVL348:
 3320              	.L179:
  73:src/Code/../../h/Testing/Testing_OS1/Threads_CPP_API_Test.hpp ****                 for (uint64 k = 0; k < 30000; k++) {  }
 3321              		.loc 3 73 34 discriminator 1
 3322 0a24 B7270000 		li	a5,8192
 3323 0a28 9387F770 		addi	a5,a5,1807
 3324 0a2c 63EE9700 		bgtu	s1,a5,.L176
 3325              	.LBB198:
 3326              	.LBB197:
  74:src/Code/../../h/Testing/Testing_OS1/Threads_CPP_API_Test.hpp ****                 thread_dispatch();
 3327              		.loc 3 74 29 is_stmt 0
 3328 0a30 13070000 		li	a4,0
 3329              	.L178:
 3330              	.LVL349:
  74:src/Code/../../h/Testing/Testing_OS1/Threads_CPP_API_Test.hpp ****                 thread_dispatch();
 3331              		.loc 3 74 38 is_stmt 1 discriminator 3
 3332 0a34 B7770000 		li	a5,28672
 3333 0a38 9387F752 		addi	a5,a5,1327
 3334 0a3c E3EEE7FC 		bgtu	a4,a5,.L177
  74:src/Code/../../h/Testing/Testing_OS1/Threads_CPP_API_Test.hpp ****                 thread_dispatch();
 3335              		.loc 3 74 17 discriminator 2
 3336 0a40 13071700 		addi	a4,a4,1
GAS LISTING /tmp/ccBYUnRY.s 			page 78


 3337              	.LVL350:
 3338 0a44 6FF01FFF 		j	.L178
 3339              	.LVL351:
 3340              	.L176:
 3341              	.LBE197:
 3342              	.LBE198:
 3343              	.LBE195:
 3344              	.LBE194:
  71:src/Code/../../h/Testing/Testing_OS1/Threads_CPP_API_Test.hpp ****             printString("B: i="); printInt(i); printString("\n");
 3345              		.loc 3 71 9 discriminator 2
 3346 0a48 13091900 		addi	s2,s2,1
 3347              	.LVL352:
 3348              	.L180:
  71:src/Code/../../h/Testing/Testing_OS1/Threads_CPP_API_Test.hpp ****             printString("B: i="); printInt(i); printString("\n");
 3349              		.loc 3 71 30 discriminator 1
 3350 0a4c 9307F000 		li	a5,15
 3351 0a50 63E02705 		bgtu	s2,a5,.L175
 3352              	.LBB200:
  72:src/Code/../../h/Testing/Testing_OS1/Threads_CPP_API_Test.hpp ****             for (uint64 j = 0; j < 10000; j++) {
 3353              		.loc 3 72 13
  72:src/Code/../../h/Testing/Testing_OS1/Threads_CPP_API_Test.hpp ****             for (uint64 j = 0; j < 10000; j++) {
 3354              		.loc 3 72 24 is_stmt 0
 3355 0a54 17050000 		lla	a0,.LC3
 3355      13050500 
 3356 0a5c 97000000 		call	_Z11printStringPKc@plt
 3356      E7800000 
 3357              	.LVL353:
  72:src/Code/../../h/Testing/Testing_OS1/Threads_CPP_API_Test.hpp ****             for (uint64 j = 0; j < 10000; j++) {
 3358              		.loc 3 72 35 is_stmt 1
  72:src/Code/../../h/Testing/Testing_OS1/Threads_CPP_API_Test.hpp ****             for (uint64 j = 0; j < 10000; j++) {
 3359              		.loc 3 72 43 is_stmt 0
 3360 0a64 13060000 		li	a2,0
 3361 0a68 9305A000 		li	a1,10
 3362 0a6c 1B050900 		sext.w	a0,s2
 3363 0a70 97000000 		call	_Z8printIntiii@plt
 3363      E7800000 
 3364              	.LVL354:
  72:src/Code/../../h/Testing/Testing_OS1/Threads_CPP_API_Test.hpp ****             for (uint64 j = 0; j < 10000; j++) {
 3365              		.loc 3 72 48 is_stmt 1
  72:src/Code/../../h/Testing/Testing_OS1/Threads_CPP_API_Test.hpp ****             for (uint64 j = 0; j < 10000; j++) {
 3366              		.loc 3 72 59 is_stmt 0
 3367 0a78 17050000 		lla	a0,.LC1
 3367      13050500 
 3368 0a80 97000000 		call	_Z11printStringPKc@plt
 3368      E7800000 
 3369              	.LVL355:
  73:src/Code/../../h/Testing/Testing_OS1/Threads_CPP_API_Test.hpp ****                 for (uint64 k = 0; k < 30000; k++) {  }
 3370              		.loc 3 73 13 is_stmt 1
 3371              	.LBB199:
  73:src/Code/../../h/Testing/Testing_OS1/Threads_CPP_API_Test.hpp ****                 for (uint64 k = 0; k < 30000; k++) {  }
 3372              		.loc 3 73 25 is_stmt 0
 3373 0a88 93040000 		li	s1,0
 3374 0a8c 6FF09FF9 		j	.L179
 3375              	.LVL356:
 3376              	.L175:
 3377              	.LBE199:
 3378              	.LBE200:
GAS LISTING /tmp/ccBYUnRY.s 			page 79


 3379              	.LBE193:
  76:src/Code/../../h/Testing/Testing_OS1/Threads_CPP_API_Test.hpp ****             }
  77:src/Code/../../h/Testing/Testing_OS1/Threads_CPP_API_Test.hpp ****         }
  78:src/Code/../../h/Testing/Testing_OS1/Threads_CPP_API_Test.hpp ****         printString("B finished!\n");
 3380              		.loc 3 78 9 is_stmt 1
 3381              		.loc 3 78 20 is_stmt 0
 3382 0a90 17050000 		lla	a0,.LC4
 3382      13050500 
 3383 0a98 97000000 		call	_Z11printStringPKc@plt
 3383      E7800000 
 3384              	.LVL357:
  79:src/Code/../../h/Testing/Testing_OS1/Threads_CPP_API_Test.hpp ****         finishedB = true;
 3385              		.loc 3 79 9 is_stmt 1
 3386              		.loc 3 79 19 is_stmt 0
 3387 0aa0 93071000 		li	a5,1
 3388 0aa4 17070000 		sb	a5,.LANCHOR0+43,a4
 3388      2300F700 
  80:src/Code/../../h/Testing/Testing_OS1/Threads_CPP_API_Test.hpp ****         thread_dispatch();
 3389              		.loc 3 80 9 is_stmt 1
 3390              		.loc 3 80 24 is_stmt 0
 3391 0aac 97000000 		call	_Z15thread_dispatchv@plt
 3391      E7800000 
 3392              	.LVL358:
  81:src/Code/../../h/Testing/Testing_OS1/Threads_CPP_API_Test.hpp ****     }
 3393              		.loc 3 81 5
 3394 0ab4 83308101 		ld	ra,24(sp)
 3395              		.cfi_restore 1
 3396 0ab8 03340101 		ld	s0,16(sp)
 3397              		.cfi_restore 8
 3398              		.cfi_def_cfa 2, 32
 3399 0abc 83348100 		ld	s1,8(sp)
 3400              		.cfi_restore 9
 3401 0ac0 03390100 		ld	s2,0(sp)
 3402              		.cfi_restore 18
 3403              	.LVL359:
 3404 0ac4 13010102 		addi	sp,sp,32
 3405              		.cfi_def_cfa_offset 0
 3406 0ac8 67800000 		jr	ra
 3407              		.cfi_endproc
 3408              	.LFE74:
 3410              		.section	.text._ZN14ThreadsTestCPP7WorkerB3runEv,"axG",@progbits,_ZN14ThreadsTestCPP7WorkerB3runEv
 3411              		.align	2
 3412              		.weak	_ZN14ThreadsTestCPP7WorkerB3runEv
 3414              	_ZN14ThreadsTestCPP7WorkerB3runEv:
 3415              	.LFB64:
  34:src/Code/../../h/Testing/Testing_OS1/Threads_CPP_API_Test.hpp ****             workerBodyB(nullptr);
 3416              		.loc 3 34 14 is_stmt 1
 3417              		.cfi_startproc
 3418              	.LVL360:
 3419 0000 130101FF 		addi	sp,sp,-16
 3420              		.cfi_def_cfa_offset 16
 3421 0004 23341100 		sd	ra,8(sp)
 3422 0008 23308100 		sd	s0,0(sp)
 3423              		.cfi_offset 1, -8
 3424              		.cfi_offset 8, -16
 3425 000c 13040101 		addi	s0,sp,16
 3426              		.cfi_def_cfa 8, 0
GAS LISTING /tmp/ccBYUnRY.s 			page 80


  35:src/Code/../../h/Testing/Testing_OS1/Threads_CPP_API_Test.hpp ****         }
 3427              		.loc 3 35 13
  35:src/Code/../../h/Testing/Testing_OS1/Threads_CPP_API_Test.hpp ****         }
 3428              		.loc 3 35 24 is_stmt 0
 3429 0010 93050000 		li	a1,0
 3430 0014 97000000 		call	_ZN14ThreadsTestCPP7WorkerB11workerBodyBEPv
 3430      E7800000 
 3431              	.LVL361:
  36:src/Code/../../h/Testing/Testing_OS1/Threads_CPP_API_Test.hpp ****     };
 3432              		.loc 3 36 9
 3433 001c 83308100 		ld	ra,8(sp)
 3434              		.cfi_restore 1
 3435 0020 03340100 		ld	s0,0(sp)
 3436              		.cfi_restore 8
 3437              		.cfi_def_cfa 2, 16
 3438 0024 13010101 		addi	sp,sp,16
 3439              		.cfi_def_cfa_offset 0
 3440 0028 67800000 		jr	ra
 3441              		.cfi_endproc
 3442              	.LFE64:
 3444              		.text
 3445              		.align	2
 3446              		.globl	_ZN14ThreadsTestCPP7WorkerC11workerBodyCEPv
 3448              	_ZN14ThreadsTestCPP7WorkerC11workerBodyCEPv:
 3449              	.LFB75:
  82:src/Code/../../h/Testing/Testing_OS1/Threads_CPP_API_Test.hpp **** 
  83:src/Code/../../h/Testing/Testing_OS1/Threads_CPP_API_Test.hpp ****     void WorkerC::workerBodyC(void *arg) {
 3450              		.loc 3 83 42 is_stmt 1
 3451              		.cfi_startproc
 3452              	.LVL362:
 3453 0acc 130101FE 		addi	sp,sp,-32
 3454              		.cfi_def_cfa_offset 32
 3455 0ad0 233C1100 		sd	ra,24(sp)
 3456 0ad4 23388100 		sd	s0,16(sp)
 3457 0ad8 23349100 		sd	s1,8(sp)
 3458 0adc 23302101 		sd	s2,0(sp)
 3459              		.cfi_offset 1, -8
 3460              		.cfi_offset 8, -16
 3461              		.cfi_offset 9, -24
 3462              		.cfi_offset 18, -32
 3463 0ae0 13040102 		addi	s0,sp,32
 3464              		.cfi_def_cfa 8, 0
  84:src/Code/../../h/Testing/Testing_OS1/Threads_CPP_API_Test.hpp ****         uint8 i = 0;
 3465              		.loc 3 84 9
 3466              	.LVL363:
 3467              		.loc 3 84 15 is_stmt 0
 3468 0ae4 93040000 		li	s1,0
 3469 0ae8 6F000004 		j	.L186
 3470              	.LVL364:
 3471              	.L190:
  85:src/Code/../../h/Testing/Testing_OS1/Threads_CPP_API_Test.hpp ****         for (; i < 3; i++) {
  86:src/Code/../../h/Testing/Testing_OS1/Threads_CPP_API_Test.hpp ****             printString("C: i="); printInt(i); printString("\n");
 3472              		.loc 3 86 13 is_stmt 1 discriminator 1
 3473              		.loc 3 86 24 is_stmt 0 discriminator 1
 3474 0aec 17050000 		lla	a0,.LC7
 3474      13050500 
 3475 0af4 97000000 		call	_Z11printStringPKc@plt
GAS LISTING /tmp/ccBYUnRY.s 			page 81


 3475      E7800000 
 3476              	.LVL365:
 3477              		.loc 3 86 35 is_stmt 1 discriminator 1
 3478              		.loc 3 86 43 is_stmt 0 discriminator 1
 3479 0afc 13060000 		li	a2,0
 3480 0b00 9305A000 		li	a1,10
 3481 0b04 13850400 		mv	a0,s1
 3482 0b08 97000000 		call	_Z8printIntiii@plt
 3482      E7800000 
 3483              	.LVL366:
 3484              		.loc 3 86 48 is_stmt 1 discriminator 1
 3485              		.loc 3 86 59 is_stmt 0 discriminator 1
 3486 0b10 17050000 		lla	a0,.LC1
 3486      13050500 
 3487 0b18 97000000 		call	_Z11printStringPKc@plt
 3487      E7800000 
 3488              	.LVL367:
  85:src/Code/../../h/Testing/Testing_OS1/Threads_CPP_API_Test.hpp ****         for (; i < 3; i++) {
 3489              		.loc 3 85 9 is_stmt 1 discriminator 1
 3490 0b20 9B841400 		addiw	s1,s1,1
 3491              	.LVL368:
 3492 0b24 93F4F40F 		andi	s1,s1,0xff
 3493              	.LVL369:
 3494              	.L186:
  85:src/Code/../../h/Testing/Testing_OS1/Threads_CPP_API_Test.hpp ****         for (; i < 3; i++) {
 3495              		.loc 3 85 9 discriminator 2
  85:src/Code/../../h/Testing/Testing_OS1/Threads_CPP_API_Test.hpp ****         for (; i < 3; i++) {
 3496              		.loc 3 85 18 discriminator 2
 3497 0b28 93072000 		li	a5,2
 3498 0b2c E3F097FC 		bleu	s1,a5,.L190
  87:src/Code/../../h/Testing/Testing_OS1/Threads_CPP_API_Test.hpp ****         }
  88:src/Code/../../h/Testing/Testing_OS1/Threads_CPP_API_Test.hpp **** 
  89:src/Code/../../h/Testing/Testing_OS1/Threads_CPP_API_Test.hpp ****         printString("C: dispatch\n");
 3499              		.loc 3 89 9
 3500              		.loc 3 89 20 is_stmt 0
 3501 0b30 17050000 		lla	a0,.LC8
 3501      13050500 
 3502 0b38 97000000 		call	_Z11printStringPKc@plt
 3502      E7800000 
 3503              	.LVL370:
  90:src/Code/../../h/Testing/Testing_OS1/Threads_CPP_API_Test.hpp ****         __asm__ ("li t1, 7");
 3504              		.loc 3 90 9 is_stmt 1
 3505              		.loc 3 90 29 is_stmt 0
 3506              	#APP
 3507              	# 90 "src/Code/../../h/Testing/Testing_OS1/Threads_CPP_API_Test.hpp" 1
  91              	        thread_dispatch();
 3508              		li t1, 7
 3509              	# 0 "" 2
 3510              		.loc 3 91 9 is_stmt 1
 3511              		.loc 3 91 24 is_stmt 0
 3512              	#NO_APP
 3513 0b44 97000000 		call	_Z15thread_dispatchv@plt
 3513      E7800000 
 3514              	.LVL371:
  92:src/Code/../../h/Testing/Testing_OS1/Threads_CPP_API_Test.hpp **** 
  93:src/Code/../../h/Testing/Testing_OS1/Threads_CPP_API_Test.hpp ****         uint64 t1 = 0;
 3515              		.loc 3 93 9 is_stmt 1
GAS LISTING /tmp/ccBYUnRY.s 			page 82


  94:src/Code/../../h/Testing/Testing_OS1/Threads_CPP_API_Test.hpp ****         __asm__ ("mv %[t1], t1" : [t1] "=r"(t1));
 3516              		.loc 3 94 9
 3517              		.loc 3 94 49 is_stmt 0
 3518              	#APP
 3519              	# 94 "src/Code/../../h/Testing/Testing_OS1/Threads_CPP_API_Test.hpp" 1
  95              	
 3520              		mv s2, t1
 3521              	# 0 "" 2
 3522              	.LVL372:
  96:src/Code/../../h/Testing/Testing_OS1/Threads_CPP_API_Test.hpp ****         printString("C: t1="); printInt(t1); printString("\n");
 3523              		.loc 3 96 9 is_stmt 1
 3524              		.loc 3 96 20 is_stmt 0
 3525              	#NO_APP
 3526 0b50 17050000 		lla	a0,.LC9
 3526      13050500 
 3527 0b58 97000000 		call	_Z11printStringPKc@plt
 3527      E7800000 
 3528              	.LVL373:
 3529              		.loc 3 96 32 is_stmt 1
 3530              		.loc 3 96 40 is_stmt 0
 3531 0b60 13060000 		li	a2,0
 3532 0b64 9305A000 		li	a1,10
 3533 0b68 1B050900 		sext.w	a0,s2
 3534 0b6c 97000000 		call	_Z8printIntiii@plt
 3534      E7800000 
 3535              	.LVL374:
 3536              		.loc 3 96 46 is_stmt 1
 3537              		.loc 3 96 57 is_stmt 0
 3538 0b74 17050000 		lla	a0,.LC1
 3538      13050500 
 3539 0b7c 97000000 		call	_Z11printStringPKc@plt
 3539      E7800000 
 3540              	.LVL375:
  97:src/Code/../../h/Testing/Testing_OS1/Threads_CPP_API_Test.hpp **** 
  98:src/Code/../../h/Testing/Testing_OS1/Threads_CPP_API_Test.hpp ****         uint64 result = fibonacci(12);
 3541              		.loc 3 98 9 is_stmt 1
 3542              		.loc 3 98 34 is_stmt 0
 3543 0b84 1305C000 		li	a0,12
 3544 0b88 97000000 		call	_ZN14ThreadsTestCPP9fibonacciEm
 3544      E7800000 
 3545              	.LVL376:
 3546 0b90 13090500 		mv	s2,a0
 3547              	.LVL377:
  99:src/Code/../../h/Testing/Testing_OS1/Threads_CPP_API_Test.hpp ****         printString("C: fibonaci="); printInt(result); printString("\n");
 3548              		.loc 3 99 9 is_stmt 1
 3549              		.loc 3 99 20 is_stmt 0
 3550 0b94 17050000 		lla	a0,.LC10
 3550      13050500 
 3551              	.LVL378:
 3552 0b9c 97000000 		call	_Z11printStringPKc@plt
 3552      E7800000 
 3553              	.LVL379:
 3554              		.loc 3 99 38 is_stmt 1
 3555              		.loc 3 99 46 is_stmt 0
 3556 0ba4 13060000 		li	a2,0
 3557 0ba8 9305A000 		li	a1,10
 3558 0bac 1B050900 		sext.w	a0,s2
GAS LISTING /tmp/ccBYUnRY.s 			page 83


 3559 0bb0 97000000 		call	_Z8printIntiii@plt
 3559      E7800000 
 3560              	.LVL380:
 3561              		.loc 3 99 56 is_stmt 1
 3562              		.loc 3 99 67 is_stmt 0
 3563 0bb8 17050000 		lla	a0,.LC1
 3563      13050500 
 3564 0bc0 97000000 		call	_Z11printStringPKc@plt
 3564      E7800000 
 3565              	.LVL381:
 3566 0bc8 6F000004 		j	.L188
 3567              	.L191:
 100:src/Code/../../h/Testing/Testing_OS1/Threads_CPP_API_Test.hpp **** 
 101:src/Code/../../h/Testing/Testing_OS1/Threads_CPP_API_Test.hpp ****         for (; i < 6; i++) {
 102:src/Code/../../h/Testing/Testing_OS1/Threads_CPP_API_Test.hpp ****             printString("C: i="); printInt(i); printString("\n");
 3568              		.loc 3 102 13 is_stmt 1 discriminator 1
 3569              		.loc 3 102 24 is_stmt 0 discriminator 1
 3570 0bcc 17050000 		lla	a0,.LC7
 3570      13050500 
 3571 0bd4 97000000 		call	_Z11printStringPKc@plt
 3571      E7800000 
 3572              	.LVL382:
 3573              		.loc 3 102 35 is_stmt 1 discriminator 1
 3574              		.loc 3 102 43 is_stmt 0 discriminator 1
 3575 0bdc 13060000 		li	a2,0
 3576 0be0 9305A000 		li	a1,10
 3577 0be4 13850400 		mv	a0,s1
 3578 0be8 97000000 		call	_Z8printIntiii@plt
 3578      E7800000 
 3579              	.LVL383:
 3580              		.loc 3 102 48 is_stmt 1 discriminator 1
 3581              		.loc 3 102 59 is_stmt 0 discriminator 1
 3582 0bf0 17050000 		lla	a0,.LC1
 3582      13050500 
 3583 0bf8 97000000 		call	_Z11printStringPKc@plt
 3583      E7800000 
 3584              	.LVL384:
 101:src/Code/../../h/Testing/Testing_OS1/Threads_CPP_API_Test.hpp ****             printString("C: i="); printInt(i); printString("\n");
 3585              		.loc 3 101 9 is_stmt 1 discriminator 1
 3586 0c00 9B841400 		addiw	s1,s1,1
 3587              	.LVL385:
 3588 0c04 93F4F40F 		andi	s1,s1,0xff
 3589              	.LVL386:
 3590              	.L188:
 101:src/Code/../../h/Testing/Testing_OS1/Threads_CPP_API_Test.hpp ****             printString("C: i="); printInt(i); printString("\n");
 3591              		.loc 3 101 9 discriminator 2
 101:src/Code/../../h/Testing/Testing_OS1/Threads_CPP_API_Test.hpp ****             printString("C: i="); printInt(i); printString("\n");
 3592              		.loc 3 101 18 discriminator 2
 3593 0c08 93075000 		li	a5,5
 3594 0c0c E3F097FC 		bleu	s1,a5,.L191
 103:src/Code/../../h/Testing/Testing_OS1/Threads_CPP_API_Test.hpp ****         }
 104:src/Code/../../h/Testing/Testing_OS1/Threads_CPP_API_Test.hpp **** 
 105:src/Code/../../h/Testing/Testing_OS1/Threads_CPP_API_Test.hpp ****         printString("C finished!\n");
 3595              		.loc 3 105 9
 3596              		.loc 3 105 20 is_stmt 0
 3597 0c10 17050000 		lla	a0,.LC11
 3597      13050500 
GAS LISTING /tmp/ccBYUnRY.s 			page 84


 3598 0c18 97000000 		call	_Z11printStringPKc@plt
 3598      E7800000 
 3599              	.LVL387:
 106:src/Code/../../h/Testing/Testing_OS1/Threads_CPP_API_Test.hpp ****         finishedC = true;
 3600              		.loc 3 106 9 is_stmt 1
 3601              		.loc 3 106 19 is_stmt 0
 3602 0c20 93071000 		li	a5,1
 3603 0c24 17070000 		sb	a5,.LANCHOR0+44,a4
 3603      2300F700 
 107:src/Code/../../h/Testing/Testing_OS1/Threads_CPP_API_Test.hpp ****         thread_dispatch();
 3604              		.loc 3 107 9 is_stmt 1
 3605              		.loc 3 107 24 is_stmt 0
 3606 0c2c 97000000 		call	_Z15thread_dispatchv@plt
 3606      E7800000 
 3607              	.LVL388:
 108:src/Code/../../h/Testing/Testing_OS1/Threads_CPP_API_Test.hpp ****     }
 3608              		.loc 3 108 5
 3609 0c34 83308101 		ld	ra,24(sp)
 3610              		.cfi_restore 1
 3611 0c38 03340101 		ld	s0,16(sp)
 3612              		.cfi_restore 8
 3613              		.cfi_def_cfa 2, 32
 3614 0c3c 83348100 		ld	s1,8(sp)
 3615              		.cfi_restore 9
 3616              	.LVL389:
 3617 0c40 03390100 		ld	s2,0(sp)
 3618              		.cfi_restore 18
 3619              	.LVL390:
 3620 0c44 13010102 		addi	sp,sp,32
 3621              		.cfi_def_cfa_offset 0
 3622 0c48 67800000 		jr	ra
 3623              		.cfi_endproc
 3624              	.LFE75:
 3626              		.section	.text._ZN14ThreadsTestCPP7WorkerC3runEv,"axG",@progbits,_ZN14ThreadsTestCPP7WorkerC3runEv
 3627              		.align	2
 3628              		.weak	_ZN14ThreadsTestCPP7WorkerC3runEv
 3630              	_ZN14ThreadsTestCPP7WorkerC3runEv:
 3631              	.LFB68:
  44:src/Code/../../h/Testing/Testing_OS1/Threads_CPP_API_Test.hpp ****             workerBodyC(nullptr);
 3632              		.loc 3 44 14 is_stmt 1
 3633              		.cfi_startproc
 3634              	.LVL391:
 3635 0000 130101FF 		addi	sp,sp,-16
 3636              		.cfi_def_cfa_offset 16
 3637 0004 23341100 		sd	ra,8(sp)
 3638 0008 23308100 		sd	s0,0(sp)
 3639              		.cfi_offset 1, -8
 3640              		.cfi_offset 8, -16
 3641 000c 13040101 		addi	s0,sp,16
 3642              		.cfi_def_cfa 8, 0
  45:src/Code/../../h/Testing/Testing_OS1/Threads_CPP_API_Test.hpp ****         }
 3643              		.loc 3 45 13
  45:src/Code/../../h/Testing/Testing_OS1/Threads_CPP_API_Test.hpp ****         }
 3644              		.loc 3 45 24 is_stmt 0
 3645 0010 93050000 		li	a1,0
 3646 0014 97000000 		call	_ZN14ThreadsTestCPP7WorkerC11workerBodyCEPv
 3646      E7800000 
GAS LISTING /tmp/ccBYUnRY.s 			page 85


 3647              	.LVL392:
  46:src/Code/../../h/Testing/Testing_OS1/Threads_CPP_API_Test.hpp ****     };
 3648              		.loc 3 46 9
 3649 001c 83308100 		ld	ra,8(sp)
 3650              		.cfi_restore 1
 3651 0020 03340100 		ld	s0,0(sp)
 3652              		.cfi_restore 8
 3653              		.cfi_def_cfa 2, 16
 3654 0024 13010101 		addi	sp,sp,16
 3655              		.cfi_def_cfa_offset 0
 3656 0028 67800000 		jr	ra
 3657              		.cfi_endproc
 3658              	.LFE68:
 3660              		.text
 3661              		.align	2
 3662              		.globl	_ZN14ThreadsTestCPP7WorkerD11workerBodyDEPv
 3664              	_ZN14ThreadsTestCPP7WorkerD11workerBodyDEPv:
 3665              	.LFB76:
 109:src/Code/../../h/Testing/Testing_OS1/Threads_CPP_API_Test.hpp **** 
 110:src/Code/../../h/Testing/Testing_OS1/Threads_CPP_API_Test.hpp ****     void WorkerD::workerBodyD(void* arg) {
 3666              		.loc 3 110 42 is_stmt 1
 3667              		.cfi_startproc
 3668              	.LVL393:
 3669 0c4c 130101FE 		addi	sp,sp,-32
 3670              		.cfi_def_cfa_offset 32
 3671 0c50 233C1100 		sd	ra,24(sp)
 3672 0c54 23388100 		sd	s0,16(sp)
 3673 0c58 23349100 		sd	s1,8(sp)
 3674 0c5c 23302101 		sd	s2,0(sp)
 3675              		.cfi_offset 1, -8
 3676              		.cfi_offset 8, -16
 3677              		.cfi_offset 9, -24
 3678              		.cfi_offset 18, -32
 3679 0c60 13040102 		addi	s0,sp,32
 3680              		.cfi_def_cfa 8, 0
 111:src/Code/../../h/Testing/Testing_OS1/Threads_CPP_API_Test.hpp ****         uint8 i = 10;
 3681              		.loc 3 111 9
 3682              	.LVL394:
 3683              		.loc 3 111 15 is_stmt 0
 3684 0c64 9304A000 		li	s1,10
 3685 0c68 6F000004 		j	.L196
 3686              	.LVL395:
 3687              	.L200:
 112:src/Code/../../h/Testing/Testing_OS1/Threads_CPP_API_Test.hpp ****         for (; i < 13; i++) {
 113:src/Code/../../h/Testing/Testing_OS1/Threads_CPP_API_Test.hpp ****             printString("D: i="); printInt(i); printString("\n");
 3688              		.loc 3 113 13 is_stmt 1 discriminator 1
 3689              		.loc 3 113 24 is_stmt 0 discriminator 1
 3690 0c6c 17050000 		lla	a0,.LC12
 3690      13050500 
 3691 0c74 97000000 		call	_Z11printStringPKc@plt
 3691      E7800000 
 3692              	.LVL396:
 3693              		.loc 3 113 35 is_stmt 1 discriminator 1
 3694              		.loc 3 113 43 is_stmt 0 discriminator 1
 3695 0c7c 13060000 		li	a2,0
 3696 0c80 9305A000 		li	a1,10
 3697 0c84 13850400 		mv	a0,s1
GAS LISTING /tmp/ccBYUnRY.s 			page 86


 3698 0c88 97000000 		call	_Z8printIntiii@plt
 3698      E7800000 
 3699              	.LVL397:
 3700              		.loc 3 113 48 is_stmt 1 discriminator 1
 3701              		.loc 3 113 59 is_stmt 0 discriminator 1
 3702 0c90 17050000 		lla	a0,.LC1
 3702      13050500 
 3703 0c98 97000000 		call	_Z11printStringPKc@plt
 3703      E7800000 
 3704              	.LVL398:
 112:src/Code/../../h/Testing/Testing_OS1/Threads_CPP_API_Test.hpp ****         for (; i < 13; i++) {
 3705              		.loc 3 112 9 is_stmt 1 discriminator 1
 3706 0ca0 9B841400 		addiw	s1,s1,1
 3707              	.LVL399:
 3708 0ca4 93F4F40F 		andi	s1,s1,0xff
 3709              	.LVL400:
 3710              	.L196:
 112:src/Code/../../h/Testing/Testing_OS1/Threads_CPP_API_Test.hpp ****         for (; i < 13; i++) {
 3711              		.loc 3 112 9 discriminator 2
 112:src/Code/../../h/Testing/Testing_OS1/Threads_CPP_API_Test.hpp ****         for (; i < 13; i++) {
 3712              		.loc 3 112 18 discriminator 2
 3713 0ca8 9307C000 		li	a5,12
 3714 0cac E3F097FC 		bleu	s1,a5,.L200
 114:src/Code/../../h/Testing/Testing_OS1/Threads_CPP_API_Test.hpp ****         }
 115:src/Code/../../h/Testing/Testing_OS1/Threads_CPP_API_Test.hpp **** 
 116:src/Code/../../h/Testing/Testing_OS1/Threads_CPP_API_Test.hpp ****         printString("D: dispatch\n");
 3715              		.loc 3 116 9
 3716              		.loc 3 116 20 is_stmt 0
 3717 0cb0 17050000 		lla	a0,.LC13
 3717      13050500 
 3718 0cb8 97000000 		call	_Z11printStringPKc@plt
 3718      E7800000 
 3719              	.LVL401:
 117:src/Code/../../h/Testing/Testing_OS1/Threads_CPP_API_Test.hpp ****         __asm__ ("li t1, 5");
 3720              		.loc 3 117 9 is_stmt 1
 3721              		.loc 3 117 29 is_stmt 0
 3722              	#APP
 3723              	# 117 "src/Code/../../h/Testing/Testing_OS1/Threads_CPP_API_Test.hpp" 1
 118              	        thread_dispatch();
 3724              		li t1, 5
 3725              	# 0 "" 2
 3726              		.loc 3 118 9 is_stmt 1
 3727              		.loc 3 118 24 is_stmt 0
 3728              	#NO_APP
 3729 0cc4 97000000 		call	_Z15thread_dispatchv@plt
 3729      E7800000 
 3730              	.LVL402:
 119:src/Code/../../h/Testing/Testing_OS1/Threads_CPP_API_Test.hpp **** 
 120:src/Code/../../h/Testing/Testing_OS1/Threads_CPP_API_Test.hpp ****         uint64 result = fibonacci(16);
 3731              		.loc 3 120 9 is_stmt 1
 3732              		.loc 3 120 34 is_stmt 0
 3733 0ccc 13050001 		li	a0,16
 3734 0cd0 97000000 		call	_ZN14ThreadsTestCPP9fibonacciEm
 3734      E7800000 
 3735              	.LVL403:
 3736 0cd8 13090500 		mv	s2,a0
 3737              	.LVL404:
GAS LISTING /tmp/ccBYUnRY.s 			page 87


 121:src/Code/../../h/Testing/Testing_OS1/Threads_CPP_API_Test.hpp ****         printString("D: fibonaci="); printInt(result); printString("\n");
 3738              		.loc 3 121 9 is_stmt 1
 3739              		.loc 3 121 20 is_stmt 0
 3740 0cdc 17050000 		lla	a0,.LC14
 3740      13050500 
 3741              	.LVL405:
 3742 0ce4 97000000 		call	_Z11printStringPKc@plt
 3742      E7800000 
 3743              	.LVL406:
 3744              		.loc 3 121 38 is_stmt 1
 3745              		.loc 3 121 46 is_stmt 0
 3746 0cec 13060000 		li	a2,0
 3747 0cf0 9305A000 		li	a1,10
 3748 0cf4 1B050900 		sext.w	a0,s2
 3749 0cf8 97000000 		call	_Z8printIntiii@plt
 3749      E7800000 
 3750              	.LVL407:
 3751              		.loc 3 121 56 is_stmt 1
 3752              		.loc 3 121 67 is_stmt 0
 3753 0d00 17050000 		lla	a0,.LC1
 3753      13050500 
 3754 0d08 97000000 		call	_Z11printStringPKc@plt
 3754      E7800000 
 3755              	.LVL408:
 3756 0d10 6F000004 		j	.L198
 3757              	.L201:
 122:src/Code/../../h/Testing/Testing_OS1/Threads_CPP_API_Test.hpp **** 
 123:src/Code/../../h/Testing/Testing_OS1/Threads_CPP_API_Test.hpp ****         for (; i < 16; i++) {
 124:src/Code/../../h/Testing/Testing_OS1/Threads_CPP_API_Test.hpp ****             printString("D: i="); printInt(i); printString("\n");
 3758              		.loc 3 124 13 is_stmt 1 discriminator 1
 3759              		.loc 3 124 24 is_stmt 0 discriminator 1
 3760 0d14 17050000 		lla	a0,.LC12
 3760      13050500 
 3761 0d1c 97000000 		call	_Z11printStringPKc@plt
 3761      E7800000 
 3762              	.LVL409:
 3763              		.loc 3 124 35 is_stmt 1 discriminator 1
 3764              		.loc 3 124 43 is_stmt 0 discriminator 1
 3765 0d24 13060000 		li	a2,0
 3766 0d28 9305A000 		li	a1,10
 3767 0d2c 13850400 		mv	a0,s1
 3768 0d30 97000000 		call	_Z8printIntiii@plt
 3768      E7800000 
 3769              	.LVL410:
 3770              		.loc 3 124 48 is_stmt 1 discriminator 1
 3771              		.loc 3 124 59 is_stmt 0 discriminator 1
 3772 0d38 17050000 		lla	a0,.LC1
 3772      13050500 
 3773 0d40 97000000 		call	_Z11printStringPKc@plt
 3773      E7800000 
 3774              	.LVL411:
 123:src/Code/../../h/Testing/Testing_OS1/Threads_CPP_API_Test.hpp ****             printString("D: i="); printInt(i); printString("\n");
 3775              		.loc 3 123 9 is_stmt 1 discriminator 1
 3776 0d48 9B841400 		addiw	s1,s1,1
 3777              	.LVL412:
 3778 0d4c 93F4F40F 		andi	s1,s1,0xff
 3779              	.LVL413:
GAS LISTING /tmp/ccBYUnRY.s 			page 88


 3780              	.L198:
 123:src/Code/../../h/Testing/Testing_OS1/Threads_CPP_API_Test.hpp ****             printString("D: i="); printInt(i); printString("\n");
 3781              		.loc 3 123 9 discriminator 2
 123:src/Code/../../h/Testing/Testing_OS1/Threads_CPP_API_Test.hpp ****             printString("D: i="); printInt(i); printString("\n");
 3782              		.loc 3 123 18 discriminator 2
 3783 0d50 9307F000 		li	a5,15
 3784 0d54 E3F097FC 		bleu	s1,a5,.L201
 125:src/Code/../../h/Testing/Testing_OS1/Threads_CPP_API_Test.hpp ****         }
 126:src/Code/../../h/Testing/Testing_OS1/Threads_CPP_API_Test.hpp **** 
 127:src/Code/../../h/Testing/Testing_OS1/Threads_CPP_API_Test.hpp ****         printString("D finished!\n");
 3785              		.loc 3 127 9
 3786              		.loc 3 127 20 is_stmt 0
 3787 0d58 17050000 		lla	a0,.LC15
 3787      13050500 
 3788 0d60 97000000 		call	_Z11printStringPKc@plt
 3788      E7800000 
 3789              	.LVL414:
 128:src/Code/../../h/Testing/Testing_OS1/Threads_CPP_API_Test.hpp ****         finishedD = true;
