GAS LISTING /tmp/cc22VICa.s 			page 1


   1              		.file	"SchedulerListManagement.cpp"
   2              		.option pic
   3              		.option norelax
   4              		.text
   5              	.Ltext0:
   6              		.align	2
   7              		.globl	_Z12idleFunctionPv
   9              	_Z12idleFunctionPv:
  10              	.LFB44:
  11              		.file 1 "src/Code/Scheduler/SchedulerListManagement.cpp"
   1:src/Code/Scheduler/SchedulerListManagement.cpp **** #include "../../../h/Code/Thread/TCB.hpp"
   2:src/Code/Scheduler/SchedulerListManagement.cpp **** 
   3:src/Code/Scheduler/SchedulerListManagement.cpp **** // ovo je telo funkcije koje ce izvrsavati idle nit (besposlena, vrti se u beskonacnoj petlji)
   4:src/Code/Scheduler/SchedulerListManagement.cpp **** // ona se daje procesoru samo onda kada nema drugih spremnih niti u scheduleru
   5:src/Code/Scheduler/SchedulerListManagement.cpp **** [[noreturn]] void idleFunction(void* arg) { while (true) { } }
  12              		.loc 1 5 43
  13              		.cfi_startproc
  14              	.LVL0:
  15 0000 130101FF 		addi	sp,sp,-16
  16              		.cfi_def_cfa_offset 16
  17 0004 23348100 		sd	s0,8(sp)
  18              		.cfi_offset 8, -8
  19 0008 13040101 		addi	s0,sp,16
  20              		.cfi_def_cfa 8, 0
  21              	.L2:
  22              		.loc 1 5 45 discriminator 1
  23              		.loc 1 5 45 discriminator 1
  24 000c 6F000000 		j	.L2
  25              		.cfi_endproc
  26              	.LFE44:
  28              		.align	2
  29              		.globl	_Z19removeFromSchedulerRP3TCBS1_
  31              	_Z19removeFromSchedulerRP3TCBS1_:
  32              	.LFB45:
   6:src/Code/Scheduler/SchedulerListManagement.cpp **** 
   7:src/Code/Scheduler/SchedulerListManagement.cpp **** // uzimamo element sa pocetka ulancane liste
   8:src/Code/Scheduler/SchedulerListManagement.cpp **** TCB* removeFromScheduler(TCB*& head, TCB*& tail) {
  33              		.loc 1 8 50
  34              		.cfi_startproc
  35              	.LVL1:
  36 0010 130101FF 		addi	sp,sp,-16
  37              		.cfi_def_cfa_offset 16
  38 0014 23348100 		sd	s0,8(sp)
  39              		.cfi_offset 8, -8
  40 0018 13040101 		addi	s0,sp,16
  41              		.cfi_def_cfa 8, 0
  42 001c 93070500 		mv	a5,a0
   9:src/Code/Scheduler/SchedulerListManagement.cpp ****     if (!head || !tail) return nullptr; // ovaj slucaj moze da se dogodi samo ako idle nit jos nije
  43              		.loc 1 9 5
  44              		.loc 1 9 10 is_stmt 0
  45 0020 03350500 		ld	a0,0(a0)
  46              	.LVL2:
  47              		.loc 1 9 5
  48 0024 63020502 		beqz	a0,.L4
  49              		.loc 1 9 19 discriminator 2
  50 0028 03B70500 		ld	a4,0(a1)
  51              		.loc 1 9 15 discriminator 2
GAS LISTING /tmp/cc22VICa.s 			page 2


  52 002c 63040702 		beqz	a4,.L6
  10:src/Code/Scheduler/SchedulerListManagement.cpp ****     if (head == tail) return head; // slucaj kada je u scheduleru samo idle nit - nju vracamo i ne 
  53              		.loc 1 10 5 is_stmt 1
  54 0030 630CE500 		beq	a0,a4,.L4
  11:src/Code/Scheduler/SchedulerListManagement.cpp ****     TCB* thread = head;
  55              		.loc 1 11 5
  56              	.LVL3:
  12:src/Code/Scheduler/SchedulerListManagement.cpp ****     head = head->getNextThreadScheduler();
  57              		.loc 1 12 5
  58              	.LBB26:
  59              	.LBB27:
  60              		.file 2 "src/Code/Scheduler/../../../h/Code/Thread/TCB.hpp"
   1:src/Code/Scheduler/../../../h/Code/Thread/TCB.hpp **** #ifndef TCB_HPP
   2:src/Code/Scheduler/../../../h/Code/Thread/TCB.hpp **** #define TCB_HPP
   3:src/Code/Scheduler/../../../h/Code/Thread/TCB.hpp **** 
   4:src/Code/Scheduler/../../../h/Code/Thread/TCB.hpp **** #include "../../../lib/hw.h"
   5:src/Code/Scheduler/../../../h/Code/Thread/TCB.hpp **** #include "../Scheduler/Scheduler.hpp"
   6:src/Code/Scheduler/../../../h/Code/Thread/TCB.hpp **** #include "../InterruptHandling/Riscv.hpp"
   7:src/Code/Scheduler/../../../h/Code/Thread/TCB.hpp **** 
   8:src/Code/Scheduler/../../../h/Code/Thread/TCB.hpp **** // klasa TCB predstavlja apstrakciju niti
   9:src/Code/Scheduler/../../../h/Code/Thread/TCB.hpp **** class TCB {
  10:src/Code/Scheduler/../../../h/Code/Thread/TCB.hpp **** public:
  11:src/Code/Scheduler/../../../h/Code/Thread/TCB.hpp ****     // definisanje korisnickog tipa Body - predstavljace pokazivac na void funkciju koja prima void
  12:src/Code/Scheduler/../../../h/Code/Thread/TCB.hpp ****     using Body = void (*)(void*);
  13:src/Code/Scheduler/../../../h/Code/Thread/TCB.hpp **** 
  14:src/Code/Scheduler/../../../h/Code/Thread/TCB.hpp ****     // ova funkcija treba da napravi novu nit koja ce da izvrsava telo funkcije date parametrom bod
  15:src/Code/Scheduler/../../../h/Code/Thread/TCB.hpp ****     // ako se prosledi nullptr, to znaci da treba napraviti nit koja ce da izvrsava main funkciju
  16:src/Code/Scheduler/../../../h/Code/Thread/TCB.hpp ****     // u tom slucaju, u konstrukciji te niti ne treba je davati scheduleru na raspolaganje, jer bi 
  17:src/Code/Scheduler/../../../h/Code/Thread/TCB.hpp ****     // zelimo da bas ta nit main-a nastavi da se izvrsava
  18:src/Code/Scheduler/../../../h/Code/Thread/TCB.hpp ****     static TCB* createThread(Body body, void* arg, void* stack, bool cppApi);
  19:src/Code/Scheduler/../../../h/Code/Thread/TCB.hpp **** 
  20:src/Code/Scheduler/../../../h/Code/Thread/TCB.hpp ****     // obezbedjena enkapsulacija - atribut finished je privatan i moze se citati samo kroz getter m
  21:src/Code/Scheduler/../../../h/Code/Thread/TCB.hpp ****     bool getFinished() const { return finished; }
  22:src/Code/Scheduler/../../../h/Code/Thread/TCB.hpp ****     void setFinished(bool value) { finished = value; }
  23:src/Code/Scheduler/../../../h/Code/Thread/TCB.hpp **** 
  24:src/Code/Scheduler/../../../h/Code/Thread/TCB.hpp ****     // ovaj metod vraca vremenski odsecak (kvantum) koji je dodeljen tekucem objektu klase TCB (nit
  25:src/Code/Scheduler/../../../h/Code/Thread/TCB.hpp ****     // to je broj perioda tajmera - on govori koliko vremena ce se nit izvrsavati
  26:src/Code/Scheduler/../../../h/Code/Thread/TCB.hpp ****     uint64 getTimeSlice() const { return timeSlice; }
  27:src/Code/Scheduler/../../../h/Code/Thread/TCB.hpp **** 
  28:src/Code/Scheduler/../../../h/Code/Thread/TCB.hpp ****     // ovaj metod vraca adresu funkcije koju treba da izvrsava tekuca nit
  29:src/Code/Scheduler/../../../h/Code/Thread/TCB.hpp ****     Body getBody() const { return body; }
  30:src/Code/Scheduler/../../../h/Code/Thread/TCB.hpp **** 
  31:src/Code/Scheduler/../../../h/Code/Thread/TCB.hpp ****     // privatne atribute schedulerPrevThread i schedulerNextThread sam ispravno enkapsulirao jer su
  32:src/Code/Scheduler/../../../h/Code/Thread/TCB.hpp ****     // i mogu se modifikovati samo kroz setter metode, a mogu da se procitaju samo preko getter met
  33:src/Code/Scheduler/../../../h/Code/Thread/TCB.hpp ****     TCB* getPrevThreadScheduler() const { return schedulerPrevThread; }
  34:src/Code/Scheduler/../../../h/Code/Thread/TCB.hpp ****     void setPrevThreadScheduler(TCB* prev) { schedulerPrevThread = prev; }
  35:src/Code/Scheduler/../../../h/Code/Thread/TCB.hpp ****     TCB* getNextThreadScheduler() const { return schedulerNextThread; }
  61              		.loc 2 35 43
  62              		.loc 2 35 50 is_stmt 0
  63 0034 03378503 		ld	a4,56(a0)
  64              	.LVL4:
  65              	.LBE27:
  66              	.LBE26:
  67              		.loc 1 12 10
  68 0038 23B0E700 		sd	a4,0(a5)
  13:src/Code/Scheduler/SchedulerListManagement.cpp ****     thread->getNextThreadScheduler()->setPrevThreadScheduler(nullptr);
  69              		.loc 1 13 5 is_stmt 1
GAS LISTING /tmp/cc22VICa.s 			page 3


  70              	.LVL5:
  71              	.LBB28:
  72              	.LBB29:
  73              		.loc 2 35 43
  74              		.loc 2 35 50 is_stmt 0
  75 003c 83378503 		ld	a5,56(a0)
  76              	.LVL6:
  77              	.LBE29:
  78              	.LBE28:
  79              	.LBB30:
  80              	.LBB31:
  34:src/Code/Scheduler/../../../h/Code/Thread/TCB.hpp ****     TCB* getNextThreadScheduler() const { return schedulerNextThread; }
  81              		.loc 2 34 46 is_stmt 1
  34:src/Code/Scheduler/../../../h/Code/Thread/TCB.hpp ****     TCB* getNextThreadScheduler() const { return schedulerNextThread; }
  82              		.loc 2 34 66 is_stmt 0
  83 0040 23B00704 		sd	zero,64(a5)
  84              	.LVL7:
  85              	.LBE31:
  86              	.LBE30:
  14:src/Code/Scheduler/SchedulerListManagement.cpp ****     thread->setNextThreadScheduler(nullptr);
  87              		.loc 1 14 5 is_stmt 1
  88              	.LBB32:
  89              	.LBB33:
  36:src/Code/Scheduler/../../../h/Code/Thread/TCB.hpp ****     void setNextThreadScheduler(TCB* next) { schedulerNextThread = next; }
  90              		.loc 2 36 46
  91              		.loc 2 36 66 is_stmt 0
  92 0044 233C0502 		sd	zero,56(a0)
  93              	.LVL8:
  94              	.LBE33:
  95              	.LBE32:
  15:src/Code/Scheduler/SchedulerListManagement.cpp ****     return thread;
  96              		.loc 1 15 5 is_stmt 1
  97              	.L4:
  16:src/Code/Scheduler/SchedulerListManagement.cpp **** }
  98              		.loc 1 16 1 is_stmt 0
  99 0048 03348100 		ld	s0,8(sp)
 100              		.cfi_remember_state
 101              		.cfi_restore 8
 102              		.cfi_def_cfa 2, 16
 103 004c 13010101 		addi	sp,sp,16
 104              		.cfi_def_cfa_offset 0
 105 0050 67800000 		jr	ra
 106              	.LVL9:
 107              	.L6:
 108              		.cfi_restore_state
   9:src/Code/Scheduler/SchedulerListManagement.cpp ****     if (head == tail) return head; // slucaj kada je u scheduleru samo idle nit - nju vracamo i ne 
 109              		.loc 1 9 32
 110 0054 13050700 		mv	a0,a4
 111 0058 6FF01FFF 		j	.L4
 112              		.cfi_endproc
 113              	.LFE45:
 115              		.align	2
 116              		.globl	_Z19insertIntoSchedulerRP3TCBS1_S0_
 118              	_Z19insertIntoSchedulerRP3TCBS1_S0_:
 119              	.LFB46:
  17:src/Code/Scheduler/SchedulerListManagement.cpp **** 
  18:src/Code/Scheduler/SchedulerListManagement.cpp **** // umecemo u ulancanu listu; ukoliko prvi put umecemo, to je slucaj kada se umece idle nit;
GAS LISTING /tmp/cc22VICa.s 			page 4


  19:src/Code/Scheduler/SchedulerListManagement.cpp **** // kada budemo umetali sve naredne niti, umecemo ih tako da idle nit uvek bude poslednja;
  20:src/Code/Scheduler/SchedulerListManagement.cpp **** // idle nit se nikada ne izbacuje iz scheduler-a nakon sto se ubaci u scheduler;
  21:src/Code/Scheduler/SchedulerListManagement.cpp **** void insertIntoScheduler(TCB*& head, TCB*& tail, TCB* tcb) {
 120              		.loc 1 21 60 is_stmt 1
 121              		.cfi_startproc
 122              	.LVL10:
 123 005c 130101FF 		addi	sp,sp,-16
 124              		.cfi_def_cfa_offset 16
 125 0060 23348100 		sd	s0,8(sp)
 126              		.cfi_offset 8, -8
 127 0064 13040101 		addi	s0,sp,16
 128              		.cfi_def_cfa 8, 0
  22:src/Code/Scheduler/SchedulerListManagement.cpp ****     if (!tcb) return;
 129              		.loc 1 22 5
 130 0068 63040604 		beqz	a2,.L8
  23:src/Code/Scheduler/SchedulerListManagement.cpp ****     if (!head || !tail) { head = tail = tcb; return; } // ubacivanje idle niti na pocetku dok je jo
 131              		.loc 1 23 5
 132              		.loc 1 23 10 is_stmt 0
 133 006c 83370500 		ld	a5,0(a0)
 134              		.loc 1 23 5
 135 0070 63860704 		beqz	a5,.L10
 136              		.loc 1 23 19 discriminator 2
 137 0074 83B70500 		ld	a5,0(a1)
 138              		.loc 1 23 15 discriminator 2
 139 0078 63820704 		beqz	a5,.L10
  24:src/Code/Scheduler/SchedulerListManagement.cpp ****     if (tcb->getBody() == &idleFunction) return; // pokusaj ubacivanja idle niti kada je ona vec u 
 140              		.loc 1 24 5 is_stmt 1
 141              	.LVL11:
 142              	.LBB34:
 143              	.LBB35:
  29:src/Code/Scheduler/../../../h/Code/Thread/TCB.hpp **** 
 144              		.loc 2 29 28
  29:src/Code/Scheduler/../../../h/Code/Thread/TCB.hpp **** 
 145              		.loc 2 29 35 is_stmt 0
 146 007c 83360600 		ld	a3,0(a2)
 147              	.LVL12:
 148              	.LBE35:
 149              	.LBE34:
 150              		.loc 1 24 5
 151 0080 17070000 		lla	a4,_Z12idleFunctionPv
 151      13070700 
 152 0088 6384E602 		beq	a3,a4,.L8
  25:src/Code/Scheduler/SchedulerListManagement.cpp ****     tcb->setNextThreadScheduler(tail);
 153              		.loc 1 25 5 is_stmt 1
 154              	.LVL13:
 155              	.LBB36:
 156              	.LBB37:
 157              		.loc 2 36 46
 158              		.loc 2 36 66 is_stmt 0
 159 008c 233CF602 		sd	a5,56(a2)
 160              	.LVL14:
 161              	.LBE37:
 162              	.LBE36:
  26:src/Code/Scheduler/SchedulerListManagement.cpp ****     tcb->setPrevThreadScheduler(tail->getPrevThreadScheduler());
 163              		.loc 1 26 5 is_stmt 1
 164              	.LBB38:
 165              	.LBB39:
GAS LISTING /tmp/cc22VICa.s 			page 5


  33:src/Code/Scheduler/../../../h/Code/Thread/TCB.hpp ****     void setPrevThreadScheduler(TCB* prev) { schedulerPrevThread = prev; }
 166              		.loc 2 33 43
  33:src/Code/Scheduler/../../../h/Code/Thread/TCB.hpp ****     void setPrevThreadScheduler(TCB* prev) { schedulerPrevThread = prev; }
 167              		.loc 2 33 50 is_stmt 0
 168 0090 83B70704 		ld	a5,64(a5)
 169              	.LVL15:
 170              	.LBE39:
 171              	.LBE38:
 172              	.LBB40:
 173              	.LBB41:
  34:src/Code/Scheduler/../../../h/Code/Thread/TCB.hpp ****     TCB* getNextThreadScheduler() const { return schedulerNextThread; }
 174              		.loc 2 34 46 is_stmt 1
  34:src/Code/Scheduler/../../../h/Code/Thread/TCB.hpp ****     TCB* getNextThreadScheduler() const { return schedulerNextThread; }
 175              		.loc 2 34 66 is_stmt 0
 176 0094 2330F604 		sd	a5,64(a2)
 177              	.LVL16:
 178              	.LBE41:
 179              	.LBE40:
  27:src/Code/Scheduler/SchedulerListManagement.cpp ****     if (tail->getPrevThreadScheduler()) tail->getPrevThreadScheduler()->setNextThreadScheduler(tcb)
 180              		.loc 1 27 5 is_stmt 1
 181              		.loc 1 27 37 is_stmt 0
 182 0098 83B70500 		ld	a5,0(a1)
 183              	.LVL17:
 184              	.LBB42:
 185              	.LBB43:
  33:src/Code/Scheduler/../../../h/Code/Thread/TCB.hpp ****     void setPrevThreadScheduler(TCB* prev) { schedulerPrevThread = prev; }
 186              		.loc 2 33 43 is_stmt 1
  33:src/Code/Scheduler/../../../h/Code/Thread/TCB.hpp ****     void setPrevThreadScheduler(TCB* prev) { schedulerPrevThread = prev; }
 187              		.loc 2 33 50 is_stmt 0
 188 009c 83B70704 		ld	a5,64(a5)
 189              	.LVL18:
 190              	.LBE43:
 191              	.LBE42:
 192              		.loc 1 27 5
 193 00a0 63840702 		beqz	a5,.L12
 194              		.loc 1 27 41 is_stmt 1 discriminator 1
 195              	.LVL19:
  33:src/Code/Scheduler/../../../h/Code/Thread/TCB.hpp ****     void setPrevThreadScheduler(TCB* prev) { schedulerPrevThread = prev; }
 196              		.loc 2 33 43 discriminator 1
 197              	.LBB44:
 198              	.LBB45:
 199              		.loc 2 36 46 discriminator 1
 200              		.loc 2 36 66 is_stmt 0 discriminator 1
 201 00a4 23BCC702 		sd	a2,56(a5)
 202              	.LVL20:
 203              	.L13:
 204              	.LBE45:
 205              	.LBE44:
  28:src/Code/Scheduler/SchedulerListManagement.cpp ****     else head = tcb;
  29:src/Code/Scheduler/SchedulerListManagement.cpp ****     tail->setPrevThreadScheduler(tcb);
 206              		.loc 1 29 5 is_stmt 1
 207              		.loc 1 29 33 is_stmt 0
 208 00a8 83B70500 		ld	a5,0(a1)
 209              	.LVL21:
 210              	.LBB46:
 211              	.LBB47:
  34:src/Code/Scheduler/../../../h/Code/Thread/TCB.hpp ****     TCB* getNextThreadScheduler() const { return schedulerNextThread; }
GAS LISTING /tmp/cc22VICa.s 			page 6


 212              		.loc 2 34 46 is_stmt 1
  34:src/Code/Scheduler/../../../h/Code/Thread/TCB.hpp ****     TCB* getNextThreadScheduler() const { return schedulerNextThread; }
 213              		.loc 2 34 66 is_stmt 0
 214 00ac 23B0C704 		sd	a2,64(a5)
 215              	.LVL22:
 216              	.L8:
 217              	.LBE47:
 218              	.LBE46:
  30:src/Code/Scheduler/SchedulerListManagement.cpp **** }
 219              		.loc 1 30 1
 220 00b0 03348100 		ld	s0,8(sp)
 221              		.cfi_remember_state
 222              		.cfi_restore 8
 223              		.cfi_def_cfa 2, 16
 224 00b4 13010101 		addi	sp,sp,16
 225              		.cfi_def_cfa_offset 0
 226 00b8 67800000 		jr	ra
 227              	.L10:
 228              		.cfi_restore_state
  23:src/Code/Scheduler/SchedulerListManagement.cpp ****     if (tcb->getBody() == &idleFunction) return; // pokusaj ubacivanja idle niti kada je ona vec u 
 229              		.loc 1 23 27 is_stmt 1 discriminator 3
  23:src/Code/Scheduler/SchedulerListManagement.cpp ****     if (tcb->getBody() == &idleFunction) return; // pokusaj ubacivanja idle niti kada je ona vec u 
 230              		.loc 1 23 39 is_stmt 0 discriminator 3
 231 00bc 23B0C500 		sd	a2,0(a1)
  23:src/Code/Scheduler/SchedulerListManagement.cpp ****     if (tcb->getBody() == &idleFunction) return; // pokusaj ubacivanja idle niti kada je ona vec u 
 232              		.loc 1 23 32 discriminator 3
 233 00c0 2330C500 		sd	a2,0(a0)
  23:src/Code/Scheduler/SchedulerListManagement.cpp ****     if (tcb->getBody() == &idleFunction) return; // pokusaj ubacivanja idle niti kada je ona vec u 
 234              		.loc 1 23 46 is_stmt 1 discriminator 3
 235 00c4 6FF0DFFE 		j	.L8
 236              	.L12:
  28:src/Code/Scheduler/SchedulerListManagement.cpp ****     tail->setPrevThreadScheduler(tcb);
 237              		.loc 1 28 10
  28:src/Code/Scheduler/SchedulerListManagement.cpp ****     tail->setPrevThreadScheduler(tcb);
 238              		.loc 1 28 15 is_stmt 0
 239 00c8 2330C500 		sd	a2,0(a0)
 240 00cc 6FF0DFFD 		j	.L13
 241              		.cfi_endproc
 242              	.LFE46:
 244              	.Letext0:
 245              		.file 3 "src/Code/Scheduler/../../../h/Code/Thread/../../../lib/hw.h"
GAS LISTING /tmp/cc22VICa.s 			page 7

