GAS LISTING /tmp/ccxvoPhb.s 			page 1


   1              		.file	"KernelSemaphore.cpp"
   2              		.option pic
   3              		.option norelax
   4              		.text
   5              	.Ltext0:
   6              		.align	2
   7              		.globl	_ZN15KernelSemaphorenwEm
   9              	_ZN15KernelSemaphorenwEm:
  10              	.LFB55:
  11              		.file 1 "src/Code/Semaphore/KernelSemaphore.cpp"
   1:src/Code/Semaphore/KernelSemaphore.cpp **** #include "../../../h/Code/Semaphore/KernelSemaphore.hpp"
   2:src/Code/Semaphore/KernelSemaphore.cpp **** #include "../../../h/Code/MemoryAllocator/MemoryAllocator.hpp"
   3:src/Code/Semaphore/KernelSemaphore.cpp **** 
   4:src/Code/Semaphore/KernelSemaphore.cpp **** KernelSemaphore::~KernelSemaphore() {
   5:src/Code/Semaphore/KernelSemaphore.cpp ****     KernelSemaphore::closeSemaphore(this);
   6:src/Code/Semaphore/KernelSemaphore.cpp **** }
   7:src/Code/Semaphore/KernelSemaphore.cpp **** 
   8:src/Code/Semaphore/KernelSemaphore.cpp **** KernelSemaphore* KernelSemaphore::createSemaphore(unsigned short initialSemaphoreValue) {
   9:src/Code/Semaphore/KernelSemaphore.cpp ****     return new KernelSemaphore(initialSemaphoreValue);
  10:src/Code/Semaphore/KernelSemaphore.cpp **** }
  11:src/Code/Semaphore/KernelSemaphore.cpp **** 
  12:src/Code/Semaphore/KernelSemaphore.cpp **** int KernelSemaphore::closeSemaphore(KernelSemaphore *semaphore) {
  13:src/Code/Semaphore/KernelSemaphore.cpp ****     if (!semaphore) return -1;
  14:src/Code/Semaphore/KernelSemaphore.cpp ****     while (semaphore->blockedThreadsHead) {
  15:src/Code/Semaphore/KernelSemaphore.cpp ****         TCB* unblockedThread = semaphore->unblockFirstThreadInList(); // odblokiranje svih niti koj
  16:src/Code/Semaphore/KernelSemaphore.cpp ****         if (unblockedThread) unblockedThread->setWaitSemaphoreFailed(true); // sem_wait sistemski p
  17:src/Code/Semaphore/KernelSemaphore.cpp ****     }
  18:src/Code/Semaphore/KernelSemaphore.cpp ****     return 0;
  19:src/Code/Semaphore/KernelSemaphore.cpp **** }
  20:src/Code/Semaphore/KernelSemaphore.cpp **** 
  21:src/Code/Semaphore/KernelSemaphore.cpp **** void KernelSemaphore::wait() {
  22:src/Code/Semaphore/KernelSemaphore.cpp ****     if (--semaphoreValue < 0) {
  23:src/Code/Semaphore/KernelSemaphore.cpp ****        blockCurrentThread();
  24:src/Code/Semaphore/KernelSemaphore.cpp ****     }
  25:src/Code/Semaphore/KernelSemaphore.cpp **** }
  26:src/Code/Semaphore/KernelSemaphore.cpp **** 
  27:src/Code/Semaphore/KernelSemaphore.cpp **** void KernelSemaphore::signal() {
  28:src/Code/Semaphore/KernelSemaphore.cpp ****     if (++semaphoreValue <= 0) {
  29:src/Code/Semaphore/KernelSemaphore.cpp ****         unblockFirstThreadInList();
  30:src/Code/Semaphore/KernelSemaphore.cpp ****     }
  31:src/Code/Semaphore/KernelSemaphore.cpp **** }
  32:src/Code/Semaphore/KernelSemaphore.cpp **** 
  33:src/Code/Semaphore/KernelSemaphore.cpp **** void* KernelSemaphore::operator new(size_t n) {
  12              		.loc 1 33 47
  13              		.cfi_startproc
  14              	.LVL0:
  15 0000 130101FE 		addi	sp,sp,-32
  16              		.cfi_def_cfa_offset 32
  17 0004 233C1100 		sd	ra,24(sp)
  18 0008 23388100 		sd	s0,16(sp)
  19 000c 23349100 		sd	s1,8(sp)
  20              		.cfi_offset 1, -8
  21              		.cfi_offset 8, -16
  22              		.cfi_offset 9, -24
  23 0010 13040102 		addi	s0,sp,32
  24              		.cfi_def_cfa 8, 0
  25 0014 93040500 		mv	s1,a0
GAS LISTING /tmp/ccxvoPhb.s 			page 2


  34:src/Code/Semaphore/KernelSemaphore.cpp ****     void* ptr = MemoryAllocator::getInstance().allocateSegment(n);
  26              		.loc 1 34 5
  27              		.loc 1 34 46 is_stmt 0
  28 0018 97000000 		call	_ZN15MemoryAllocator11getInstanceEv@plt
  28      E7800000 
  29              	.LVL1:
  30              		.loc 1 34 63
  31 0020 93850400 		mv	a1,s1
  32 0024 97000000 		call	_ZN15MemoryAllocator15allocateSegmentEm@plt
  32      E7800000 
  33              	.LVL2:
  35:src/Code/Semaphore/KernelSemaphore.cpp ****     return ptr;
  34              		.loc 1 35 5 is_stmt 1
  36:src/Code/Semaphore/KernelSemaphore.cpp **** }
  35              		.loc 1 36 1 is_stmt 0
  36 002c 83308101 		ld	ra,24(sp)
  37              		.cfi_restore 1
  38 0030 03340101 		ld	s0,16(sp)
  39              		.cfi_restore 8
  40              		.cfi_def_cfa 2, 32
  41 0034 83348100 		ld	s1,8(sp)
  42              		.cfi_restore 9
  43              	.LVL3:
  44 0038 13010102 		addi	sp,sp,32
  45              		.cfi_def_cfa_offset 0
  46 003c 67800000 		jr	ra
  47              		.cfi_endproc
  48              	.LFE55:
  50              		.align	2
  51              		.globl	_ZN15KernelSemaphore15createSemaphoreEt
  53              	_ZN15KernelSemaphore15createSemaphoreEt:
  54              	.LFB51:
   8:src/Code/Semaphore/KernelSemaphore.cpp ****     return new KernelSemaphore(initialSemaphoreValue);
  55              		.loc 1 8 89 is_stmt 1
  56              		.cfi_startproc
  57              	.LVL4:
  58 0040 130101FE 		addi	sp,sp,-32
  59              		.cfi_def_cfa_offset 32
  60 0044 233C1100 		sd	ra,24(sp)
  61 0048 23388100 		sd	s0,16(sp)
  62 004c 23349100 		sd	s1,8(sp)
  63              		.cfi_offset 1, -8
  64              		.cfi_offset 8, -16
  65              		.cfi_offset 9, -24
  66 0050 13040102 		addi	s0,sp,32
  67              		.cfi_def_cfa 8, 0
  68 0054 93040500 		mv	s1,a0
   9:src/Code/Semaphore/KernelSemaphore.cpp **** }
  69              		.loc 1 9 5
   9:src/Code/Semaphore/KernelSemaphore.cpp **** }
  70              		.loc 1 9 53 is_stmt 0
  71 0058 13058001 		li	a0,24
  72              	.LVL5:
  73 005c 97000000 		call	_ZN15KernelSemaphorenwEm
  73      E7800000 
  74              	.LVL6:
  75              	.LBB18:
GAS LISTING /tmp/ccxvoPhb.s 			page 3


  76              	.LBB19:
  77              		.file 2 "src/Code/Semaphore/../../../h/Code/Semaphore/KernelSemaphore.hpp"
   1:src/Code/Semaphore/../../../h/Code/Semaphore/KernelSemaphore.hpp **** #ifndef SEMAPHORE_HPP
   2:src/Code/Semaphore/../../../h/Code/Semaphore/KernelSemaphore.hpp **** #define SEMAPHORE_HPP
   3:src/Code/Semaphore/../../../h/Code/Semaphore/KernelSemaphore.hpp **** 
   4:src/Code/Semaphore/../../../h/Code/Semaphore/KernelSemaphore.hpp **** #include "../Thread/TCB.hpp"
   5:src/Code/Semaphore/../../../h/Code/Semaphore/KernelSemaphore.hpp **** 
   6:src/Code/Semaphore/../../../h/Code/Semaphore/KernelSemaphore.hpp **** class KernelSemaphore {
   7:src/Code/Semaphore/../../../h/Code/Semaphore/KernelSemaphore.hpp **** public:
   8:src/Code/Semaphore/../../../h/Code/Semaphore/KernelSemaphore.hpp ****     ~KernelSemaphore();
   9:src/Code/Semaphore/../../../h/Code/Semaphore/KernelSemaphore.hpp ****     static KernelSemaphore* createSemaphore(unsigned short initialSemaphoreValue = 1);
  10:src/Code/Semaphore/../../../h/Code/Semaphore/KernelSemaphore.hpp ****     static int closeSemaphore(KernelSemaphore* semaphore);
  11:src/Code/Semaphore/../../../h/Code/Semaphore/KernelSemaphore.hpp **** 
  12:src/Code/Semaphore/../../../h/Code/Semaphore/KernelSemaphore.hpp ****     void wait();
  13:src/Code/Semaphore/../../../h/Code/Semaphore/KernelSemaphore.hpp ****     void signal();
  14:src/Code/Semaphore/../../../h/Code/Semaphore/KernelSemaphore.hpp **** 
  15:src/Code/Semaphore/../../../h/Code/Semaphore/KernelSemaphore.hpp ****     int getSemaphoreValue() const { return semaphoreValue; }
  16:src/Code/Semaphore/../../../h/Code/Semaphore/KernelSemaphore.hpp **** 
  17:src/Code/Semaphore/../../../h/Code/Semaphore/KernelSemaphore.hpp ****     // preklapamo operatore new i delete zato sto ce se metodi klase KernelSemaphore izvrsavati u k
  18:src/Code/Semaphore/../../../h/Code/Semaphore/KernelSemaphore.hpp ****     // u okviru prekidne rutine, a nas sistem nema jezgro sa preotimanjem (preemptive kernel), tj. 
  19:src/Code/Semaphore/../../../h/Code/Semaphore/KernelSemaphore.hpp ****     // za vreme izvrsavanja kernel koda - zato ne smemo da koristimo globalne operatore new i delet
  20:src/Code/Semaphore/../../../h/Code/Semaphore/KernelSemaphore.hpp ****     // pozive mem_alloc i mem_free
  21:src/Code/Semaphore/../../../h/Code/Semaphore/KernelSemaphore.hpp ****     static void* operator new(size_t n);
  22:src/Code/Semaphore/../../../h/Code/Semaphore/KernelSemaphore.hpp ****     static void* operator new[](size_t n);
  23:src/Code/Semaphore/../../../h/Code/Semaphore/KernelSemaphore.hpp ****     static void operator delete(void* ptr);
  24:src/Code/Semaphore/../../../h/Code/Semaphore/KernelSemaphore.hpp ****     static void operator delete[](void* ptr);
  25:src/Code/Semaphore/../../../h/Code/Semaphore/KernelSemaphore.hpp **** 
  26:src/Code/Semaphore/../../../h/Code/Semaphore/KernelSemaphore.hpp **** protected:
  27:src/Code/Semaphore/../../../h/Code/Semaphore/KernelSemaphore.hpp ****     void blockCurrentThread();
  28:src/Code/Semaphore/../../../h/Code/Semaphore/KernelSemaphore.hpp ****     TCB* unblockFirstThreadInList();
  29:src/Code/Semaphore/../../../h/Code/Semaphore/KernelSemaphore.hpp **** 
  30:src/Code/Semaphore/../../../h/Code/Semaphore/KernelSemaphore.hpp **** private:
  31:src/Code/Semaphore/../../../h/Code/Semaphore/KernelSemaphore.hpp ****     explicit KernelSemaphore(unsigned short initialSemaphoreValue = 1) : semaphoreValue(initialSema
  78              		.loc 2 31 110
  79 0064 23209500 		sw	s1,0(a0)
  80 0068 23340500 		sd	zero,8(a0)
  81 006c 23380500 		sd	zero,16(a0)
  82              	.LVL7:
  83              	.LBE19:
  84              	.LBE18:
  10:src/Code/Semaphore/KernelSemaphore.cpp **** 
  85              		.loc 1 10 1
  86 0070 83308101 		ld	ra,24(sp)
  87              		.cfi_restore 1
  88 0074 03340101 		ld	s0,16(sp)
  89              		.cfi_restore 8
  90              		.cfi_def_cfa 2, 32
  91 0078 83348100 		ld	s1,8(sp)
  92              		.cfi_restore 9
  93 007c 13010102 		addi	sp,sp,32
  94              		.cfi_def_cfa_offset 0
  95 0080 67800000 		jr	ra
  96              		.cfi_endproc
  97              	.LFE51:
  99              		.align	2
 100              		.globl	_ZN15KernelSemaphorenaEm
 102              	_ZN15KernelSemaphorenaEm:
GAS LISTING /tmp/ccxvoPhb.s 			page 4


 103              	.LFB56:
  37:src/Code/Semaphore/KernelSemaphore.cpp **** 
  38:src/Code/Semaphore/KernelSemaphore.cpp **** void* KernelSemaphore::operator new[](size_t n) {
 104              		.loc 1 38 49 is_stmt 1
 105              		.cfi_startproc
 106              	.LVL8:
 107 0084 130101FE 		addi	sp,sp,-32
 108              		.cfi_def_cfa_offset 32
 109 0088 233C1100 		sd	ra,24(sp)
 110 008c 23388100 		sd	s0,16(sp)
 111 0090 23349100 		sd	s1,8(sp)
 112              		.cfi_offset 1, -8
 113              		.cfi_offset 8, -16
 114              		.cfi_offset 9, -24
 115 0094 13040102 		addi	s0,sp,32
 116              		.cfi_def_cfa 8, 0
 117 0098 93040500 		mv	s1,a0
  39:src/Code/Semaphore/KernelSemaphore.cpp ****     void* ptr = MemoryAllocator::getInstance().allocateSegment(n);
 118              		.loc 1 39 5
 119              		.loc 1 39 46 is_stmt 0
 120 009c 97000000 		call	_ZN15MemoryAllocator11getInstanceEv@plt
 120      E7800000 
 121              	.LVL9:
 122              		.loc 1 39 63
 123 00a4 93850400 		mv	a1,s1
 124 00a8 97000000 		call	_ZN15MemoryAllocator15allocateSegmentEm@plt
 124      E7800000 
 125              	.LVL10:
  40:src/Code/Semaphore/KernelSemaphore.cpp ****     return ptr;
 126              		.loc 1 40 5 is_stmt 1
  41:src/Code/Semaphore/KernelSemaphore.cpp **** }
 127              		.loc 1 41 1 is_stmt 0
 128 00b0 83308101 		ld	ra,24(sp)
 129              		.cfi_restore 1
 130 00b4 03340101 		ld	s0,16(sp)
 131              		.cfi_restore 8
 132              		.cfi_def_cfa 2, 32
 133 00b8 83348100 		ld	s1,8(sp)
 134              		.cfi_restore 9
 135              	.LVL11:
 136 00bc 13010102 		addi	sp,sp,32
 137              		.cfi_def_cfa_offset 0
 138 00c0 67800000 		jr	ra
 139              		.cfi_endproc
 140              	.LFE56:
 142              		.align	2
 143              		.globl	_ZN15KernelSemaphoredlEPv
 145              	_ZN15KernelSemaphoredlEPv:
 146              	.LFB57:
  42:src/Code/Semaphore/KernelSemaphore.cpp **** 
  43:src/Code/Semaphore/KernelSemaphore.cpp **** void KernelSemaphore::operator delete(void *ptr) {
 147              		.loc 1 43 50 is_stmt 1
 148              		.cfi_startproc
 149              	.LVL12:
 150 00c4 130101FE 		addi	sp,sp,-32
 151              		.cfi_def_cfa_offset 32
 152 00c8 233C1100 		sd	ra,24(sp)
GAS LISTING /tmp/ccxvoPhb.s 			page 5


 153 00cc 23388100 		sd	s0,16(sp)
 154 00d0 23349100 		sd	s1,8(sp)
 155              		.cfi_offset 1, -8
 156              		.cfi_offset 8, -16
 157              		.cfi_offset 9, -24
 158 00d4 13040102 		addi	s0,sp,32
 159              		.cfi_def_cfa 8, 0
 160 00d8 93040500 		mv	s1,a0
  44:src/Code/Semaphore/KernelSemaphore.cpp ****     MemoryAllocator::getInstance().deallocateSegment(ptr);
 161              		.loc 1 44 5
 162              		.loc 1 44 34 is_stmt 0
 163 00dc 97000000 		call	_ZN15MemoryAllocator11getInstanceEv@plt
 163      E7800000 
 164              	.LVL13:
 165              		.loc 1 44 53
 166 00e4 93850400 		mv	a1,s1
 167 00e8 97000000 		call	_ZN15MemoryAllocator17deallocateSegmentEPv@plt
 167      E7800000 
 168              	.LVL14:
  45:src/Code/Semaphore/KernelSemaphore.cpp **** }
 169              		.loc 1 45 1
 170 00f0 83308101 		ld	ra,24(sp)
 171              		.cfi_restore 1
 172 00f4 03340101 		ld	s0,16(sp)
 173              		.cfi_restore 8
 174              		.cfi_def_cfa 2, 32
 175 00f8 83348100 		ld	s1,8(sp)
 176              		.cfi_restore 9
 177              	.LVL15:
 178 00fc 13010102 		addi	sp,sp,32
 179              		.cfi_def_cfa_offset 0
 180 0100 67800000 		jr	ra
 181              		.cfi_endproc
 182              	.LFE57:
 184              		.align	2
 185              		.globl	_ZN15KernelSemaphoredaEPv
 187              	_ZN15KernelSemaphoredaEPv:
 188              	.LFB58:
  46:src/Code/Semaphore/KernelSemaphore.cpp **** 
  47:src/Code/Semaphore/KernelSemaphore.cpp **** void KernelSemaphore::operator delete[](void *ptr) {
 189              		.loc 1 47 52 is_stmt 1
 190              		.cfi_startproc
 191              	.LVL16:
 192 0104 130101FE 		addi	sp,sp,-32
 193              		.cfi_def_cfa_offset 32
 194 0108 233C1100 		sd	ra,24(sp)
 195 010c 23388100 		sd	s0,16(sp)
 196 0110 23349100 		sd	s1,8(sp)
 197              		.cfi_offset 1, -8
 198              		.cfi_offset 8, -16
 199              		.cfi_offset 9, -24
 200 0114 13040102 		addi	s0,sp,32
 201              		.cfi_def_cfa 8, 0
 202 0118 93040500 		mv	s1,a0
  48:src/Code/Semaphore/KernelSemaphore.cpp ****     MemoryAllocator::getInstance().deallocateSegment(ptr);
 203              		.loc 1 48 5
 204              		.loc 1 48 34 is_stmt 0
GAS LISTING /tmp/ccxvoPhb.s 			page 6


 205 011c 97000000 		call	_ZN15MemoryAllocator11getInstanceEv@plt
 205      E7800000 
 206              	.LVL17:
 207              		.loc 1 48 53
 208 0124 93850400 		mv	a1,s1
 209 0128 97000000 		call	_ZN15MemoryAllocator17deallocateSegmentEPv@plt
 209      E7800000 
 210              	.LVL18:
  49:src/Code/Semaphore/KernelSemaphore.cpp **** }
 211              		.loc 1 49 1
 212 0130 83308101 		ld	ra,24(sp)
 213              		.cfi_restore 1
 214 0134 03340101 		ld	s0,16(sp)
 215              		.cfi_restore 8
 216              		.cfi_def_cfa 2, 32
 217 0138 83348100 		ld	s1,8(sp)
 218              		.cfi_restore 9
 219              	.LVL19:
 220 013c 13010102 		addi	sp,sp,32
 221              		.cfi_def_cfa_offset 0
 222 0140 67800000 		jr	ra
 223              		.cfi_endproc
 224              	.LFE58:
 226              		.align	2
 227              		.globl	_ZN15KernelSemaphore27insertThreadIntoBlockedListEP3TCB
 229              	_ZN15KernelSemaphore27insertThreadIntoBlockedListEP3TCB:
 230              	.LFB61:
  50:src/Code/Semaphore/KernelSemaphore.cpp **** 
  51:src/Code/Semaphore/KernelSemaphore.cpp **** void KernelSemaphore::blockCurrentThread() {
  52:src/Code/Semaphore/KernelSemaphore.cpp ****     insertThreadIntoBlockedList(TCB::runningThread);
  53:src/Code/Semaphore/KernelSemaphore.cpp ****     TCB::suspendCurrentThread();
  54:src/Code/Semaphore/KernelSemaphore.cpp **** }
  55:src/Code/Semaphore/KernelSemaphore.cpp **** 
  56:src/Code/Semaphore/KernelSemaphore.cpp **** TCB* KernelSemaphore::unblockFirstThreadInList() {
  57:src/Code/Semaphore/KernelSemaphore.cpp ****     TCB* tcb = removeThreadFromBlockedList();
  58:src/Code/Semaphore/KernelSemaphore.cpp ****     if (tcb) Scheduler::getInstance().put(tcb);
  59:src/Code/Semaphore/KernelSemaphore.cpp ****     return tcb;
  60:src/Code/Semaphore/KernelSemaphore.cpp **** }
  61:src/Code/Semaphore/KernelSemaphore.cpp **** 
  62:src/Code/Semaphore/KernelSemaphore.cpp **** void KernelSemaphore::insertThreadIntoBlockedList(TCB *tcb) {
 231              		.loc 1 62 61 is_stmt 1
 232              		.cfi_startproc
 233              	.LVL20:
 234 0144 130101FF 		addi	sp,sp,-16
 235              		.cfi_def_cfa_offset 16
 236 0148 23348100 		sd	s0,8(sp)
 237              		.cfi_offset 8, -8
 238 014c 13040101 		addi	s0,sp,16
 239              		.cfi_def_cfa 8, 0
  63:src/Code/Semaphore/KernelSemaphore.cpp ****     if (!blockedThreadsHead || !blockedThreadsTail) {
 240              		.loc 1 63 5
 241              		.loc 1 63 10 is_stmt 0
 242 0150 83378500 		ld	a5,8(a0)
 243              		.loc 1 63 5
 244 0154 638E0700 		beqz	a5,.L12
 245              		.loc 1 63 33 discriminator 1
 246 0158 83370501 		ld	a5,16(a0)
GAS LISTING /tmp/ccxvoPhb.s 			page 7


 247              		.loc 1 63 29 discriminator 1
 248 015c 638A0700 		beqz	a5,.L12
  64:src/Code/Semaphore/KernelSemaphore.cpp ****         blockedThreadsHead = blockedThreadsTail = tcb;
  65:src/Code/Semaphore/KernelSemaphore.cpp ****         blockedThreadsHead->setNextSemaphoreThread(nullptr);
  66:src/Code/Semaphore/KernelSemaphore.cpp ****     } else {
  67:src/Code/Semaphore/KernelSemaphore.cpp ****         blockedThreadsTail->setNextSemaphoreThread(tcb);
 249              		.loc 1 67 9 is_stmt 1
 250              	.LVL21:
 251              	.LBB20:
 252              	.LBB21:
 253              		.file 3 "src/Code/Semaphore/../../../h/Code/Semaphore/../Thread/TCB.hpp"
   1:src/Code/Semaphore/../../../h/Code/Semaphore/../Thread/TCB.hpp **** #ifndef TCB_HPP
   2:src/Code/Semaphore/../../../h/Code/Semaphore/../Thread/TCB.hpp **** #define TCB_HPP
   3:src/Code/Semaphore/../../../h/Code/Semaphore/../Thread/TCB.hpp **** 
   4:src/Code/Semaphore/../../../h/Code/Semaphore/../Thread/TCB.hpp **** #include "../../../lib/hw.h"
   5:src/Code/Semaphore/../../../h/Code/Semaphore/../Thread/TCB.hpp **** #include "../Scheduler/Scheduler.hpp"
   6:src/Code/Semaphore/../../../h/Code/Semaphore/../Thread/TCB.hpp **** #include "../InterruptHandling/Riscv.hpp"
   7:src/Code/Semaphore/../../../h/Code/Semaphore/../Thread/TCB.hpp **** 
   8:src/Code/Semaphore/../../../h/Code/Semaphore/../Thread/TCB.hpp **** // klasa TCB predstavlja apstrakciju niti
   9:src/Code/Semaphore/../../../h/Code/Semaphore/../Thread/TCB.hpp **** class TCB {
  10:src/Code/Semaphore/../../../h/Code/Semaphore/../Thread/TCB.hpp **** public:
  11:src/Code/Semaphore/../../../h/Code/Semaphore/../Thread/TCB.hpp ****     // definisanje korisnickog tipa Body - predstavljace pokazivac na void funkciju koja prima void
  12:src/Code/Semaphore/../../../h/Code/Semaphore/../Thread/TCB.hpp ****     using Body = void (*)(void*);
  13:src/Code/Semaphore/../../../h/Code/Semaphore/../Thread/TCB.hpp **** 
  14:src/Code/Semaphore/../../../h/Code/Semaphore/../Thread/TCB.hpp ****     // ova funkcija treba da napravi novu nit koja ce da izvrsava telo funkcije date parametrom bod
  15:src/Code/Semaphore/../../../h/Code/Semaphore/../Thread/TCB.hpp ****     // ako se prosledi nullptr, to znaci da treba napraviti nit koja ce da izvrsava main funkciju
  16:src/Code/Semaphore/../../../h/Code/Semaphore/../Thread/TCB.hpp ****     // u tom slucaju, u konstrukciji te niti ne treba je davati scheduleru na raspolaganje, jer bi 
  17:src/Code/Semaphore/../../../h/Code/Semaphore/../Thread/TCB.hpp ****     // zelimo da bas ta nit main-a nastavi da se izvrsava
  18:src/Code/Semaphore/../../../h/Code/Semaphore/../Thread/TCB.hpp ****     static TCB* createThread(Body body, void* arg, void* stack, bool cppApi);
  19:src/Code/Semaphore/../../../h/Code/Semaphore/../Thread/TCB.hpp **** 
  20:src/Code/Semaphore/../../../h/Code/Semaphore/../Thread/TCB.hpp ****     // obezbedjena enkapsulacija - atribut finished je privatan i moze se citati samo kroz getter m
  21:src/Code/Semaphore/../../../h/Code/Semaphore/../Thread/TCB.hpp ****     bool getFinished() const { return finished; }
  22:src/Code/Semaphore/../../../h/Code/Semaphore/../Thread/TCB.hpp ****     void setFinished(bool value) { finished = value; }
  23:src/Code/Semaphore/../../../h/Code/Semaphore/../Thread/TCB.hpp **** 
  24:src/Code/Semaphore/../../../h/Code/Semaphore/../Thread/TCB.hpp ****     // ovaj metod vraca vremenski odsecak (kvantum) koji je dodeljen tekucem objektu klase TCB (nit
  25:src/Code/Semaphore/../../../h/Code/Semaphore/../Thread/TCB.hpp ****     // to je broj perioda tajmera - on govori koliko vremena ce se nit izvrsavati
  26:src/Code/Semaphore/../../../h/Code/Semaphore/../Thread/TCB.hpp ****     uint64 getTimeSlice() const { return timeSlice; }
  27:src/Code/Semaphore/../../../h/Code/Semaphore/../Thread/TCB.hpp **** 
  28:src/Code/Semaphore/../../../h/Code/Semaphore/../Thread/TCB.hpp ****     // ovaj metod vraca adresu funkcije koju treba da izvrsava tekuca nit
  29:src/Code/Semaphore/../../../h/Code/Semaphore/../Thread/TCB.hpp ****     Body getBody() const { return body; }
  30:src/Code/Semaphore/../../../h/Code/Semaphore/../Thread/TCB.hpp **** 
  31:src/Code/Semaphore/../../../h/Code/Semaphore/../Thread/TCB.hpp ****     // privatne atribute schedulerPrevThread i schedulerNextThread sam ispravno enkapsulirao jer su
  32:src/Code/Semaphore/../../../h/Code/Semaphore/../Thread/TCB.hpp ****     // i mogu se modifikovati samo kroz setter metode, a mogu da se procitaju samo preko getter met
  33:src/Code/Semaphore/../../../h/Code/Semaphore/../Thread/TCB.hpp ****     TCB* getPrevThreadScheduler() const { return schedulerPrevThread; }
  34:src/Code/Semaphore/../../../h/Code/Semaphore/../Thread/TCB.hpp ****     void setPrevThreadScheduler(TCB* prev) { schedulerPrevThread = prev; }
  35:src/Code/Semaphore/../../../h/Code/Semaphore/../Thread/TCB.hpp ****     TCB* getNextThreadScheduler() const { return schedulerNextThread; }
  36:src/Code/Semaphore/../../../h/Code/Semaphore/../Thread/TCB.hpp ****     void setNextThreadScheduler(TCB* next) { schedulerNextThread = next; }
  37:src/Code/Semaphore/../../../h/Code/Semaphore/../Thread/TCB.hpp **** 
  38:src/Code/Semaphore/../../../h/Code/Semaphore/../Thread/TCB.hpp ****     // ova metoda sluzi da promeni kontekst, pri cemu tekucu nit suspenduje
  39:src/Code/Semaphore/../../../h/Code/Semaphore/../Thread/TCB.hpp ****     // tako sto je ne vraca u rasporedjivac cak iako ona nije zavrsena
  40:src/Code/Semaphore/../../../h/Code/Semaphore/../Thread/TCB.hpp ****     static void suspendCurrentThread();
  41:src/Code/Semaphore/../../../h/Code/Semaphore/../Thread/TCB.hpp **** 
  42:src/Code/Semaphore/../../../h/Code/Semaphore/../Thread/TCB.hpp ****     // ova metoda umece tekucu nit u red uspavanih niti i to sa zadatim brojem perioda tajmera koli
  43:src/Code/Semaphore/../../../h/Code/Semaphore/../Thread/TCB.hpp ****     static void insertSleepThread(uint64 time);
  44:src/Code/Semaphore/../../../h/Code/Semaphore/../Thread/TCB.hpp ****     // ova metoda azurira listu uspavanih niti tako sto dekrementira sleepTime prve niti u listi, i
  45:src/Code/Semaphore/../../../h/Code/Semaphore/../Thread/TCB.hpp ****     // onda se u red spremnih niti vracaju sve niti koje takodje imaju sleepTime nula pocevsi od po
  46:src/Code/Semaphore/../../../h/Code/Semaphore/../Thread/TCB.hpp ****     static void updateSleepThreadList();
GAS LISTING /tmp/ccxvoPhb.s 			page 8


  47:src/Code/Semaphore/../../../h/Code/Semaphore/../Thread/TCB.hpp ****     TCB* getPrevSleepThread() const { return sleepPrevThread; }
  48:src/Code/Semaphore/../../../h/Code/Semaphore/../Thread/TCB.hpp ****     void setPrevSleepThread(TCB* prev) { sleepPrevThread = prev; }
  49:src/Code/Semaphore/../../../h/Code/Semaphore/../Thread/TCB.hpp ****     TCB* getNextSleepThread() const { return sleepNextThread; }
  50:src/Code/Semaphore/../../../h/Code/Semaphore/../Thread/TCB.hpp ****     void setNextSleepThread(TCB* next) { sleepNextThread = next; }
  51:src/Code/Semaphore/../../../h/Code/Semaphore/../Thread/TCB.hpp ****     void setSleepTime(uint64 time) { sleepTime = time; }
  52:src/Code/Semaphore/../../../h/Code/Semaphore/../Thread/TCB.hpp ****     uint64 getSleepTime() const { return sleepTime; }
  53:src/Code/Semaphore/../../../h/Code/Semaphore/../Thread/TCB.hpp **** 
  54:src/Code/Semaphore/../../../h/Code/Semaphore/../Thread/TCB.hpp ****     // ove metode sluze kao pomoc za ulancavanje niti u listu blokiranih niti na semaforu
  55:src/Code/Semaphore/../../../h/Code/Semaphore/../Thread/TCB.hpp ****     TCB* getNextSemaphoreThread() const { return semaphoreNextThread; }
  56:src/Code/Semaphore/../../../h/Code/Semaphore/../Thread/TCB.hpp ****     void setNextSemaphoreThread(TCB* next) { semaphoreNextThread = next; }
 254              		.loc 3 56 46
 255              		.loc 3 56 66 is_stmt 0
 256 0160 23B0B706 		sd	a1,96(a5)
 257              	.LVL22:
 258              	.LBE21:
 259              	.LBE20:
  68:src/Code/Semaphore/KernelSemaphore.cpp ****         blockedThreadsTail = tcb;
 260              		.loc 1 68 9 is_stmt 1
 261              		.loc 1 68 28 is_stmt 0
 262 0164 2338B500 		sd	a1,16(a0)
  69:src/Code/Semaphore/KernelSemaphore.cpp ****         blockedThreadsTail->setNextSemaphoreThread(nullptr);
 263              		.loc 1 69 9 is_stmt 1
 264              	.LVL23:
 265              	.LBB22:
 266              	.LBB23:
 267              		.loc 3 56 46
 268              		.loc 3 56 66 is_stmt 0
 269 0168 23B00506 		sd	zero,96(a1)
 270              	.LVL24:
 271              	.LBE23:
 272              	.LBE22:
  70:src/Code/Semaphore/KernelSemaphore.cpp ****     }
  71:src/Code/Semaphore/KernelSemaphore.cpp **** }
 273              		.loc 1 71 1
 274 016c 6F000001 		j	.L11
 275              	.L12:
  64:src/Code/Semaphore/KernelSemaphore.cpp ****         blockedThreadsHead->setNextSemaphoreThread(nullptr);
 276              		.loc 1 64 9 is_stmt 1
  64:src/Code/Semaphore/KernelSemaphore.cpp ****         blockedThreadsHead->setNextSemaphoreThread(nullptr);
 277              		.loc 1 64 49 is_stmt 0
 278 0170 2338B500 		sd	a1,16(a0)
  64:src/Code/Semaphore/KernelSemaphore.cpp ****         blockedThreadsHead->setNextSemaphoreThread(nullptr);
 279              		.loc 1 64 28
 280 0174 2334B500 		sd	a1,8(a0)
  65:src/Code/Semaphore/KernelSemaphore.cpp ****     } else {
 281              		.loc 1 65 9 is_stmt 1
 282              	.LVL25:
 283              	.LBB24:
 284              	.LBB25:
 285              		.loc 3 56 46
 286              		.loc 3 56 66 is_stmt 0
 287 0178 23B00506 		sd	zero,96(a1)
 288              	.LVL26:
 289              	.L11:
 290              	.LBE25:
 291              	.LBE24:
 292              		.loc 1 71 1
GAS LISTING /tmp/ccxvoPhb.s 			page 9


 293 017c 03348100 		ld	s0,8(sp)
 294              		.cfi_restore 8
 295              		.cfi_def_cfa 2, 16
 296 0180 13010101 		addi	sp,sp,16
 297              		.cfi_def_cfa_offset 0
 298 0184 67800000 		jr	ra
 299              		.cfi_endproc
 300              	.LFE61:
 302              		.align	2
 303              		.globl	_ZN15KernelSemaphore18blockCurrentThreadEv
 305              	_ZN15KernelSemaphore18blockCurrentThreadEv:
 306              	.LFB59:
  51:src/Code/Semaphore/KernelSemaphore.cpp ****     insertThreadIntoBlockedList(TCB::runningThread);
 307              		.loc 1 51 44 is_stmt 1
 308              		.cfi_startproc
 309              	.LVL27:
 310 0188 130101FF 		addi	sp,sp,-16
 311              		.cfi_def_cfa_offset 16
 312 018c 23341100 		sd	ra,8(sp)
 313 0190 23308100 		sd	s0,0(sp)
 314              		.cfi_offset 1, -8
 315              		.cfi_offset 8, -16
 316 0194 13040101 		addi	s0,sp,16
 317              		.cfi_def_cfa 8, 0
  52:src/Code/Semaphore/KernelSemaphore.cpp ****     TCB::suspendCurrentThread();
 318              		.loc 1 52 5
  52:src/Code/Semaphore/KernelSemaphore.cpp ****     TCB::suspendCurrentThread();
 319              		.loc 1 52 32 is_stmt 0
 320 0198 97070000 		la	a5,_ZN3TCB13runningThreadE
 320      83B70700 
 321 01a0 83B50700 		ld	a1,0(a5)
 322 01a4 97000000 		call	_ZN15KernelSemaphore27insertThreadIntoBlockedListEP3TCB
 322      E7800000 
 323              	.LVL28:
  53:src/Code/Semaphore/KernelSemaphore.cpp **** }
 324              		.loc 1 53 5 is_stmt 1
  53:src/Code/Semaphore/KernelSemaphore.cpp **** }
 325              		.loc 1 53 30 is_stmt 0
 326 01ac 97000000 		call	_ZN3TCB20suspendCurrentThreadEv@plt
 326      E7800000 
 327              	.LVL29:
  54:src/Code/Semaphore/KernelSemaphore.cpp **** 
 328              		.loc 1 54 1
 329 01b4 83308100 		ld	ra,8(sp)
 330              		.cfi_restore 1
 331 01b8 03340100 		ld	s0,0(sp)
 332              		.cfi_restore 8
 333              		.cfi_def_cfa 2, 16
 334 01bc 13010101 		addi	sp,sp,16
 335              		.cfi_def_cfa_offset 0
 336 01c0 67800000 		jr	ra
 337              		.cfi_endproc
 338              	.LFE59:
 340              		.align	2
 341              		.globl	_ZN15KernelSemaphore4waitEv
 343              	_ZN15KernelSemaphore4waitEv:
 344              	.LFB53:
GAS LISTING /tmp/ccxvoPhb.s 			page 10


  21:src/Code/Semaphore/KernelSemaphore.cpp ****     if (--semaphoreValue < 0) {
 345              		.loc 1 21 30 is_stmt 1
 346              		.cfi_startproc
 347              	.LVL30:
  22:src/Code/Semaphore/KernelSemaphore.cpp ****        blockCurrentThread();
 348              		.loc 1 22 5
  22:src/Code/Semaphore/KernelSemaphore.cpp ****        blockCurrentThread();
 349              		.loc 1 22 11 is_stmt 0
 350 01c4 83270500 		lw	a5,0(a0)
  22:src/Code/Semaphore/KernelSemaphore.cpp ****        blockCurrentThread();
 351              		.loc 1 22 9
 352 01c8 9B87F7FF 		addiw	a5,a5,-1
  22:src/Code/Semaphore/KernelSemaphore.cpp ****        blockCurrentThread();
 353              		.loc 1 22 26
 354 01cc 2320F500 		sw	a5,0(a0)
  22:src/Code/Semaphore/KernelSemaphore.cpp ****        blockCurrentThread();
 355              		.loc 1 22 5
 356 01d0 13970702 		slli	a4,a5,32
 357 01d4 63440700 		bltz	a4,.L24
 358 01d8 67800000 		ret
 359              	.L24:
  21:src/Code/Semaphore/KernelSemaphore.cpp ****     if (--semaphoreValue < 0) {
 360              		.loc 1 21 30
 361 01dc 130101FF 		addi	sp,sp,-16
 362              		.cfi_def_cfa_offset 16
 363 01e0 23341100 		sd	ra,8(sp)
 364 01e4 23308100 		sd	s0,0(sp)
 365              		.cfi_offset 1, -8
 366              		.cfi_offset 8, -16
 367 01e8 13040101 		addi	s0,sp,16
 368              		.cfi_def_cfa 8, 0
  23:src/Code/Semaphore/KernelSemaphore.cpp ****     }
 369              		.loc 1 23 8 is_stmt 1
  23:src/Code/Semaphore/KernelSemaphore.cpp ****     }
 370              		.loc 1 23 26 is_stmt 0
 371 01ec 97000000 		call	_ZN15KernelSemaphore18blockCurrentThreadEv
 371      E7800000 
 372              	.LVL31:
  25:src/Code/Semaphore/KernelSemaphore.cpp **** 
 373              		.loc 1 25 1
 374 01f4 83308100 		ld	ra,8(sp)
 375              		.cfi_restore 1
 376 01f8 03340100 		ld	s0,0(sp)
 377              		.cfi_restore 8
 378              		.cfi_def_cfa 2, 16
 379 01fc 13010101 		addi	sp,sp,16
 380              		.cfi_def_cfa_offset 0
 381 0200 67800000 		jr	ra
 382              		.cfi_endproc
 383              	.LFE53:
 385              		.align	2
 386              		.globl	_ZN15KernelSemaphore27removeThreadFromBlockedListEv
 388              	_ZN15KernelSemaphore27removeThreadFromBlockedListEv:
 389              	.LFB62:
  72:src/Code/Semaphore/KernelSemaphore.cpp **** 
  73:src/Code/Semaphore/KernelSemaphore.cpp **** TCB* KernelSemaphore::removeThreadFromBlockedList() {
 390              		.loc 1 73 53 is_stmt 1
GAS LISTING /tmp/ccxvoPhb.s 			page 11


 391              		.cfi_startproc
 392              	.LVL32:
 393 0204 130101FF 		addi	sp,sp,-16
 394              		.cfi_def_cfa_offset 16
 395 0208 23348100 		sd	s0,8(sp)
 396              		.cfi_offset 8, -8
 397 020c 13040101 		addi	s0,sp,16
 398              		.cfi_def_cfa 8, 0
 399 0210 93070500 		mv	a5,a0
  74:src/Code/Semaphore/KernelSemaphore.cpp ****     if (!blockedThreadsHead || !blockedThreadsTail) return nullptr;
 400              		.loc 1 74 5
 401              		.loc 1 74 10 is_stmt 0
 402 0214 03358500 		ld	a0,8(a0)
 403              	.LVL33:
 404              		.loc 1 74 5
 405 0218 630E0500 		beqz	a0,.L25
 406              		.loc 1 74 33 discriminator 2
 407 021c 03B70701 		ld	a4,16(a5)
 408              		.loc 1 74 29 discriminator 2
 409 0220 63040702 		beqz	a4,.L28
  75:src/Code/Semaphore/KernelSemaphore.cpp ****     TCB* oldThread = blockedThreadsHead;
 410              		.loc 1 75 5 is_stmt 1
 411              	.LVL34:
  76:src/Code/Semaphore/KernelSemaphore.cpp ****     blockedThreadsHead = blockedThreadsHead->getNextSemaphoreThread();
 412              		.loc 1 76 5
 413              	.LBB26:
 414              	.LBB27:
  55:src/Code/Semaphore/../../../h/Code/Semaphore/../Thread/TCB.hpp ****     void setNextSemaphoreThread(TCB* next) { semaphoreNextThread = next; }
 415              		.loc 3 55 43
  55:src/Code/Semaphore/../../../h/Code/Semaphore/../Thread/TCB.hpp ****     void setNextSemaphoreThread(TCB* next) { semaphoreNextThread = next; }
 416              		.loc 3 55 50 is_stmt 0
 417 0224 03370506 		ld	a4,96(a0)
 418              	.LVL35:
 419              	.LBE27:
 420              	.LBE26:
 421              		.loc 1 76 24
 422 0228 23B4E700 		sd	a4,8(a5)
  77:src/Code/Semaphore/KernelSemaphore.cpp ****     if (!blockedThreadsHead) blockedThreadsTail = nullptr;
 423              		.loc 1 77 5 is_stmt 1
 424 022c 630A0700 		beqz	a4,.L30
 425              	.L27:
  78:src/Code/Semaphore/KernelSemaphore.cpp ****     oldThread->setNextSemaphoreThread(nullptr);
 426              		.loc 1 78 5
 427              	.LVL36:
 428              	.LBB28:
 429              	.LBB29:
 430              		.loc 3 56 46
 431              		.loc 3 56 66 is_stmt 0
 432 0230 23300506 		sd	zero,96(a0)
 433              	.LVL37:
 434              	.LBE29:
 435              	.LBE28:
  79:src/Code/Semaphore/KernelSemaphore.cpp ****     return oldThread;
 436              		.loc 1 79 5 is_stmt 1
 437              	.L25:
  80:src/Code/Semaphore/KernelSemaphore.cpp **** }...
 438              		.loc 1 80 1 is_stmt 0
GAS LISTING /tmp/ccxvoPhb.s 			page 12


 439 0234 03348100 		ld	s0,8(sp)
 440              		.cfi_remember_state
 441              		.cfi_restore 8
 442              		.cfi_def_cfa 2, 16
 443 0238 13010101 		addi	sp,sp,16
 444              		.cfi_def_cfa_offset 0
 445 023c 67800000 		jr	ra
 446              	.LVL38:
 447              	.L30:
 448              		.cfi_restore_state
  77:src/Code/Semaphore/KernelSemaphore.cpp ****     if (!blockedThreadsHead) blockedThreadsTail = nullptr;
 449              		.loc 1 77 30 is_stmt 1 discriminator 1
  77:src/Code/Semaphore/KernelSemaphore.cpp ****     if (!blockedThreadsHead) blockedThreadsTail = nullptr;
 450              		.loc 1 77 49 is_stmt 0 discriminator 1
 451 0240 23B80700 		sd	zero,16(a5)
 452 0244 6FF0DFFE 		j	.L27
 453              	.LVL39:
 454              	.L28:
  74:src/Code/Semaphore/KernelSemaphore.cpp ****     if (!blockedThreadsHead || !blockedThreadsTail) return nullptr;
 455              		.loc 1 74 60
 456 0248 13050700 		mv	a0,a4
 457 024c 6FF09FFE 		j	.L25
 458              		.cfi_endproc
 459              	.LFE62:
 461              		.align	2
 462              		.globl	_ZN15KernelSemaphore24unblockFirstThreadInListEv
 464              	_ZN15KernelSemaphore24unblockFirstThreadInListEv:
 465              	.LFB60:
  56:src/Code/Semaphore/KernelSemaphore.cpp **** TCB* KernelSemaphore::unblockFirstThreadInList() {
 466              		.loc 1 56 50 is_stmt 1
 467              		.cfi_startproc
 468              	.LVL40:
 469 0250 130101FE 		addi	sp,sp,-32
 470              		.cfi_def_cfa_offset 32
 471 0254 233C1100 		sd	ra,24(sp)
 472 0258 23388100 		sd	s0,16(sp)
 473 025c 23349100 		sd	s1,8(sp)
 474              		.cfi_offset 1, -8
 475              		.cfi_offset 8, -16
 476              		.cfi_offset 9, -24
 477 0260 13040102 		addi	s0,sp,32
 478              		.cfi_def_cfa 8, 0
  57:src/Code/Semaphore/KernelSemaphore.cpp ****     TCB* tcb = removeThreadFromBlockedList();
 479              		.loc 1 57 5
  57:src/Code/Semaphore/KernelSemaphore.cpp ****     TCB* tcb = removeThreadFromBlockedList();
 480              		.loc 1 57 43 is_stmt 0
 481 0264 97000000 		call	_ZN15KernelSemaphore27removeThreadFromBlockedListEv
 481      E7800000 
 482              	.LVL41:
 483 026c 93040500 		mv	s1,a0
 484              	.LVL42:
  58:src/Code/Semaphore/KernelSemaphore.cpp ****     if (tcb) Scheduler::getInstance().put(tcb);
 485              		.loc 1 58 5 is_stmt 1
 486 0270 630C0500 		beqz	a0,.L31
  58:src/Code/Semaphore/KernelSemaphore.cpp ****     if (tcb) Scheduler::getInstance().put(tcb);
 487              		.loc 1 58 14 discriminator 1
  58:src/Code/Semaphore/KernelSemaphore.cpp ****     if (tcb) Scheduler::getInstance().put(tcb);
GAS LISTING /tmp/ccxvoPhb.s 			page 13


 488              		.loc 1 58 37 is_stmt 0 discriminator 1
 489 0274 97000000 		call	_ZN9Scheduler11getInstanceEv@plt
 489      E7800000 
 490              	.LVL43:
  58:src/Code/Semaphore/KernelSemaphore.cpp ****     if (tcb) Scheduler::getInstance().put(tcb);
 491              		.loc 1 58 42 discriminator 1
 492 027c 93850400 		mv	a1,s1
 493 0280 97000000 		call	_ZN9Scheduler3putEP3TCB@plt
 493      E7800000 
 494              	.LVL44:
  59:src/Code/Semaphore/KernelSemaphore.cpp ****     return tcb;
 495              		.loc 1 59 5 is_stmt 1 discriminator 1
 496              	.L31:
  60:src/Code/Semaphore/KernelSemaphore.cpp **** }
 497              		.loc 1 60 1 is_stmt 0
 498 0288 13850400 		mv	a0,s1
 499 028c 83308101 		ld	ra,24(sp)
 500              		.cfi_restore 1
 501 0290 03340101 		ld	s0,16(sp)
 502              		.cfi_restore 8
 503              		.cfi_def_cfa 2, 32
 504 0294 83348100 		ld	s1,8(sp)
 505              		.cfi_restore 9
 506              	.LVL45:
 507 0298 13010102 		addi	sp,sp,32
 508              		.cfi_def_cfa_offset 0
 509 029c 67800000 		jr	ra
 510              		.cfi_endproc
 511              	.LFE60:
 513              		.align	2
 514              		.globl	_ZN15KernelSemaphore14closeSemaphoreEPS_
 516              	_ZN15KernelSemaphore14closeSemaphoreEPS_:
 517              	.LFB52:
  12:src/Code/Semaphore/KernelSemaphore.cpp **** int KernelSemaphore::closeSemaphore(KernelSemaphore *semaphore) {
 518              		.loc 1 12 65 is_stmt 1
 519              		.cfi_startproc
 520              	.LVL46:
 521 02a0 130101FE 		addi	sp,sp,-32
 522              		.cfi_def_cfa_offset 32
 523 02a4 233C1100 		sd	ra,24(sp)
 524 02a8 23388100 		sd	s0,16(sp)
 525 02ac 23349100 		sd	s1,8(sp)
 526              		.cfi_offset 1, -8
 527              		.cfi_offset 8, -16
 528              		.cfi_offset 9, -24
 529 02b0 13040102 		addi	s0,sp,32
 530              		.cfi_def_cfa 8, 0
 531 02b4 93040500 		mv	s1,a0
  13:src/Code/Semaphore/KernelSemaphore.cpp ****     if (!semaphore) return -1;
 532              		.loc 1 13 5
 533 02b8 63040502 		beqz	a0,.L38
 534              	.LVL47:
 535              	.L36:
  14:src/Code/Semaphore/KernelSemaphore.cpp ****     while (semaphore->blockedThreadsHead) {
 536              		.loc 1 14 5
  14:src/Code/Semaphore/KernelSemaphore.cpp ****     while (semaphore->blockedThreadsHead) {
 537              		.loc 1 14 23
GAS LISTING /tmp/ccxvoPhb.s 			page 14


 538 02bc 83B78400 		ld	a5,8(s1)
 539 02c0 63840702 		beqz	a5,.L39
 540              	.LBB30:
  15:src/Code/Semaphore/KernelSemaphore.cpp ****         TCB* unblockedThread = semaphore->unblockFirstThreadInList(); // odblokiranje svih niti koj
 541              		.loc 1 15 9
  15:src/Code/Semaphore/KernelSemaphore.cpp ****         TCB* unblockedThread = semaphore->unblockFirstThreadInList(); // odblokiranje svih niti koj
 542              		.loc 1 15 67 is_stmt 0
 543 02c4 13850400 		mv	a0,s1
 544 02c8 97000000 		call	_ZN15KernelSemaphore24unblockFirstThreadInListEv
 544      E7800000 
 545              	.LVL48:
  16:src/Code/Semaphore/KernelSemaphore.cpp ****         if (unblockedThread) unblockedThread->setWaitSemaphoreFailed(true); // sem_wait sistemski p
 546              		.loc 1 16 9 is_stmt 1
 547 02d0 E30605FE 		beqz	a0,.L36
  16:src/Code/Semaphore/KernelSemaphore.cpp ****         if (unblockedThread) unblockedThread->setWaitSemaphoreFailed(true); // sem_wait sistemski p
 548              		.loc 1 16 30
 549              	.LVL49:
 550              	.LBB31:
 551              	.LBB32:
  57:src/Code/Semaphore/../../../h/Code/Semaphore/../Thread/TCB.hpp ****     // ove metode sluze za postavljanje i dohvatanje flag-a koji nam govori da li je tekuca nit nas
  58:src/Code/Semaphore/../../../h/Code/Semaphore/../Thread/TCB.hpp ****     // semafor na kojem je ona cekala zatvoren sistemskim pozivom sem_close - u tom slucaju sem_wai
  59:src/Code/Semaphore/../../../h/Code/Semaphore/../Thread/TCB.hpp ****     void setWaitSemaphoreFailed(bool value) { waitSemaphoreFailed = value; }
 552              		.loc 3 59 47
 553              		.loc 3 59 67 is_stmt 0
 554 02d4 93071000 		li	a5,1
 555 02d8 2304F506 		sb	a5,104(a0)
 556              		.loc 3 59 76
 557 02dc 6FF01FFE 		j	.L36
 558              	.LVL50:
 559              	.L38:
 560              	.LBE32:
 561              	.LBE31:
 562              	.LBE30:
  13:src/Code/Semaphore/KernelSemaphore.cpp ****     if (!semaphore) return -1;
 563              		.loc 1 13 29
 564 02e0 1305F0FF 		li	a0,-1
 565 02e4 6F008000 		j	.L35
 566              	.L39:
  18:src/Code/Semaphore/KernelSemaphore.cpp ****     return 0;
 567              		.loc 1 18 12
 568 02e8 13050000 		li	a0,0
 569              	.L35:
  19:src/Code/Semaphore/KernelSemaphore.cpp **** }
 570              		.loc 1 19 1
 571 02ec 83308101 		ld	ra,24(sp)
 572              		.cfi_restore 1
 573 02f0 03340101 		ld	s0,16(sp)
 574              		.cfi_restore 8
 575              		.cfi_def_cfa 2, 32
 576 02f4 83348100 		ld	s1,8(sp)
 577              		.cfi_restore 9
 578              	.LVL51:
 579 02f8 13010102 		addi	sp,sp,32
 580              		.cfi_def_cfa_offset 0
 581 02fc 67800000 		jr	ra
 582              		.cfi_endproc
 583              	.LFE52:
GAS LISTING /tmp/ccxvoPhb.s 			page 15


 585              		.align	2
 586              		.globl	_ZN15KernelSemaphoreD2Ev
 588              	_ZN15KernelSemaphoreD2Ev:
 589              	.LFB49:
   4:src/Code/Semaphore/KernelSemaphore.cpp **** KernelSemaphore::~KernelSemaphore() {
 590              		.loc 1 4 1 is_stmt 1
 591              		.cfi_startproc
 592              		.cfi_personality 0x9b,DW.ref.__gxx_personality_v0
 593              		.cfi_lsda 0x1b,.LLSDA49
 594              	.LVL52:
 595 0300 130101FF 		addi	sp,sp,-16
 596              		.cfi_def_cfa_offset 16
 597 0304 23341100 		sd	ra,8(sp)
 598 0308 23308100 		sd	s0,0(sp)
 599              		.cfi_offset 1, -8
 600              		.cfi_offset 8, -16
 601 030c 13040101 		addi	s0,sp,16
 602              		.cfi_def_cfa 8, 0
 603              	.LBB33:
   5:src/Code/Semaphore/KernelSemaphore.cpp ****     KernelSemaphore::closeSemaphore(this);
 604              		.loc 1 5 5
   5:src/Code/Semaphore/KernelSemaphore.cpp ****     KernelSemaphore::closeSemaphore(this);
 605              		.loc 1 5 36 is_stmt 0
 606 0310 97000000 		call	_ZN15KernelSemaphore14closeSemaphoreEPS_
 606      E7800000 
 607              	.LVL53:
 608              	.LBE33:
   6:src/Code/Semaphore/KernelSemaphore.cpp **** }
 609              		.loc 1 6 1
 610 0318 83308100 		ld	ra,8(sp)
 611              		.cfi_restore 1
 612 031c 03340100 		ld	s0,0(sp)
 613              		.cfi_restore 8
 614              		.cfi_def_cfa 2, 16
 615 0320 13010101 		addi	sp,sp,16
 616              		.cfi_def_cfa_offset 0
 617 0324 67800000 		jr	ra
 618              		.cfi_endproc
 619              	.LFE49:
 620              		.globl	__gxx_personality_v0
 621              		.section	.gcc_except_table,"a",@progbits
 622              	.LLSDA49:
 623 0000 FF       		.byte	0xff
 624 0001 FF       		.byte	0xff
 625 0002 03       		.byte	0x3
 626 0003 00       		.byte	0
 627              		.text
 629              		.globl	_ZN15KernelSemaphoreD1Ev
 630              		.set	_ZN15KernelSemaphoreD1Ev,_ZN15KernelSemaphoreD2Ev
 631              		.align	2
 632              		.globl	_ZN15KernelSemaphore6signalEv
 634              	_ZN15KernelSemaphore6signalEv:
 635              	.LFB54:
  27:src/Code/Semaphore/KernelSemaphore.cpp **** void KernelSemaphore::signal() {
 636              		.loc 1 27 32 is_stmt 1
 637              		.cfi_startproc
 638              	.LVL54:
GAS LISTING /tmp/ccxvoPhb.s 			page 16


  28:src/Code/Semaphore/KernelSemaphore.cpp ****     if (++semaphoreValue <= 0) {
 639              		.loc 1 28 5
  28:src/Code/Semaphore/KernelSemaphore.cpp ****     if (++semaphoreValue <= 0) {
 640              		.loc 1 28 11 is_stmt 0
 641 0328 83270500 		lw	a5,0(a0)
  28:src/Code/Semaphore/KernelSemaphore.cpp ****     if (++semaphoreValue <= 0) {
 642              		.loc 1 28 9
 643 032c 9B871700 		addiw	a5,a5,1
 644 0330 1B870700 		sext.w	a4,a5
  28:src/Code/Semaphore/KernelSemaphore.cpp ****     if (++semaphoreValue <= 0) {
 645              		.loc 1 28 26
 646 0334 2320F500 		sw	a5,0(a0)
  28:src/Code/Semaphore/KernelSemaphore.cpp ****     if (++semaphoreValue <= 0) {
 647              		.loc 1 28 5
 648 0338 6354E000 		blez	a4,.L49
 649 033c 67800000 		ret
 650              	.L49:
  27:src/Code/Semaphore/KernelSemaphore.cpp **** void KernelSemaphore::signal() {
 651              		.loc 1 27 32
 652 0340 130101FF 		addi	sp,sp,-16
 653              		.cfi_def_cfa_offset 16
 654 0344 23341100 		sd	ra,8(sp)
 655 0348 23308100 		sd	s0,0(sp)
 656              		.cfi_offset 1, -8
 657              		.cfi_offset 8, -16
 658 034c 13040101 		addi	s0,sp,16
 659              		.cfi_def_cfa 8, 0
  29:src/Code/Semaphore/KernelSemaphore.cpp ****         unblockFirstThreadInList();
 660              		.loc 1 29 9 is_stmt 1
  29:src/Code/Semaphore/KernelSemaphore.cpp ****         unblockFirstThreadInList();
 661              		.loc 1 29 33 is_stmt 0
 662 0350 97000000 		call	_ZN15KernelSemaphore24unblockFirstThreadInListEv
 662      E7800000 
 663              	.LVL55:
  31:src/Code/Semaphore/KernelSemaphore.cpp **** }
 664              		.loc 1 31 1
 665 0358 83308100 		ld	ra,8(sp)
 666              		.cfi_restore 1
 667 035c 03340100 		ld	s0,0(sp)
 668              		.cfi_restore 8
 669              		.cfi_def_cfa 2, 16
 670 0360 13010101 		addi	sp,sp,16
 671              		.cfi_def_cfa_offset 0
 672 0364 67800000 		jr	ra
 673              		.cfi_endproc
 674              	.LFE54:
 676              	.Letext0:
 677              		.file 4 "src/Code/Semaphore/../../../h/Code/Semaphore/../Thread/../../../lib/hw.h"
 678              		.file 5 "src/Code/Semaphore/../../../h/Code/Semaphore/../Thread/../Scheduler/Scheduler.hpp"
 679              		.file 6 "src/Code/Semaphore/../../../h/Code/MemoryAllocator/MemoryAllocator.hpp"
 4262              		.align	3
 4265              	DW.ref.__gxx_personality_v0:
 4266 0000 00000000 		.dword	__gxx_personality_v0
 4266      00000000 
 4267              		.ident	"GCC: (Ubuntu 9.4.0-1ubuntu1~20.04) 9.4.0"
 4268              		.section	.note.GNU-stack,"",@progbits
GAS LISTING /tmp/ccxvoPhb.s 			page 17

